ARM GAS  /tmp/ccrT5O1S.s 			page 1


   1              		.cpu cortex-m7
   2              		.eabi_attribute 28, 1
   3              		.eabi_attribute 20, 1
   4              		.eabi_attribute 21, 1
   5              		.eabi_attribute 23, 3
   6              		.eabi_attribute 24, 1
   7              		.eabi_attribute 25, 1
   8              		.eabi_attribute 26, 1
   9              		.eabi_attribute 30, 1
  10              		.eabi_attribute 34, 1
  11              		.eabi_attribute 18, 4
  12              		.file	"event_groups.c"
  13              		.text
  14              	.Ltext0:
  15              		.cfi_sections	.debug_frame
  16              		.section	.text.prvTestWaitCondition,"ax",%progbits
  17              		.align	1
  18              		.arch armv7e-m
  19              		.syntax unified
  20              		.thumb
  21              		.thumb_func
  22              		.fpu fpv5-d16
  24              	prvTestWaitCondition:
  25              	.LVL0:
  26              	.LFB15:
  27              		.file 1 "Middlewares/Third_Party/FreeRTOS/Source/event_groups.c"
   1:Middlewares/Third_Party/FreeRTOS/Source/event_groups.c **** /*
   2:Middlewares/Third_Party/FreeRTOS/Source/event_groups.c ****  * FreeRTOS Kernel V10.0.1
   3:Middlewares/Third_Party/FreeRTOS/Source/event_groups.c ****  * Copyright (C) 2017 Amazon.com, Inc. or its affiliates.  All Rights Reserved.
   4:Middlewares/Third_Party/FreeRTOS/Source/event_groups.c ****  *
   5:Middlewares/Third_Party/FreeRTOS/Source/event_groups.c ****  * Permission is hereby granted, free of charge, to any person obtaining a copy of
   6:Middlewares/Third_Party/FreeRTOS/Source/event_groups.c ****  * this software and associated documentation files (the "Software"), to deal in
   7:Middlewares/Third_Party/FreeRTOS/Source/event_groups.c ****  * the Software without restriction, including without limitation the rights to
   8:Middlewares/Third_Party/FreeRTOS/Source/event_groups.c ****  * use, copy, modify, merge, publish, distribute, sublicense, and/or sell copies of
   9:Middlewares/Third_Party/FreeRTOS/Source/event_groups.c ****  * the Software, and to permit persons to whom the Software is furnished to do so,
  10:Middlewares/Third_Party/FreeRTOS/Source/event_groups.c ****  * subject to the following conditions:
  11:Middlewares/Third_Party/FreeRTOS/Source/event_groups.c ****  *
  12:Middlewares/Third_Party/FreeRTOS/Source/event_groups.c ****  * The above copyright notice and this permission notice shall be included in all
  13:Middlewares/Third_Party/FreeRTOS/Source/event_groups.c ****  * copies or substantial portions of the Software.
  14:Middlewares/Third_Party/FreeRTOS/Source/event_groups.c ****  *
  15:Middlewares/Third_Party/FreeRTOS/Source/event_groups.c ****  * THE SOFTWARE IS PROVIDED "AS IS", WITHOUT WARRANTY OF ANY KIND, EXPRESS OR
  16:Middlewares/Third_Party/FreeRTOS/Source/event_groups.c ****  * IMPLIED, INCLUDING BUT NOT LIMITED TO THE WARRANTIES OF MERCHANTABILITY, FITNESS
  17:Middlewares/Third_Party/FreeRTOS/Source/event_groups.c ****  * FOR A PARTICULAR PURPOSE AND NONINFRINGEMENT. IN NO EVENT SHALL THE AUTHORS OR
  18:Middlewares/Third_Party/FreeRTOS/Source/event_groups.c ****  * COPYRIGHT HOLDERS BE LIABLE FOR ANY CLAIM, DAMAGES OR OTHER LIABILITY, WHETHER
  19:Middlewares/Third_Party/FreeRTOS/Source/event_groups.c ****  * IN AN ACTION OF CONTRACT, TORT OR OTHERWISE, ARISING FROM, OUT OF OR IN
  20:Middlewares/Third_Party/FreeRTOS/Source/event_groups.c ****  * CONNECTION WITH THE SOFTWARE OR THE USE OR OTHER DEALINGS IN THE SOFTWARE.
  21:Middlewares/Third_Party/FreeRTOS/Source/event_groups.c ****  *
  22:Middlewares/Third_Party/FreeRTOS/Source/event_groups.c ****  * http://www.FreeRTOS.org
  23:Middlewares/Third_Party/FreeRTOS/Source/event_groups.c ****  * http://aws.amazon.com/freertos
  24:Middlewares/Third_Party/FreeRTOS/Source/event_groups.c ****  *
  25:Middlewares/Third_Party/FreeRTOS/Source/event_groups.c ****  * 1 tab == 4 spaces!
  26:Middlewares/Third_Party/FreeRTOS/Source/event_groups.c ****  */
  27:Middlewares/Third_Party/FreeRTOS/Source/event_groups.c **** 
  28:Middlewares/Third_Party/FreeRTOS/Source/event_groups.c **** /* Standard includes. */
  29:Middlewares/Third_Party/FreeRTOS/Source/event_groups.c **** #include <stdlib.h>
  30:Middlewares/Third_Party/FreeRTOS/Source/event_groups.c **** 
  31:Middlewares/Third_Party/FreeRTOS/Source/event_groups.c **** /* Defining MPU_WRAPPERS_INCLUDED_FROM_API_FILE prevents task.h from redefining
ARM GAS  /tmp/ccrT5O1S.s 			page 2


  32:Middlewares/Third_Party/FreeRTOS/Source/event_groups.c **** all the API functions to use the MPU wrappers.  That should only be done when
  33:Middlewares/Third_Party/FreeRTOS/Source/event_groups.c **** task.h is included from an application file. */
  34:Middlewares/Third_Party/FreeRTOS/Source/event_groups.c **** #define MPU_WRAPPERS_INCLUDED_FROM_API_FILE
  35:Middlewares/Third_Party/FreeRTOS/Source/event_groups.c **** 
  36:Middlewares/Third_Party/FreeRTOS/Source/event_groups.c **** /* FreeRTOS includes. */
  37:Middlewares/Third_Party/FreeRTOS/Source/event_groups.c **** #include "FreeRTOS.h"
  38:Middlewares/Third_Party/FreeRTOS/Source/event_groups.c **** #include "task.h"
  39:Middlewares/Third_Party/FreeRTOS/Source/event_groups.c **** #include "timers.h"
  40:Middlewares/Third_Party/FreeRTOS/Source/event_groups.c **** #include "event_groups.h"
  41:Middlewares/Third_Party/FreeRTOS/Source/event_groups.c **** 
  42:Middlewares/Third_Party/FreeRTOS/Source/event_groups.c **** /* Lint e961 and e750 are suppressed as a MISRA exception justified because the
  43:Middlewares/Third_Party/FreeRTOS/Source/event_groups.c **** MPU ports require MPU_WRAPPERS_INCLUDED_FROM_API_FILE to be defined for the
  44:Middlewares/Third_Party/FreeRTOS/Source/event_groups.c **** header files above, but not in this file, in order to generate the correct
  45:Middlewares/Third_Party/FreeRTOS/Source/event_groups.c **** privileged Vs unprivileged linkage and placement. */
  46:Middlewares/Third_Party/FreeRTOS/Source/event_groups.c **** #undef MPU_WRAPPERS_INCLUDED_FROM_API_FILE /*lint !e961 !e750. */
  47:Middlewares/Third_Party/FreeRTOS/Source/event_groups.c **** 
  48:Middlewares/Third_Party/FreeRTOS/Source/event_groups.c **** /* The following bit fields convey control information in a task's event list
  49:Middlewares/Third_Party/FreeRTOS/Source/event_groups.c **** item value.  It is important they don't clash with the
  50:Middlewares/Third_Party/FreeRTOS/Source/event_groups.c **** taskEVENT_LIST_ITEM_VALUE_IN_USE definition. */
  51:Middlewares/Third_Party/FreeRTOS/Source/event_groups.c **** #if configUSE_16_BIT_TICKS == 1
  52:Middlewares/Third_Party/FreeRTOS/Source/event_groups.c **** 	#define eventCLEAR_EVENTS_ON_EXIT_BIT	0x0100U
  53:Middlewares/Third_Party/FreeRTOS/Source/event_groups.c **** 	#define eventUNBLOCKED_DUE_TO_BIT_SET	0x0200U
  54:Middlewares/Third_Party/FreeRTOS/Source/event_groups.c **** 	#define eventWAIT_FOR_ALL_BITS			0x0400U
  55:Middlewares/Third_Party/FreeRTOS/Source/event_groups.c **** 	#define eventEVENT_BITS_CONTROL_BYTES	0xff00U
  56:Middlewares/Third_Party/FreeRTOS/Source/event_groups.c **** #else
  57:Middlewares/Third_Party/FreeRTOS/Source/event_groups.c **** 	#define eventCLEAR_EVENTS_ON_EXIT_BIT	0x01000000UL
  58:Middlewares/Third_Party/FreeRTOS/Source/event_groups.c **** 	#define eventUNBLOCKED_DUE_TO_BIT_SET	0x02000000UL
  59:Middlewares/Third_Party/FreeRTOS/Source/event_groups.c **** 	#define eventWAIT_FOR_ALL_BITS			0x04000000UL
  60:Middlewares/Third_Party/FreeRTOS/Source/event_groups.c **** 	#define eventEVENT_BITS_CONTROL_BYTES	0xff000000UL
  61:Middlewares/Third_Party/FreeRTOS/Source/event_groups.c **** #endif
  62:Middlewares/Third_Party/FreeRTOS/Source/event_groups.c **** 
  63:Middlewares/Third_Party/FreeRTOS/Source/event_groups.c **** typedef struct xEventGroupDefinition
  64:Middlewares/Third_Party/FreeRTOS/Source/event_groups.c **** {
  65:Middlewares/Third_Party/FreeRTOS/Source/event_groups.c **** 	EventBits_t uxEventBits;
  66:Middlewares/Third_Party/FreeRTOS/Source/event_groups.c **** 	List_t xTasksWaitingForBits;		/*< List of tasks waiting for a bit to be set. */
  67:Middlewares/Third_Party/FreeRTOS/Source/event_groups.c **** 
  68:Middlewares/Third_Party/FreeRTOS/Source/event_groups.c **** 	#if( configUSE_TRACE_FACILITY == 1 )
  69:Middlewares/Third_Party/FreeRTOS/Source/event_groups.c **** 		UBaseType_t uxEventGroupNumber;
  70:Middlewares/Third_Party/FreeRTOS/Source/event_groups.c **** 	#endif
  71:Middlewares/Third_Party/FreeRTOS/Source/event_groups.c **** 
  72:Middlewares/Third_Party/FreeRTOS/Source/event_groups.c **** 	#if( ( configSUPPORT_STATIC_ALLOCATION == 1 ) && ( configSUPPORT_DYNAMIC_ALLOCATION == 1 ) )
  73:Middlewares/Third_Party/FreeRTOS/Source/event_groups.c **** 		uint8_t ucStaticallyAllocated; /*< Set to pdTRUE if the event group is statically allocated to en
  74:Middlewares/Third_Party/FreeRTOS/Source/event_groups.c **** 	#endif
  75:Middlewares/Third_Party/FreeRTOS/Source/event_groups.c **** } EventGroup_t;
  76:Middlewares/Third_Party/FreeRTOS/Source/event_groups.c **** 
  77:Middlewares/Third_Party/FreeRTOS/Source/event_groups.c **** /*-----------------------------------------------------------*/
  78:Middlewares/Third_Party/FreeRTOS/Source/event_groups.c **** 
  79:Middlewares/Third_Party/FreeRTOS/Source/event_groups.c **** /*
  80:Middlewares/Third_Party/FreeRTOS/Source/event_groups.c ****  * Test the bits set in uxCurrentEventBits to see if the wait condition is met.
  81:Middlewares/Third_Party/FreeRTOS/Source/event_groups.c ****  * The wait condition is defined by xWaitForAllBits.  If xWaitForAllBits is
  82:Middlewares/Third_Party/FreeRTOS/Source/event_groups.c ****  * pdTRUE then the wait condition is met if all the bits set in uxBitsToWaitFor
  83:Middlewares/Third_Party/FreeRTOS/Source/event_groups.c ****  * are also set in uxCurrentEventBits.  If xWaitForAllBits is pdFALSE then the
  84:Middlewares/Third_Party/FreeRTOS/Source/event_groups.c ****  * wait condition is met if any of the bits set in uxBitsToWait for are also set
  85:Middlewares/Third_Party/FreeRTOS/Source/event_groups.c ****  * in uxCurrentEventBits.
  86:Middlewares/Third_Party/FreeRTOS/Source/event_groups.c ****  */
  87:Middlewares/Third_Party/FreeRTOS/Source/event_groups.c **** static BaseType_t prvTestWaitCondition( const EventBits_t uxCurrentEventBits, const EventBits_t uxB
  88:Middlewares/Third_Party/FreeRTOS/Source/event_groups.c **** 
ARM GAS  /tmp/ccrT5O1S.s 			page 3


  89:Middlewares/Third_Party/FreeRTOS/Source/event_groups.c **** /*-----------------------------------------------------------*/
  90:Middlewares/Third_Party/FreeRTOS/Source/event_groups.c **** 
  91:Middlewares/Third_Party/FreeRTOS/Source/event_groups.c **** #if( configSUPPORT_STATIC_ALLOCATION == 1 )
  92:Middlewares/Third_Party/FreeRTOS/Source/event_groups.c **** 
  93:Middlewares/Third_Party/FreeRTOS/Source/event_groups.c **** 	EventGroupHandle_t xEventGroupCreateStatic( StaticEventGroup_t *pxEventGroupBuffer )
  94:Middlewares/Third_Party/FreeRTOS/Source/event_groups.c **** 	{
  95:Middlewares/Third_Party/FreeRTOS/Source/event_groups.c **** 	EventGroup_t *pxEventBits;
  96:Middlewares/Third_Party/FreeRTOS/Source/event_groups.c **** 
  97:Middlewares/Third_Party/FreeRTOS/Source/event_groups.c **** 		/* A StaticEventGroup_t object must be provided. */
  98:Middlewares/Third_Party/FreeRTOS/Source/event_groups.c **** 		configASSERT( pxEventGroupBuffer );
  99:Middlewares/Third_Party/FreeRTOS/Source/event_groups.c **** 
 100:Middlewares/Third_Party/FreeRTOS/Source/event_groups.c **** 		#if( configASSERT_DEFINED == 1 )
 101:Middlewares/Third_Party/FreeRTOS/Source/event_groups.c **** 		{
 102:Middlewares/Third_Party/FreeRTOS/Source/event_groups.c **** 			/* Sanity check that the size of the structure used to declare a
 103:Middlewares/Third_Party/FreeRTOS/Source/event_groups.c **** 			variable of type StaticEventGroup_t equals the size of the real
 104:Middlewares/Third_Party/FreeRTOS/Source/event_groups.c **** 			event group structure. */
 105:Middlewares/Third_Party/FreeRTOS/Source/event_groups.c **** 			volatile size_t xSize = sizeof( StaticEventGroup_t );
 106:Middlewares/Third_Party/FreeRTOS/Source/event_groups.c **** 			configASSERT( xSize == sizeof( EventGroup_t ) );
 107:Middlewares/Third_Party/FreeRTOS/Source/event_groups.c **** 		}
 108:Middlewares/Third_Party/FreeRTOS/Source/event_groups.c **** 		#endif /* configASSERT_DEFINED */
 109:Middlewares/Third_Party/FreeRTOS/Source/event_groups.c **** 
 110:Middlewares/Third_Party/FreeRTOS/Source/event_groups.c **** 		/* The user has provided a statically allocated event group - use it. */
 111:Middlewares/Third_Party/FreeRTOS/Source/event_groups.c **** 		pxEventBits = ( EventGroup_t * ) pxEventGroupBuffer; /*lint !e740 EventGroup_t and StaticEventGro
 112:Middlewares/Third_Party/FreeRTOS/Source/event_groups.c **** 
 113:Middlewares/Third_Party/FreeRTOS/Source/event_groups.c **** 		if( pxEventBits != NULL )
 114:Middlewares/Third_Party/FreeRTOS/Source/event_groups.c **** 		{
 115:Middlewares/Third_Party/FreeRTOS/Source/event_groups.c **** 			pxEventBits->uxEventBits = 0;
 116:Middlewares/Third_Party/FreeRTOS/Source/event_groups.c **** 			vListInitialise( &( pxEventBits->xTasksWaitingForBits ) );
 117:Middlewares/Third_Party/FreeRTOS/Source/event_groups.c **** 
 118:Middlewares/Third_Party/FreeRTOS/Source/event_groups.c **** 			#if( configSUPPORT_DYNAMIC_ALLOCATION == 1 )
 119:Middlewares/Third_Party/FreeRTOS/Source/event_groups.c **** 			{
 120:Middlewares/Third_Party/FreeRTOS/Source/event_groups.c **** 				/* Both static and dynamic allocation can be used, so note that
 121:Middlewares/Third_Party/FreeRTOS/Source/event_groups.c **** 				this event group was created statically in case the event group
 122:Middlewares/Third_Party/FreeRTOS/Source/event_groups.c **** 				is later deleted. */
 123:Middlewares/Third_Party/FreeRTOS/Source/event_groups.c **** 				pxEventBits->ucStaticallyAllocated = pdTRUE;
 124:Middlewares/Third_Party/FreeRTOS/Source/event_groups.c **** 			}
 125:Middlewares/Third_Party/FreeRTOS/Source/event_groups.c **** 			#endif /* configSUPPORT_DYNAMIC_ALLOCATION */
 126:Middlewares/Third_Party/FreeRTOS/Source/event_groups.c **** 
 127:Middlewares/Third_Party/FreeRTOS/Source/event_groups.c **** 			traceEVENT_GROUP_CREATE( pxEventBits );
 128:Middlewares/Third_Party/FreeRTOS/Source/event_groups.c **** 		}
 129:Middlewares/Third_Party/FreeRTOS/Source/event_groups.c **** 		else
 130:Middlewares/Third_Party/FreeRTOS/Source/event_groups.c **** 		{
 131:Middlewares/Third_Party/FreeRTOS/Source/event_groups.c **** 			traceEVENT_GROUP_CREATE_FAILED();
 132:Middlewares/Third_Party/FreeRTOS/Source/event_groups.c **** 		}
 133:Middlewares/Third_Party/FreeRTOS/Source/event_groups.c **** 
 134:Middlewares/Third_Party/FreeRTOS/Source/event_groups.c **** 		return ( EventGroupHandle_t ) pxEventBits;
 135:Middlewares/Third_Party/FreeRTOS/Source/event_groups.c **** 	}
 136:Middlewares/Third_Party/FreeRTOS/Source/event_groups.c **** 
 137:Middlewares/Third_Party/FreeRTOS/Source/event_groups.c **** #endif /* configSUPPORT_STATIC_ALLOCATION */
 138:Middlewares/Third_Party/FreeRTOS/Source/event_groups.c **** /*-----------------------------------------------------------*/
 139:Middlewares/Third_Party/FreeRTOS/Source/event_groups.c **** 
 140:Middlewares/Third_Party/FreeRTOS/Source/event_groups.c **** #if( configSUPPORT_DYNAMIC_ALLOCATION == 1 )
 141:Middlewares/Third_Party/FreeRTOS/Source/event_groups.c **** 
 142:Middlewares/Third_Party/FreeRTOS/Source/event_groups.c **** 	EventGroupHandle_t xEventGroupCreate( void )
 143:Middlewares/Third_Party/FreeRTOS/Source/event_groups.c **** 	{
 144:Middlewares/Third_Party/FreeRTOS/Source/event_groups.c **** 	EventGroup_t *pxEventBits;
 145:Middlewares/Third_Party/FreeRTOS/Source/event_groups.c **** 
ARM GAS  /tmp/ccrT5O1S.s 			page 4


 146:Middlewares/Third_Party/FreeRTOS/Source/event_groups.c **** 		/* Allocate the event group. */
 147:Middlewares/Third_Party/FreeRTOS/Source/event_groups.c **** 		pxEventBits = ( EventGroup_t * ) pvPortMalloc( sizeof( EventGroup_t ) );
 148:Middlewares/Third_Party/FreeRTOS/Source/event_groups.c **** 
 149:Middlewares/Third_Party/FreeRTOS/Source/event_groups.c **** 		if( pxEventBits != NULL )
 150:Middlewares/Third_Party/FreeRTOS/Source/event_groups.c **** 		{
 151:Middlewares/Third_Party/FreeRTOS/Source/event_groups.c **** 			pxEventBits->uxEventBits = 0;
 152:Middlewares/Third_Party/FreeRTOS/Source/event_groups.c **** 			vListInitialise( &( pxEventBits->xTasksWaitingForBits ) );
 153:Middlewares/Third_Party/FreeRTOS/Source/event_groups.c **** 
 154:Middlewares/Third_Party/FreeRTOS/Source/event_groups.c **** 			#if( configSUPPORT_STATIC_ALLOCATION == 1 )
 155:Middlewares/Third_Party/FreeRTOS/Source/event_groups.c **** 			{
 156:Middlewares/Third_Party/FreeRTOS/Source/event_groups.c **** 				/* Both static and dynamic allocation can be used, so note this
 157:Middlewares/Third_Party/FreeRTOS/Source/event_groups.c **** 				event group was allocated statically in case the event group is
 158:Middlewares/Third_Party/FreeRTOS/Source/event_groups.c **** 				later deleted. */
 159:Middlewares/Third_Party/FreeRTOS/Source/event_groups.c **** 				pxEventBits->ucStaticallyAllocated = pdFALSE;
 160:Middlewares/Third_Party/FreeRTOS/Source/event_groups.c **** 			}
 161:Middlewares/Third_Party/FreeRTOS/Source/event_groups.c **** 			#endif /* configSUPPORT_STATIC_ALLOCATION */
 162:Middlewares/Third_Party/FreeRTOS/Source/event_groups.c **** 
 163:Middlewares/Third_Party/FreeRTOS/Source/event_groups.c **** 			traceEVENT_GROUP_CREATE( pxEventBits );
 164:Middlewares/Third_Party/FreeRTOS/Source/event_groups.c **** 		}
 165:Middlewares/Third_Party/FreeRTOS/Source/event_groups.c **** 		else
 166:Middlewares/Third_Party/FreeRTOS/Source/event_groups.c **** 		{
 167:Middlewares/Third_Party/FreeRTOS/Source/event_groups.c **** 			traceEVENT_GROUP_CREATE_FAILED();
 168:Middlewares/Third_Party/FreeRTOS/Source/event_groups.c **** 		}
 169:Middlewares/Third_Party/FreeRTOS/Source/event_groups.c **** 
 170:Middlewares/Third_Party/FreeRTOS/Source/event_groups.c **** 		return ( EventGroupHandle_t ) pxEventBits;
 171:Middlewares/Third_Party/FreeRTOS/Source/event_groups.c **** 	}
 172:Middlewares/Third_Party/FreeRTOS/Source/event_groups.c **** 
 173:Middlewares/Third_Party/FreeRTOS/Source/event_groups.c **** #endif /* configSUPPORT_DYNAMIC_ALLOCATION */
 174:Middlewares/Third_Party/FreeRTOS/Source/event_groups.c **** /*-----------------------------------------------------------*/
 175:Middlewares/Third_Party/FreeRTOS/Source/event_groups.c **** 
 176:Middlewares/Third_Party/FreeRTOS/Source/event_groups.c **** EventBits_t xEventGroupSync( EventGroupHandle_t xEventGroup, const EventBits_t uxBitsToSet, const E
 177:Middlewares/Third_Party/FreeRTOS/Source/event_groups.c **** {
 178:Middlewares/Third_Party/FreeRTOS/Source/event_groups.c **** EventBits_t uxOriginalBitValue, uxReturn;
 179:Middlewares/Third_Party/FreeRTOS/Source/event_groups.c **** EventGroup_t *pxEventBits = ( EventGroup_t * ) xEventGroup;
 180:Middlewares/Third_Party/FreeRTOS/Source/event_groups.c **** BaseType_t xAlreadyYielded;
 181:Middlewares/Third_Party/FreeRTOS/Source/event_groups.c **** BaseType_t xTimeoutOccurred = pdFALSE;
 182:Middlewares/Third_Party/FreeRTOS/Source/event_groups.c **** 
 183:Middlewares/Third_Party/FreeRTOS/Source/event_groups.c **** 	configASSERT( ( uxBitsToWaitFor & eventEVENT_BITS_CONTROL_BYTES ) == 0 );
 184:Middlewares/Third_Party/FreeRTOS/Source/event_groups.c **** 	configASSERT( uxBitsToWaitFor != 0 );
 185:Middlewares/Third_Party/FreeRTOS/Source/event_groups.c **** 	#if ( ( INCLUDE_xTaskGetSchedulerState == 1 ) || ( configUSE_TIMERS == 1 ) )
 186:Middlewares/Third_Party/FreeRTOS/Source/event_groups.c **** 	{
 187:Middlewares/Third_Party/FreeRTOS/Source/event_groups.c **** 		configASSERT( !( ( xTaskGetSchedulerState() == taskSCHEDULER_SUSPENDED ) && ( xTicksToWait != 0 )
 188:Middlewares/Third_Party/FreeRTOS/Source/event_groups.c **** 	}
 189:Middlewares/Third_Party/FreeRTOS/Source/event_groups.c **** 	#endif
 190:Middlewares/Third_Party/FreeRTOS/Source/event_groups.c **** 
 191:Middlewares/Third_Party/FreeRTOS/Source/event_groups.c **** 	vTaskSuspendAll();
 192:Middlewares/Third_Party/FreeRTOS/Source/event_groups.c **** 	{
 193:Middlewares/Third_Party/FreeRTOS/Source/event_groups.c **** 		uxOriginalBitValue = pxEventBits->uxEventBits;
 194:Middlewares/Third_Party/FreeRTOS/Source/event_groups.c **** 
 195:Middlewares/Third_Party/FreeRTOS/Source/event_groups.c **** 		( void ) xEventGroupSetBits( xEventGroup, uxBitsToSet );
 196:Middlewares/Third_Party/FreeRTOS/Source/event_groups.c **** 
 197:Middlewares/Third_Party/FreeRTOS/Source/event_groups.c **** 		if( ( ( uxOriginalBitValue | uxBitsToSet ) & uxBitsToWaitFor ) == uxBitsToWaitFor )
 198:Middlewares/Third_Party/FreeRTOS/Source/event_groups.c **** 		{
 199:Middlewares/Third_Party/FreeRTOS/Source/event_groups.c **** 			/* All the rendezvous bits are now set - no need to block. */
 200:Middlewares/Third_Party/FreeRTOS/Source/event_groups.c **** 			uxReturn = ( uxOriginalBitValue | uxBitsToSet );
 201:Middlewares/Third_Party/FreeRTOS/Source/event_groups.c **** 
 202:Middlewares/Third_Party/FreeRTOS/Source/event_groups.c **** 			/* Rendezvous always clear the bits.  They will have been cleared
ARM GAS  /tmp/ccrT5O1S.s 			page 5


 203:Middlewares/Third_Party/FreeRTOS/Source/event_groups.c **** 			already unless this is the only task in the rendezvous. */
 204:Middlewares/Third_Party/FreeRTOS/Source/event_groups.c **** 			pxEventBits->uxEventBits &= ~uxBitsToWaitFor;
 205:Middlewares/Third_Party/FreeRTOS/Source/event_groups.c **** 
 206:Middlewares/Third_Party/FreeRTOS/Source/event_groups.c **** 			xTicksToWait = 0;
 207:Middlewares/Third_Party/FreeRTOS/Source/event_groups.c **** 		}
 208:Middlewares/Third_Party/FreeRTOS/Source/event_groups.c **** 		else
 209:Middlewares/Third_Party/FreeRTOS/Source/event_groups.c **** 		{
 210:Middlewares/Third_Party/FreeRTOS/Source/event_groups.c **** 			if( xTicksToWait != ( TickType_t ) 0 )
 211:Middlewares/Third_Party/FreeRTOS/Source/event_groups.c **** 			{
 212:Middlewares/Third_Party/FreeRTOS/Source/event_groups.c **** 				traceEVENT_GROUP_SYNC_BLOCK( xEventGroup, uxBitsToSet, uxBitsToWaitFor );
 213:Middlewares/Third_Party/FreeRTOS/Source/event_groups.c **** 
 214:Middlewares/Third_Party/FreeRTOS/Source/event_groups.c **** 				/* Store the bits that the calling task is waiting for in the
 215:Middlewares/Third_Party/FreeRTOS/Source/event_groups.c **** 				task's event list item so the kernel knows when a match is
 216:Middlewares/Third_Party/FreeRTOS/Source/event_groups.c **** 				found.  Then enter the blocked state. */
 217:Middlewares/Third_Party/FreeRTOS/Source/event_groups.c **** 				vTaskPlaceOnUnorderedEventList( &( pxEventBits->xTasksWaitingForBits ), ( uxBitsToWaitFor | eve
 218:Middlewares/Third_Party/FreeRTOS/Source/event_groups.c **** 
 219:Middlewares/Third_Party/FreeRTOS/Source/event_groups.c **** 				/* This assignment is obsolete as uxReturn will get set after
 220:Middlewares/Third_Party/FreeRTOS/Source/event_groups.c **** 				the task unblocks, but some compilers mistakenly generate a
 221:Middlewares/Third_Party/FreeRTOS/Source/event_groups.c **** 				warning about uxReturn being returned without being set if the
 222:Middlewares/Third_Party/FreeRTOS/Source/event_groups.c **** 				assignment is omitted. */
 223:Middlewares/Third_Party/FreeRTOS/Source/event_groups.c **** 				uxReturn = 0;
 224:Middlewares/Third_Party/FreeRTOS/Source/event_groups.c **** 			}
 225:Middlewares/Third_Party/FreeRTOS/Source/event_groups.c **** 			else
 226:Middlewares/Third_Party/FreeRTOS/Source/event_groups.c **** 			{
 227:Middlewares/Third_Party/FreeRTOS/Source/event_groups.c **** 				/* The rendezvous bits were not set, but no block time was
 228:Middlewares/Third_Party/FreeRTOS/Source/event_groups.c **** 				specified - just return the current event bit value. */
 229:Middlewares/Third_Party/FreeRTOS/Source/event_groups.c **** 				uxReturn = pxEventBits->uxEventBits;
 230:Middlewares/Third_Party/FreeRTOS/Source/event_groups.c **** 				xTimeoutOccurred = pdTRUE;
 231:Middlewares/Third_Party/FreeRTOS/Source/event_groups.c **** 			}
 232:Middlewares/Third_Party/FreeRTOS/Source/event_groups.c **** 		}
 233:Middlewares/Third_Party/FreeRTOS/Source/event_groups.c **** 	}
 234:Middlewares/Third_Party/FreeRTOS/Source/event_groups.c **** 	xAlreadyYielded = xTaskResumeAll();
 235:Middlewares/Third_Party/FreeRTOS/Source/event_groups.c **** 
 236:Middlewares/Third_Party/FreeRTOS/Source/event_groups.c **** 	if( xTicksToWait != ( TickType_t ) 0 )
 237:Middlewares/Third_Party/FreeRTOS/Source/event_groups.c **** 	{
 238:Middlewares/Third_Party/FreeRTOS/Source/event_groups.c **** 		if( xAlreadyYielded == pdFALSE )
 239:Middlewares/Third_Party/FreeRTOS/Source/event_groups.c **** 		{
 240:Middlewares/Third_Party/FreeRTOS/Source/event_groups.c **** 			portYIELD_WITHIN_API();
 241:Middlewares/Third_Party/FreeRTOS/Source/event_groups.c **** 		}
 242:Middlewares/Third_Party/FreeRTOS/Source/event_groups.c **** 		else
 243:Middlewares/Third_Party/FreeRTOS/Source/event_groups.c **** 		{
 244:Middlewares/Third_Party/FreeRTOS/Source/event_groups.c **** 			mtCOVERAGE_TEST_MARKER();
 245:Middlewares/Third_Party/FreeRTOS/Source/event_groups.c **** 		}
 246:Middlewares/Third_Party/FreeRTOS/Source/event_groups.c **** 
 247:Middlewares/Third_Party/FreeRTOS/Source/event_groups.c **** 		/* The task blocked to wait for its required bits to be set - at this
 248:Middlewares/Third_Party/FreeRTOS/Source/event_groups.c **** 		point either the required bits were set or the block time expired.  If
 249:Middlewares/Third_Party/FreeRTOS/Source/event_groups.c **** 		the required bits were set they will have been stored in the task's
 250:Middlewares/Third_Party/FreeRTOS/Source/event_groups.c **** 		event list item, and they should now be retrieved then cleared. */
 251:Middlewares/Third_Party/FreeRTOS/Source/event_groups.c **** 		uxReturn = uxTaskResetEventItemValue();
 252:Middlewares/Third_Party/FreeRTOS/Source/event_groups.c **** 
 253:Middlewares/Third_Party/FreeRTOS/Source/event_groups.c **** 		if( ( uxReturn & eventUNBLOCKED_DUE_TO_BIT_SET ) == ( EventBits_t ) 0 )
 254:Middlewares/Third_Party/FreeRTOS/Source/event_groups.c **** 		{
 255:Middlewares/Third_Party/FreeRTOS/Source/event_groups.c **** 			/* The task timed out, just return the current event bit value. */
 256:Middlewares/Third_Party/FreeRTOS/Source/event_groups.c **** 			taskENTER_CRITICAL();
 257:Middlewares/Third_Party/FreeRTOS/Source/event_groups.c **** 			{
 258:Middlewares/Third_Party/FreeRTOS/Source/event_groups.c **** 				uxReturn = pxEventBits->uxEventBits;
 259:Middlewares/Third_Party/FreeRTOS/Source/event_groups.c **** 
ARM GAS  /tmp/ccrT5O1S.s 			page 6


 260:Middlewares/Third_Party/FreeRTOS/Source/event_groups.c **** 				/* Although the task got here because it timed out before the
 261:Middlewares/Third_Party/FreeRTOS/Source/event_groups.c **** 				bits it was waiting for were set, it is possible that since it
 262:Middlewares/Third_Party/FreeRTOS/Source/event_groups.c **** 				unblocked another task has set the bits.  If this is the case
 263:Middlewares/Third_Party/FreeRTOS/Source/event_groups.c **** 				then it needs to clear the bits before exiting. */
 264:Middlewares/Third_Party/FreeRTOS/Source/event_groups.c **** 				if( ( uxReturn & uxBitsToWaitFor ) == uxBitsToWaitFor )
 265:Middlewares/Third_Party/FreeRTOS/Source/event_groups.c **** 				{
 266:Middlewares/Third_Party/FreeRTOS/Source/event_groups.c **** 					pxEventBits->uxEventBits &= ~uxBitsToWaitFor;
 267:Middlewares/Third_Party/FreeRTOS/Source/event_groups.c **** 				}
 268:Middlewares/Third_Party/FreeRTOS/Source/event_groups.c **** 				else
 269:Middlewares/Third_Party/FreeRTOS/Source/event_groups.c **** 				{
 270:Middlewares/Third_Party/FreeRTOS/Source/event_groups.c **** 					mtCOVERAGE_TEST_MARKER();
 271:Middlewares/Third_Party/FreeRTOS/Source/event_groups.c **** 				}
 272:Middlewares/Third_Party/FreeRTOS/Source/event_groups.c **** 			}
 273:Middlewares/Third_Party/FreeRTOS/Source/event_groups.c **** 			taskEXIT_CRITICAL();
 274:Middlewares/Third_Party/FreeRTOS/Source/event_groups.c **** 
 275:Middlewares/Third_Party/FreeRTOS/Source/event_groups.c **** 			xTimeoutOccurred = pdTRUE;
 276:Middlewares/Third_Party/FreeRTOS/Source/event_groups.c **** 		}
 277:Middlewares/Third_Party/FreeRTOS/Source/event_groups.c **** 		else
 278:Middlewares/Third_Party/FreeRTOS/Source/event_groups.c **** 		{
 279:Middlewares/Third_Party/FreeRTOS/Source/event_groups.c **** 			/* The task unblocked because the bits were set. */
 280:Middlewares/Third_Party/FreeRTOS/Source/event_groups.c **** 		}
 281:Middlewares/Third_Party/FreeRTOS/Source/event_groups.c **** 
 282:Middlewares/Third_Party/FreeRTOS/Source/event_groups.c **** 		/* Control bits might be set as the task had blocked should not be
 283:Middlewares/Third_Party/FreeRTOS/Source/event_groups.c **** 		returned. */
 284:Middlewares/Third_Party/FreeRTOS/Source/event_groups.c **** 		uxReturn &= ~eventEVENT_BITS_CONTROL_BYTES;
 285:Middlewares/Third_Party/FreeRTOS/Source/event_groups.c **** 	}
 286:Middlewares/Third_Party/FreeRTOS/Source/event_groups.c **** 
 287:Middlewares/Third_Party/FreeRTOS/Source/event_groups.c **** 	traceEVENT_GROUP_SYNC_END( xEventGroup, uxBitsToSet, uxBitsToWaitFor, xTimeoutOccurred );
 288:Middlewares/Third_Party/FreeRTOS/Source/event_groups.c **** 
 289:Middlewares/Third_Party/FreeRTOS/Source/event_groups.c **** 	/* Prevent compiler warnings when trace macros are not used. */
 290:Middlewares/Third_Party/FreeRTOS/Source/event_groups.c **** 	( void ) xTimeoutOccurred;
 291:Middlewares/Third_Party/FreeRTOS/Source/event_groups.c **** 
 292:Middlewares/Third_Party/FreeRTOS/Source/event_groups.c **** 	return uxReturn;
 293:Middlewares/Third_Party/FreeRTOS/Source/event_groups.c **** }
 294:Middlewares/Third_Party/FreeRTOS/Source/event_groups.c **** /*-----------------------------------------------------------*/
 295:Middlewares/Third_Party/FreeRTOS/Source/event_groups.c **** 
 296:Middlewares/Third_Party/FreeRTOS/Source/event_groups.c **** EventBits_t xEventGroupWaitBits( EventGroupHandle_t xEventGroup, const EventBits_t uxBitsToWaitFor,
 297:Middlewares/Third_Party/FreeRTOS/Source/event_groups.c **** {
 298:Middlewares/Third_Party/FreeRTOS/Source/event_groups.c **** EventGroup_t *pxEventBits = ( EventGroup_t * ) xEventGroup;
 299:Middlewares/Third_Party/FreeRTOS/Source/event_groups.c **** EventBits_t uxReturn, uxControlBits = 0;
 300:Middlewares/Third_Party/FreeRTOS/Source/event_groups.c **** BaseType_t xWaitConditionMet, xAlreadyYielded;
 301:Middlewares/Third_Party/FreeRTOS/Source/event_groups.c **** BaseType_t xTimeoutOccurred = pdFALSE;
 302:Middlewares/Third_Party/FreeRTOS/Source/event_groups.c **** 
 303:Middlewares/Third_Party/FreeRTOS/Source/event_groups.c **** 	/* Check the user is not attempting to wait on the bits used by the kernel
 304:Middlewares/Third_Party/FreeRTOS/Source/event_groups.c **** 	itself, and that at least one bit is being requested. */
 305:Middlewares/Third_Party/FreeRTOS/Source/event_groups.c **** 	configASSERT( xEventGroup );
 306:Middlewares/Third_Party/FreeRTOS/Source/event_groups.c **** 	configASSERT( ( uxBitsToWaitFor & eventEVENT_BITS_CONTROL_BYTES ) == 0 );
 307:Middlewares/Third_Party/FreeRTOS/Source/event_groups.c **** 	configASSERT( uxBitsToWaitFor != 0 );
 308:Middlewares/Third_Party/FreeRTOS/Source/event_groups.c **** 	#if ( ( INCLUDE_xTaskGetSchedulerState == 1 ) || ( configUSE_TIMERS == 1 ) )
 309:Middlewares/Third_Party/FreeRTOS/Source/event_groups.c **** 	{
 310:Middlewares/Third_Party/FreeRTOS/Source/event_groups.c **** 		configASSERT( !( ( xTaskGetSchedulerState() == taskSCHEDULER_SUSPENDED ) && ( xTicksToWait != 0 )
 311:Middlewares/Third_Party/FreeRTOS/Source/event_groups.c **** 	}
 312:Middlewares/Third_Party/FreeRTOS/Source/event_groups.c **** 	#endif
 313:Middlewares/Third_Party/FreeRTOS/Source/event_groups.c **** 
 314:Middlewares/Third_Party/FreeRTOS/Source/event_groups.c **** 	vTaskSuspendAll();
 315:Middlewares/Third_Party/FreeRTOS/Source/event_groups.c **** 	{
 316:Middlewares/Third_Party/FreeRTOS/Source/event_groups.c **** 		const EventBits_t uxCurrentEventBits = pxEventBits->uxEventBits;
ARM GAS  /tmp/ccrT5O1S.s 			page 7


 317:Middlewares/Third_Party/FreeRTOS/Source/event_groups.c **** 
 318:Middlewares/Third_Party/FreeRTOS/Source/event_groups.c **** 		/* Check to see if the wait condition is already met or not. */
 319:Middlewares/Third_Party/FreeRTOS/Source/event_groups.c **** 		xWaitConditionMet = prvTestWaitCondition( uxCurrentEventBits, uxBitsToWaitFor, xWaitForAllBits );
 320:Middlewares/Third_Party/FreeRTOS/Source/event_groups.c **** 
 321:Middlewares/Third_Party/FreeRTOS/Source/event_groups.c **** 		if( xWaitConditionMet != pdFALSE )
 322:Middlewares/Third_Party/FreeRTOS/Source/event_groups.c **** 		{
 323:Middlewares/Third_Party/FreeRTOS/Source/event_groups.c **** 			/* The wait condition has already been met so there is no need to
 324:Middlewares/Third_Party/FreeRTOS/Source/event_groups.c **** 			block. */
 325:Middlewares/Third_Party/FreeRTOS/Source/event_groups.c **** 			uxReturn = uxCurrentEventBits;
 326:Middlewares/Third_Party/FreeRTOS/Source/event_groups.c **** 			xTicksToWait = ( TickType_t ) 0;
 327:Middlewares/Third_Party/FreeRTOS/Source/event_groups.c **** 
 328:Middlewares/Third_Party/FreeRTOS/Source/event_groups.c **** 			/* Clear the wait bits if requested to do so. */
 329:Middlewares/Third_Party/FreeRTOS/Source/event_groups.c **** 			if( xClearOnExit != pdFALSE )
 330:Middlewares/Third_Party/FreeRTOS/Source/event_groups.c **** 			{
 331:Middlewares/Third_Party/FreeRTOS/Source/event_groups.c **** 				pxEventBits->uxEventBits &= ~uxBitsToWaitFor;
 332:Middlewares/Third_Party/FreeRTOS/Source/event_groups.c **** 			}
 333:Middlewares/Third_Party/FreeRTOS/Source/event_groups.c **** 			else
 334:Middlewares/Third_Party/FreeRTOS/Source/event_groups.c **** 			{
 335:Middlewares/Third_Party/FreeRTOS/Source/event_groups.c **** 				mtCOVERAGE_TEST_MARKER();
 336:Middlewares/Third_Party/FreeRTOS/Source/event_groups.c **** 			}
 337:Middlewares/Third_Party/FreeRTOS/Source/event_groups.c **** 		}
 338:Middlewares/Third_Party/FreeRTOS/Source/event_groups.c **** 		else if( xTicksToWait == ( TickType_t ) 0 )
 339:Middlewares/Third_Party/FreeRTOS/Source/event_groups.c **** 		{
 340:Middlewares/Third_Party/FreeRTOS/Source/event_groups.c **** 			/* The wait condition has not been met, but no block time was
 341:Middlewares/Third_Party/FreeRTOS/Source/event_groups.c **** 			specified, so just return the current value. */
 342:Middlewares/Third_Party/FreeRTOS/Source/event_groups.c **** 			uxReturn = uxCurrentEventBits;
 343:Middlewares/Third_Party/FreeRTOS/Source/event_groups.c **** 			xTimeoutOccurred = pdTRUE;
 344:Middlewares/Third_Party/FreeRTOS/Source/event_groups.c **** 		}
 345:Middlewares/Third_Party/FreeRTOS/Source/event_groups.c **** 		else
 346:Middlewares/Third_Party/FreeRTOS/Source/event_groups.c **** 		{
 347:Middlewares/Third_Party/FreeRTOS/Source/event_groups.c **** 			/* The task is going to block to wait for its required bits to be
 348:Middlewares/Third_Party/FreeRTOS/Source/event_groups.c **** 			set.  uxControlBits are used to remember the specified behaviour of
 349:Middlewares/Third_Party/FreeRTOS/Source/event_groups.c **** 			this call to xEventGroupWaitBits() - for use when the event bits
 350:Middlewares/Third_Party/FreeRTOS/Source/event_groups.c **** 			unblock the task. */
 351:Middlewares/Third_Party/FreeRTOS/Source/event_groups.c **** 			if( xClearOnExit != pdFALSE )
 352:Middlewares/Third_Party/FreeRTOS/Source/event_groups.c **** 			{
 353:Middlewares/Third_Party/FreeRTOS/Source/event_groups.c **** 				uxControlBits |= eventCLEAR_EVENTS_ON_EXIT_BIT;
 354:Middlewares/Third_Party/FreeRTOS/Source/event_groups.c **** 			}
 355:Middlewares/Third_Party/FreeRTOS/Source/event_groups.c **** 			else
 356:Middlewares/Third_Party/FreeRTOS/Source/event_groups.c **** 			{
 357:Middlewares/Third_Party/FreeRTOS/Source/event_groups.c **** 				mtCOVERAGE_TEST_MARKER();
 358:Middlewares/Third_Party/FreeRTOS/Source/event_groups.c **** 			}
 359:Middlewares/Third_Party/FreeRTOS/Source/event_groups.c **** 
 360:Middlewares/Third_Party/FreeRTOS/Source/event_groups.c **** 			if( xWaitForAllBits != pdFALSE )
 361:Middlewares/Third_Party/FreeRTOS/Source/event_groups.c **** 			{
 362:Middlewares/Third_Party/FreeRTOS/Source/event_groups.c **** 				uxControlBits |= eventWAIT_FOR_ALL_BITS;
 363:Middlewares/Third_Party/FreeRTOS/Source/event_groups.c **** 			}
 364:Middlewares/Third_Party/FreeRTOS/Source/event_groups.c **** 			else
 365:Middlewares/Third_Party/FreeRTOS/Source/event_groups.c **** 			{
 366:Middlewares/Third_Party/FreeRTOS/Source/event_groups.c **** 				mtCOVERAGE_TEST_MARKER();
 367:Middlewares/Third_Party/FreeRTOS/Source/event_groups.c **** 			}
 368:Middlewares/Third_Party/FreeRTOS/Source/event_groups.c **** 
 369:Middlewares/Third_Party/FreeRTOS/Source/event_groups.c **** 			/* Store the bits that the calling task is waiting for in the
 370:Middlewares/Third_Party/FreeRTOS/Source/event_groups.c **** 			task's event list item so the kernel knows when a match is
 371:Middlewares/Third_Party/FreeRTOS/Source/event_groups.c **** 			found.  Then enter the blocked state. */
 372:Middlewares/Third_Party/FreeRTOS/Source/event_groups.c **** 			vTaskPlaceOnUnorderedEventList( &( pxEventBits->xTasksWaitingForBits ), ( uxBitsToWaitFor | uxCo
 373:Middlewares/Third_Party/FreeRTOS/Source/event_groups.c **** 
ARM GAS  /tmp/ccrT5O1S.s 			page 8


 374:Middlewares/Third_Party/FreeRTOS/Source/event_groups.c **** 			/* This is obsolete as it will get set after the task unblocks, but
 375:Middlewares/Third_Party/FreeRTOS/Source/event_groups.c **** 			some compilers mistakenly generate a warning about the variable
 376:Middlewares/Third_Party/FreeRTOS/Source/event_groups.c **** 			being returned without being set if it is not done. */
 377:Middlewares/Third_Party/FreeRTOS/Source/event_groups.c **** 			uxReturn = 0;
 378:Middlewares/Third_Party/FreeRTOS/Source/event_groups.c **** 
 379:Middlewares/Third_Party/FreeRTOS/Source/event_groups.c **** 			traceEVENT_GROUP_WAIT_BITS_BLOCK( xEventGroup, uxBitsToWaitFor );
 380:Middlewares/Third_Party/FreeRTOS/Source/event_groups.c **** 		}
 381:Middlewares/Third_Party/FreeRTOS/Source/event_groups.c **** 	}
 382:Middlewares/Third_Party/FreeRTOS/Source/event_groups.c **** 	xAlreadyYielded = xTaskResumeAll();
 383:Middlewares/Third_Party/FreeRTOS/Source/event_groups.c **** 
 384:Middlewares/Third_Party/FreeRTOS/Source/event_groups.c **** 	if( xTicksToWait != ( TickType_t ) 0 )
 385:Middlewares/Third_Party/FreeRTOS/Source/event_groups.c **** 	{
 386:Middlewares/Third_Party/FreeRTOS/Source/event_groups.c **** 		if( xAlreadyYielded == pdFALSE )
 387:Middlewares/Third_Party/FreeRTOS/Source/event_groups.c **** 		{
 388:Middlewares/Third_Party/FreeRTOS/Source/event_groups.c **** 			portYIELD_WITHIN_API();
 389:Middlewares/Third_Party/FreeRTOS/Source/event_groups.c **** 		}
 390:Middlewares/Third_Party/FreeRTOS/Source/event_groups.c **** 		else
 391:Middlewares/Third_Party/FreeRTOS/Source/event_groups.c **** 		{
 392:Middlewares/Third_Party/FreeRTOS/Source/event_groups.c **** 			mtCOVERAGE_TEST_MARKER();
 393:Middlewares/Third_Party/FreeRTOS/Source/event_groups.c **** 		}
 394:Middlewares/Third_Party/FreeRTOS/Source/event_groups.c **** 
 395:Middlewares/Third_Party/FreeRTOS/Source/event_groups.c **** 		/* The task blocked to wait for its required bits to be set - at this
 396:Middlewares/Third_Party/FreeRTOS/Source/event_groups.c **** 		point either the required bits were set or the block time expired.  If
 397:Middlewares/Third_Party/FreeRTOS/Source/event_groups.c **** 		the required bits were set they will have been stored in the task's
 398:Middlewares/Third_Party/FreeRTOS/Source/event_groups.c **** 		event list item, and they should now be retrieved then cleared. */
 399:Middlewares/Third_Party/FreeRTOS/Source/event_groups.c **** 		uxReturn = uxTaskResetEventItemValue();
 400:Middlewares/Third_Party/FreeRTOS/Source/event_groups.c **** 
 401:Middlewares/Third_Party/FreeRTOS/Source/event_groups.c **** 		if( ( uxReturn & eventUNBLOCKED_DUE_TO_BIT_SET ) == ( EventBits_t ) 0 )
 402:Middlewares/Third_Party/FreeRTOS/Source/event_groups.c **** 		{
 403:Middlewares/Third_Party/FreeRTOS/Source/event_groups.c **** 			taskENTER_CRITICAL();
 404:Middlewares/Third_Party/FreeRTOS/Source/event_groups.c **** 			{
 405:Middlewares/Third_Party/FreeRTOS/Source/event_groups.c **** 				/* The task timed out, just return the current event bit value. */
 406:Middlewares/Third_Party/FreeRTOS/Source/event_groups.c **** 				uxReturn = pxEventBits->uxEventBits;
 407:Middlewares/Third_Party/FreeRTOS/Source/event_groups.c **** 
 408:Middlewares/Third_Party/FreeRTOS/Source/event_groups.c **** 				/* It is possible that the event bits were updated between this
 409:Middlewares/Third_Party/FreeRTOS/Source/event_groups.c **** 				task leaving the Blocked state and running again. */
 410:Middlewares/Third_Party/FreeRTOS/Source/event_groups.c **** 				if( prvTestWaitCondition( uxReturn, uxBitsToWaitFor, xWaitForAllBits ) != pdFALSE )
 411:Middlewares/Third_Party/FreeRTOS/Source/event_groups.c **** 				{
 412:Middlewares/Third_Party/FreeRTOS/Source/event_groups.c **** 					if( xClearOnExit != pdFALSE )
 413:Middlewares/Third_Party/FreeRTOS/Source/event_groups.c **** 					{
 414:Middlewares/Third_Party/FreeRTOS/Source/event_groups.c **** 						pxEventBits->uxEventBits &= ~uxBitsToWaitFor;
 415:Middlewares/Third_Party/FreeRTOS/Source/event_groups.c **** 					}
 416:Middlewares/Third_Party/FreeRTOS/Source/event_groups.c **** 					else
 417:Middlewares/Third_Party/FreeRTOS/Source/event_groups.c **** 					{
 418:Middlewares/Third_Party/FreeRTOS/Source/event_groups.c **** 						mtCOVERAGE_TEST_MARKER();
 419:Middlewares/Third_Party/FreeRTOS/Source/event_groups.c **** 					}
 420:Middlewares/Third_Party/FreeRTOS/Source/event_groups.c **** 				}
 421:Middlewares/Third_Party/FreeRTOS/Source/event_groups.c **** 				else
 422:Middlewares/Third_Party/FreeRTOS/Source/event_groups.c **** 				{
 423:Middlewares/Third_Party/FreeRTOS/Source/event_groups.c **** 					mtCOVERAGE_TEST_MARKER();
 424:Middlewares/Third_Party/FreeRTOS/Source/event_groups.c **** 				}
 425:Middlewares/Third_Party/FreeRTOS/Source/event_groups.c **** 				xTimeoutOccurred = pdTRUE;
 426:Middlewares/Third_Party/FreeRTOS/Source/event_groups.c **** 			}
 427:Middlewares/Third_Party/FreeRTOS/Source/event_groups.c **** 			taskEXIT_CRITICAL();
 428:Middlewares/Third_Party/FreeRTOS/Source/event_groups.c **** 		}
 429:Middlewares/Third_Party/FreeRTOS/Source/event_groups.c **** 		else
 430:Middlewares/Third_Party/FreeRTOS/Source/event_groups.c **** 		{
ARM GAS  /tmp/ccrT5O1S.s 			page 9


 431:Middlewares/Third_Party/FreeRTOS/Source/event_groups.c **** 			/* The task unblocked because the bits were set. */
 432:Middlewares/Third_Party/FreeRTOS/Source/event_groups.c **** 		}
 433:Middlewares/Third_Party/FreeRTOS/Source/event_groups.c **** 
 434:Middlewares/Third_Party/FreeRTOS/Source/event_groups.c **** 		/* The task blocked so control bits may have been set. */
 435:Middlewares/Third_Party/FreeRTOS/Source/event_groups.c **** 		uxReturn &= ~eventEVENT_BITS_CONTROL_BYTES;
 436:Middlewares/Third_Party/FreeRTOS/Source/event_groups.c **** 	}
 437:Middlewares/Third_Party/FreeRTOS/Source/event_groups.c **** 	traceEVENT_GROUP_WAIT_BITS_END( xEventGroup, uxBitsToWaitFor, xTimeoutOccurred );
 438:Middlewares/Third_Party/FreeRTOS/Source/event_groups.c **** 
 439:Middlewares/Third_Party/FreeRTOS/Source/event_groups.c **** 	/* Prevent compiler warnings when trace macros are not used. */
 440:Middlewares/Third_Party/FreeRTOS/Source/event_groups.c **** 	( void ) xTimeoutOccurred;
 441:Middlewares/Third_Party/FreeRTOS/Source/event_groups.c **** 
 442:Middlewares/Third_Party/FreeRTOS/Source/event_groups.c **** 	return uxReturn;
 443:Middlewares/Third_Party/FreeRTOS/Source/event_groups.c **** }
 444:Middlewares/Third_Party/FreeRTOS/Source/event_groups.c **** /*-----------------------------------------------------------*/
 445:Middlewares/Third_Party/FreeRTOS/Source/event_groups.c **** 
 446:Middlewares/Third_Party/FreeRTOS/Source/event_groups.c **** EventBits_t xEventGroupClearBits( EventGroupHandle_t xEventGroup, const EventBits_t uxBitsToClear )
 447:Middlewares/Third_Party/FreeRTOS/Source/event_groups.c **** {
 448:Middlewares/Third_Party/FreeRTOS/Source/event_groups.c **** EventGroup_t *pxEventBits = ( EventGroup_t * ) xEventGroup;
 449:Middlewares/Third_Party/FreeRTOS/Source/event_groups.c **** EventBits_t uxReturn;
 450:Middlewares/Third_Party/FreeRTOS/Source/event_groups.c **** 
 451:Middlewares/Third_Party/FreeRTOS/Source/event_groups.c **** 	/* Check the user is not attempting to clear the bits used by the kernel
 452:Middlewares/Third_Party/FreeRTOS/Source/event_groups.c **** 	itself. */
 453:Middlewares/Third_Party/FreeRTOS/Source/event_groups.c **** 	configASSERT( xEventGroup );
 454:Middlewares/Third_Party/FreeRTOS/Source/event_groups.c **** 	configASSERT( ( uxBitsToClear & eventEVENT_BITS_CONTROL_BYTES ) == 0 );
 455:Middlewares/Third_Party/FreeRTOS/Source/event_groups.c **** 
 456:Middlewares/Third_Party/FreeRTOS/Source/event_groups.c **** 	taskENTER_CRITICAL();
 457:Middlewares/Third_Party/FreeRTOS/Source/event_groups.c **** 	{
 458:Middlewares/Third_Party/FreeRTOS/Source/event_groups.c **** 		traceEVENT_GROUP_CLEAR_BITS( xEventGroup, uxBitsToClear );
 459:Middlewares/Third_Party/FreeRTOS/Source/event_groups.c **** 
 460:Middlewares/Third_Party/FreeRTOS/Source/event_groups.c **** 		/* The value returned is the event group value prior to the bits being
 461:Middlewares/Third_Party/FreeRTOS/Source/event_groups.c **** 		cleared. */
 462:Middlewares/Third_Party/FreeRTOS/Source/event_groups.c **** 		uxReturn = pxEventBits->uxEventBits;
 463:Middlewares/Third_Party/FreeRTOS/Source/event_groups.c **** 
 464:Middlewares/Third_Party/FreeRTOS/Source/event_groups.c **** 		/* Clear the bits. */
 465:Middlewares/Third_Party/FreeRTOS/Source/event_groups.c **** 		pxEventBits->uxEventBits &= ~uxBitsToClear;
 466:Middlewares/Third_Party/FreeRTOS/Source/event_groups.c **** 	}
 467:Middlewares/Third_Party/FreeRTOS/Source/event_groups.c **** 	taskEXIT_CRITICAL();
 468:Middlewares/Third_Party/FreeRTOS/Source/event_groups.c **** 
 469:Middlewares/Third_Party/FreeRTOS/Source/event_groups.c **** 	return uxReturn;
 470:Middlewares/Third_Party/FreeRTOS/Source/event_groups.c **** }
 471:Middlewares/Third_Party/FreeRTOS/Source/event_groups.c **** /*-----------------------------------------------------------*/
 472:Middlewares/Third_Party/FreeRTOS/Source/event_groups.c **** 
 473:Middlewares/Third_Party/FreeRTOS/Source/event_groups.c **** #if ( ( configUSE_TRACE_FACILITY == 1 ) && ( INCLUDE_xTimerPendFunctionCall == 1 ) && ( configUSE_T
 474:Middlewares/Third_Party/FreeRTOS/Source/event_groups.c **** 
 475:Middlewares/Third_Party/FreeRTOS/Source/event_groups.c **** 	BaseType_t xEventGroupClearBitsFromISR( EventGroupHandle_t xEventGroup, const EventBits_t uxBitsTo
 476:Middlewares/Third_Party/FreeRTOS/Source/event_groups.c **** 	{
 477:Middlewares/Third_Party/FreeRTOS/Source/event_groups.c **** 		BaseType_t xReturn;
 478:Middlewares/Third_Party/FreeRTOS/Source/event_groups.c **** 
 479:Middlewares/Third_Party/FreeRTOS/Source/event_groups.c **** 		traceEVENT_GROUP_CLEAR_BITS_FROM_ISR( xEventGroup, uxBitsToClear );
 480:Middlewares/Third_Party/FreeRTOS/Source/event_groups.c **** 		xReturn = xTimerPendFunctionCallFromISR( vEventGroupClearBitsCallback, ( void * ) xEventGroup, ( 
 481:Middlewares/Third_Party/FreeRTOS/Source/event_groups.c **** 
 482:Middlewares/Third_Party/FreeRTOS/Source/event_groups.c **** 		return xReturn;
 483:Middlewares/Third_Party/FreeRTOS/Source/event_groups.c **** 	}
 484:Middlewares/Third_Party/FreeRTOS/Source/event_groups.c **** 
 485:Middlewares/Third_Party/FreeRTOS/Source/event_groups.c **** #endif
 486:Middlewares/Third_Party/FreeRTOS/Source/event_groups.c **** /*-----------------------------------------------------------*/
 487:Middlewares/Third_Party/FreeRTOS/Source/event_groups.c **** 
ARM GAS  /tmp/ccrT5O1S.s 			page 10


 488:Middlewares/Third_Party/FreeRTOS/Source/event_groups.c **** EventBits_t xEventGroupGetBitsFromISR( EventGroupHandle_t xEventGroup )
 489:Middlewares/Third_Party/FreeRTOS/Source/event_groups.c **** {
 490:Middlewares/Third_Party/FreeRTOS/Source/event_groups.c **** UBaseType_t uxSavedInterruptStatus;
 491:Middlewares/Third_Party/FreeRTOS/Source/event_groups.c **** EventGroup_t *pxEventBits = ( EventGroup_t * ) xEventGroup;
 492:Middlewares/Third_Party/FreeRTOS/Source/event_groups.c **** EventBits_t uxReturn;
 493:Middlewares/Third_Party/FreeRTOS/Source/event_groups.c **** 
 494:Middlewares/Third_Party/FreeRTOS/Source/event_groups.c **** 	uxSavedInterruptStatus = portSET_INTERRUPT_MASK_FROM_ISR();
 495:Middlewares/Third_Party/FreeRTOS/Source/event_groups.c **** 	{
 496:Middlewares/Third_Party/FreeRTOS/Source/event_groups.c **** 		uxReturn = pxEventBits->uxEventBits;
 497:Middlewares/Third_Party/FreeRTOS/Source/event_groups.c **** 	}
 498:Middlewares/Third_Party/FreeRTOS/Source/event_groups.c **** 	portCLEAR_INTERRUPT_MASK_FROM_ISR( uxSavedInterruptStatus );
 499:Middlewares/Third_Party/FreeRTOS/Source/event_groups.c **** 
 500:Middlewares/Third_Party/FreeRTOS/Source/event_groups.c **** 	return uxReturn;
 501:Middlewares/Third_Party/FreeRTOS/Source/event_groups.c **** }
 502:Middlewares/Third_Party/FreeRTOS/Source/event_groups.c **** /*-----------------------------------------------------------*/
 503:Middlewares/Third_Party/FreeRTOS/Source/event_groups.c **** 
 504:Middlewares/Third_Party/FreeRTOS/Source/event_groups.c **** EventBits_t xEventGroupSetBits( EventGroupHandle_t xEventGroup, const EventBits_t uxBitsToSet )
 505:Middlewares/Third_Party/FreeRTOS/Source/event_groups.c **** {
 506:Middlewares/Third_Party/FreeRTOS/Source/event_groups.c **** ListItem_t *pxListItem, *pxNext;
 507:Middlewares/Third_Party/FreeRTOS/Source/event_groups.c **** ListItem_t const *pxListEnd;
 508:Middlewares/Third_Party/FreeRTOS/Source/event_groups.c **** List_t *pxList;
 509:Middlewares/Third_Party/FreeRTOS/Source/event_groups.c **** EventBits_t uxBitsToClear = 0, uxBitsWaitedFor, uxControlBits;
 510:Middlewares/Third_Party/FreeRTOS/Source/event_groups.c **** EventGroup_t *pxEventBits = ( EventGroup_t * ) xEventGroup;
 511:Middlewares/Third_Party/FreeRTOS/Source/event_groups.c **** BaseType_t xMatchFound = pdFALSE;
 512:Middlewares/Third_Party/FreeRTOS/Source/event_groups.c **** 
 513:Middlewares/Third_Party/FreeRTOS/Source/event_groups.c **** 	/* Check the user is not attempting to set the bits used by the kernel
 514:Middlewares/Third_Party/FreeRTOS/Source/event_groups.c **** 	itself. */
 515:Middlewares/Third_Party/FreeRTOS/Source/event_groups.c **** 	configASSERT( xEventGroup );
 516:Middlewares/Third_Party/FreeRTOS/Source/event_groups.c **** 	configASSERT( ( uxBitsToSet & eventEVENT_BITS_CONTROL_BYTES ) == 0 );
 517:Middlewares/Third_Party/FreeRTOS/Source/event_groups.c **** 
 518:Middlewares/Third_Party/FreeRTOS/Source/event_groups.c **** 	pxList = &( pxEventBits->xTasksWaitingForBits );
 519:Middlewares/Third_Party/FreeRTOS/Source/event_groups.c **** 	pxListEnd = listGET_END_MARKER( pxList ); /*lint !e826 !e740 The mini list structure is used as th
 520:Middlewares/Third_Party/FreeRTOS/Source/event_groups.c **** 	vTaskSuspendAll();
 521:Middlewares/Third_Party/FreeRTOS/Source/event_groups.c **** 	{
 522:Middlewares/Third_Party/FreeRTOS/Source/event_groups.c **** 		traceEVENT_GROUP_SET_BITS( xEventGroup, uxBitsToSet );
 523:Middlewares/Third_Party/FreeRTOS/Source/event_groups.c **** 
 524:Middlewares/Third_Party/FreeRTOS/Source/event_groups.c **** 		pxListItem = listGET_HEAD_ENTRY( pxList );
 525:Middlewares/Third_Party/FreeRTOS/Source/event_groups.c **** 
 526:Middlewares/Third_Party/FreeRTOS/Source/event_groups.c **** 		/* Set the bits. */
 527:Middlewares/Third_Party/FreeRTOS/Source/event_groups.c **** 		pxEventBits->uxEventBits |= uxBitsToSet;
 528:Middlewares/Third_Party/FreeRTOS/Source/event_groups.c **** 
 529:Middlewares/Third_Party/FreeRTOS/Source/event_groups.c **** 		/* See if the new bit value should unblock any tasks. */
 530:Middlewares/Third_Party/FreeRTOS/Source/event_groups.c **** 		while( pxListItem != pxListEnd )
 531:Middlewares/Third_Party/FreeRTOS/Source/event_groups.c **** 		{
 532:Middlewares/Third_Party/FreeRTOS/Source/event_groups.c **** 			pxNext = listGET_NEXT( pxListItem );
 533:Middlewares/Third_Party/FreeRTOS/Source/event_groups.c **** 			uxBitsWaitedFor = listGET_LIST_ITEM_VALUE( pxListItem );
 534:Middlewares/Third_Party/FreeRTOS/Source/event_groups.c **** 			xMatchFound = pdFALSE;
 535:Middlewares/Third_Party/FreeRTOS/Source/event_groups.c **** 
 536:Middlewares/Third_Party/FreeRTOS/Source/event_groups.c **** 			/* Split the bits waited for from the control bits. */
 537:Middlewares/Third_Party/FreeRTOS/Source/event_groups.c **** 			uxControlBits = uxBitsWaitedFor & eventEVENT_BITS_CONTROL_BYTES;
 538:Middlewares/Third_Party/FreeRTOS/Source/event_groups.c **** 			uxBitsWaitedFor &= ~eventEVENT_BITS_CONTROL_BYTES;
 539:Middlewares/Third_Party/FreeRTOS/Source/event_groups.c **** 
 540:Middlewares/Third_Party/FreeRTOS/Source/event_groups.c **** 			if( ( uxControlBits & eventWAIT_FOR_ALL_BITS ) == ( EventBits_t ) 0 )
 541:Middlewares/Third_Party/FreeRTOS/Source/event_groups.c **** 			{
 542:Middlewares/Third_Party/FreeRTOS/Source/event_groups.c **** 				/* Just looking for single bit being set. */
 543:Middlewares/Third_Party/FreeRTOS/Source/event_groups.c **** 				if( ( uxBitsWaitedFor & pxEventBits->uxEventBits ) != ( EventBits_t ) 0 )
 544:Middlewares/Third_Party/FreeRTOS/Source/event_groups.c **** 				{
ARM GAS  /tmp/ccrT5O1S.s 			page 11


 545:Middlewares/Third_Party/FreeRTOS/Source/event_groups.c **** 					xMatchFound = pdTRUE;
 546:Middlewares/Third_Party/FreeRTOS/Source/event_groups.c **** 				}
 547:Middlewares/Third_Party/FreeRTOS/Source/event_groups.c **** 				else
 548:Middlewares/Third_Party/FreeRTOS/Source/event_groups.c **** 				{
 549:Middlewares/Third_Party/FreeRTOS/Source/event_groups.c **** 					mtCOVERAGE_TEST_MARKER();
 550:Middlewares/Third_Party/FreeRTOS/Source/event_groups.c **** 				}
 551:Middlewares/Third_Party/FreeRTOS/Source/event_groups.c **** 			}
 552:Middlewares/Third_Party/FreeRTOS/Source/event_groups.c **** 			else if( ( uxBitsWaitedFor & pxEventBits->uxEventBits ) == uxBitsWaitedFor )
 553:Middlewares/Third_Party/FreeRTOS/Source/event_groups.c **** 			{
 554:Middlewares/Third_Party/FreeRTOS/Source/event_groups.c **** 				/* All bits are set. */
 555:Middlewares/Third_Party/FreeRTOS/Source/event_groups.c **** 				xMatchFound = pdTRUE;
 556:Middlewares/Third_Party/FreeRTOS/Source/event_groups.c **** 			}
 557:Middlewares/Third_Party/FreeRTOS/Source/event_groups.c **** 			else
 558:Middlewares/Third_Party/FreeRTOS/Source/event_groups.c **** 			{
 559:Middlewares/Third_Party/FreeRTOS/Source/event_groups.c **** 				/* Need all bits to be set, but not all the bits were set. */
 560:Middlewares/Third_Party/FreeRTOS/Source/event_groups.c **** 			}
 561:Middlewares/Third_Party/FreeRTOS/Source/event_groups.c **** 
 562:Middlewares/Third_Party/FreeRTOS/Source/event_groups.c **** 			if( xMatchFound != pdFALSE )
 563:Middlewares/Third_Party/FreeRTOS/Source/event_groups.c **** 			{
 564:Middlewares/Third_Party/FreeRTOS/Source/event_groups.c **** 				/* The bits match.  Should the bits be cleared on exit? */
 565:Middlewares/Third_Party/FreeRTOS/Source/event_groups.c **** 				if( ( uxControlBits & eventCLEAR_EVENTS_ON_EXIT_BIT ) != ( EventBits_t ) 0 )
 566:Middlewares/Third_Party/FreeRTOS/Source/event_groups.c **** 				{
 567:Middlewares/Third_Party/FreeRTOS/Source/event_groups.c **** 					uxBitsToClear |= uxBitsWaitedFor;
 568:Middlewares/Third_Party/FreeRTOS/Source/event_groups.c **** 				}
 569:Middlewares/Third_Party/FreeRTOS/Source/event_groups.c **** 				else
 570:Middlewares/Third_Party/FreeRTOS/Source/event_groups.c **** 				{
 571:Middlewares/Third_Party/FreeRTOS/Source/event_groups.c **** 					mtCOVERAGE_TEST_MARKER();
 572:Middlewares/Third_Party/FreeRTOS/Source/event_groups.c **** 				}
 573:Middlewares/Third_Party/FreeRTOS/Source/event_groups.c **** 
 574:Middlewares/Third_Party/FreeRTOS/Source/event_groups.c **** 				/* Store the actual event flag value in the task's event list
 575:Middlewares/Third_Party/FreeRTOS/Source/event_groups.c **** 				item before removing the task from the event list.  The
 576:Middlewares/Third_Party/FreeRTOS/Source/event_groups.c **** 				eventUNBLOCKED_DUE_TO_BIT_SET bit is set so the task knows
 577:Middlewares/Third_Party/FreeRTOS/Source/event_groups.c **** 				that is was unblocked due to its required bits matching, rather
 578:Middlewares/Third_Party/FreeRTOS/Source/event_groups.c **** 				than because it timed out. */
 579:Middlewares/Third_Party/FreeRTOS/Source/event_groups.c **** 				vTaskRemoveFromUnorderedEventList( pxListItem, pxEventBits->uxEventBits | eventUNBLOCKED_DUE_TO
 580:Middlewares/Third_Party/FreeRTOS/Source/event_groups.c **** 			}
 581:Middlewares/Third_Party/FreeRTOS/Source/event_groups.c **** 
 582:Middlewares/Third_Party/FreeRTOS/Source/event_groups.c **** 			/* Move onto the next list item.  Note pxListItem->pxNext is not
 583:Middlewares/Third_Party/FreeRTOS/Source/event_groups.c **** 			used here as the list item may have been removed from the event list
 584:Middlewares/Third_Party/FreeRTOS/Source/event_groups.c **** 			and inserted into the ready/pending reading list. */
 585:Middlewares/Third_Party/FreeRTOS/Source/event_groups.c **** 			pxListItem = pxNext;
 586:Middlewares/Third_Party/FreeRTOS/Source/event_groups.c **** 		}
 587:Middlewares/Third_Party/FreeRTOS/Source/event_groups.c **** 
 588:Middlewares/Third_Party/FreeRTOS/Source/event_groups.c **** 		/* Clear any bits that matched when the eventCLEAR_EVENTS_ON_EXIT_BIT
 589:Middlewares/Third_Party/FreeRTOS/Source/event_groups.c **** 		bit was set in the control word. */
 590:Middlewares/Third_Party/FreeRTOS/Source/event_groups.c **** 		pxEventBits->uxEventBits &= ~uxBitsToClear;
 591:Middlewares/Third_Party/FreeRTOS/Source/event_groups.c **** 	}
 592:Middlewares/Third_Party/FreeRTOS/Source/event_groups.c **** 	( void ) xTaskResumeAll();
 593:Middlewares/Third_Party/FreeRTOS/Source/event_groups.c **** 
 594:Middlewares/Third_Party/FreeRTOS/Source/event_groups.c **** 	return pxEventBits->uxEventBits;
 595:Middlewares/Third_Party/FreeRTOS/Source/event_groups.c **** }
 596:Middlewares/Third_Party/FreeRTOS/Source/event_groups.c **** /*-----------------------------------------------------------*/
 597:Middlewares/Third_Party/FreeRTOS/Source/event_groups.c **** 
 598:Middlewares/Third_Party/FreeRTOS/Source/event_groups.c **** void vEventGroupDelete( EventGroupHandle_t xEventGroup )
 599:Middlewares/Third_Party/FreeRTOS/Source/event_groups.c **** {
 600:Middlewares/Third_Party/FreeRTOS/Source/event_groups.c **** EventGroup_t *pxEventBits = ( EventGroup_t * ) xEventGroup;
 601:Middlewares/Third_Party/FreeRTOS/Source/event_groups.c **** const List_t *pxTasksWaitingForBits = &( pxEventBits->xTasksWaitingForBits );
ARM GAS  /tmp/ccrT5O1S.s 			page 12


 602:Middlewares/Third_Party/FreeRTOS/Source/event_groups.c **** 
 603:Middlewares/Third_Party/FreeRTOS/Source/event_groups.c **** 	vTaskSuspendAll();
 604:Middlewares/Third_Party/FreeRTOS/Source/event_groups.c **** 	{
 605:Middlewares/Third_Party/FreeRTOS/Source/event_groups.c **** 		traceEVENT_GROUP_DELETE( xEventGroup );
 606:Middlewares/Third_Party/FreeRTOS/Source/event_groups.c **** 
 607:Middlewares/Third_Party/FreeRTOS/Source/event_groups.c **** 		while( listCURRENT_LIST_LENGTH( pxTasksWaitingForBits ) > ( UBaseType_t ) 0 )
 608:Middlewares/Third_Party/FreeRTOS/Source/event_groups.c **** 		{
 609:Middlewares/Third_Party/FreeRTOS/Source/event_groups.c **** 			/* Unblock the task, returning 0 as the event list is being deleted
 610:Middlewares/Third_Party/FreeRTOS/Source/event_groups.c **** 			and cannot therefore have any bits set. */
 611:Middlewares/Third_Party/FreeRTOS/Source/event_groups.c **** 			configASSERT( pxTasksWaitingForBits->xListEnd.pxNext != ( const ListItem_t * ) &( pxTasksWaiting
 612:Middlewares/Third_Party/FreeRTOS/Source/event_groups.c **** 			vTaskRemoveFromUnorderedEventList( pxTasksWaitingForBits->xListEnd.pxNext, eventUNBLOCKED_DUE_TO
 613:Middlewares/Third_Party/FreeRTOS/Source/event_groups.c **** 		}
 614:Middlewares/Third_Party/FreeRTOS/Source/event_groups.c **** 
 615:Middlewares/Third_Party/FreeRTOS/Source/event_groups.c **** 		#if( ( configSUPPORT_DYNAMIC_ALLOCATION == 1 ) && ( configSUPPORT_STATIC_ALLOCATION == 0 ) )
 616:Middlewares/Third_Party/FreeRTOS/Source/event_groups.c **** 		{
 617:Middlewares/Third_Party/FreeRTOS/Source/event_groups.c **** 			/* The event group can only have been allocated dynamically - free
 618:Middlewares/Third_Party/FreeRTOS/Source/event_groups.c **** 			it again. */
 619:Middlewares/Third_Party/FreeRTOS/Source/event_groups.c **** 			vPortFree( pxEventBits );
 620:Middlewares/Third_Party/FreeRTOS/Source/event_groups.c **** 		}
 621:Middlewares/Third_Party/FreeRTOS/Source/event_groups.c **** 		#elif( ( configSUPPORT_DYNAMIC_ALLOCATION == 1 ) && ( configSUPPORT_STATIC_ALLOCATION == 1 ) )
 622:Middlewares/Third_Party/FreeRTOS/Source/event_groups.c **** 		{
 623:Middlewares/Third_Party/FreeRTOS/Source/event_groups.c **** 			/* The event group could have been allocated statically or
 624:Middlewares/Third_Party/FreeRTOS/Source/event_groups.c **** 			dynamically, so check before attempting to free the memory. */
 625:Middlewares/Third_Party/FreeRTOS/Source/event_groups.c **** 			if( pxEventBits->ucStaticallyAllocated == ( uint8_t ) pdFALSE )
 626:Middlewares/Third_Party/FreeRTOS/Source/event_groups.c **** 			{
 627:Middlewares/Third_Party/FreeRTOS/Source/event_groups.c **** 				vPortFree( pxEventBits );
 628:Middlewares/Third_Party/FreeRTOS/Source/event_groups.c **** 			}
 629:Middlewares/Third_Party/FreeRTOS/Source/event_groups.c **** 			else
 630:Middlewares/Third_Party/FreeRTOS/Source/event_groups.c **** 			{
 631:Middlewares/Third_Party/FreeRTOS/Source/event_groups.c **** 				mtCOVERAGE_TEST_MARKER();
 632:Middlewares/Third_Party/FreeRTOS/Source/event_groups.c **** 			}
 633:Middlewares/Third_Party/FreeRTOS/Source/event_groups.c **** 		}
 634:Middlewares/Third_Party/FreeRTOS/Source/event_groups.c **** 		#endif /* configSUPPORT_DYNAMIC_ALLOCATION */
 635:Middlewares/Third_Party/FreeRTOS/Source/event_groups.c **** 	}
 636:Middlewares/Third_Party/FreeRTOS/Source/event_groups.c **** 	( void ) xTaskResumeAll();
 637:Middlewares/Third_Party/FreeRTOS/Source/event_groups.c **** }
 638:Middlewares/Third_Party/FreeRTOS/Source/event_groups.c **** /*-----------------------------------------------------------*/
 639:Middlewares/Third_Party/FreeRTOS/Source/event_groups.c **** 
 640:Middlewares/Third_Party/FreeRTOS/Source/event_groups.c **** /* For internal use only - execute a 'set bits' command that was pended from
 641:Middlewares/Third_Party/FreeRTOS/Source/event_groups.c **** an interrupt. */
 642:Middlewares/Third_Party/FreeRTOS/Source/event_groups.c **** void vEventGroupSetBitsCallback( void *pvEventGroup, const uint32_t ulBitsToSet )
 643:Middlewares/Third_Party/FreeRTOS/Source/event_groups.c **** {
 644:Middlewares/Third_Party/FreeRTOS/Source/event_groups.c **** 	( void ) xEventGroupSetBits( pvEventGroup, ( EventBits_t ) ulBitsToSet );
 645:Middlewares/Third_Party/FreeRTOS/Source/event_groups.c **** }
 646:Middlewares/Third_Party/FreeRTOS/Source/event_groups.c **** /*-----------------------------------------------------------*/
 647:Middlewares/Third_Party/FreeRTOS/Source/event_groups.c **** 
 648:Middlewares/Third_Party/FreeRTOS/Source/event_groups.c **** /* For internal use only - execute a 'clear bits' command that was pended from
 649:Middlewares/Third_Party/FreeRTOS/Source/event_groups.c **** an interrupt. */
 650:Middlewares/Third_Party/FreeRTOS/Source/event_groups.c **** void vEventGroupClearBitsCallback( void *pvEventGroup, const uint32_t ulBitsToClear )
 651:Middlewares/Third_Party/FreeRTOS/Source/event_groups.c **** {
 652:Middlewares/Third_Party/FreeRTOS/Source/event_groups.c **** 	( void ) xEventGroupClearBits( pvEventGroup, ( EventBits_t ) ulBitsToClear );
 653:Middlewares/Third_Party/FreeRTOS/Source/event_groups.c **** }
 654:Middlewares/Third_Party/FreeRTOS/Source/event_groups.c **** /*-----------------------------------------------------------*/
 655:Middlewares/Third_Party/FreeRTOS/Source/event_groups.c **** 
 656:Middlewares/Third_Party/FreeRTOS/Source/event_groups.c **** static BaseType_t prvTestWaitCondition( const EventBits_t uxCurrentEventBits, const EventBits_t uxB
 657:Middlewares/Third_Party/FreeRTOS/Source/event_groups.c **** {
  28              		.loc 1 657 1 view -0
ARM GAS  /tmp/ccrT5O1S.s 			page 13


  29              		.cfi_startproc
  30              		@ args = 0, pretend = 0, frame = 0
  31              		@ frame_needed = 0, uses_anonymous_args = 0
  32              		@ link register save eliminated.
 658:Middlewares/Third_Party/FreeRTOS/Source/event_groups.c **** BaseType_t xWaitConditionMet = pdFALSE;
  33              		.loc 1 658 1 view .LVU1
 659:Middlewares/Third_Party/FreeRTOS/Source/event_groups.c **** 
 660:Middlewares/Third_Party/FreeRTOS/Source/event_groups.c **** 	if( xWaitForAllBits == pdFALSE )
  34              		.loc 1 660 2 view .LVU2
  35              		.loc 1 660 4 is_stmt 0 view .LVU3
  36 0000 1AB9     		cbnz	r2, .L2
 661:Middlewares/Third_Party/FreeRTOS/Source/event_groups.c **** 	{
 662:Middlewares/Third_Party/FreeRTOS/Source/event_groups.c **** 		/* Task only has to wait for one bit within uxBitsToWaitFor to be
 663:Middlewares/Third_Party/FreeRTOS/Source/event_groups.c **** 		set.  Is one already set? */
 664:Middlewares/Third_Party/FreeRTOS/Source/event_groups.c **** 		if( ( uxCurrentEventBits & uxBitsToWaitFor ) != ( EventBits_t ) 0 )
  37              		.loc 1 664 3 is_stmt 1 view .LVU4
  38              		.loc 1 664 5 is_stmt 0 view .LVU5
  39 0002 0842     		tst	r0, r1
  40 0004 06D1     		bne	.L4
 658:Middlewares/Third_Party/FreeRTOS/Source/event_groups.c **** 
  41              		.loc 1 658 12 view .LVU6
  42 0006 1046     		mov	r0, r2
  43              	.LVL1:
 658:Middlewares/Third_Party/FreeRTOS/Source/event_groups.c **** 
  44              		.loc 1 658 12 view .LVU7
  45 0008 7047     		bx	lr
  46              	.LVL2:
  47              	.L2:
 665:Middlewares/Third_Party/FreeRTOS/Source/event_groups.c **** 		{
 666:Middlewares/Third_Party/FreeRTOS/Source/event_groups.c **** 			xWaitConditionMet = pdTRUE;
 667:Middlewares/Third_Party/FreeRTOS/Source/event_groups.c **** 		}
 668:Middlewares/Third_Party/FreeRTOS/Source/event_groups.c **** 		else
 669:Middlewares/Third_Party/FreeRTOS/Source/event_groups.c **** 		{
 670:Middlewares/Third_Party/FreeRTOS/Source/event_groups.c **** 			mtCOVERAGE_TEST_MARKER();
 671:Middlewares/Third_Party/FreeRTOS/Source/event_groups.c **** 		}
 672:Middlewares/Third_Party/FreeRTOS/Source/event_groups.c **** 	}
 673:Middlewares/Third_Party/FreeRTOS/Source/event_groups.c **** 	else
 674:Middlewares/Third_Party/FreeRTOS/Source/event_groups.c **** 	{
 675:Middlewares/Third_Party/FreeRTOS/Source/event_groups.c **** 		/* Task has to wait for all the bits in uxBitsToWaitFor to be set.
 676:Middlewares/Third_Party/FreeRTOS/Source/event_groups.c **** 		Are they set already? */
 677:Middlewares/Third_Party/FreeRTOS/Source/event_groups.c **** 		if( ( uxCurrentEventBits & uxBitsToWaitFor ) == uxBitsToWaitFor )
  48              		.loc 1 677 3 is_stmt 1 view .LVU8
  49              		.loc 1 677 5 is_stmt 0 view .LVU9
  50 000a 31EA0003 		bics	r3, r1, r0
  51 000e 03D0     		beq	.L5
 658:Middlewares/Third_Party/FreeRTOS/Source/event_groups.c **** 
  52              		.loc 1 658 12 view .LVU10
  53 0010 0020     		movs	r0, #0
  54              	.LVL3:
 658:Middlewares/Third_Party/FreeRTOS/Source/event_groups.c **** 
  55              		.loc 1 658 12 view .LVU11
  56 0012 7047     		bx	lr
  57              	.LVL4:
  58              	.L4:
 666:Middlewares/Third_Party/FreeRTOS/Source/event_groups.c **** 		}
  59              		.loc 1 666 22 view .LVU12
  60 0014 0120     		movs	r0, #1
ARM GAS  /tmp/ccrT5O1S.s 			page 14


  61              	.LVL5:
 666:Middlewares/Third_Party/FreeRTOS/Source/event_groups.c **** 		}
  62              		.loc 1 666 22 view .LVU13
  63 0016 7047     		bx	lr
  64              	.LVL6:
  65              	.L5:
 678:Middlewares/Third_Party/FreeRTOS/Source/event_groups.c **** 		{
 679:Middlewares/Third_Party/FreeRTOS/Source/event_groups.c **** 			xWaitConditionMet = pdTRUE;
  66              		.loc 1 679 22 view .LVU14
  67 0018 0120     		movs	r0, #1
  68              	.LVL7:
 680:Middlewares/Third_Party/FreeRTOS/Source/event_groups.c **** 		}
 681:Middlewares/Third_Party/FreeRTOS/Source/event_groups.c **** 		else
 682:Middlewares/Third_Party/FreeRTOS/Source/event_groups.c **** 		{
 683:Middlewares/Third_Party/FreeRTOS/Source/event_groups.c **** 			mtCOVERAGE_TEST_MARKER();
  69              		.loc 1 683 28 is_stmt 1 view .LVU15
 684:Middlewares/Third_Party/FreeRTOS/Source/event_groups.c **** 		}
 685:Middlewares/Third_Party/FreeRTOS/Source/event_groups.c **** 	}
 686:Middlewares/Third_Party/FreeRTOS/Source/event_groups.c **** 
 687:Middlewares/Third_Party/FreeRTOS/Source/event_groups.c **** 	return xWaitConditionMet;
  70              		.loc 1 687 2 view .LVU16
 688:Middlewares/Third_Party/FreeRTOS/Source/event_groups.c **** }
  71              		.loc 1 688 1 is_stmt 0 view .LVU17
  72 001a 7047     		bx	lr
  73              		.cfi_endproc
  74              	.LFE15:
  76              		.section	.text.xEventGroupCreateStatic,"ax",%progbits
  77              		.align	1
  78              		.global	xEventGroupCreateStatic
  79              		.syntax unified
  80              		.thumb
  81              		.thumb_func
  82              		.fpu fpv5-d16
  84              	xEventGroupCreateStatic:
  85              	.LVL8:
  86              	.LFB4:
  94:Middlewares/Third_Party/FreeRTOS/Source/event_groups.c **** 	EventGroup_t *pxEventBits;
  87              		.loc 1 94 2 is_stmt 1 view -0
  88              		.cfi_startproc
  89              		@ args = 0, pretend = 0, frame = 8
  90              		@ frame_needed = 0, uses_anonymous_args = 0
  95:Middlewares/Third_Party/FreeRTOS/Source/event_groups.c **** 
  91              		.loc 1 95 2 view .LVU19
  98:Middlewares/Third_Party/FreeRTOS/Source/event_groups.c **** 
  92              		.loc 1 98 3 view .LVU20
  93 0000 80B1     		cbz	r0, .L13
  94:Middlewares/Third_Party/FreeRTOS/Source/event_groups.c **** 	EventGroup_t *pxEventBits;
  94              		.loc 1 94 2 is_stmt 0 discriminator 2 view .LVU21
  95 0002 10B5     		push	{r4, lr}
  96              	.LCFI0:
  97              		.cfi_def_cfa_offset 8
  98              		.cfi_offset 4, -8
  99              		.cfi_offset 14, -4
 100 0004 82B0     		sub	sp, sp, #8
 101              	.LCFI1:
 102              		.cfi_def_cfa_offset 16
 103 0006 0446     		mov	r4, r0
ARM GAS  /tmp/ccrT5O1S.s 			page 15


  98:Middlewares/Third_Party/FreeRTOS/Source/event_groups.c **** 
 104              		.loc 1 98 37 is_stmt 1 discriminator 2 view .LVU22
 105              	.LBB36:
 105:Middlewares/Third_Party/FreeRTOS/Source/event_groups.c **** 			configASSERT( xSize == sizeof( EventGroup_t ) );
 106              		.loc 1 105 4 discriminator 2 view .LVU23
 105:Middlewares/Third_Party/FreeRTOS/Source/event_groups.c **** 			configASSERT( xSize == sizeof( EventGroup_t ) );
 107              		.loc 1 105 20 is_stmt 0 discriminator 2 view .LVU24
 108 0008 2023     		movs	r3, #32
 109 000a 0193     		str	r3, [sp, #4]
 106:Middlewares/Third_Party/FreeRTOS/Source/event_groups.c **** 		}
 110              		.loc 1 106 4 is_stmt 1 discriminator 2 view .LVU25
 111 000c 019B     		ldr	r3, [sp, #4]
 112 000e 202B     		cmp	r3, #32
 113 0010 11D0     		beq	.L9
 106:Middlewares/Third_Party/FreeRTOS/Source/event_groups.c **** 		}
 114              		.loc 1 106 4 view .LVU26
 115              	.LBB37:
 116              	.LBI37:
 117              		.file 2 "Middlewares/Third_Party/FreeRTOS/Source/portable/GCC/ARM_CM4F/portmacro.h"
   1:Middlewares/Third_Party/FreeRTOS/Source/portable/GCC/ARM_CM4F/portmacro.h **** /*
   2:Middlewares/Third_Party/FreeRTOS/Source/portable/GCC/ARM_CM4F/portmacro.h ****  * FreeRTOS Kernel V10.0.1
   3:Middlewares/Third_Party/FreeRTOS/Source/portable/GCC/ARM_CM4F/portmacro.h ****  * Copyright (C) 2017 Amazon.com, Inc. or its affiliates.  All Rights Reserved.
   4:Middlewares/Third_Party/FreeRTOS/Source/portable/GCC/ARM_CM4F/portmacro.h ****  *
   5:Middlewares/Third_Party/FreeRTOS/Source/portable/GCC/ARM_CM4F/portmacro.h ****  * Permission is hereby granted, free of charge, to any person obtaining a copy of
   6:Middlewares/Third_Party/FreeRTOS/Source/portable/GCC/ARM_CM4F/portmacro.h ****  * this software and associated documentation files (the "Software"), to deal in
   7:Middlewares/Third_Party/FreeRTOS/Source/portable/GCC/ARM_CM4F/portmacro.h ****  * the Software without restriction, including without limitation the rights to
   8:Middlewares/Third_Party/FreeRTOS/Source/portable/GCC/ARM_CM4F/portmacro.h ****  * use, copy, modify, merge, publish, distribute, sublicense, and/or sell copies of
   9:Middlewares/Third_Party/FreeRTOS/Source/portable/GCC/ARM_CM4F/portmacro.h ****  * the Software, and to permit persons to whom the Software is furnished to do so,
  10:Middlewares/Third_Party/FreeRTOS/Source/portable/GCC/ARM_CM4F/portmacro.h ****  * subject to the following conditions:
  11:Middlewares/Third_Party/FreeRTOS/Source/portable/GCC/ARM_CM4F/portmacro.h ****  *
  12:Middlewares/Third_Party/FreeRTOS/Source/portable/GCC/ARM_CM4F/portmacro.h ****  * The above copyright notice and this permission notice shall be included in all
  13:Middlewares/Third_Party/FreeRTOS/Source/portable/GCC/ARM_CM4F/portmacro.h ****  * copies or substantial portions of the Software.
  14:Middlewares/Third_Party/FreeRTOS/Source/portable/GCC/ARM_CM4F/portmacro.h ****  *
  15:Middlewares/Third_Party/FreeRTOS/Source/portable/GCC/ARM_CM4F/portmacro.h ****  * THE SOFTWARE IS PROVIDED "AS IS", WITHOUT WARRANTY OF ANY KIND, EXPRESS OR
  16:Middlewares/Third_Party/FreeRTOS/Source/portable/GCC/ARM_CM4F/portmacro.h ****  * IMPLIED, INCLUDING BUT NOT LIMITED TO THE WARRANTIES OF MERCHANTABILITY, FITNESS
  17:Middlewares/Third_Party/FreeRTOS/Source/portable/GCC/ARM_CM4F/portmacro.h ****  * FOR A PARTICULAR PURPOSE AND NONINFRINGEMENT. IN NO EVENT SHALL THE AUTHORS OR
  18:Middlewares/Third_Party/FreeRTOS/Source/portable/GCC/ARM_CM4F/portmacro.h ****  * COPYRIGHT HOLDERS BE LIABLE FOR ANY CLAIM, DAMAGES OR OTHER LIABILITY, WHETHER
  19:Middlewares/Third_Party/FreeRTOS/Source/portable/GCC/ARM_CM4F/portmacro.h ****  * IN AN ACTION OF CONTRACT, TORT OR OTHERWISE, ARISING FROM, OUT OF OR IN
  20:Middlewares/Third_Party/FreeRTOS/Source/portable/GCC/ARM_CM4F/portmacro.h ****  * CONNECTION WITH THE SOFTWARE OR THE USE OR OTHER DEALINGS IN THE SOFTWARE.
  21:Middlewares/Third_Party/FreeRTOS/Source/portable/GCC/ARM_CM4F/portmacro.h ****  *
  22:Middlewares/Third_Party/FreeRTOS/Source/portable/GCC/ARM_CM4F/portmacro.h ****  * http://www.FreeRTOS.org
  23:Middlewares/Third_Party/FreeRTOS/Source/portable/GCC/ARM_CM4F/portmacro.h ****  * http://aws.amazon.com/freertos
  24:Middlewares/Third_Party/FreeRTOS/Source/portable/GCC/ARM_CM4F/portmacro.h ****  *
  25:Middlewares/Third_Party/FreeRTOS/Source/portable/GCC/ARM_CM4F/portmacro.h ****  * 1 tab == 4 spaces!
  26:Middlewares/Third_Party/FreeRTOS/Source/portable/GCC/ARM_CM4F/portmacro.h ****  */
  27:Middlewares/Third_Party/FreeRTOS/Source/portable/GCC/ARM_CM4F/portmacro.h **** 
  28:Middlewares/Third_Party/FreeRTOS/Source/portable/GCC/ARM_CM4F/portmacro.h **** 
  29:Middlewares/Third_Party/FreeRTOS/Source/portable/GCC/ARM_CM4F/portmacro.h **** #ifndef PORTMACRO_H
  30:Middlewares/Third_Party/FreeRTOS/Source/portable/GCC/ARM_CM4F/portmacro.h **** #define PORTMACRO_H
  31:Middlewares/Third_Party/FreeRTOS/Source/portable/GCC/ARM_CM4F/portmacro.h **** 
  32:Middlewares/Third_Party/FreeRTOS/Source/portable/GCC/ARM_CM4F/portmacro.h **** #ifdef __cplusplus
  33:Middlewares/Third_Party/FreeRTOS/Source/portable/GCC/ARM_CM4F/portmacro.h **** extern "C" {
  34:Middlewares/Third_Party/FreeRTOS/Source/portable/GCC/ARM_CM4F/portmacro.h **** #endif
  35:Middlewares/Third_Party/FreeRTOS/Source/portable/GCC/ARM_CM4F/portmacro.h **** 
  36:Middlewares/Third_Party/FreeRTOS/Source/portable/GCC/ARM_CM4F/portmacro.h **** /*-----------------------------------------------------------
  37:Middlewares/Third_Party/FreeRTOS/Source/portable/GCC/ARM_CM4F/portmacro.h ****  * Port specific definitions.
  38:Middlewares/Third_Party/FreeRTOS/Source/portable/GCC/ARM_CM4F/portmacro.h ****  *
ARM GAS  /tmp/ccrT5O1S.s 			page 16


  39:Middlewares/Third_Party/FreeRTOS/Source/portable/GCC/ARM_CM4F/portmacro.h ****  * The settings in this file configure FreeRTOS correctly for the
  40:Middlewares/Third_Party/FreeRTOS/Source/portable/GCC/ARM_CM4F/portmacro.h ****  * given hardware and compiler.
  41:Middlewares/Third_Party/FreeRTOS/Source/portable/GCC/ARM_CM4F/portmacro.h ****  *
  42:Middlewares/Third_Party/FreeRTOS/Source/portable/GCC/ARM_CM4F/portmacro.h ****  * These settings should not be altered.
  43:Middlewares/Third_Party/FreeRTOS/Source/portable/GCC/ARM_CM4F/portmacro.h ****  *-----------------------------------------------------------
  44:Middlewares/Third_Party/FreeRTOS/Source/portable/GCC/ARM_CM4F/portmacro.h ****  */
  45:Middlewares/Third_Party/FreeRTOS/Source/portable/GCC/ARM_CM4F/portmacro.h **** 
  46:Middlewares/Third_Party/FreeRTOS/Source/portable/GCC/ARM_CM4F/portmacro.h **** /* Type definitions. */
  47:Middlewares/Third_Party/FreeRTOS/Source/portable/GCC/ARM_CM4F/portmacro.h **** #define portCHAR		char
  48:Middlewares/Third_Party/FreeRTOS/Source/portable/GCC/ARM_CM4F/portmacro.h **** #define portFLOAT		float
  49:Middlewares/Third_Party/FreeRTOS/Source/portable/GCC/ARM_CM4F/portmacro.h **** #define portDOUBLE		double
  50:Middlewares/Third_Party/FreeRTOS/Source/portable/GCC/ARM_CM4F/portmacro.h **** #define portLONG		long
  51:Middlewares/Third_Party/FreeRTOS/Source/portable/GCC/ARM_CM4F/portmacro.h **** #define portSHORT		short
  52:Middlewares/Third_Party/FreeRTOS/Source/portable/GCC/ARM_CM4F/portmacro.h **** #define portSTACK_TYPE	uint32_t
  53:Middlewares/Third_Party/FreeRTOS/Source/portable/GCC/ARM_CM4F/portmacro.h **** #define portBASE_TYPE	long
  54:Middlewares/Third_Party/FreeRTOS/Source/portable/GCC/ARM_CM4F/portmacro.h **** 
  55:Middlewares/Third_Party/FreeRTOS/Source/portable/GCC/ARM_CM4F/portmacro.h **** typedef portSTACK_TYPE StackType_t;
  56:Middlewares/Third_Party/FreeRTOS/Source/portable/GCC/ARM_CM4F/portmacro.h **** typedef long BaseType_t;
  57:Middlewares/Third_Party/FreeRTOS/Source/portable/GCC/ARM_CM4F/portmacro.h **** typedef unsigned long UBaseType_t;
  58:Middlewares/Third_Party/FreeRTOS/Source/portable/GCC/ARM_CM4F/portmacro.h **** 
  59:Middlewares/Third_Party/FreeRTOS/Source/portable/GCC/ARM_CM4F/portmacro.h **** #if( configUSE_16_BIT_TICKS == 1 )
  60:Middlewares/Third_Party/FreeRTOS/Source/portable/GCC/ARM_CM4F/portmacro.h **** 	typedef uint16_t TickType_t;
  61:Middlewares/Third_Party/FreeRTOS/Source/portable/GCC/ARM_CM4F/portmacro.h **** 	#define portMAX_DELAY ( TickType_t ) 0xffff
  62:Middlewares/Third_Party/FreeRTOS/Source/portable/GCC/ARM_CM4F/portmacro.h **** #else
  63:Middlewares/Third_Party/FreeRTOS/Source/portable/GCC/ARM_CM4F/portmacro.h **** 	typedef uint32_t TickType_t;
  64:Middlewares/Third_Party/FreeRTOS/Source/portable/GCC/ARM_CM4F/portmacro.h **** 	#define portMAX_DELAY ( TickType_t ) 0xffffffffUL
  65:Middlewares/Third_Party/FreeRTOS/Source/portable/GCC/ARM_CM4F/portmacro.h **** 
  66:Middlewares/Third_Party/FreeRTOS/Source/portable/GCC/ARM_CM4F/portmacro.h **** 	/* 32-bit tick type on a 32-bit architecture, so reads of the tick count do
  67:Middlewares/Third_Party/FreeRTOS/Source/portable/GCC/ARM_CM4F/portmacro.h **** 	not need to be guarded with a critical section. */
  68:Middlewares/Third_Party/FreeRTOS/Source/portable/GCC/ARM_CM4F/portmacro.h **** 	#define portTICK_TYPE_IS_ATOMIC 1
  69:Middlewares/Third_Party/FreeRTOS/Source/portable/GCC/ARM_CM4F/portmacro.h **** #endif
  70:Middlewares/Third_Party/FreeRTOS/Source/portable/GCC/ARM_CM4F/portmacro.h **** /*-----------------------------------------------------------*/
  71:Middlewares/Third_Party/FreeRTOS/Source/portable/GCC/ARM_CM4F/portmacro.h **** 
  72:Middlewares/Third_Party/FreeRTOS/Source/portable/GCC/ARM_CM4F/portmacro.h **** /* Architecture specifics. */
  73:Middlewares/Third_Party/FreeRTOS/Source/portable/GCC/ARM_CM4F/portmacro.h **** #define portSTACK_GROWTH			( -1 )
  74:Middlewares/Third_Party/FreeRTOS/Source/portable/GCC/ARM_CM4F/portmacro.h **** #define portTICK_PERIOD_MS			( ( TickType_t ) 1000 / configTICK_RATE_HZ )
  75:Middlewares/Third_Party/FreeRTOS/Source/portable/GCC/ARM_CM4F/portmacro.h **** #define portBYTE_ALIGNMENT			8
  76:Middlewares/Third_Party/FreeRTOS/Source/portable/GCC/ARM_CM4F/portmacro.h **** /*-----------------------------------------------------------*/
  77:Middlewares/Third_Party/FreeRTOS/Source/portable/GCC/ARM_CM4F/portmacro.h **** 
  78:Middlewares/Third_Party/FreeRTOS/Source/portable/GCC/ARM_CM4F/portmacro.h **** /* Scheduler utilities. */
  79:Middlewares/Third_Party/FreeRTOS/Source/portable/GCC/ARM_CM4F/portmacro.h **** #define portYIELD() 															\
  80:Middlewares/Third_Party/FreeRTOS/Source/portable/GCC/ARM_CM4F/portmacro.h **** {																				\
  81:Middlewares/Third_Party/FreeRTOS/Source/portable/GCC/ARM_CM4F/portmacro.h **** 	/* Set a PendSV to request a context switch. */								\
  82:Middlewares/Third_Party/FreeRTOS/Source/portable/GCC/ARM_CM4F/portmacro.h **** 	portNVIC_INT_CTRL_REG = portNVIC_PENDSVSET_BIT;								\
  83:Middlewares/Third_Party/FreeRTOS/Source/portable/GCC/ARM_CM4F/portmacro.h **** 																				\
  84:Middlewares/Third_Party/FreeRTOS/Source/portable/GCC/ARM_CM4F/portmacro.h **** 	/* Barriers are normally not required but do ensure the code is completely	\
  85:Middlewares/Third_Party/FreeRTOS/Source/portable/GCC/ARM_CM4F/portmacro.h **** 	within the specified behaviour for the architecture. */						\
  86:Middlewares/Third_Party/FreeRTOS/Source/portable/GCC/ARM_CM4F/portmacro.h **** 	__asm volatile( "dsb" ::: "memory" );										\
  87:Middlewares/Third_Party/FreeRTOS/Source/portable/GCC/ARM_CM4F/portmacro.h **** 	__asm volatile( "isb" );													\
  88:Middlewares/Third_Party/FreeRTOS/Source/portable/GCC/ARM_CM4F/portmacro.h **** }
  89:Middlewares/Third_Party/FreeRTOS/Source/portable/GCC/ARM_CM4F/portmacro.h **** 
  90:Middlewares/Third_Party/FreeRTOS/Source/portable/GCC/ARM_CM4F/portmacro.h **** #define portNVIC_INT_CTRL_REG		( * ( ( volatile uint32_t * ) 0xe000ed04 ) )
  91:Middlewares/Third_Party/FreeRTOS/Source/portable/GCC/ARM_CM4F/portmacro.h **** #define portNVIC_PENDSVSET_BIT		( 1UL << 28UL )
  92:Middlewares/Third_Party/FreeRTOS/Source/portable/GCC/ARM_CM4F/portmacro.h **** #define portEND_SWITCHING_ISR( xSwitchRequired ) if( xSwitchRequired != pdFALSE ) portYIELD()
  93:Middlewares/Third_Party/FreeRTOS/Source/portable/GCC/ARM_CM4F/portmacro.h **** #define portYIELD_FROM_ISR( x ) portEND_SWITCHING_ISR( x )
  94:Middlewares/Third_Party/FreeRTOS/Source/portable/GCC/ARM_CM4F/portmacro.h **** /*-----------------------------------------------------------*/
  95:Middlewares/Third_Party/FreeRTOS/Source/portable/GCC/ARM_CM4F/portmacro.h **** 
ARM GAS  /tmp/ccrT5O1S.s 			page 17


  96:Middlewares/Third_Party/FreeRTOS/Source/portable/GCC/ARM_CM4F/portmacro.h **** /* Critical section management. */
  97:Middlewares/Third_Party/FreeRTOS/Source/portable/GCC/ARM_CM4F/portmacro.h **** extern void vPortEnterCritical( void );
  98:Middlewares/Third_Party/FreeRTOS/Source/portable/GCC/ARM_CM4F/portmacro.h **** extern void vPortExitCritical( void );
  99:Middlewares/Third_Party/FreeRTOS/Source/portable/GCC/ARM_CM4F/portmacro.h **** #define portSET_INTERRUPT_MASK_FROM_ISR()		ulPortRaiseBASEPRI()
 100:Middlewares/Third_Party/FreeRTOS/Source/portable/GCC/ARM_CM4F/portmacro.h **** #define portCLEAR_INTERRUPT_MASK_FROM_ISR(x)	vPortSetBASEPRI(x)
 101:Middlewares/Third_Party/FreeRTOS/Source/portable/GCC/ARM_CM4F/portmacro.h **** #define portDISABLE_INTERRUPTS()				vPortRaiseBASEPRI()
 102:Middlewares/Third_Party/FreeRTOS/Source/portable/GCC/ARM_CM4F/portmacro.h **** #define portENABLE_INTERRUPTS()					vPortSetBASEPRI(0)
 103:Middlewares/Third_Party/FreeRTOS/Source/portable/GCC/ARM_CM4F/portmacro.h **** #define portENTER_CRITICAL()					vPortEnterCritical()
 104:Middlewares/Third_Party/FreeRTOS/Source/portable/GCC/ARM_CM4F/portmacro.h **** #define portEXIT_CRITICAL()						vPortExitCritical()
 105:Middlewares/Third_Party/FreeRTOS/Source/portable/GCC/ARM_CM4F/portmacro.h **** 
 106:Middlewares/Third_Party/FreeRTOS/Source/portable/GCC/ARM_CM4F/portmacro.h **** /*-----------------------------------------------------------*/
 107:Middlewares/Third_Party/FreeRTOS/Source/portable/GCC/ARM_CM4F/portmacro.h **** 
 108:Middlewares/Third_Party/FreeRTOS/Source/portable/GCC/ARM_CM4F/portmacro.h **** /* Task function macros as described on the FreeRTOS.org WEB site.  These are
 109:Middlewares/Third_Party/FreeRTOS/Source/portable/GCC/ARM_CM4F/portmacro.h **** not necessary for to use this port.  They are defined so the common demo files
 110:Middlewares/Third_Party/FreeRTOS/Source/portable/GCC/ARM_CM4F/portmacro.h **** (which build with all the ports) will build. */
 111:Middlewares/Third_Party/FreeRTOS/Source/portable/GCC/ARM_CM4F/portmacro.h **** #define portTASK_FUNCTION_PROTO( vFunction, pvParameters ) void vFunction( void *pvParameters )
 112:Middlewares/Third_Party/FreeRTOS/Source/portable/GCC/ARM_CM4F/portmacro.h **** #define portTASK_FUNCTION( vFunction, pvParameters ) void vFunction( void *pvParameters )
 113:Middlewares/Third_Party/FreeRTOS/Source/portable/GCC/ARM_CM4F/portmacro.h **** /*-----------------------------------------------------------*/
 114:Middlewares/Third_Party/FreeRTOS/Source/portable/GCC/ARM_CM4F/portmacro.h **** 
 115:Middlewares/Third_Party/FreeRTOS/Source/portable/GCC/ARM_CM4F/portmacro.h **** /* Tickless idle/low power functionality. */
 116:Middlewares/Third_Party/FreeRTOS/Source/portable/GCC/ARM_CM4F/portmacro.h **** #ifndef portSUPPRESS_TICKS_AND_SLEEP
 117:Middlewares/Third_Party/FreeRTOS/Source/portable/GCC/ARM_CM4F/portmacro.h **** 	extern void vPortSuppressTicksAndSleep( TickType_t xExpectedIdleTime );
 118:Middlewares/Third_Party/FreeRTOS/Source/portable/GCC/ARM_CM4F/portmacro.h **** 	#define portSUPPRESS_TICKS_AND_SLEEP( xExpectedIdleTime ) vPortSuppressTicksAndSleep( xExpectedIdl
 119:Middlewares/Third_Party/FreeRTOS/Source/portable/GCC/ARM_CM4F/portmacro.h **** #endif
 120:Middlewares/Third_Party/FreeRTOS/Source/portable/GCC/ARM_CM4F/portmacro.h **** /*-----------------------------------------------------------*/
 121:Middlewares/Third_Party/FreeRTOS/Source/portable/GCC/ARM_CM4F/portmacro.h **** 
 122:Middlewares/Third_Party/FreeRTOS/Source/portable/GCC/ARM_CM4F/portmacro.h **** /* Architecture specific optimisations. */
 123:Middlewares/Third_Party/FreeRTOS/Source/portable/GCC/ARM_CM4F/portmacro.h **** #ifndef configUSE_PORT_OPTIMISED_TASK_SELECTION
 124:Middlewares/Third_Party/FreeRTOS/Source/portable/GCC/ARM_CM4F/portmacro.h **** 	#define configUSE_PORT_OPTIMISED_TASK_SELECTION 1
 125:Middlewares/Third_Party/FreeRTOS/Source/portable/GCC/ARM_CM4F/portmacro.h **** #endif
 126:Middlewares/Third_Party/FreeRTOS/Source/portable/GCC/ARM_CM4F/portmacro.h **** 
 127:Middlewares/Third_Party/FreeRTOS/Source/portable/GCC/ARM_CM4F/portmacro.h **** #if configUSE_PORT_OPTIMISED_TASK_SELECTION == 1
 128:Middlewares/Third_Party/FreeRTOS/Source/portable/GCC/ARM_CM4F/portmacro.h **** 
 129:Middlewares/Third_Party/FreeRTOS/Source/portable/GCC/ARM_CM4F/portmacro.h **** 	/* Generic helper function. */
 130:Middlewares/Third_Party/FreeRTOS/Source/portable/GCC/ARM_CM4F/portmacro.h **** 	__attribute__( ( always_inline ) ) static inline uint8_t ucPortCountLeadingZeros( uint32_t ulBitma
 131:Middlewares/Third_Party/FreeRTOS/Source/portable/GCC/ARM_CM4F/portmacro.h **** 	{
 132:Middlewares/Third_Party/FreeRTOS/Source/portable/GCC/ARM_CM4F/portmacro.h **** 	uint8_t ucReturn;
 133:Middlewares/Third_Party/FreeRTOS/Source/portable/GCC/ARM_CM4F/portmacro.h **** 
 134:Middlewares/Third_Party/FreeRTOS/Source/portable/GCC/ARM_CM4F/portmacro.h **** 		__asm volatile ( "clz %0, %1" : "=r" ( ucReturn ) : "r" ( ulBitmap ) : "memory" );
 135:Middlewares/Third_Party/FreeRTOS/Source/portable/GCC/ARM_CM4F/portmacro.h **** 		return ucReturn;
 136:Middlewares/Third_Party/FreeRTOS/Source/portable/GCC/ARM_CM4F/portmacro.h **** 	}
 137:Middlewares/Third_Party/FreeRTOS/Source/portable/GCC/ARM_CM4F/portmacro.h **** 
 138:Middlewares/Third_Party/FreeRTOS/Source/portable/GCC/ARM_CM4F/portmacro.h **** 	/* Check the configuration. */
 139:Middlewares/Third_Party/FreeRTOS/Source/portable/GCC/ARM_CM4F/portmacro.h **** 	#if( configMAX_PRIORITIES > 32 )
 140:Middlewares/Third_Party/FreeRTOS/Source/portable/GCC/ARM_CM4F/portmacro.h **** 		#error configUSE_PORT_OPTIMISED_TASK_SELECTION can only be set to 1 when configMAX_PRIORITIES is 
 141:Middlewares/Third_Party/FreeRTOS/Source/portable/GCC/ARM_CM4F/portmacro.h **** 	#endif
 142:Middlewares/Third_Party/FreeRTOS/Source/portable/GCC/ARM_CM4F/portmacro.h **** 
 143:Middlewares/Third_Party/FreeRTOS/Source/portable/GCC/ARM_CM4F/portmacro.h **** 	/* Store/clear the ready priorities in a bit map. */
 144:Middlewares/Third_Party/FreeRTOS/Source/portable/GCC/ARM_CM4F/portmacro.h **** 	#define portRECORD_READY_PRIORITY( uxPriority, uxReadyPriorities ) ( uxReadyPriorities ) |= ( 1UL 
 145:Middlewares/Third_Party/FreeRTOS/Source/portable/GCC/ARM_CM4F/portmacro.h **** 	#define portRESET_READY_PRIORITY( uxPriority, uxReadyPriorities ) ( uxReadyPriorities ) &= ~( 1UL 
 146:Middlewares/Third_Party/FreeRTOS/Source/portable/GCC/ARM_CM4F/portmacro.h **** 
 147:Middlewares/Third_Party/FreeRTOS/Source/portable/GCC/ARM_CM4F/portmacro.h **** 	/*-----------------------------------------------------------*/
 148:Middlewares/Third_Party/FreeRTOS/Source/portable/GCC/ARM_CM4F/portmacro.h **** 
 149:Middlewares/Third_Party/FreeRTOS/Source/portable/GCC/ARM_CM4F/portmacro.h **** 	#define portGET_HIGHEST_PRIORITY( uxTopPriority, uxReadyPriorities ) uxTopPriority = ( 31UL - ( ui
 150:Middlewares/Third_Party/FreeRTOS/Source/portable/GCC/ARM_CM4F/portmacro.h **** 
 151:Middlewares/Third_Party/FreeRTOS/Source/portable/GCC/ARM_CM4F/portmacro.h **** #endif /* configUSE_PORT_OPTIMISED_TASK_SELECTION */
 152:Middlewares/Third_Party/FreeRTOS/Source/portable/GCC/ARM_CM4F/portmacro.h **** 
ARM GAS  /tmp/ccrT5O1S.s 			page 18


 153:Middlewares/Third_Party/FreeRTOS/Source/portable/GCC/ARM_CM4F/portmacro.h **** /*-----------------------------------------------------------*/
 154:Middlewares/Third_Party/FreeRTOS/Source/portable/GCC/ARM_CM4F/portmacro.h **** 
 155:Middlewares/Third_Party/FreeRTOS/Source/portable/GCC/ARM_CM4F/portmacro.h **** #ifdef configASSERT
 156:Middlewares/Third_Party/FreeRTOS/Source/portable/GCC/ARM_CM4F/portmacro.h **** 	void vPortValidateInterruptPriority( void );
 157:Middlewares/Third_Party/FreeRTOS/Source/portable/GCC/ARM_CM4F/portmacro.h **** 	#define portASSERT_IF_INTERRUPT_PRIORITY_INVALID() 	vPortValidateInterruptPriority()
 158:Middlewares/Third_Party/FreeRTOS/Source/portable/GCC/ARM_CM4F/portmacro.h **** #endif
 159:Middlewares/Third_Party/FreeRTOS/Source/portable/GCC/ARM_CM4F/portmacro.h **** 
 160:Middlewares/Third_Party/FreeRTOS/Source/portable/GCC/ARM_CM4F/portmacro.h **** /* portNOP() is not required by this port. */
 161:Middlewares/Third_Party/FreeRTOS/Source/portable/GCC/ARM_CM4F/portmacro.h **** #define portNOP()
 162:Middlewares/Third_Party/FreeRTOS/Source/portable/GCC/ARM_CM4F/portmacro.h **** 
 163:Middlewares/Third_Party/FreeRTOS/Source/portable/GCC/ARM_CM4F/portmacro.h **** #define portINLINE	__inline
 164:Middlewares/Third_Party/FreeRTOS/Source/portable/GCC/ARM_CM4F/portmacro.h **** 
 165:Middlewares/Third_Party/FreeRTOS/Source/portable/GCC/ARM_CM4F/portmacro.h **** #ifndef portFORCE_INLINE
 166:Middlewares/Third_Party/FreeRTOS/Source/portable/GCC/ARM_CM4F/portmacro.h **** 	#define portFORCE_INLINE inline __attribute__(( always_inline))
 167:Middlewares/Third_Party/FreeRTOS/Source/portable/GCC/ARM_CM4F/portmacro.h **** #endif
 168:Middlewares/Third_Party/FreeRTOS/Source/portable/GCC/ARM_CM4F/portmacro.h **** 
 169:Middlewares/Third_Party/FreeRTOS/Source/portable/GCC/ARM_CM4F/portmacro.h **** portFORCE_INLINE static BaseType_t xPortIsInsideInterrupt( void )
 170:Middlewares/Third_Party/FreeRTOS/Source/portable/GCC/ARM_CM4F/portmacro.h **** {
 171:Middlewares/Third_Party/FreeRTOS/Source/portable/GCC/ARM_CM4F/portmacro.h **** uint32_t ulCurrentInterrupt;
 172:Middlewares/Third_Party/FreeRTOS/Source/portable/GCC/ARM_CM4F/portmacro.h **** BaseType_t xReturn;
 173:Middlewares/Third_Party/FreeRTOS/Source/portable/GCC/ARM_CM4F/portmacro.h **** 
 174:Middlewares/Third_Party/FreeRTOS/Source/portable/GCC/ARM_CM4F/portmacro.h **** 	/* Obtain the number of the currently executing interrupt. */
 175:Middlewares/Third_Party/FreeRTOS/Source/portable/GCC/ARM_CM4F/portmacro.h **** 	__asm volatile( "mrs %0, ipsr" : "=r"( ulCurrentInterrupt ) :: "memory" );
 176:Middlewares/Third_Party/FreeRTOS/Source/portable/GCC/ARM_CM4F/portmacro.h **** 
 177:Middlewares/Third_Party/FreeRTOS/Source/portable/GCC/ARM_CM4F/portmacro.h **** 	if( ulCurrentInterrupt == 0 )
 178:Middlewares/Third_Party/FreeRTOS/Source/portable/GCC/ARM_CM4F/portmacro.h **** 	{
 179:Middlewares/Third_Party/FreeRTOS/Source/portable/GCC/ARM_CM4F/portmacro.h **** 		xReturn = pdFALSE;
 180:Middlewares/Third_Party/FreeRTOS/Source/portable/GCC/ARM_CM4F/portmacro.h **** 	}
 181:Middlewares/Third_Party/FreeRTOS/Source/portable/GCC/ARM_CM4F/portmacro.h **** 	else
 182:Middlewares/Third_Party/FreeRTOS/Source/portable/GCC/ARM_CM4F/portmacro.h **** 	{
 183:Middlewares/Third_Party/FreeRTOS/Source/portable/GCC/ARM_CM4F/portmacro.h **** 		xReturn = pdTRUE;
 184:Middlewares/Third_Party/FreeRTOS/Source/portable/GCC/ARM_CM4F/portmacro.h **** 	}
 185:Middlewares/Third_Party/FreeRTOS/Source/portable/GCC/ARM_CM4F/portmacro.h **** 
 186:Middlewares/Third_Party/FreeRTOS/Source/portable/GCC/ARM_CM4F/portmacro.h **** 	return xReturn;
 187:Middlewares/Third_Party/FreeRTOS/Source/portable/GCC/ARM_CM4F/portmacro.h **** }
 188:Middlewares/Third_Party/FreeRTOS/Source/portable/GCC/ARM_CM4F/portmacro.h **** 
 189:Middlewares/Third_Party/FreeRTOS/Source/portable/GCC/ARM_CM4F/portmacro.h **** /*-----------------------------------------------------------*/
 190:Middlewares/Third_Party/FreeRTOS/Source/portable/GCC/ARM_CM4F/portmacro.h **** 
 191:Middlewares/Third_Party/FreeRTOS/Source/portable/GCC/ARM_CM4F/portmacro.h **** portFORCE_INLINE static void vPortRaiseBASEPRI( void )
 118              		.loc 2 191 30 view .LVU27
 119              	.LBB38:
 192:Middlewares/Third_Party/FreeRTOS/Source/portable/GCC/ARM_CM4F/portmacro.h **** {
 193:Middlewares/Third_Party/FreeRTOS/Source/portable/GCC/ARM_CM4F/portmacro.h **** uint32_t ulNewBASEPRI;
 120              		.loc 2 193 1 view .LVU28
 194:Middlewares/Third_Party/FreeRTOS/Source/portable/GCC/ARM_CM4F/portmacro.h **** 
 195:Middlewares/Third_Party/FreeRTOS/Source/portable/GCC/ARM_CM4F/portmacro.h **** 	__asm volatile
 121              		.loc 2 195 2 view .LVU29
 122              		.syntax unified
 123              	@ 195 "Middlewares/Third_Party/FreeRTOS/Source/portable/GCC/ARM_CM4F/portmacro.h" 1
 124 0012 4FF05003 			mov r3, #80												
 125 0016 83F31188 		msr basepri, r3											
 126 001a BFF36F8F 		isb														
 127 001e BFF34F8F 		dsb														
 128              	
 129              	@ 0 "" 2
 130              	.LVL9:
 131              		.thumb
ARM GAS  /tmp/ccrT5O1S.s 			page 19


 132              		.syntax unified
 133              	.L10:
 134              		.loc 2 195 2 is_stmt 0 view .LVU30
 135              	.LBE38:
 136              	.LBE37:
 106:Middlewares/Third_Party/FreeRTOS/Source/event_groups.c **** 		}
 137              		.loc 1 106 4 is_stmt 1 discriminator 2 view .LVU31
 106:Middlewares/Third_Party/FreeRTOS/Source/event_groups.c **** 		}
 138              		.loc 1 106 4 discriminator 2 view .LVU32
 139 0022 FEE7     		b	.L10
 140              	.L13:
 141              	.LCFI2:
 142              		.cfi_def_cfa_offset 0
 143              		.cfi_restore 4
 144              		.cfi_restore 14
 106:Middlewares/Third_Party/FreeRTOS/Source/event_groups.c **** 		}
 145              		.loc 1 106 4 is_stmt 0 discriminator 2 view .LVU33
 146              	.LBE36:
  98:Middlewares/Third_Party/FreeRTOS/Source/event_groups.c **** 
 147              		.loc 1 98 3 is_stmt 1 view .LVU34
 148              	.LBB39:
 149              	.LBI39:
 191:Middlewares/Third_Party/FreeRTOS/Source/portable/GCC/ARM_CM4F/portmacro.h **** {
 150              		.loc 2 191 30 view .LVU35
 151              	.LBB40:
 193:Middlewares/Third_Party/FreeRTOS/Source/portable/GCC/ARM_CM4F/portmacro.h **** 
 152              		.loc 2 193 1 view .LVU36
 153              		.loc 2 195 2 view .LVU37
 154              		.syntax unified
 155              	@ 195 "Middlewares/Third_Party/FreeRTOS/Source/portable/GCC/ARM_CM4F/portmacro.h" 1
 156 0024 4FF05003 			mov r3, #80												
 157 0028 83F31188 		msr basepri, r3											
 158 002c BFF36F8F 		isb														
 159 0030 BFF34F8F 		dsb														
 160              	
 161              	@ 0 "" 2
 162              	.LVL10:
 163              		.thumb
 164              		.syntax unified
 165              	.L8:
 166              		.loc 2 195 2 is_stmt 0 view .LVU38
 167              	.LBE40:
 168              	.LBE39:
  98:Middlewares/Third_Party/FreeRTOS/Source/event_groups.c **** 
 169              		.loc 1 98 3 is_stmt 1 discriminator 1 view .LVU39
  98:Middlewares/Third_Party/FreeRTOS/Source/event_groups.c **** 
 170              		.loc 1 98 3 discriminator 1 view .LVU40
 171 0034 FEE7     		b	.L8
 172              	.L9:
 173              	.LCFI3:
 174              		.cfi_def_cfa_offset 16
 175              		.cfi_offset 4, -8
 176              		.cfi_offset 14, -4
 177              	.LBB41:
 106:Middlewares/Third_Party/FreeRTOS/Source/event_groups.c **** 		}
 178              		.loc 1 106 51 view .LVU41
 179              	.LBE41:
ARM GAS  /tmp/ccrT5O1S.s 			page 20


 111:Middlewares/Third_Party/FreeRTOS/Source/event_groups.c **** 
 180              		.loc 1 111 3 view .LVU42
 181              	.LVL11:
 113:Middlewares/Third_Party/FreeRTOS/Source/event_groups.c **** 		{
 182              		.loc 1 113 3 view .LVU43
 115:Middlewares/Third_Party/FreeRTOS/Source/event_groups.c **** 			vListInitialise( &( pxEventBits->xTasksWaitingForBits ) );
 183              		.loc 1 115 4 view .LVU44
 115:Middlewares/Third_Party/FreeRTOS/Source/event_groups.c **** 			vListInitialise( &( pxEventBits->xTasksWaitingForBits ) );
 184              		.loc 1 115 29 is_stmt 0 view .LVU45
 185 0036 0023     		movs	r3, #0
 186 0038 40F8043B 		str	r3, [r0], #4
 187              	.LVL12:
 116:Middlewares/Third_Party/FreeRTOS/Source/event_groups.c **** 
 188              		.loc 1 116 4 is_stmt 1 view .LVU46
 189 003c FFF7FEFF 		bl	vListInitialise
 190              	.LVL13:
 123:Middlewares/Third_Party/FreeRTOS/Source/event_groups.c **** 			}
 191              		.loc 1 123 5 view .LVU47
 123:Middlewares/Third_Party/FreeRTOS/Source/event_groups.c **** 			}
 192              		.loc 1 123 40 is_stmt 0 view .LVU48
 193 0040 0123     		movs	r3, #1
 194 0042 2377     		strb	r3, [r4, #28]
 127:Middlewares/Third_Party/FreeRTOS/Source/event_groups.c **** 		}
 195              		.loc 1 127 42 is_stmt 1 view .LVU49
 131:Middlewares/Third_Party/FreeRTOS/Source/event_groups.c **** 		}
 196              		.loc 1 131 36 view .LVU50
 134:Middlewares/Third_Party/FreeRTOS/Source/event_groups.c **** 	}
 197              		.loc 1 134 3 view .LVU51
 135:Middlewares/Third_Party/FreeRTOS/Source/event_groups.c **** 
 198              		.loc 1 135 2 is_stmt 0 view .LVU52
 199 0044 2046     		mov	r0, r4
 200 0046 02B0     		add	sp, sp, #8
 201              	.LCFI4:
 202              		.cfi_def_cfa_offset 8
 203              		@ sp needed
 204 0048 10BD     		pop	{r4, pc}
 135:Middlewares/Third_Party/FreeRTOS/Source/event_groups.c **** 
 205              		.loc 1 135 2 view .LVU53
 206              		.cfi_endproc
 207              	.LFE4:
 209              		.section	.text.xEventGroupCreate,"ax",%progbits
 210              		.align	1
 211              		.global	xEventGroupCreate
 212              		.syntax unified
 213              		.thumb
 214              		.thumb_func
 215              		.fpu fpv5-d16
 217              	xEventGroupCreate:
 218              	.LFB5:
 143:Middlewares/Third_Party/FreeRTOS/Source/event_groups.c **** 	EventGroup_t *pxEventBits;
 219              		.loc 1 143 2 is_stmt 1 view -0
 220              		.cfi_startproc
 221              		@ args = 0, pretend = 0, frame = 0
 222              		@ frame_needed = 0, uses_anonymous_args = 0
 223 0000 38B5     		push	{r3, r4, r5, lr}
 224              	.LCFI5:
 225              		.cfi_def_cfa_offset 16
ARM GAS  /tmp/ccrT5O1S.s 			page 21


 226              		.cfi_offset 3, -16
 227              		.cfi_offset 4, -12
 228              		.cfi_offset 5, -8
 229              		.cfi_offset 14, -4
 144:Middlewares/Third_Party/FreeRTOS/Source/event_groups.c **** 
 230              		.loc 1 144 2 view .LVU55
 147:Middlewares/Third_Party/FreeRTOS/Source/event_groups.c **** 
 231              		.loc 1 147 3 view .LVU56
 147:Middlewares/Third_Party/FreeRTOS/Source/event_groups.c **** 
 232              		.loc 1 147 36 is_stmt 0 view .LVU57
 233 0002 2020     		movs	r0, #32
 234 0004 FFF7FEFF 		bl	pvPortMalloc
 235              	.LVL14:
 149:Middlewares/Third_Party/FreeRTOS/Source/event_groups.c **** 		{
 236              		.loc 1 149 3 is_stmt 1 view .LVU58
 149:Middlewares/Third_Party/FreeRTOS/Source/event_groups.c **** 		{
 237              		.loc 1 149 5 is_stmt 0 view .LVU59
 238 0008 0446     		mov	r4, r0
 239 000a 28B1     		cbz	r0, .L14
 151:Middlewares/Third_Party/FreeRTOS/Source/event_groups.c **** 			vListInitialise( &( pxEventBits->xTasksWaitingForBits ) );
 240              		.loc 1 151 4 is_stmt 1 view .LVU60
 151:Middlewares/Third_Party/FreeRTOS/Source/event_groups.c **** 			vListInitialise( &( pxEventBits->xTasksWaitingForBits ) );
 241              		.loc 1 151 29 is_stmt 0 view .LVU61
 242 000c 0025     		movs	r5, #0
 243 000e 40F8045B 		str	r5, [r0], #4
 244              	.LVL15:
 152:Middlewares/Third_Party/FreeRTOS/Source/event_groups.c **** 
 245              		.loc 1 152 4 is_stmt 1 view .LVU62
 246 0012 FFF7FEFF 		bl	vListInitialise
 247              	.LVL16:
 159:Middlewares/Third_Party/FreeRTOS/Source/event_groups.c **** 			}
 248              		.loc 1 159 5 view .LVU63
 159:Middlewares/Third_Party/FreeRTOS/Source/event_groups.c **** 			}
 249              		.loc 1 159 40 is_stmt 0 view .LVU64
 250 0016 2577     		strb	r5, [r4, #28]
 163:Middlewares/Third_Party/FreeRTOS/Source/event_groups.c **** 		}
 251              		.loc 1 163 42 is_stmt 1 view .LVU65
 167:Middlewares/Third_Party/FreeRTOS/Source/event_groups.c **** 		}
 252              		.loc 1 167 36 view .LVU66
 170:Middlewares/Third_Party/FreeRTOS/Source/event_groups.c **** 	}
 253              		.loc 1 170 3 view .LVU67
 254              	.L14:
 171:Middlewares/Third_Party/FreeRTOS/Source/event_groups.c **** 
 255              		.loc 1 171 2 is_stmt 0 view .LVU68
 256 0018 2046     		mov	r0, r4
 257 001a 38BD     		pop	{r3, r4, r5, pc}
 171:Middlewares/Third_Party/FreeRTOS/Source/event_groups.c **** 
 258              		.loc 1 171 2 view .LVU69
 259              		.cfi_endproc
 260              	.LFE5:
 262              		.section	.text.xEventGroupWaitBits,"ax",%progbits
 263              		.align	1
 264              		.global	xEventGroupWaitBits
 265              		.syntax unified
 266              		.thumb
 267              		.thumb_func
 268              		.fpu fpv5-d16
ARM GAS  /tmp/ccrT5O1S.s 			page 22


 270              	xEventGroupWaitBits:
 271              	.LVL17:
 272              	.LFB7:
 297:Middlewares/Third_Party/FreeRTOS/Source/event_groups.c **** EventGroup_t *pxEventBits = ( EventGroup_t * ) xEventGroup;
 273              		.loc 1 297 1 is_stmt 1 view -0
 274              		.cfi_startproc
 275              		@ args = 4, pretend = 0, frame = 0
 276              		@ frame_needed = 0, uses_anonymous_args = 0
 297:Middlewares/Third_Party/FreeRTOS/Source/event_groups.c **** EventGroup_t *pxEventBits = ( EventGroup_t * ) xEventGroup;
 277              		.loc 1 297 1 is_stmt 0 view .LVU71
 278 0000 2DE9F047 		push	{r4, r5, r6, r7, r8, r9, r10, lr}
 279              	.LCFI6:
 280              		.cfi_def_cfa_offset 32
 281              		.cfi_offset 4, -32
 282              		.cfi_offset 5, -28
 283              		.cfi_offset 6, -24
 284              		.cfi_offset 7, -20
 285              		.cfi_offset 8, -16
 286              		.cfi_offset 9, -12
 287              		.cfi_offset 10, -8
 288              		.cfi_offset 14, -4
 289 0004 DDF820A0 		ldr	r10, [sp, #32]
 298:Middlewares/Third_Party/FreeRTOS/Source/event_groups.c **** EventBits_t uxReturn, uxControlBits = 0;
 290              		.loc 1 298 1 is_stmt 1 view .LVU72
 291              	.LVL18:
 299:Middlewares/Third_Party/FreeRTOS/Source/event_groups.c **** BaseType_t xWaitConditionMet, xAlreadyYielded;
 292              		.loc 1 299 1 view .LVU73
 300:Middlewares/Third_Party/FreeRTOS/Source/event_groups.c **** BaseType_t xTimeoutOccurred = pdFALSE;
 293              		.loc 1 300 1 view .LVU74
 301:Middlewares/Third_Party/FreeRTOS/Source/event_groups.c **** 
 294              		.loc 1 301 1 view .LVU75
 305:Middlewares/Third_Party/FreeRTOS/Source/event_groups.c **** 	configASSERT( ( uxBitsToWaitFor & eventEVENT_BITS_CONTROL_BYTES ) == 0 );
 295              		.loc 1 305 2 view .LVU76
 296 0008 78B1     		cbz	r0, .L37
 297 000a 0D46     		mov	r5, r1
 298 000c 1746     		mov	r7, r2
 299 000e 9846     		mov	r8, r3
 300 0010 0646     		mov	r6, r0
 305:Middlewares/Third_Party/FreeRTOS/Source/event_groups.c **** 	configASSERT( ( uxBitsToWaitFor & eventEVENT_BITS_CONTROL_BYTES ) == 0 );
 301              		.loc 1 305 29 discriminator 2 view .LVU77
 306:Middlewares/Third_Party/FreeRTOS/Source/event_groups.c **** 	configASSERT( uxBitsToWaitFor != 0 );
 302              		.loc 1 306 2 discriminator 2 view .LVU78
 303 0012 11F07F49 		ands	r9, r1, #-16777216
 304 0016 11D0     		beq	.L20
 306:Middlewares/Third_Party/FreeRTOS/Source/event_groups.c **** 	configASSERT( uxBitsToWaitFor != 0 );
 305              		.loc 1 306 2 view .LVU79
 306              	.LBB42:
 307              	.LBI42:
 191:Middlewares/Third_Party/FreeRTOS/Source/portable/GCC/ARM_CM4F/portmacro.h **** {
 308              		.loc 2 191 30 view .LVU80
 309              	.LBB43:
 193:Middlewares/Third_Party/FreeRTOS/Source/portable/GCC/ARM_CM4F/portmacro.h **** 
 310              		.loc 2 193 1 view .LVU81
 311              		.loc 2 195 2 view .LVU82
 312              		.syntax unified
 313              	@ 195 "Middlewares/Third_Party/FreeRTOS/Source/portable/GCC/ARM_CM4F/portmacro.h" 1
 314 0018 4FF05003 			mov r3, #80												
ARM GAS  /tmp/ccrT5O1S.s 			page 23


 315 001c 83F31188 		msr basepri, r3											
 316 0020 BFF36F8F 		isb														
 317 0024 BFF34F8F 		dsb														
 318              	
 319              	@ 0 "" 2
 320              	.LVL19:
 321              		.thumb
 322              		.syntax unified
 323              	.L21:
 324              		.loc 2 195 2 is_stmt 0 view .LVU83
 325              	.LBE43:
 326              	.LBE42:
 306:Middlewares/Third_Party/FreeRTOS/Source/event_groups.c **** 	configASSERT( uxBitsToWaitFor != 0 );
 327              		.loc 1 306 2 is_stmt 1 discriminator 2 view .LVU84
 306:Middlewares/Third_Party/FreeRTOS/Source/event_groups.c **** 	configASSERT( uxBitsToWaitFor != 0 );
 328              		.loc 1 306 2 discriminator 2 view .LVU85
 329 0028 FEE7     		b	.L21
 330              	.LVL20:
 331              	.L37:
 305:Middlewares/Third_Party/FreeRTOS/Source/event_groups.c **** 	configASSERT( ( uxBitsToWaitFor & eventEVENT_BITS_CONTROL_BYTES ) == 0 );
 332              		.loc 1 305 2 view .LVU86
 333              	.LBB44:
 334              	.LBI44:
 191:Middlewares/Third_Party/FreeRTOS/Source/portable/GCC/ARM_CM4F/portmacro.h **** {
 335              		.loc 2 191 30 view .LVU87
 336              	.LBB45:
 193:Middlewares/Third_Party/FreeRTOS/Source/portable/GCC/ARM_CM4F/portmacro.h **** 
 337              		.loc 2 193 1 view .LVU88
 338              		.loc 2 195 2 view .LVU89
 339              		.syntax unified
 340              	@ 195 "Middlewares/Third_Party/FreeRTOS/Source/portable/GCC/ARM_CM4F/portmacro.h" 1
 341 002a 4FF05003 			mov r3, #80												
 342 002e 83F31188 		msr basepri, r3											
 343 0032 BFF36F8F 		isb														
 344 0036 BFF34F8F 		dsb														
 345              	
 346              	@ 0 "" 2
 347              	.LVL21:
 348              		.thumb
 349              		.syntax unified
 350              	.L19:
 351              		.loc 2 195 2 is_stmt 0 view .LVU90
 352              	.LBE45:
 353              	.LBE44:
 305:Middlewares/Third_Party/FreeRTOS/Source/event_groups.c **** 	configASSERT( ( uxBitsToWaitFor & eventEVENT_BITS_CONTROL_BYTES ) == 0 );
 354              		.loc 1 305 2 is_stmt 1 discriminator 1 view .LVU91
 305:Middlewares/Third_Party/FreeRTOS/Source/event_groups.c **** 	configASSERT( ( uxBitsToWaitFor & eventEVENT_BITS_CONTROL_BYTES ) == 0 );
 355              		.loc 1 305 2 discriminator 1 view .LVU92
 356 003a FEE7     		b	.L19
 357              	.LVL22:
 358              	.L20:
 306:Middlewares/Third_Party/FreeRTOS/Source/event_groups.c **** 	configASSERT( uxBitsToWaitFor != 0 );
 359              		.loc 1 306 74 discriminator 2 view .LVU93
 307:Middlewares/Third_Party/FreeRTOS/Source/event_groups.c **** 	#if ( ( INCLUDE_xTaskGetSchedulerState == 1 ) || ( configUSE_TIMERS == 1 ) )
 360              		.loc 1 307 2 discriminator 2 view .LVU94
 361 003c 41B9     		cbnz	r1, .L22
 307:Middlewares/Third_Party/FreeRTOS/Source/event_groups.c **** 	#if ( ( INCLUDE_xTaskGetSchedulerState == 1 ) || ( configUSE_TIMERS == 1 ) )
ARM GAS  /tmp/ccrT5O1S.s 			page 24


 362              		.loc 1 307 2 view .LVU95
 363              	.LBB46:
 364              	.LBI46:
 191:Middlewares/Third_Party/FreeRTOS/Source/portable/GCC/ARM_CM4F/portmacro.h **** {
 365              		.loc 2 191 30 view .LVU96
 366              	.LBB47:
 193:Middlewares/Third_Party/FreeRTOS/Source/portable/GCC/ARM_CM4F/portmacro.h **** 
 367              		.loc 2 193 1 view .LVU97
 368              		.loc 2 195 2 view .LVU98
 369              		.syntax unified
 370              	@ 195 "Middlewares/Third_Party/FreeRTOS/Source/portable/GCC/ARM_CM4F/portmacro.h" 1
 371 003e 4FF05003 			mov r3, #80												
 372 0042 83F31188 		msr basepri, r3											
 373 0046 BFF36F8F 		isb														
 374 004a BFF34F8F 		dsb														
 375              	
 376              	@ 0 "" 2
 377              	.LVL23:
 378              		.thumb
 379              		.syntax unified
 380              	.L23:
 381              		.loc 2 195 2 is_stmt 0 view .LVU99
 382              	.LBE47:
 383              	.LBE46:
 307:Middlewares/Third_Party/FreeRTOS/Source/event_groups.c **** 	#if ( ( INCLUDE_xTaskGetSchedulerState == 1 ) || ( configUSE_TIMERS == 1 ) )
 384              		.loc 1 307 2 is_stmt 1 discriminator 3 view .LVU100
 307:Middlewares/Third_Party/FreeRTOS/Source/event_groups.c **** 	#if ( ( INCLUDE_xTaskGetSchedulerState == 1 ) || ( configUSE_TIMERS == 1 ) )
 385              		.loc 1 307 2 discriminator 3 view .LVU101
 386 004e FEE7     		b	.L23
 387              	.LVL24:
 388              	.L22:
 307:Middlewares/Third_Party/FreeRTOS/Source/event_groups.c **** 	#if ( ( INCLUDE_xTaskGetSchedulerState == 1 ) || ( configUSE_TIMERS == 1 ) )
 389              		.loc 1 307 38 discriminator 2 view .LVU102
 310:Middlewares/Third_Party/FreeRTOS/Source/event_groups.c **** 	}
 390              		.loc 1 310 3 discriminator 2 view .LVU103
 391 0050 FFF7FEFF 		bl	xTaskGetSchedulerState
 392              	.LVL25:
 310:Middlewares/Third_Party/FreeRTOS/Source/event_groups.c **** 	}
 393              		.loc 1 310 3 is_stmt 0 discriminator 2 view .LVU104
 394 0054 58B9     		cbnz	r0, .L24
 395 0056 BAF1000F 		cmp	r10, #0
 396 005a 08D0     		beq	.L24
 310:Middlewares/Third_Party/FreeRTOS/Source/event_groups.c **** 	}
 397              		.loc 1 310 3 is_stmt 1 view .LVU105
 398              	.LBB48:
 399              	.LBI48:
 191:Middlewares/Third_Party/FreeRTOS/Source/portable/GCC/ARM_CM4F/portmacro.h **** {
 400              		.loc 2 191 30 view .LVU106
 401              	.LBB49:
 193:Middlewares/Third_Party/FreeRTOS/Source/portable/GCC/ARM_CM4F/portmacro.h **** 
 402              		.loc 2 193 1 view .LVU107
 403              		.loc 2 195 2 view .LVU108
 404              		.syntax unified
 405              	@ 195 "Middlewares/Third_Party/FreeRTOS/Source/portable/GCC/ARM_CM4F/portmacro.h" 1
 406 005c 4FF05003 			mov r3, #80												
 407 0060 83F31188 		msr basepri, r3											
 408 0064 BFF36F8F 		isb														
ARM GAS  /tmp/ccrT5O1S.s 			page 25


 409 0068 BFF34F8F 		dsb														
 410              	
 411              	@ 0 "" 2
 412              	.LVL26:
 413              		.thumb
 414              		.syntax unified
 415              	.L25:
 416              		.loc 2 195 2 is_stmt 0 view .LVU109
 417              	.LBE49:
 418              	.LBE48:
 310:Middlewares/Third_Party/FreeRTOS/Source/event_groups.c **** 	}
 419              		.loc 1 310 3 is_stmt 1 discriminator 4 view .LVU110
 310:Middlewares/Third_Party/FreeRTOS/Source/event_groups.c **** 	}
 420              		.loc 1 310 3 discriminator 4 view .LVU111
 421 006c FEE7     		b	.L25
 422              	.L24:
 310:Middlewares/Third_Party/FreeRTOS/Source/event_groups.c **** 	}
 423              		.loc 1 310 104 discriminator 8 view .LVU112
 314:Middlewares/Third_Party/FreeRTOS/Source/event_groups.c **** 	{
 424              		.loc 1 314 2 discriminator 8 view .LVU113
 425 006e FFF7FEFF 		bl	vTaskSuspendAll
 426              	.LVL27:
 427              	.LBB50:
 316:Middlewares/Third_Party/FreeRTOS/Source/event_groups.c **** 
 428              		.loc 1 316 3 discriminator 8 view .LVU114
 316:Middlewares/Third_Party/FreeRTOS/Source/event_groups.c **** 
 429              		.loc 1 316 21 is_stmt 0 discriminator 8 view .LVU115
 430 0072 3468     		ldr	r4, [r6]
 431              	.LVL28:
 319:Middlewares/Third_Party/FreeRTOS/Source/event_groups.c **** 
 432              		.loc 1 319 3 is_stmt 1 discriminator 8 view .LVU116
 319:Middlewares/Third_Party/FreeRTOS/Source/event_groups.c **** 
 433              		.loc 1 319 23 is_stmt 0 discriminator 8 view .LVU117
 434 0074 4246     		mov	r2, r8
 435 0076 2946     		mov	r1, r5
 436 0078 2046     		mov	r0, r4
 437 007a FFF7FEFF 		bl	prvTestWaitCondition
 438              	.LVL29:
 321:Middlewares/Third_Party/FreeRTOS/Source/event_groups.c **** 		{
 439              		.loc 1 321 3 is_stmt 1 discriminator 8 view .LVU118
 321:Middlewares/Third_Party/FreeRTOS/Source/event_groups.c **** 		{
 440              		.loc 1 321 5 is_stmt 0 discriminator 8 view .LVU119
 441 007e E0B1     		cbz	r0, .L26
 325:Middlewares/Third_Party/FreeRTOS/Source/event_groups.c **** 			xTicksToWait = ( TickType_t ) 0;
 442              		.loc 1 325 4 is_stmt 1 view .LVU120
 443              	.LVL30:
 326:Middlewares/Third_Party/FreeRTOS/Source/event_groups.c **** 
 444              		.loc 1 326 4 view .LVU121
 329:Middlewares/Third_Party/FreeRTOS/Source/event_groups.c **** 			{
 445              		.loc 1 329 4 view .LVU122
 329:Middlewares/Third_Party/FreeRTOS/Source/event_groups.c **** 			{
 446              		.loc 1 329 6 is_stmt 0 view .LVU123
 447 0080 17B1     		cbz	r7, .L27
 331:Middlewares/Third_Party/FreeRTOS/Source/event_groups.c **** 			}
 448              		.loc 1 331 5 is_stmt 1 view .LVU124
 331:Middlewares/Third_Party/FreeRTOS/Source/event_groups.c **** 			}
 449              		.loc 1 331 30 is_stmt 0 view .LVU125
ARM GAS  /tmp/ccrT5O1S.s 			page 26


 450 0082 24EA0503 		bic	r3, r4, r5
 451 0086 3360     		str	r3, [r6]
 452              	.LVL31:
 453              	.L27:
 379:Middlewares/Third_Party/FreeRTOS/Source/event_groups.c **** 		}
 454              		.loc 1 379 68 is_stmt 1 view .LVU126
 455              	.LBE50:
 382:Middlewares/Third_Party/FreeRTOS/Source/event_groups.c **** 
 456              		.loc 1 382 2 view .LVU127
 382:Middlewares/Third_Party/FreeRTOS/Source/event_groups.c **** 
 457              		.loc 1 382 20 is_stmt 0 view .LVU128
 458 0088 FFF7FEFF 		bl	xTaskResumeAll
 459              	.LVL32:
 384:Middlewares/Third_Party/FreeRTOS/Source/event_groups.c **** 	{
 460              		.loc 1 384 2 is_stmt 1 view .LVU129
 384:Middlewares/Third_Party/FreeRTOS/Source/event_groups.c **** 	{
 461              		.loc 1 384 4 is_stmt 0 view .LVU130
 462 008c B9F1000F 		cmp	r9, #0
 463 0090 10D0     		beq	.L17
 386:Middlewares/Third_Party/FreeRTOS/Source/event_groups.c **** 		{
 464              		.loc 1 386 3 is_stmt 1 view .LVU131
 386:Middlewares/Third_Party/FreeRTOS/Source/event_groups.c **** 		{
 465              		.loc 1 386 5 is_stmt 0 view .LVU132
 466 0092 38B9     		cbnz	r0, .L31
 388:Middlewares/Third_Party/FreeRTOS/Source/event_groups.c **** 		}
 467              		.loc 1 388 4 is_stmt 1 view .LVU133
 468 0094 1C4B     		ldr	r3, .L39
 469 0096 4FF08052 		mov	r2, #268435456
 470 009a 1A60     		str	r2, [r3]
 388:Middlewares/Third_Party/FreeRTOS/Source/event_groups.c **** 		}
 471              		.loc 1 388 4 view .LVU134
 472              		.syntax unified
 473              	@ 388 "Middlewares/Third_Party/FreeRTOS/Source/event_groups.c" 1
 474 009c BFF34F8F 		dsb
 475              	@ 0 "" 2
 388:Middlewares/Third_Party/FreeRTOS/Source/event_groups.c **** 		}
 476              		.loc 1 388 4 view .LVU135
 477              	@ 388 "Middlewares/Third_Party/FreeRTOS/Source/event_groups.c" 1
 478 00a0 BFF36F8F 		isb
 479              	@ 0 "" 2
 388:Middlewares/Third_Party/FreeRTOS/Source/event_groups.c **** 		}
 480              		.loc 1 388 26 view .LVU136
 481              		.thumb
 482              		.syntax unified
 483              	.L31:
 392:Middlewares/Third_Party/FreeRTOS/Source/event_groups.c **** 		}
 484              		.loc 1 392 28 view .LVU137
 399:Middlewares/Third_Party/FreeRTOS/Source/event_groups.c **** 
 485              		.loc 1 399 3 view .LVU138
 399:Middlewares/Third_Party/FreeRTOS/Source/event_groups.c **** 
 486              		.loc 1 399 14 is_stmt 0 view .LVU139
 487 00a4 FFF7FEFF 		bl	uxTaskResetEventItemValue
 488              	.LVL33:
 399:Middlewares/Third_Party/FreeRTOS/Source/event_groups.c **** 
 489              		.loc 1 399 14 view .LVU140
 490 00a8 0446     		mov	r4, r0
 491              	.LVL34:
ARM GAS  /tmp/ccrT5O1S.s 			page 27


 401:Middlewares/Third_Party/FreeRTOS/Source/event_groups.c **** 		{
 492              		.loc 1 401 3 is_stmt 1 view .LVU141
 401:Middlewares/Third_Party/FreeRTOS/Source/event_groups.c **** 		{
 493              		.loc 1 401 5 is_stmt 0 view .LVU142
 494 00aa 10F0007F 		tst	r0, #33554432
 495 00ae 1BD0     		beq	.L38
 496              	.LVL35:
 497              	.L32:
 432:Middlewares/Third_Party/FreeRTOS/Source/event_groups.c **** 
 498              		.loc 1 432 3 is_stmt 1 view .LVU143
 435:Middlewares/Third_Party/FreeRTOS/Source/event_groups.c **** 	}
 499              		.loc 1 435 3 view .LVU144
 435:Middlewares/Third_Party/FreeRTOS/Source/event_groups.c **** 	}
 500              		.loc 1 435 12 is_stmt 0 view .LVU145
 501 00b0 24F07F44 		bic	r4, r4, #-16777216
 502              	.LVL36:
 437:Middlewares/Third_Party/FreeRTOS/Source/event_groups.c **** 
 503              		.loc 1 437 2 is_stmt 1 view .LVU146
 440:Middlewares/Third_Party/FreeRTOS/Source/event_groups.c **** 
 504              		.loc 1 440 2 view .LVU147
 442:Middlewares/Third_Party/FreeRTOS/Source/event_groups.c **** }
 505              		.loc 1 442 2 view .LVU148
 506              	.L17:
 443:Middlewares/Third_Party/FreeRTOS/Source/event_groups.c **** /*-----------------------------------------------------------*/
 507              		.loc 1 443 1 is_stmt 0 view .LVU149
 508 00b4 2046     		mov	r0, r4
 509 00b6 BDE8F087 		pop	{r4, r5, r6, r7, r8, r9, r10, pc}
 510              	.LVL37:
 511              	.L26:
 512              	.LBB51:
 338:Middlewares/Third_Party/FreeRTOS/Source/event_groups.c **** 		{
 513              		.loc 1 338 8 is_stmt 1 view .LVU150
 338:Middlewares/Third_Party/FreeRTOS/Source/event_groups.c **** 		{
 514              		.loc 1 338 10 is_stmt 0 view .LVU151
 515 00ba BAF1000F 		cmp	r10, #0
 516 00be 11D0     		beq	.L34
 351:Middlewares/Third_Party/FreeRTOS/Source/event_groups.c **** 			{
 517              		.loc 1 351 4 is_stmt 1 view .LVU152
 351:Middlewares/Third_Party/FreeRTOS/Source/event_groups.c **** 			{
 518              		.loc 1 351 6 is_stmt 0 view .LVU153
 519 00c0 6FB9     		cbnz	r7, .L35
 520              	.LBE51:
 299:Middlewares/Third_Party/FreeRTOS/Source/event_groups.c **** BaseType_t xWaitConditionMet, xAlreadyYielded;
 521              		.loc 1 299 23 view .LVU154
 522 00c2 4946     		mov	r1, r9
 523              	.L28:
 524              	.LVL38:
 525              	.LBB52:
 357:Middlewares/Third_Party/FreeRTOS/Source/event_groups.c **** 			}
 526              		.loc 1 357 29 is_stmt 1 view .LVU155
 360:Middlewares/Third_Party/FreeRTOS/Source/event_groups.c **** 			{
 527              		.loc 1 360 4 view .LVU156
 360:Middlewares/Third_Party/FreeRTOS/Source/event_groups.c **** 			{
 528              		.loc 1 360 6 is_stmt 0 view .LVU157
 529 00c4 B8F1000F 		cmp	r8, #0
 530 00c8 01D0     		beq	.L29
 362:Middlewares/Third_Party/FreeRTOS/Source/event_groups.c **** 			}
ARM GAS  /tmp/ccrT5O1S.s 			page 28


 531              		.loc 1 362 5 is_stmt 1 view .LVU158
 362:Middlewares/Third_Party/FreeRTOS/Source/event_groups.c **** 			}
 532              		.loc 1 362 19 is_stmt 0 view .LVU159
 533 00ca 41F08061 		orr	r1, r1, #67108864
 534              	.LVL39:
 535              	.L29:
 366:Middlewares/Third_Party/FreeRTOS/Source/event_groups.c **** 			}
 536              		.loc 1 366 29 is_stmt 1 view .LVU160
 372:Middlewares/Third_Party/FreeRTOS/Source/event_groups.c **** 
 537              		.loc 1 372 4 view .LVU161
 538 00ce 5246     		mov	r2, r10
 539 00d0 2943     		orrs	r1, r1, r5
 540              	.LVL40:
 372:Middlewares/Third_Party/FreeRTOS/Source/event_groups.c **** 
 541              		.loc 1 372 4 is_stmt 0 view .LVU162
 542 00d2 301D     		adds	r0, r6, #4
 543              	.LVL41:
 372:Middlewares/Third_Party/FreeRTOS/Source/event_groups.c **** 
 544              		.loc 1 372 4 view .LVU163
 545 00d4 FFF7FEFF 		bl	vTaskPlaceOnUnorderedEventList
 546              	.LVL42:
 377:Middlewares/Third_Party/FreeRTOS/Source/event_groups.c **** 
 547              		.loc 1 377 4 is_stmt 1 view .LVU164
 377:Middlewares/Third_Party/FreeRTOS/Source/event_groups.c **** 
 548              		.loc 1 377 13 is_stmt 0 view .LVU165
 549 00d8 4C46     		mov	r4, r9
 550              	.LVL43:
 372:Middlewares/Third_Party/FreeRTOS/Source/event_groups.c **** 
 551              		.loc 1 372 4 view .LVU166
 552 00da D146     		mov	r9, r10
 553 00dc D4E7     		b	.L27
 554              	.LVL44:
 555              	.L35:
 353:Middlewares/Third_Party/FreeRTOS/Source/event_groups.c **** 			}
 556              		.loc 1 353 19 view .LVU167
 557 00de 4FF08071 		mov	r1, #16777216
 558 00e2 EFE7     		b	.L28
 559              	.L34:
 560 00e4 D146     		mov	r9, r10
 561 00e6 CFE7     		b	.L27
 562              	.LVL45:
 563              	.L38:
 353:Middlewares/Third_Party/FreeRTOS/Source/event_groups.c **** 			}
 564              		.loc 1 353 19 view .LVU168
 565              	.LBE52:
 403:Middlewares/Third_Party/FreeRTOS/Source/event_groups.c **** 			{
 566              		.loc 1 403 4 is_stmt 1 view .LVU169
 567 00e8 FFF7FEFF 		bl	vPortEnterCritical
 568              	.LVL46:
 406:Middlewares/Third_Party/FreeRTOS/Source/event_groups.c **** 
 569              		.loc 1 406 5 view .LVU170
 406:Middlewares/Third_Party/FreeRTOS/Source/event_groups.c **** 
 570              		.loc 1 406 14 is_stmt 0 view .LVU171
 571 00ec 3468     		ldr	r4, [r6]
 572              	.LVL47:
 410:Middlewares/Third_Party/FreeRTOS/Source/event_groups.c **** 				{
 573              		.loc 1 410 5 is_stmt 1 view .LVU172
ARM GAS  /tmp/ccrT5O1S.s 			page 29


 410:Middlewares/Third_Party/FreeRTOS/Source/event_groups.c **** 				{
 574              		.loc 1 410 9 is_stmt 0 view .LVU173
 575 00ee 4246     		mov	r2, r8
 576 00f0 2946     		mov	r1, r5
 577 00f2 2046     		mov	r0, r4
 578 00f4 FFF7FEFF 		bl	prvTestWaitCondition
 579              	.LVL48:
 410:Middlewares/Third_Party/FreeRTOS/Source/event_groups.c **** 				{
 580              		.loc 1 410 7 view .LVU174
 581 00f8 18B1     		cbz	r0, .L33
 412:Middlewares/Third_Party/FreeRTOS/Source/event_groups.c **** 					{
 582              		.loc 1 412 6 is_stmt 1 view .LVU175
 412:Middlewares/Third_Party/FreeRTOS/Source/event_groups.c **** 					{
 583              		.loc 1 412 8 is_stmt 0 view .LVU176
 584 00fa 17B1     		cbz	r7, .L33
 414:Middlewares/Third_Party/FreeRTOS/Source/event_groups.c **** 					}
 585              		.loc 1 414 7 is_stmt 1 view .LVU177
 414:Middlewares/Third_Party/FreeRTOS/Source/event_groups.c **** 					}
 586              		.loc 1 414 32 is_stmt 0 view .LVU178
 587 00fc 24EA0505 		bic	r5, r4, r5
 588              	.LVL49:
 414:Middlewares/Third_Party/FreeRTOS/Source/event_groups.c **** 					}
 589              		.loc 1 414 32 view .LVU179
 590 0100 3560     		str	r5, [r6]
 591              	.L33:
 423:Middlewares/Third_Party/FreeRTOS/Source/event_groups.c **** 				}
 592              		.loc 1 423 30 is_stmt 1 view .LVU180
 425:Middlewares/Third_Party/FreeRTOS/Source/event_groups.c **** 			}
 593              		.loc 1 425 5 view .LVU181
 594              	.LVL50:
 427:Middlewares/Third_Party/FreeRTOS/Source/event_groups.c **** 		}
 595              		.loc 1 427 4 view .LVU182
 596 0102 FFF7FEFF 		bl	vPortExitCritical
 597              	.LVL51:
 598 0106 D3E7     		b	.L32
 599              	.L40:
 600              		.align	2
 601              	.L39:
 602 0108 04ED00E0 		.word	-536810236
 603              		.cfi_endproc
 604              	.LFE7:
 606              		.section	.text.xEventGroupClearBits,"ax",%progbits
 607              		.align	1
 608              		.global	xEventGroupClearBits
 609              		.syntax unified
 610              		.thumb
 611              		.thumb_func
 612              		.fpu fpv5-d16
 614              	xEventGroupClearBits:
 615              	.LVL52:
 616              	.LFB8:
 447:Middlewares/Third_Party/FreeRTOS/Source/event_groups.c **** EventGroup_t *pxEventBits = ( EventGroup_t * ) xEventGroup;
 617              		.loc 1 447 1 view -0
 618              		.cfi_startproc
 619              		@ args = 0, pretend = 0, frame = 0
 620              		@ frame_needed = 0, uses_anonymous_args = 0
 448:Middlewares/Third_Party/FreeRTOS/Source/event_groups.c **** EventBits_t uxReturn;
ARM GAS  /tmp/ccrT5O1S.s 			page 30


 621              		.loc 1 448 1 view .LVU184
 449:Middlewares/Third_Party/FreeRTOS/Source/event_groups.c **** 
 622              		.loc 1 449 1 view .LVU185
 453:Middlewares/Third_Party/FreeRTOS/Source/event_groups.c **** 	configASSERT( ( uxBitsToClear & eventEVENT_BITS_CONTROL_BYTES ) == 0 );
 623              		.loc 1 453 2 view .LVU186
 624 0000 70B1     		cbz	r0, .L48
 447:Middlewares/Third_Party/FreeRTOS/Source/event_groups.c **** EventGroup_t *pxEventBits = ( EventGroup_t * ) xEventGroup;
 625              		.loc 1 447 1 is_stmt 0 discriminator 2 view .LVU187
 626 0002 70B5     		push	{r4, r5, r6, lr}
 627              	.LCFI7:
 628              		.cfi_def_cfa_offset 16
 629              		.cfi_offset 4, -16
 630              		.cfi_offset 5, -12
 631              		.cfi_offset 6, -8
 632              		.cfi_offset 14, -4
 633 0004 0C46     		mov	r4, r1
 634 0006 0646     		mov	r6, r0
 453:Middlewares/Third_Party/FreeRTOS/Source/event_groups.c **** 	configASSERT( ( uxBitsToClear & eventEVENT_BITS_CONTROL_BYTES ) == 0 );
 635              		.loc 1 453 29 is_stmt 1 discriminator 2 view .LVU188
 454:Middlewares/Third_Party/FreeRTOS/Source/event_groups.c **** 
 636              		.loc 1 454 2 discriminator 2 view .LVU189
 637 0008 11F07F4F 		tst	r1, #-16777216
 638 000c 11D0     		beq	.L44
 454:Middlewares/Third_Party/FreeRTOS/Source/event_groups.c **** 
 639              		.loc 1 454 2 view .LVU190
 640              	.LBB53:
 641              	.LBI53:
 191:Middlewares/Third_Party/FreeRTOS/Source/portable/GCC/ARM_CM4F/portmacro.h **** {
 642              		.loc 2 191 30 view .LVU191
 643              	.LBB54:
 193:Middlewares/Third_Party/FreeRTOS/Source/portable/GCC/ARM_CM4F/portmacro.h **** 
 644              		.loc 2 193 1 view .LVU192
 645              		.loc 2 195 2 view .LVU193
 646              		.syntax unified
 647              	@ 195 "Middlewares/Third_Party/FreeRTOS/Source/portable/GCC/ARM_CM4F/portmacro.h" 1
 648 000e 4FF05003 			mov r3, #80												
 649 0012 83F31188 		msr basepri, r3											
 650 0016 BFF36F8F 		isb														
 651 001a BFF34F8F 		dsb														
 652              	
 653              	@ 0 "" 2
 654              	.LVL53:
 655              		.thumb
 656              		.syntax unified
 657              	.L45:
 658              		.loc 2 195 2 is_stmt 0 view .LVU194
 659              	.LBE54:
 660              	.LBE53:
 454:Middlewares/Third_Party/FreeRTOS/Source/event_groups.c **** 
 661              		.loc 1 454 2 is_stmt 1 discriminator 2 view .LVU195
 454:Middlewares/Third_Party/FreeRTOS/Source/event_groups.c **** 
 662              		.loc 1 454 2 discriminator 2 view .LVU196
 663 001e FEE7     		b	.L45
 664              	.L48:
 665              	.LCFI8:
 666              		.cfi_def_cfa_offset 0
 667              		.cfi_restore 4
ARM GAS  /tmp/ccrT5O1S.s 			page 31


 668              		.cfi_restore 5
 669              		.cfi_restore 6
 670              		.cfi_restore 14
 453:Middlewares/Third_Party/FreeRTOS/Source/event_groups.c **** 	configASSERT( ( uxBitsToClear & eventEVENT_BITS_CONTROL_BYTES ) == 0 );
 671              		.loc 1 453 2 view .LVU197
 672              	.LBB55:
 673              	.LBI55:
 191:Middlewares/Third_Party/FreeRTOS/Source/portable/GCC/ARM_CM4F/portmacro.h **** {
 674              		.loc 2 191 30 view .LVU198
 675              	.LBB56:
 193:Middlewares/Third_Party/FreeRTOS/Source/portable/GCC/ARM_CM4F/portmacro.h **** 
 676              		.loc 2 193 1 view .LVU199
 677              		.loc 2 195 2 view .LVU200
 678              		.syntax unified
 679              	@ 195 "Middlewares/Third_Party/FreeRTOS/Source/portable/GCC/ARM_CM4F/portmacro.h" 1
 680 0020 4FF05003 			mov r3, #80												
 681 0024 83F31188 		msr basepri, r3											
 682 0028 BFF36F8F 		isb														
 683 002c BFF34F8F 		dsb														
 684              	
 685              	@ 0 "" 2
 686              	.LVL54:
 687              		.thumb
 688              		.syntax unified
 689              	.L43:
 690              		.loc 2 195 2 is_stmt 0 view .LVU201
 691              	.LBE56:
 692              	.LBE55:
 453:Middlewares/Third_Party/FreeRTOS/Source/event_groups.c **** 	configASSERT( ( uxBitsToClear & eventEVENT_BITS_CONTROL_BYTES ) == 0 );
 693              		.loc 1 453 2 is_stmt 1 discriminator 1 view .LVU202
 453:Middlewares/Third_Party/FreeRTOS/Source/event_groups.c **** 	configASSERT( ( uxBitsToClear & eventEVENT_BITS_CONTROL_BYTES ) == 0 );
 694              		.loc 1 453 2 discriminator 1 view .LVU203
 695 0030 FEE7     		b	.L43
 696              	.L44:
 697              	.LCFI9:
 698              		.cfi_def_cfa_offset 16
 699              		.cfi_offset 4, -16
 700              		.cfi_offset 5, -12
 701              		.cfi_offset 6, -8
 702              		.cfi_offset 14, -4
 454:Middlewares/Third_Party/FreeRTOS/Source/event_groups.c **** 
 703              		.loc 1 454 72 discriminator 2 view .LVU204
 456:Middlewares/Third_Party/FreeRTOS/Source/event_groups.c **** 	{
 704              		.loc 1 456 2 discriminator 2 view .LVU205
 705 0032 FFF7FEFF 		bl	vPortEnterCritical
 706              	.LVL55:
 458:Middlewares/Third_Party/FreeRTOS/Source/event_groups.c **** 
 707              		.loc 1 458 60 discriminator 2 view .LVU206
 462:Middlewares/Third_Party/FreeRTOS/Source/event_groups.c **** 
 708              		.loc 1 462 3 discriminator 2 view .LVU207
 462:Middlewares/Third_Party/FreeRTOS/Source/event_groups.c **** 
 709              		.loc 1 462 12 is_stmt 0 discriminator 2 view .LVU208
 710 0036 3568     		ldr	r5, [r6]
 711              	.LVL56:
 465:Middlewares/Third_Party/FreeRTOS/Source/event_groups.c **** 	}
 712              		.loc 1 465 3 is_stmt 1 discriminator 2 view .LVU209
 465:Middlewares/Third_Party/FreeRTOS/Source/event_groups.c **** 	}
ARM GAS  /tmp/ccrT5O1S.s 			page 32


 713              		.loc 1 465 28 is_stmt 0 discriminator 2 view .LVU210
 714 0038 25EA0404 		bic	r4, r5, r4
 715              	.LVL57:
 465:Middlewares/Third_Party/FreeRTOS/Source/event_groups.c **** 	}
 716              		.loc 1 465 28 discriminator 2 view .LVU211
 717 003c 3460     		str	r4, [r6]
 467:Middlewares/Third_Party/FreeRTOS/Source/event_groups.c **** 
 718              		.loc 1 467 2 is_stmt 1 discriminator 2 view .LVU212
 719 003e FFF7FEFF 		bl	vPortExitCritical
 720              	.LVL58:
 469:Middlewares/Third_Party/FreeRTOS/Source/event_groups.c **** }
 721              		.loc 1 469 2 discriminator 2 view .LVU213
 470:Middlewares/Third_Party/FreeRTOS/Source/event_groups.c **** /*-----------------------------------------------------------*/
 722              		.loc 1 470 1 is_stmt 0 discriminator 2 view .LVU214
 723 0042 2846     		mov	r0, r5
 724 0044 70BD     		pop	{r4, r5, r6, pc}
 470:Middlewares/Third_Party/FreeRTOS/Source/event_groups.c **** /*-----------------------------------------------------------*/
 725              		.loc 1 470 1 discriminator 2 view .LVU215
 726              		.cfi_endproc
 727              	.LFE8:
 729              		.section	.text.vEventGroupClearBitsCallback,"ax",%progbits
 730              		.align	1
 731              		.global	vEventGroupClearBitsCallback
 732              		.syntax unified
 733              		.thumb
 734              		.thumb_func
 735              		.fpu fpv5-d16
 737              	vEventGroupClearBitsCallback:
 738              	.LVL59:
 739              	.LFB14:
 651:Middlewares/Third_Party/FreeRTOS/Source/event_groups.c **** 	( void ) xEventGroupClearBits( pvEventGroup, ( EventBits_t ) ulBitsToClear );
 740              		.loc 1 651 1 is_stmt 1 view -0
 741              		.cfi_startproc
 742              		@ args = 0, pretend = 0, frame = 0
 743              		@ frame_needed = 0, uses_anonymous_args = 0
 651:Middlewares/Third_Party/FreeRTOS/Source/event_groups.c **** 	( void ) xEventGroupClearBits( pvEventGroup, ( EventBits_t ) ulBitsToClear );
 744              		.loc 1 651 1 is_stmt 0 view .LVU217
 745 0000 08B5     		push	{r3, lr}
 746              	.LCFI10:
 747              		.cfi_def_cfa_offset 8
 748              		.cfi_offset 3, -8
 749              		.cfi_offset 14, -4
 652:Middlewares/Third_Party/FreeRTOS/Source/event_groups.c **** }
 750              		.loc 1 652 2 is_stmt 1 view .LVU218
 652:Middlewares/Third_Party/FreeRTOS/Source/event_groups.c **** }
 751              		.loc 1 652 11 is_stmt 0 view .LVU219
 752 0002 FFF7FEFF 		bl	xEventGroupClearBits
 753              	.LVL60:
 653:Middlewares/Third_Party/FreeRTOS/Source/event_groups.c **** /*-----------------------------------------------------------*/
 754              		.loc 1 653 1 view .LVU220
 755 0006 08BD     		pop	{r3, pc}
 756              		.cfi_endproc
 757              	.LFE14:
 759              		.section	.text.xEventGroupClearBitsFromISR,"ax",%progbits
 760              		.align	1
 761              		.global	xEventGroupClearBitsFromISR
 762              		.syntax unified
ARM GAS  /tmp/ccrT5O1S.s 			page 33


 763              		.thumb
 764              		.thumb_func
 765              		.fpu fpv5-d16
 767              	xEventGroupClearBitsFromISR:
 768              	.LVL61:
 769              	.LFB9:
 476:Middlewares/Third_Party/FreeRTOS/Source/event_groups.c **** 		BaseType_t xReturn;
 770              		.loc 1 476 2 is_stmt 1 view -0
 771              		.cfi_startproc
 772              		@ args = 0, pretend = 0, frame = 0
 773              		@ frame_needed = 0, uses_anonymous_args = 0
 476:Middlewares/Third_Party/FreeRTOS/Source/event_groups.c **** 		BaseType_t xReturn;
 774              		.loc 1 476 2 is_stmt 0 view .LVU222
 775 0000 08B5     		push	{r3, lr}
 776              	.LCFI11:
 777              		.cfi_def_cfa_offset 8
 778              		.cfi_offset 3, -8
 779              		.cfi_offset 14, -4
 780 0002 0A46     		mov	r2, r1
 477:Middlewares/Third_Party/FreeRTOS/Source/event_groups.c **** 
 781              		.loc 1 477 3 is_stmt 1 view .LVU223
 479:Middlewares/Third_Party/FreeRTOS/Source/event_groups.c **** 		xReturn = xTimerPendFunctionCallFromISR( vEventGroupClearBitsCallback, ( void * ) xEventGroup, ( 
 782              		.loc 1 479 69 view .LVU224
 480:Middlewares/Third_Party/FreeRTOS/Source/event_groups.c **** 
 783              		.loc 1 480 3 view .LVU225
 480:Middlewares/Third_Party/FreeRTOS/Source/event_groups.c **** 
 784              		.loc 1 480 13 is_stmt 0 view .LVU226
 785 0004 0023     		movs	r3, #0
 786 0006 0146     		mov	r1, r0
 787              	.LVL62:
 480:Middlewares/Third_Party/FreeRTOS/Source/event_groups.c **** 
 788              		.loc 1 480 13 view .LVU227
 789 0008 0148     		ldr	r0, .L53
 790              	.LVL63:
 480:Middlewares/Third_Party/FreeRTOS/Source/event_groups.c **** 
 791              		.loc 1 480 13 view .LVU228
 792 000a FFF7FEFF 		bl	xTimerPendFunctionCallFromISR
 793              	.LVL64:
 482:Middlewares/Third_Party/FreeRTOS/Source/event_groups.c **** 	}
 794              		.loc 1 482 3 is_stmt 1 view .LVU229
 483:Middlewares/Third_Party/FreeRTOS/Source/event_groups.c **** 
 795              		.loc 1 483 2 is_stmt 0 view .LVU230
 796 000e 08BD     		pop	{r3, pc}
 797              	.L54:
 798              		.align	2
 799              	.L53:
 800 0010 00000000 		.word	vEventGroupClearBitsCallback
 801              		.cfi_endproc
 802              	.LFE9:
 804              		.section	.text.xEventGroupGetBitsFromISR,"ax",%progbits
 805              		.align	1
 806              		.global	xEventGroupGetBitsFromISR
 807              		.syntax unified
 808              		.thumb
 809              		.thumb_func
 810              		.fpu fpv5-d16
 812              	xEventGroupGetBitsFromISR:
ARM GAS  /tmp/ccrT5O1S.s 			page 34


 813              	.LVL65:
 814              	.LFB10:
 489:Middlewares/Third_Party/FreeRTOS/Source/event_groups.c **** UBaseType_t uxSavedInterruptStatus;
 815              		.loc 1 489 1 is_stmt 1 view -0
 816              		.cfi_startproc
 817              		@ args = 0, pretend = 0, frame = 0
 818              		@ frame_needed = 0, uses_anonymous_args = 0
 819              		@ link register save eliminated.
 490:Middlewares/Third_Party/FreeRTOS/Source/event_groups.c **** EventGroup_t *pxEventBits = ( EventGroup_t * ) xEventGroup;
 820              		.loc 1 490 1 view .LVU232
 491:Middlewares/Third_Party/FreeRTOS/Source/event_groups.c **** EventBits_t uxReturn;
 821              		.loc 1 491 1 view .LVU233
 492:Middlewares/Third_Party/FreeRTOS/Source/event_groups.c **** 
 822              		.loc 1 492 1 view .LVU234
 494:Middlewares/Third_Party/FreeRTOS/Source/event_groups.c **** 	{
 823              		.loc 1 494 2 view .LVU235
 824              	.LBB57:
 825              	.LBI57:
 196:Middlewares/Third_Party/FreeRTOS/Source/portable/GCC/ARM_CM4F/portmacro.h **** 	(
 197:Middlewares/Third_Party/FreeRTOS/Source/portable/GCC/ARM_CM4F/portmacro.h **** 		"	mov %0, %1												\n"	\
 198:Middlewares/Third_Party/FreeRTOS/Source/portable/GCC/ARM_CM4F/portmacro.h **** 		"	msr basepri, %0											\n" \
 199:Middlewares/Third_Party/FreeRTOS/Source/portable/GCC/ARM_CM4F/portmacro.h **** 		"	isb														\n" \
 200:Middlewares/Third_Party/FreeRTOS/Source/portable/GCC/ARM_CM4F/portmacro.h **** 		"	dsb														\n" \
 201:Middlewares/Third_Party/FreeRTOS/Source/portable/GCC/ARM_CM4F/portmacro.h **** 		:"=r" (ulNewBASEPRI) : "i" ( configMAX_SYSCALL_INTERRUPT_PRIORITY ) : "memory"
 202:Middlewares/Third_Party/FreeRTOS/Source/portable/GCC/ARM_CM4F/portmacro.h **** 	);
 203:Middlewares/Third_Party/FreeRTOS/Source/portable/GCC/ARM_CM4F/portmacro.h **** }
 204:Middlewares/Third_Party/FreeRTOS/Source/portable/GCC/ARM_CM4F/portmacro.h **** 
 205:Middlewares/Third_Party/FreeRTOS/Source/portable/GCC/ARM_CM4F/portmacro.h **** /*-----------------------------------------------------------*/
 206:Middlewares/Third_Party/FreeRTOS/Source/portable/GCC/ARM_CM4F/portmacro.h **** 
 207:Middlewares/Third_Party/FreeRTOS/Source/portable/GCC/ARM_CM4F/portmacro.h **** portFORCE_INLINE static uint32_t ulPortRaiseBASEPRI( void )
 826              		.loc 2 207 34 view .LVU236
 827              	.LBB58:
 208:Middlewares/Third_Party/FreeRTOS/Source/portable/GCC/ARM_CM4F/portmacro.h **** {
 209:Middlewares/Third_Party/FreeRTOS/Source/portable/GCC/ARM_CM4F/portmacro.h **** uint32_t ulOriginalBASEPRI, ulNewBASEPRI;
 828              		.loc 2 209 1 view .LVU237
 210:Middlewares/Third_Party/FreeRTOS/Source/portable/GCC/ARM_CM4F/portmacro.h **** 
 211:Middlewares/Third_Party/FreeRTOS/Source/portable/GCC/ARM_CM4F/portmacro.h **** 	__asm volatile
 829              		.loc 2 211 2 view .LVU238
 830              		.syntax unified
 831              	@ 211 "Middlewares/Third_Party/FreeRTOS/Source/portable/GCC/ARM_CM4F/portmacro.h" 1
 832 0000 EFF31183 			mrs r3, basepri											
 833 0004 4FF05002 		mov r2, #80												
 834 0008 82F31188 		msr basepri, r2											
 835 000c BFF36F8F 		isb														
 836 0010 BFF34F8F 		dsb														
 837              	
 838              	@ 0 "" 2
 839              	.LVL66:
 212:Middlewares/Third_Party/FreeRTOS/Source/portable/GCC/ARM_CM4F/portmacro.h **** 	(
 213:Middlewares/Third_Party/FreeRTOS/Source/portable/GCC/ARM_CM4F/portmacro.h **** 		"	mrs %0, basepri											\n" \
 214:Middlewares/Third_Party/FreeRTOS/Source/portable/GCC/ARM_CM4F/portmacro.h **** 		"	mov %1, %2												\n"	\
 215:Middlewares/Third_Party/FreeRTOS/Source/portable/GCC/ARM_CM4F/portmacro.h **** 		"	msr basepri, %1											\n" \
 216:Middlewares/Third_Party/FreeRTOS/Source/portable/GCC/ARM_CM4F/portmacro.h **** 		"	isb														\n" \
 217:Middlewares/Third_Party/FreeRTOS/Source/portable/GCC/ARM_CM4F/portmacro.h **** 		"	dsb														\n" \
 218:Middlewares/Third_Party/FreeRTOS/Source/portable/GCC/ARM_CM4F/portmacro.h **** 		:"=r" (ulOriginalBASEPRI), "=r" (ulNewBASEPRI) : "i" ( configMAX_SYSCALL_INTERRUPT_PRIORITY ) : "
 219:Middlewares/Third_Party/FreeRTOS/Source/portable/GCC/ARM_CM4F/portmacro.h **** 	);
 220:Middlewares/Third_Party/FreeRTOS/Source/portable/GCC/ARM_CM4F/portmacro.h **** 
ARM GAS  /tmp/ccrT5O1S.s 			page 35


 221:Middlewares/Third_Party/FreeRTOS/Source/portable/GCC/ARM_CM4F/portmacro.h **** 	/* This return will not be reached but is necessary to prevent compiler
 222:Middlewares/Third_Party/FreeRTOS/Source/portable/GCC/ARM_CM4F/portmacro.h **** 	warnings. */
 223:Middlewares/Third_Party/FreeRTOS/Source/portable/GCC/ARM_CM4F/portmacro.h **** 	return ulOriginalBASEPRI;
 840              		.loc 2 223 2 view .LVU239
 841              		.loc 2 223 2 is_stmt 0 view .LVU240
 842              		.thumb
 843              		.syntax unified
 844              	.LBE58:
 845              	.LBE57:
 496:Middlewares/Third_Party/FreeRTOS/Source/event_groups.c **** 	}
 846              		.loc 1 496 3 is_stmt 1 view .LVU241
 496:Middlewares/Third_Party/FreeRTOS/Source/event_groups.c **** 	}
 847              		.loc 1 496 12 is_stmt 0 view .LVU242
 848 0014 0068     		ldr	r0, [r0]
 849              	.LVL67:
 498:Middlewares/Third_Party/FreeRTOS/Source/event_groups.c **** 
 850              		.loc 1 498 2 is_stmt 1 view .LVU243
 851              	.LBB59:
 852              	.LBI59:
 224:Middlewares/Third_Party/FreeRTOS/Source/portable/GCC/ARM_CM4F/portmacro.h **** }
 225:Middlewares/Third_Party/FreeRTOS/Source/portable/GCC/ARM_CM4F/portmacro.h **** /*-----------------------------------------------------------*/
 226:Middlewares/Third_Party/FreeRTOS/Source/portable/GCC/ARM_CM4F/portmacro.h **** 
 227:Middlewares/Third_Party/FreeRTOS/Source/portable/GCC/ARM_CM4F/portmacro.h **** portFORCE_INLINE static void vPortSetBASEPRI( uint32_t ulNewMaskValue )
 853              		.loc 2 227 30 view .LVU244
 854              	.LBB60:
 228:Middlewares/Third_Party/FreeRTOS/Source/portable/GCC/ARM_CM4F/portmacro.h **** {
 229:Middlewares/Third_Party/FreeRTOS/Source/portable/GCC/ARM_CM4F/portmacro.h **** 	__asm volatile
 855              		.loc 2 229 2 view .LVU245
 856              		.syntax unified
 857              	@ 229 "Middlewares/Third_Party/FreeRTOS/Source/portable/GCC/ARM_CM4F/portmacro.h" 1
 858 0016 83F31188 			msr basepri, r3	
 859              	@ 0 "" 2
 860              	.LVL68:
 861              		.loc 2 229 2 is_stmt 0 view .LVU246
 862              		.thumb
 863              		.syntax unified
 864              	.LBE60:
 865              	.LBE59:
 500:Middlewares/Third_Party/FreeRTOS/Source/event_groups.c **** }
 866              		.loc 1 500 2 is_stmt 1 view .LVU247
 501:Middlewares/Third_Party/FreeRTOS/Source/event_groups.c **** /*-----------------------------------------------------------*/
 867              		.loc 1 501 1 is_stmt 0 view .LVU248
 868 001a 7047     		bx	lr
 869              		.cfi_endproc
 870              	.LFE10:
 872              		.section	.text.xEventGroupSetBits,"ax",%progbits
 873              		.align	1
 874              		.global	xEventGroupSetBits
 875              		.syntax unified
 876              		.thumb
 877              		.thumb_func
 878              		.fpu fpv5-d16
 880              	xEventGroupSetBits:
 881              	.LVL69:
 882              	.LFB11:
 505:Middlewares/Third_Party/FreeRTOS/Source/event_groups.c **** ListItem_t *pxListItem, *pxNext;
 883              		.loc 1 505 1 is_stmt 1 view -0
ARM GAS  /tmp/ccrT5O1S.s 			page 36


 884              		.cfi_startproc
 885              		@ args = 0, pretend = 0, frame = 0
 886              		@ frame_needed = 0, uses_anonymous_args = 0
 505:Middlewares/Third_Party/FreeRTOS/Source/event_groups.c **** ListItem_t *pxListItem, *pxNext;
 887              		.loc 1 505 1 is_stmt 0 view .LVU250
 888 0000 F8B5     		push	{r3, r4, r5, r6, r7, lr}
 889              	.LCFI12:
 890              		.cfi_def_cfa_offset 24
 891              		.cfi_offset 3, -24
 892              		.cfi_offset 4, -20
 893              		.cfi_offset 5, -16
 894              		.cfi_offset 6, -12
 895              		.cfi_offset 7, -8
 896              		.cfi_offset 14, -4
 506:Middlewares/Third_Party/FreeRTOS/Source/event_groups.c **** ListItem_t const *pxListEnd;
 897              		.loc 1 506 1 is_stmt 1 view .LVU251
 507:Middlewares/Third_Party/FreeRTOS/Source/event_groups.c **** List_t *pxList;
 898              		.loc 1 507 1 view .LVU252
 508:Middlewares/Third_Party/FreeRTOS/Source/event_groups.c **** EventBits_t uxBitsToClear = 0, uxBitsWaitedFor, uxControlBits;
 899              		.loc 1 508 1 view .LVU253
 509:Middlewares/Third_Party/FreeRTOS/Source/event_groups.c **** EventGroup_t *pxEventBits = ( EventGroup_t * ) xEventGroup;
 900              		.loc 1 509 1 view .LVU254
 901              	.LVL70:
 510:Middlewares/Third_Party/FreeRTOS/Source/event_groups.c **** BaseType_t xMatchFound = pdFALSE;
 902              		.loc 1 510 1 view .LVU255
 511:Middlewares/Third_Party/FreeRTOS/Source/event_groups.c **** 
 903              		.loc 1 511 1 view .LVU256
 515:Middlewares/Third_Party/FreeRTOS/Source/event_groups.c **** 	configASSERT( ( uxBitsToSet & eventEVENT_BITS_CONTROL_BYTES ) == 0 );
 904              		.loc 1 515 2 view .LVU257
 905 0002 68B1     		cbz	r0, .L68
 906 0004 0D46     		mov	r5, r1
 907 0006 0446     		mov	r4, r0
 515:Middlewares/Third_Party/FreeRTOS/Source/event_groups.c **** 	configASSERT( ( uxBitsToSet & eventEVENT_BITS_CONTROL_BYTES ) == 0 );
 908              		.loc 1 515 29 discriminator 2 view .LVU258
 516:Middlewares/Third_Party/FreeRTOS/Source/event_groups.c **** 
 909              		.loc 1 516 2 discriminator 2 view .LVU259
 910 0008 11F07F46 		ands	r6, r1, #-16777216
 911 000c 11D0     		beq	.L59
 516:Middlewares/Third_Party/FreeRTOS/Source/event_groups.c **** 
 912              		.loc 1 516 2 view .LVU260
 913              	.LBB61:
 914              	.LBI61:
 191:Middlewares/Third_Party/FreeRTOS/Source/portable/GCC/ARM_CM4F/portmacro.h **** {
 915              		.loc 2 191 30 view .LVU261
 916              	.LBB62:
 193:Middlewares/Third_Party/FreeRTOS/Source/portable/GCC/ARM_CM4F/portmacro.h **** 
 917              		.loc 2 193 1 view .LVU262
 195:Middlewares/Third_Party/FreeRTOS/Source/portable/GCC/ARM_CM4F/portmacro.h **** 	(
 918              		.loc 2 195 2 view .LVU263
 919              		.syntax unified
 920              	@ 195 "Middlewares/Third_Party/FreeRTOS/Source/portable/GCC/ARM_CM4F/portmacro.h" 1
 921 000e 4FF05003 			mov r3, #80												
 922 0012 83F31188 		msr basepri, r3											
 923 0016 BFF36F8F 		isb														
 924 001a BFF34F8F 		dsb														
 925              	
 926              	@ 0 "" 2
ARM GAS  /tmp/ccrT5O1S.s 			page 37


 927              	.LVL71:
 928              		.thumb
 929              		.syntax unified
 930              	.L60:
 195:Middlewares/Third_Party/FreeRTOS/Source/portable/GCC/ARM_CM4F/portmacro.h **** 	(
 931              		.loc 2 195 2 is_stmt 0 view .LVU264
 932              	.LBE62:
 933              	.LBE61:
 516:Middlewares/Third_Party/FreeRTOS/Source/event_groups.c **** 
 934              		.loc 1 516 2 is_stmt 1 discriminator 2 view .LVU265
 516:Middlewares/Third_Party/FreeRTOS/Source/event_groups.c **** 
 935              		.loc 1 516 2 discriminator 2 view .LVU266
 936 001e FEE7     		b	.L60
 937              	.L68:
 515:Middlewares/Third_Party/FreeRTOS/Source/event_groups.c **** 	configASSERT( ( uxBitsToSet & eventEVENT_BITS_CONTROL_BYTES ) == 0 );
 938              		.loc 1 515 2 view .LVU267
 939              	.LBB63:
 940              	.LBI63:
 191:Middlewares/Third_Party/FreeRTOS/Source/portable/GCC/ARM_CM4F/portmacro.h **** {
 941              		.loc 2 191 30 view .LVU268
 942              	.LBB64:
 193:Middlewares/Third_Party/FreeRTOS/Source/portable/GCC/ARM_CM4F/portmacro.h **** 
 943              		.loc 2 193 1 view .LVU269
 195:Middlewares/Third_Party/FreeRTOS/Source/portable/GCC/ARM_CM4F/portmacro.h **** 	(
 944              		.loc 2 195 2 view .LVU270
 945              		.syntax unified
 946              	@ 195 "Middlewares/Third_Party/FreeRTOS/Source/portable/GCC/ARM_CM4F/portmacro.h" 1
 947 0020 4FF05003 			mov r3, #80												
 948 0024 83F31188 		msr basepri, r3											
 949 0028 BFF36F8F 		isb														
 950 002c BFF34F8F 		dsb														
 951              	
 952              	@ 0 "" 2
 953              	.LVL72:
 954              		.thumb
 955              		.syntax unified
 956              	.L58:
 195:Middlewares/Third_Party/FreeRTOS/Source/portable/GCC/ARM_CM4F/portmacro.h **** 	(
 957              		.loc 2 195 2 is_stmt 0 view .LVU271
 958              	.LBE64:
 959              	.LBE63:
 515:Middlewares/Third_Party/FreeRTOS/Source/event_groups.c **** 	configASSERT( ( uxBitsToSet & eventEVENT_BITS_CONTROL_BYTES ) == 0 );
 960              		.loc 1 515 2 is_stmt 1 discriminator 1 view .LVU272
 515:Middlewares/Third_Party/FreeRTOS/Source/event_groups.c **** 	configASSERT( ( uxBitsToSet & eventEVENT_BITS_CONTROL_BYTES ) == 0 );
 961              		.loc 1 515 2 discriminator 1 view .LVU273
 962 0030 FEE7     		b	.L58
 963              	.L59:
 516:Middlewares/Third_Party/FreeRTOS/Source/event_groups.c **** 
 964              		.loc 1 516 70 discriminator 2 view .LVU274
 518:Middlewares/Third_Party/FreeRTOS/Source/event_groups.c **** 	pxListEnd = listGET_END_MARKER( pxList ); /*lint !e826 !e740 The mini list structure is used as th
 965              		.loc 1 518 2 discriminator 2 view .LVU275
 966              	.LVL73:
 519:Middlewares/Third_Party/FreeRTOS/Source/event_groups.c **** 	vTaskSuspendAll();
 967              		.loc 1 519 2 discriminator 2 view .LVU276
 519:Middlewares/Third_Party/FreeRTOS/Source/event_groups.c **** 	vTaskSuspendAll();
 968              		.loc 1 519 12 is_stmt 0 discriminator 2 view .LVU277
 969 0032 00F10C07 		add	r7, r0, #12
ARM GAS  /tmp/ccrT5O1S.s 			page 38


 970              	.LVL74:
 520:Middlewares/Third_Party/FreeRTOS/Source/event_groups.c **** 	{
 971              		.loc 1 520 2 is_stmt 1 discriminator 2 view .LVU278
 972 0036 FFF7FEFF 		bl	vTaskSuspendAll
 973              	.LVL75:
 522:Middlewares/Third_Party/FreeRTOS/Source/event_groups.c **** 
 974              		.loc 1 522 56 discriminator 2 view .LVU279
 524:Middlewares/Third_Party/FreeRTOS/Source/event_groups.c **** 
 975              		.loc 1 524 3 discriminator 2 view .LVU280
 524:Middlewares/Third_Party/FreeRTOS/Source/event_groups.c **** 
 976              		.loc 1 524 14 is_stmt 0 discriminator 2 view .LVU281
 977 003a 2069     		ldr	r0, [r4, #16]
 978              	.LVL76:
 527:Middlewares/Third_Party/FreeRTOS/Source/event_groups.c **** 
 979              		.loc 1 527 3 is_stmt 1 discriminator 2 view .LVU282
 527:Middlewares/Third_Party/FreeRTOS/Source/event_groups.c **** 
 980              		.loc 1 527 28 is_stmt 0 discriminator 2 view .LVU283
 981 003c 2368     		ldr	r3, [r4]
 982 003e 2B43     		orrs	r3, r3, r5
 983 0040 2360     		str	r3, [r4]
 530:Middlewares/Third_Party/FreeRTOS/Source/event_groups.c **** 		{
 984              		.loc 1 530 3 is_stmt 1 discriminator 2 view .LVU284
 530:Middlewares/Third_Party/FreeRTOS/Source/event_groups.c **** 		{
 985              		.loc 1 530 8 is_stmt 0 discriminator 2 view .LVU285
 986 0042 0AE0     		b	.L61
 987              	.LVL77:
 988              	.L62:
 552:Middlewares/Third_Party/FreeRTOS/Source/event_groups.c **** 			{
 989              		.loc 1 552 9 is_stmt 1 view .LVU286
 552:Middlewares/Third_Party/FreeRTOS/Source/event_groups.c **** 			{
 990              		.loc 1 552 44 is_stmt 0 view .LVU287
 991 0044 2168     		ldr	r1, [r4]
 552:Middlewares/Third_Party/FreeRTOS/Source/event_groups.c **** 			{
 992              		.loc 1 552 11 view .LVU288
 993 0046 33EA0101 		bics	r1, r3, r1
 994 004a 05D1     		bne	.L64
 552:Middlewares/Third_Party/FreeRTOS/Source/event_groups.c **** 			{
 995              		.loc 1 552 11 view .LVU289
 996 004c 11E0     		b	.L63
 997              	.LVL78:
 998              	.L65:
 571:Middlewares/Third_Party/FreeRTOS/Source/event_groups.c **** 				}
 999              		.loc 1 571 30 is_stmt 1 view .LVU290
 579:Middlewares/Third_Party/FreeRTOS/Source/event_groups.c **** 			}
 1000              		.loc 1 579 5 view .LVU291
 579:Middlewares/Third_Party/FreeRTOS/Source/event_groups.c **** 			}
 1001              		.loc 1 579 63 is_stmt 0 view .LVU292
 1002 004e 2168     		ldr	r1, [r4]
 579:Middlewares/Third_Party/FreeRTOS/Source/event_groups.c **** 			}
 1003              		.loc 1 579 5 view .LVU293
 1004 0050 41F00071 		orr	r1, r1, #33554432
 1005 0054 FFF7FEFF 		bl	vTaskRemoveFromUnorderedEventList
 1006              	.LVL79:
 1007              	.L64:
 505:Middlewares/Third_Party/FreeRTOS/Source/event_groups.c **** ListItem_t *pxListItem, *pxNext;
 1008              		.loc 1 505 1 view .LVU294
 1009 0058 2846     		mov	r0, r5
ARM GAS  /tmp/ccrT5O1S.s 			page 39


 1010              	.LVL80:
 1011              	.L61:
 530:Middlewares/Third_Party/FreeRTOS/Source/event_groups.c **** 		{
 1012              		.loc 1 530 8 view .LVU295
 1013 005a B842     		cmp	r0, r7
 1014 005c 0ED0     		beq	.L69
 532:Middlewares/Third_Party/FreeRTOS/Source/event_groups.c **** 			uxBitsWaitedFor = listGET_LIST_ITEM_VALUE( pxListItem );
 1015              		.loc 1 532 4 is_stmt 1 view .LVU296
 532:Middlewares/Third_Party/FreeRTOS/Source/event_groups.c **** 			uxBitsWaitedFor = listGET_LIST_ITEM_VALUE( pxListItem );
 1016              		.loc 1 532 11 is_stmt 0 view .LVU297
 1017 005e 4568     		ldr	r5, [r0, #4]
 1018              	.LVL81:
 533:Middlewares/Third_Party/FreeRTOS/Source/event_groups.c **** 			xMatchFound = pdFALSE;
 1019              		.loc 1 533 4 is_stmt 1 view .LVU298
 533:Middlewares/Third_Party/FreeRTOS/Source/event_groups.c **** 			xMatchFound = pdFALSE;
 1020              		.loc 1 533 20 is_stmt 0 view .LVU299
 1021 0060 0268     		ldr	r2, [r0]
 1022              	.LVL82:
 534:Middlewares/Third_Party/FreeRTOS/Source/event_groups.c **** 
 1023              		.loc 1 534 4 is_stmt 1 view .LVU300
 537:Middlewares/Third_Party/FreeRTOS/Source/event_groups.c **** 			uxBitsWaitedFor &= ~eventEVENT_BITS_CONTROL_BYTES;
 1024              		.loc 1 537 4 view .LVU301
 538:Middlewares/Third_Party/FreeRTOS/Source/event_groups.c **** 
 1025              		.loc 1 538 4 view .LVU302
 538:Middlewares/Third_Party/FreeRTOS/Source/event_groups.c **** 
 1026              		.loc 1 538 20 is_stmt 0 view .LVU303
 1027 0062 22F07F43 		bic	r3, r2, #-16777216
 1028              	.LVL83:
 540:Middlewares/Third_Party/FreeRTOS/Source/event_groups.c **** 			{
 1029              		.loc 1 540 4 is_stmt 1 view .LVU304
 540:Middlewares/Third_Party/FreeRTOS/Source/event_groups.c **** 			{
 1030              		.loc 1 540 6 is_stmt 0 view .LVU305
 1031 0066 12F0806F 		tst	r2, #67108864
 1032 006a EBD1     		bne	.L62
 543:Middlewares/Third_Party/FreeRTOS/Source/event_groups.c **** 				{
 1033              		.loc 1 543 5 is_stmt 1 view .LVU306
 543:Middlewares/Third_Party/FreeRTOS/Source/event_groups.c **** 				{
 1034              		.loc 1 543 40 is_stmt 0 view .LVU307
 1035 006c 2168     		ldr	r1, [r4]
 543:Middlewares/Third_Party/FreeRTOS/Source/event_groups.c **** 				{
 1036              		.loc 1 543 7 view .LVU308
 1037 006e 1942     		tst	r1, r3
 1038 0070 F2D0     		beq	.L64
 1039              	.L63:
 1040              	.LVL84:
 565:Middlewares/Third_Party/FreeRTOS/Source/event_groups.c **** 				{
 1041              		.loc 1 565 5 is_stmt 1 view .LVU309
 565:Middlewares/Third_Party/FreeRTOS/Source/event_groups.c **** 				{
 1042              		.loc 1 565 7 is_stmt 0 view .LVU310
 1043 0072 12F0807F 		tst	r2, #16777216
 1044 0076 EAD0     		beq	.L65
 567:Middlewares/Third_Party/FreeRTOS/Source/event_groups.c **** 				}
 1045              		.loc 1 567 6 is_stmt 1 view .LVU311
 567:Middlewares/Third_Party/FreeRTOS/Source/event_groups.c **** 				}
 1046              		.loc 1 567 20 is_stmt 0 view .LVU312
 1047 0078 1E43     		orrs	r6, r6, r3
 1048              	.LVL85:
ARM GAS  /tmp/ccrT5O1S.s 			page 40


 567:Middlewares/Third_Party/FreeRTOS/Source/event_groups.c **** 				}
 1049              		.loc 1 567 20 view .LVU313
 1050 007a E8E7     		b	.L65
 1051              	.LVL86:
 1052              	.L69:
 590:Middlewares/Third_Party/FreeRTOS/Source/event_groups.c **** 	}
 1053              		.loc 1 590 3 is_stmt 1 view .LVU314
 590:Middlewares/Third_Party/FreeRTOS/Source/event_groups.c **** 	}
 1054              		.loc 1 590 28 is_stmt 0 view .LVU315
 1055 007c 2368     		ldr	r3, [r4]
 1056 007e 23EA0603 		bic	r3, r3, r6
 1057 0082 2360     		str	r3, [r4]
 592:Middlewares/Third_Party/FreeRTOS/Source/event_groups.c **** 
 1058              		.loc 1 592 2 is_stmt 1 view .LVU316
 592:Middlewares/Third_Party/FreeRTOS/Source/event_groups.c **** 
 1059              		.loc 1 592 11 is_stmt 0 view .LVU317
 1060 0084 FFF7FEFF 		bl	xTaskResumeAll
 1061              	.LVL87:
 594:Middlewares/Third_Party/FreeRTOS/Source/event_groups.c **** }
 1062              		.loc 1 594 2 is_stmt 1 view .LVU318
 595:Middlewares/Third_Party/FreeRTOS/Source/event_groups.c **** /*-----------------------------------------------------------*/
 1063              		.loc 1 595 1 is_stmt 0 view .LVU319
 1064 0088 2068     		ldr	r0, [r4]
 1065 008a F8BD     		pop	{r3, r4, r5, r6, r7, pc}
 595:Middlewares/Third_Party/FreeRTOS/Source/event_groups.c **** /*-----------------------------------------------------------*/
 1066              		.loc 1 595 1 view .LVU320
 1067              		.cfi_endproc
 1068              	.LFE11:
 1070              		.section	.text.xEventGroupSync,"ax",%progbits
 1071              		.align	1
 1072              		.global	xEventGroupSync
 1073              		.syntax unified
 1074              		.thumb
 1075              		.thumb_func
 1076              		.fpu fpv5-d16
 1078              	xEventGroupSync:
 1079              	.LVL88:
 1080              	.LFB6:
 177:Middlewares/Third_Party/FreeRTOS/Source/event_groups.c **** EventBits_t uxOriginalBitValue, uxReturn;
 1081              		.loc 1 177 1 is_stmt 1 view -0
 1082              		.cfi_startproc
 1083              		@ args = 0, pretend = 0, frame = 0
 1084              		@ frame_needed = 0, uses_anonymous_args = 0
 177:Middlewares/Third_Party/FreeRTOS/Source/event_groups.c **** EventBits_t uxOriginalBitValue, uxReturn;
 1085              		.loc 1 177 1 is_stmt 0 view .LVU322
 1086 0000 2DE9F843 		push	{r3, r4, r5, r6, r7, r8, r9, lr}
 1087              	.LCFI13:
 1088              		.cfi_def_cfa_offset 32
 1089              		.cfi_offset 3, -32
 1090              		.cfi_offset 4, -28
 1091              		.cfi_offset 5, -24
 1092              		.cfi_offset 6, -20
 1093              		.cfi_offset 7, -16
 1094              		.cfi_offset 8, -12
 1095              		.cfi_offset 9, -8
 1096              		.cfi_offset 14, -4
 178:Middlewares/Third_Party/FreeRTOS/Source/event_groups.c **** EventGroup_t *pxEventBits = ( EventGroup_t * ) xEventGroup;
ARM GAS  /tmp/ccrT5O1S.s 			page 41


 1097              		.loc 1 178 1 is_stmt 1 view .LVU323
 179:Middlewares/Third_Party/FreeRTOS/Source/event_groups.c **** BaseType_t xAlreadyYielded;
 1098              		.loc 1 179 1 view .LVU324
 1099              	.LVL89:
 180:Middlewares/Third_Party/FreeRTOS/Source/event_groups.c **** BaseType_t xTimeoutOccurred = pdFALSE;
 1100              		.loc 1 180 1 view .LVU325
 181:Middlewares/Third_Party/FreeRTOS/Source/event_groups.c **** 
 1101              		.loc 1 181 1 view .LVU326
 183:Middlewares/Third_Party/FreeRTOS/Source/event_groups.c **** 	configASSERT( uxBitsToWaitFor != 0 );
 1102              		.loc 1 183 2 view .LVU327
 1103 0004 12F07F48 		ands	r8, r2, #-16777216
 1104 0008 08D0     		beq	.L71
 183:Middlewares/Third_Party/FreeRTOS/Source/event_groups.c **** 	configASSERT( uxBitsToWaitFor != 0 );
 1105              		.loc 1 183 2 view .LVU328
 1106              	.LBB65:
 1107              	.LBI65:
 191:Middlewares/Third_Party/FreeRTOS/Source/portable/GCC/ARM_CM4F/portmacro.h **** {
 1108              		.loc 2 191 30 view .LVU329
 1109              	.LBB66:
 193:Middlewares/Third_Party/FreeRTOS/Source/portable/GCC/ARM_CM4F/portmacro.h **** 
 1110              		.loc 2 193 1 view .LVU330
 195:Middlewares/Third_Party/FreeRTOS/Source/portable/GCC/ARM_CM4F/portmacro.h **** 	(
 1111              		.loc 2 195 2 view .LVU331
 1112              		.syntax unified
 1113              	@ 195 "Middlewares/Third_Party/FreeRTOS/Source/portable/GCC/ARM_CM4F/portmacro.h" 1
 1114 000a 4FF05003 			mov r3, #80												
 1115 000e 83F31188 		msr basepri, r3											
 1116 0012 BFF36F8F 		isb														
 1117 0016 BFF34F8F 		dsb														
 1118              	
 1119              	@ 0 "" 2
 1120              	.LVL90:
 1121              		.thumb
 1122              		.syntax unified
 1123              	.L72:
 195:Middlewares/Third_Party/FreeRTOS/Source/portable/GCC/ARM_CM4F/portmacro.h **** 	(
 1124              		.loc 2 195 2 is_stmt 0 view .LVU332
 1125              	.LBE66:
 1126              	.LBE65:
 183:Middlewares/Third_Party/FreeRTOS/Source/event_groups.c **** 	configASSERT( uxBitsToWaitFor != 0 );
 1127              		.loc 1 183 2 is_stmt 1 discriminator 1 view .LVU333
 183:Middlewares/Third_Party/FreeRTOS/Source/event_groups.c **** 	configASSERT( uxBitsToWaitFor != 0 );
 1128              		.loc 1 183 2 discriminator 1 view .LVU334
 1129 001a FEE7     		b	.L72
 1130              	.LVL91:
 1131              	.L71:
 183:Middlewares/Third_Party/FreeRTOS/Source/event_groups.c **** 	configASSERT( uxBitsToWaitFor != 0 );
 1132              		.loc 1 183 2 is_stmt 0 discriminator 1 view .LVU335
 1133 001c 0646     		mov	r6, r0
 1134 001e 0C46     		mov	r4, r1
 1135 0020 1546     		mov	r5, r2
 1136 0022 1F46     		mov	r7, r3
 183:Middlewares/Third_Party/FreeRTOS/Source/event_groups.c **** 	configASSERT( uxBitsToWaitFor != 0 );
 1137              		.loc 1 183 74 is_stmt 1 discriminator 2 view .LVU336
 184:Middlewares/Third_Party/FreeRTOS/Source/event_groups.c **** 	#if ( ( INCLUDE_xTaskGetSchedulerState == 1 ) || ( configUSE_TIMERS == 1 ) )
 1138              		.loc 1 184 2 discriminator 2 view .LVU337
 1139 0024 42B9     		cbnz	r2, .L73
ARM GAS  /tmp/ccrT5O1S.s 			page 42


 184:Middlewares/Third_Party/FreeRTOS/Source/event_groups.c **** 	#if ( ( INCLUDE_xTaskGetSchedulerState == 1 ) || ( configUSE_TIMERS == 1 ) )
 1140              		.loc 1 184 2 view .LVU338
 1141              	.LBB67:
 1142              	.LBI67:
 191:Middlewares/Third_Party/FreeRTOS/Source/portable/GCC/ARM_CM4F/portmacro.h **** {
 1143              		.loc 2 191 30 view .LVU339
 1144              	.LBB68:
 193:Middlewares/Third_Party/FreeRTOS/Source/portable/GCC/ARM_CM4F/portmacro.h **** 
 1145              		.loc 2 193 1 view .LVU340
 195:Middlewares/Third_Party/FreeRTOS/Source/portable/GCC/ARM_CM4F/portmacro.h **** 	(
 1146              		.loc 2 195 2 view .LVU341
 1147              		.syntax unified
 1148              	@ 195 "Middlewares/Third_Party/FreeRTOS/Source/portable/GCC/ARM_CM4F/portmacro.h" 1
 1149 0026 4FF05003 			mov r3, #80												
 1150 002a 83F31188 		msr basepri, r3											
 1151 002e BFF36F8F 		isb														
 1152 0032 BFF34F8F 		dsb														
 1153              	
 1154              	@ 0 "" 2
 1155              	.LVL92:
 1156              		.thumb
 1157              		.syntax unified
 1158              	.L74:
 195:Middlewares/Third_Party/FreeRTOS/Source/portable/GCC/ARM_CM4F/portmacro.h **** 	(
 1159              		.loc 2 195 2 is_stmt 0 view .LVU342
 1160              	.LBE68:
 1161              	.LBE67:
 184:Middlewares/Third_Party/FreeRTOS/Source/event_groups.c **** 	#if ( ( INCLUDE_xTaskGetSchedulerState == 1 ) || ( configUSE_TIMERS == 1 ) )
 1162              		.loc 1 184 2 is_stmt 1 discriminator 2 view .LVU343
 184:Middlewares/Third_Party/FreeRTOS/Source/event_groups.c **** 	#if ( ( INCLUDE_xTaskGetSchedulerState == 1 ) || ( configUSE_TIMERS == 1 ) )
 1163              		.loc 1 184 2 discriminator 2 view .LVU344
 1164 0036 FEE7     		b	.L74
 1165              	.LVL93:
 1166              	.L73:
 184:Middlewares/Third_Party/FreeRTOS/Source/event_groups.c **** 	#if ( ( INCLUDE_xTaskGetSchedulerState == 1 ) || ( configUSE_TIMERS == 1 ) )
 1167              		.loc 1 184 38 discriminator 2 view .LVU345
 187:Middlewares/Third_Party/FreeRTOS/Source/event_groups.c **** 	}
 1168              		.loc 1 187 3 discriminator 2 view .LVU346
 1169 0038 FFF7FEFF 		bl	xTaskGetSchedulerState
 1170              	.LVL94:
 187:Middlewares/Third_Party/FreeRTOS/Source/event_groups.c **** 	}
 1171              		.loc 1 187 3 is_stmt 0 discriminator 2 view .LVU347
 1172 003c 48B9     		cbnz	r0, .L75
 1173 003e 47B1     		cbz	r7, .L75
 187:Middlewares/Third_Party/FreeRTOS/Source/event_groups.c **** 	}
 1174              		.loc 1 187 3 is_stmt 1 view .LVU348
 1175              	.LBB69:
 1176              	.LBI69:
 191:Middlewares/Third_Party/FreeRTOS/Source/portable/GCC/ARM_CM4F/portmacro.h **** {
 1177              		.loc 2 191 30 view .LVU349
 1178              	.LBB70:
 193:Middlewares/Third_Party/FreeRTOS/Source/portable/GCC/ARM_CM4F/portmacro.h **** 
 1179              		.loc 2 193 1 view .LVU350
 195:Middlewares/Third_Party/FreeRTOS/Source/portable/GCC/ARM_CM4F/portmacro.h **** 	(
 1180              		.loc 2 195 2 view .LVU351
 1181              		.syntax unified
 1182              	@ 195 "Middlewares/Third_Party/FreeRTOS/Source/portable/GCC/ARM_CM4F/portmacro.h" 1
ARM GAS  /tmp/ccrT5O1S.s 			page 43


 1183 0040 4FF05003 			mov r3, #80												
 1184 0044 83F31188 		msr basepri, r3											
 1185 0048 BFF36F8F 		isb														
 1186 004c BFF34F8F 		dsb														
 1187              	
 1188              	@ 0 "" 2
 1189              	.LVL95:
 1190              		.thumb
 1191              		.syntax unified
 1192              	.L76:
 195:Middlewares/Third_Party/FreeRTOS/Source/portable/GCC/ARM_CM4F/portmacro.h **** 	(
 1193              		.loc 2 195 2 is_stmt 0 view .LVU352
 1194              	.LBE70:
 1195              	.LBE69:
 187:Middlewares/Third_Party/FreeRTOS/Source/event_groups.c **** 	}
 1196              		.loc 1 187 3 is_stmt 1 discriminator 3 view .LVU353
 187:Middlewares/Third_Party/FreeRTOS/Source/event_groups.c **** 	}
 1197              		.loc 1 187 3 discriminator 3 view .LVU354
 1198 0050 FEE7     		b	.L76
 1199              	.L75:
 187:Middlewares/Third_Party/FreeRTOS/Source/event_groups.c **** 	}
 1200              		.loc 1 187 104 discriminator 8 view .LVU355
 191:Middlewares/Third_Party/FreeRTOS/Source/event_groups.c **** 	{
 1201              		.loc 1 191 2 discriminator 8 view .LVU356
 1202 0052 FFF7FEFF 		bl	vTaskSuspendAll
 1203              	.LVL96:
 193:Middlewares/Third_Party/FreeRTOS/Source/event_groups.c **** 
 1204              		.loc 1 193 3 discriminator 8 view .LVU357
 193:Middlewares/Third_Party/FreeRTOS/Source/event_groups.c **** 
 1205              		.loc 1 193 22 is_stmt 0 discriminator 8 view .LVU358
 1206 0056 D6F80090 		ldr	r9, [r6]
 1207              	.LVL97:
 195:Middlewares/Third_Party/FreeRTOS/Source/event_groups.c **** 
 1208              		.loc 1 195 3 is_stmt 1 discriminator 8 view .LVU359
 195:Middlewares/Third_Party/FreeRTOS/Source/event_groups.c **** 
 1209              		.loc 1 195 12 is_stmt 0 discriminator 8 view .LVU360
 1210 005a 2146     		mov	r1, r4
 1211 005c 3046     		mov	r0, r6
 1212 005e FFF7FEFF 		bl	xEventGroupSetBits
 1213              	.LVL98:
 197:Middlewares/Third_Party/FreeRTOS/Source/event_groups.c **** 		{
 1214              		.loc 1 197 3 is_stmt 1 discriminator 8 view .LVU361
 197:Middlewares/Third_Party/FreeRTOS/Source/event_groups.c **** 		{
 1215              		.loc 1 197 30 is_stmt 0 discriminator 8 view .LVU362
 1216 0062 49EA0404 		orr	r4, r9, r4
 1217              	.LVL99:
 197:Middlewares/Third_Party/FreeRTOS/Source/event_groups.c **** 		{
 1218              		.loc 1 197 5 discriminator 8 view .LVU363
 1219 0066 35EA0403 		bics	r3, r5, r4
 1220 006a 18D0     		beq	.L85
 210:Middlewares/Third_Party/FreeRTOS/Source/event_groups.c **** 			{
 1221              		.loc 1 210 4 is_stmt 1 view .LVU364
 210:Middlewares/Third_Party/FreeRTOS/Source/event_groups.c **** 			{
 1222              		.loc 1 210 6 is_stmt 0 view .LVU365
 1223 006c EFB9     		cbnz	r7, .L86
 229:Middlewares/Third_Party/FreeRTOS/Source/event_groups.c **** 				xTimeoutOccurred = pdTRUE;
 1224              		.loc 1 229 5 is_stmt 1 view .LVU366
ARM GAS  /tmp/ccrT5O1S.s 			page 44


 229:Middlewares/Third_Party/FreeRTOS/Source/event_groups.c **** 				xTimeoutOccurred = pdTRUE;
 1225              		.loc 1 229 14 is_stmt 0 view .LVU367
 1226 006e 3468     		ldr	r4, [r6]
 1227              	.LVL100:
 230:Middlewares/Third_Party/FreeRTOS/Source/event_groups.c **** 			}
 1228              		.loc 1 230 5 is_stmt 1 view .LVU368
 1229              	.L78:
 234:Middlewares/Third_Party/FreeRTOS/Source/event_groups.c **** 
 1230              		.loc 1 234 2 view .LVU369
 234:Middlewares/Third_Party/FreeRTOS/Source/event_groups.c **** 
 1231              		.loc 1 234 20 is_stmt 0 view .LVU370
 1232 0070 FFF7FEFF 		bl	xTaskResumeAll
 1233              	.LVL101:
 236:Middlewares/Third_Party/FreeRTOS/Source/event_groups.c **** 	{
 1234              		.loc 1 236 2 is_stmt 1 view .LVU371
 236:Middlewares/Third_Party/FreeRTOS/Source/event_groups.c **** 	{
 1235              		.loc 1 236 4 is_stmt 0 view .LVU372
 1236 0074 87B1     		cbz	r7, .L70
 238:Middlewares/Third_Party/FreeRTOS/Source/event_groups.c **** 		{
 1237              		.loc 1 238 3 is_stmt 1 view .LVU373
 238:Middlewares/Third_Party/FreeRTOS/Source/event_groups.c **** 		{
 1238              		.loc 1 238 5 is_stmt 0 view .LVU374
 1239 0076 38B9     		cbnz	r0, .L81
 240:Middlewares/Third_Party/FreeRTOS/Source/event_groups.c **** 		}
 1240              		.loc 1 240 4 is_stmt 1 view .LVU375
 1241 0078 164B     		ldr	r3, .L89
 1242 007a 4FF08052 		mov	r2, #268435456
 1243 007e 1A60     		str	r2, [r3]
 240:Middlewares/Third_Party/FreeRTOS/Source/event_groups.c **** 		}
 1244              		.loc 1 240 4 view .LVU376
 1245              		.syntax unified
 1246              	@ 240 "Middlewares/Third_Party/FreeRTOS/Source/event_groups.c" 1
 1247 0080 BFF34F8F 		dsb
 1248              	@ 0 "" 2
 240:Middlewares/Third_Party/FreeRTOS/Source/event_groups.c **** 		}
 1249              		.loc 1 240 4 view .LVU377
 1250              	@ 240 "Middlewares/Third_Party/FreeRTOS/Source/event_groups.c" 1
 1251 0084 BFF36F8F 		isb
 1252              	@ 0 "" 2
 240:Middlewares/Third_Party/FreeRTOS/Source/event_groups.c **** 		}
 1253              		.loc 1 240 26 view .LVU378
 1254              		.thumb
 1255              		.syntax unified
 1256              	.L81:
 244:Middlewares/Third_Party/FreeRTOS/Source/event_groups.c **** 		}
 1257              		.loc 1 244 28 view .LVU379
 251:Middlewares/Third_Party/FreeRTOS/Source/event_groups.c **** 
 1258              		.loc 1 251 3 view .LVU380
 251:Middlewares/Third_Party/FreeRTOS/Source/event_groups.c **** 
 1259              		.loc 1 251 14 is_stmt 0 view .LVU381
 1260 0088 FFF7FEFF 		bl	uxTaskResetEventItemValue
 1261              	.LVL102:
 251:Middlewares/Third_Party/FreeRTOS/Source/event_groups.c **** 
 1262              		.loc 1 251 14 view .LVU382
 1263 008c 0446     		mov	r4, r0
 1264              	.LVL103:
 253:Middlewares/Third_Party/FreeRTOS/Source/event_groups.c **** 		{
ARM GAS  /tmp/ccrT5O1S.s 			page 45


 1265              		.loc 1 253 3 is_stmt 1 view .LVU383
 253:Middlewares/Third_Party/FreeRTOS/Source/event_groups.c **** 		{
 1266              		.loc 1 253 5 is_stmt 0 view .LVU384
 1267 008e 10F0007F 		tst	r0, #33554432
 1268 0092 12D0     		beq	.L87
 1269              	.LVL104:
 1270              	.L82:
 280:Middlewares/Third_Party/FreeRTOS/Source/event_groups.c **** 
 1271              		.loc 1 280 3 is_stmt 1 view .LVU385
 284:Middlewares/Third_Party/FreeRTOS/Source/event_groups.c **** 	}
 1272              		.loc 1 284 3 view .LVU386
 284:Middlewares/Third_Party/FreeRTOS/Source/event_groups.c **** 	}
 1273              		.loc 1 284 12 is_stmt 0 view .LVU387
 1274 0094 24F07F44 		bic	r4, r4, #-16777216
 1275              	.LVL105:
 287:Middlewares/Third_Party/FreeRTOS/Source/event_groups.c **** 
 1276              		.loc 1 287 2 is_stmt 1 view .LVU388
 290:Middlewares/Third_Party/FreeRTOS/Source/event_groups.c **** 
 1277              		.loc 1 290 2 view .LVU389
 292:Middlewares/Third_Party/FreeRTOS/Source/event_groups.c **** }
 1278              		.loc 1 292 2 view .LVU390
 1279              	.L70:
 293:Middlewares/Third_Party/FreeRTOS/Source/event_groups.c **** /*-----------------------------------------------------------*/
 1280              		.loc 1 293 1 is_stmt 0 view .LVU391
 1281 0098 2046     		mov	r0, r4
 1282 009a BDE8F883 		pop	{r3, r4, r5, r6, r7, r8, r9, pc}
 1283              	.LVL106:
 1284              	.L85:
 200:Middlewares/Third_Party/FreeRTOS/Source/event_groups.c **** 
 1285              		.loc 1 200 4 is_stmt 1 view .LVU392
 204:Middlewares/Third_Party/FreeRTOS/Source/event_groups.c **** 
 1286              		.loc 1 204 4 view .LVU393
 204:Middlewares/Third_Party/FreeRTOS/Source/event_groups.c **** 
 1287              		.loc 1 204 29 is_stmt 0 view .LVU394
 1288 009e 3368     		ldr	r3, [r6]
 1289 00a0 23EA0503 		bic	r3, r3, r5
 1290 00a4 3360     		str	r3, [r6]
 206:Middlewares/Third_Party/FreeRTOS/Source/event_groups.c **** 		}
 1291              		.loc 1 206 4 is_stmt 1 view .LVU395
 1292              	.LVL107:
 206:Middlewares/Third_Party/FreeRTOS/Source/event_groups.c **** 		}
 1293              		.loc 1 206 17 is_stmt 0 view .LVU396
 1294 00a6 4746     		mov	r7, r8
 1295 00a8 E2E7     		b	.L78
 1296              	.LVL108:
 1297              	.L86:
 212:Middlewares/Third_Party/FreeRTOS/Source/event_groups.c **** 
 1298              		.loc 1 212 77 is_stmt 1 view .LVU397
 217:Middlewares/Third_Party/FreeRTOS/Source/event_groups.c **** 
 1299              		.loc 1 217 5 view .LVU398
 1300 00aa 3A46     		mov	r2, r7
 1301 00ac 45F0A061 		orr	r1, r5, #83886080
 1302 00b0 301D     		adds	r0, r6, #4
 1303 00b2 FFF7FEFF 		bl	vTaskPlaceOnUnorderedEventList
 1304              	.LVL109:
 223:Middlewares/Third_Party/FreeRTOS/Source/event_groups.c **** 			}
 1305              		.loc 1 223 5 view .LVU399
ARM GAS  /tmp/ccrT5O1S.s 			page 46


 223:Middlewares/Third_Party/FreeRTOS/Source/event_groups.c **** 			}
 1306              		.loc 1 223 14 is_stmt 0 view .LVU400
 1307 00b6 4446     		mov	r4, r8
 1308 00b8 DAE7     		b	.L78
 1309              	.LVL110:
 1310              	.L87:
 256:Middlewares/Third_Party/FreeRTOS/Source/event_groups.c **** 			{
 1311              		.loc 1 256 4 is_stmt 1 view .LVU401
 1312 00ba FFF7FEFF 		bl	vPortEnterCritical
 1313              	.LVL111:
 258:Middlewares/Third_Party/FreeRTOS/Source/event_groups.c **** 
 1314              		.loc 1 258 5 view .LVU402
 258:Middlewares/Third_Party/FreeRTOS/Source/event_groups.c **** 
 1315              		.loc 1 258 14 is_stmt 0 view .LVU403
 1316 00be 3468     		ldr	r4, [r6]
 1317              	.LVL112:
 264:Middlewares/Third_Party/FreeRTOS/Source/event_groups.c **** 				{
 1318              		.loc 1 264 5 is_stmt 1 view .LVU404
 264:Middlewares/Third_Party/FreeRTOS/Source/event_groups.c **** 				{
 1319              		.loc 1 264 7 is_stmt 0 view .LVU405
 1320 00c0 35EA0403 		bics	r3, r5, r4
 1321 00c4 02D0     		beq	.L88
 1322              	.LVL113:
 1323              	.L83:
 270:Middlewares/Third_Party/FreeRTOS/Source/event_groups.c **** 				}
 1324              		.loc 1 270 30 is_stmt 1 view .LVU406
 273:Middlewares/Third_Party/FreeRTOS/Source/event_groups.c **** 
 1325              		.loc 1 273 4 view .LVU407
 1326 00c6 FFF7FEFF 		bl	vPortExitCritical
 1327              	.LVL114:
 275:Middlewares/Third_Party/FreeRTOS/Source/event_groups.c **** 		}
 1328              		.loc 1 275 4 view .LVU408
 275:Middlewares/Third_Party/FreeRTOS/Source/event_groups.c **** 		}
 1329              		.loc 1 275 4 is_stmt 0 view .LVU409
 1330 00ca E3E7     		b	.L82
 1331              	.LVL115:
 1332              	.L88:
 266:Middlewares/Third_Party/FreeRTOS/Source/event_groups.c **** 				}
 1333              		.loc 1 266 6 is_stmt 1 view .LVU410
 266:Middlewares/Third_Party/FreeRTOS/Source/event_groups.c **** 				}
 1334              		.loc 1 266 31 is_stmt 0 view .LVU411
 1335 00cc 24EA0505 		bic	r5, r4, r5
 1336              	.LVL116:
 266:Middlewares/Third_Party/FreeRTOS/Source/event_groups.c **** 				}
 1337              		.loc 1 266 31 view .LVU412
 1338 00d0 3560     		str	r5, [r6]
 1339 00d2 F8E7     		b	.L83
 1340              	.L90:
 1341              		.align	2
 1342              	.L89:
 1343 00d4 04ED00E0 		.word	-536810236
 1344              		.cfi_endproc
 1345              	.LFE6:
 1347              		.section	.text.vEventGroupSetBitsCallback,"ax",%progbits
 1348              		.align	1
 1349              		.global	vEventGroupSetBitsCallback
 1350              		.syntax unified
ARM GAS  /tmp/ccrT5O1S.s 			page 47


 1351              		.thumb
 1352              		.thumb_func
 1353              		.fpu fpv5-d16
 1355              	vEventGroupSetBitsCallback:
 1356              	.LVL117:
 1357              	.LFB13:
 643:Middlewares/Third_Party/FreeRTOS/Source/event_groups.c **** 	( void ) xEventGroupSetBits( pvEventGroup, ( EventBits_t ) ulBitsToSet );
 1358              		.loc 1 643 1 is_stmt 1 view -0
 1359              		.cfi_startproc
 1360              		@ args = 0, pretend = 0, frame = 0
 1361              		@ frame_needed = 0, uses_anonymous_args = 0
 643:Middlewares/Third_Party/FreeRTOS/Source/event_groups.c **** 	( void ) xEventGroupSetBits( pvEventGroup, ( EventBits_t ) ulBitsToSet );
 1362              		.loc 1 643 1 is_stmt 0 view .LVU414
 1363 0000 08B5     		push	{r3, lr}
 1364              	.LCFI14:
 1365              		.cfi_def_cfa_offset 8
 1366              		.cfi_offset 3, -8
 1367              		.cfi_offset 14, -4
 644:Middlewares/Third_Party/FreeRTOS/Source/event_groups.c **** }
 1368              		.loc 1 644 2 is_stmt 1 view .LVU415
 644:Middlewares/Third_Party/FreeRTOS/Source/event_groups.c **** }
 1369              		.loc 1 644 11 is_stmt 0 view .LVU416
 1370 0002 FFF7FEFF 		bl	xEventGroupSetBits
 1371              	.LVL118:
 645:Middlewares/Third_Party/FreeRTOS/Source/event_groups.c **** /*-----------------------------------------------------------*/
 1372              		.loc 1 645 1 view .LVU417
 1373 0006 08BD     		pop	{r3, pc}
 1374              		.cfi_endproc
 1375              	.LFE13:
 1377              		.section	.text.vEventGroupDelete,"ax",%progbits
 1378              		.align	1
 1379              		.global	vEventGroupDelete
 1380              		.syntax unified
 1381              		.thumb
 1382              		.thumb_func
 1383              		.fpu fpv5-d16
 1385              	vEventGroupDelete:
 1386              	.LVL119:
 1387              	.LFB12:
 599:Middlewares/Third_Party/FreeRTOS/Source/event_groups.c **** EventGroup_t *pxEventBits = ( EventGroup_t * ) xEventGroup;
 1388              		.loc 1 599 1 is_stmt 1 view -0
 1389              		.cfi_startproc
 1390              		@ args = 0, pretend = 0, frame = 0
 1391              		@ frame_needed = 0, uses_anonymous_args = 0
 599:Middlewares/Third_Party/FreeRTOS/Source/event_groups.c **** EventGroup_t *pxEventBits = ( EventGroup_t * ) xEventGroup;
 1392              		.loc 1 599 1 is_stmt 0 view .LVU419
 1393 0000 10B5     		push	{r4, lr}
 1394              	.LCFI15:
 1395              		.cfi_def_cfa_offset 8
 1396              		.cfi_offset 4, -8
 1397              		.cfi_offset 14, -4
 1398 0002 0446     		mov	r4, r0
 600:Middlewares/Third_Party/FreeRTOS/Source/event_groups.c **** const List_t *pxTasksWaitingForBits = &( pxEventBits->xTasksWaitingForBits );
 1399              		.loc 1 600 1 is_stmt 1 view .LVU420
 1400              	.LVL120:
 601:Middlewares/Third_Party/FreeRTOS/Source/event_groups.c **** 
 1401              		.loc 1 601 1 view .LVU421
ARM GAS  /tmp/ccrT5O1S.s 			page 48


 603:Middlewares/Third_Party/FreeRTOS/Source/event_groups.c **** 	{
 1402              		.loc 1 603 2 view .LVU422
 1403 0004 FFF7FEFF 		bl	vTaskSuspendAll
 1404              	.LVL121:
 605:Middlewares/Third_Party/FreeRTOS/Source/event_groups.c **** 
 1405              		.loc 1 605 41 view .LVU423
 607:Middlewares/Third_Party/FreeRTOS/Source/event_groups.c **** 		{
 1406              		.loc 1 607 3 view .LVU424
 1407              	.L94:
 607:Middlewares/Third_Party/FreeRTOS/Source/event_groups.c **** 		{
 1408              		.loc 1 607 10 is_stmt 0 view .LVU425
 1409 0008 6368     		ldr	r3, [r4, #4]
 607:Middlewares/Third_Party/FreeRTOS/Source/event_groups.c **** 		{
 1410              		.loc 1 607 8 view .LVU426
 1411 000a 93B1     		cbz	r3, .L100
 611:Middlewares/Third_Party/FreeRTOS/Source/event_groups.c **** 			vTaskRemoveFromUnorderedEventList( pxTasksWaitingForBits->xListEnd.pxNext, eventUNBLOCKED_DUE_TO
 1412              		.loc 1 611 4 is_stmt 1 view .LVU427
 1413 000c 2069     		ldr	r0, [r4, #16]
 1414 000e 04F10C03 		add	r3, r4, #12
 1415 0012 9842     		cmp	r0, r3
 1416 0014 04D0     		beq	.L101
 611:Middlewares/Third_Party/FreeRTOS/Source/event_groups.c **** 			vTaskRemoveFromUnorderedEventList( pxTasksWaitingForBits->xListEnd.pxNext, eventUNBLOCKED_DUE_TO
 1417              		.loc 1 611 121 discriminator 2 view .LVU428
 612:Middlewares/Third_Party/FreeRTOS/Source/event_groups.c **** 		}
 1418              		.loc 1 612 4 discriminator 2 view .LVU429
 1419 0016 4FF00071 		mov	r1, #33554432
 1420 001a FFF7FEFF 		bl	vTaskRemoveFromUnorderedEventList
 1421              	.LVL122:
 1422 001e F3E7     		b	.L94
 1423              	.L101:
 611:Middlewares/Third_Party/FreeRTOS/Source/event_groups.c **** 			vTaskRemoveFromUnorderedEventList( pxTasksWaitingForBits->xListEnd.pxNext, eventUNBLOCKED_DUE_TO
 1424              		.loc 1 611 4 view .LVU430
 1425              	.LBB71:
 1426              	.LBI71:
 191:Middlewares/Third_Party/FreeRTOS/Source/portable/GCC/ARM_CM4F/portmacro.h **** {
 1427              		.loc 2 191 30 view .LVU431
 1428              	.LBB72:
 193:Middlewares/Third_Party/FreeRTOS/Source/portable/GCC/ARM_CM4F/portmacro.h **** 
 1429              		.loc 2 193 1 view .LVU432
 195:Middlewares/Third_Party/FreeRTOS/Source/portable/GCC/ARM_CM4F/portmacro.h **** 	(
 1430              		.loc 2 195 2 view .LVU433
 1431              		.syntax unified
 1432              	@ 195 "Middlewares/Third_Party/FreeRTOS/Source/portable/GCC/ARM_CM4F/portmacro.h" 1
 1433 0020 4FF05003 			mov r3, #80												
 1434 0024 83F31188 		msr basepri, r3											
 1435 0028 BFF36F8F 		isb														
 1436 002c BFF34F8F 		dsb														
 1437              	
 1438              	@ 0 "" 2
 1439              	.LVL123:
 1440              		.thumb
 1441              		.syntax unified
 1442              	.L96:
 195:Middlewares/Third_Party/FreeRTOS/Source/portable/GCC/ARM_CM4F/portmacro.h **** 	(
 1443              		.loc 2 195 2 is_stmt 0 view .LVU434
 1444              	.LBE72:
 1445              	.LBE71:
ARM GAS  /tmp/ccrT5O1S.s 			page 49


 611:Middlewares/Third_Party/FreeRTOS/Source/event_groups.c **** 			vTaskRemoveFromUnorderedEventList( pxTasksWaitingForBits->xListEnd.pxNext, eventUNBLOCKED_DUE_TO
 1446              		.loc 1 611 4 is_stmt 1 discriminator 1 view .LVU435
 611:Middlewares/Third_Party/FreeRTOS/Source/event_groups.c **** 			vTaskRemoveFromUnorderedEventList( pxTasksWaitingForBits->xListEnd.pxNext, eventUNBLOCKED_DUE_TO
 1447              		.loc 1 611 4 discriminator 1 view .LVU436
 1448 0030 FEE7     		b	.L96
 1449              	.L100:
 625:Middlewares/Third_Party/FreeRTOS/Source/event_groups.c **** 			{
 1450              		.loc 1 625 4 view .LVU437
 625:Middlewares/Third_Party/FreeRTOS/Source/event_groups.c **** 			{
 1451              		.loc 1 625 19 is_stmt 0 view .LVU438
 1452 0032 237F     		ldrb	r3, [r4, #28]	@ zero_extendqisi2
 625:Middlewares/Third_Party/FreeRTOS/Source/event_groups.c **** 			{
 1453              		.loc 1 625 6 view .LVU439
 1454 0034 13B1     		cbz	r3, .L102
 1455              	.L98:
 631:Middlewares/Third_Party/FreeRTOS/Source/event_groups.c **** 			}
 1456              		.loc 1 631 29 is_stmt 1 view .LVU440
 636:Middlewares/Third_Party/FreeRTOS/Source/event_groups.c **** }
 1457              		.loc 1 636 2 view .LVU441
 636:Middlewares/Third_Party/FreeRTOS/Source/event_groups.c **** }
 1458              		.loc 1 636 11 is_stmt 0 view .LVU442
 1459 0036 FFF7FEFF 		bl	xTaskResumeAll
 1460              	.LVL124:
 637:Middlewares/Third_Party/FreeRTOS/Source/event_groups.c **** /*-----------------------------------------------------------*/
 1461              		.loc 1 637 1 view .LVU443
 1462 003a 10BD     		pop	{r4, pc}
 1463              	.LVL125:
 1464              	.L102:
 627:Middlewares/Third_Party/FreeRTOS/Source/event_groups.c **** 			}
 1465              		.loc 1 627 5 is_stmt 1 view .LVU444
 1466 003c 2046     		mov	r0, r4
 1467 003e FFF7FEFF 		bl	vPortFree
 1468              	.LVL126:
 1469 0042 F8E7     		b	.L98
 1470              		.cfi_endproc
 1471              	.LFE12:
 1473              		.section	.text.xEventGroupSetBitsFromISR,"ax",%progbits
 1474              		.align	1
 1475              		.global	xEventGroupSetBitsFromISR
 1476              		.syntax unified
 1477              		.thumb
 1478              		.thumb_func
 1479              		.fpu fpv5-d16
 1481              	xEventGroupSetBitsFromISR:
 1482              	.LVL127:
 1483              	.LFB16:
 689:Middlewares/Third_Party/FreeRTOS/Source/event_groups.c **** /*-----------------------------------------------------------*/
 690:Middlewares/Third_Party/FreeRTOS/Source/event_groups.c **** 
 691:Middlewares/Third_Party/FreeRTOS/Source/event_groups.c **** #if ( ( configUSE_TRACE_FACILITY == 1 ) && ( INCLUDE_xTimerPendFunctionCall == 1 ) && ( configUSE_T
 692:Middlewares/Third_Party/FreeRTOS/Source/event_groups.c **** 
 693:Middlewares/Third_Party/FreeRTOS/Source/event_groups.c **** 	BaseType_t xEventGroupSetBitsFromISR( EventGroupHandle_t xEventGroup, const EventBits_t uxBitsToSe
 694:Middlewares/Third_Party/FreeRTOS/Source/event_groups.c **** 	{
 1484              		.loc 1 694 2 view -0
 1485              		.cfi_startproc
 1486              		@ args = 0, pretend = 0, frame = 0
 1487              		@ frame_needed = 0, uses_anonymous_args = 0
 1488              		.loc 1 694 2 is_stmt 0 view .LVU446
ARM GAS  /tmp/ccrT5O1S.s 			page 50


 1489 0000 08B5     		push	{r3, lr}
 1490              	.LCFI16:
 1491              		.cfi_def_cfa_offset 8
 1492              		.cfi_offset 3, -8
 1493              		.cfi_offset 14, -4
 1494 0002 1346     		mov	r3, r2
 695:Middlewares/Third_Party/FreeRTOS/Source/event_groups.c **** 	BaseType_t xReturn;
 1495              		.loc 1 695 2 is_stmt 1 view .LVU447
 696:Middlewares/Third_Party/FreeRTOS/Source/event_groups.c **** 
 697:Middlewares/Third_Party/FreeRTOS/Source/event_groups.c **** 		traceEVENT_GROUP_SET_BITS_FROM_ISR( xEventGroup, uxBitsToSet );
 1496              		.loc 1 697 65 view .LVU448
 698:Middlewares/Third_Party/FreeRTOS/Source/event_groups.c **** 		xReturn = xTimerPendFunctionCallFromISR( vEventGroupSetBitsCallback, ( void * ) xEventGroup, ( ui
 1497              		.loc 1 698 3 view .LVU449
 1498              		.loc 1 698 13 is_stmt 0 view .LVU450
 1499 0004 0A46     		mov	r2, r1
 1500              	.LVL128:
 1501              		.loc 1 698 13 view .LVU451
 1502 0006 0146     		mov	r1, r0
 1503              	.LVL129:
 1504              		.loc 1 698 13 view .LVU452
 1505 0008 0148     		ldr	r0, .L105
 1506              	.LVL130:
 1507              		.loc 1 698 13 view .LVU453
 1508 000a FFF7FEFF 		bl	xTimerPendFunctionCallFromISR
 1509              	.LVL131:
 699:Middlewares/Third_Party/FreeRTOS/Source/event_groups.c **** 
 700:Middlewares/Third_Party/FreeRTOS/Source/event_groups.c **** 		return xReturn;
 1510              		.loc 1 700 3 is_stmt 1 view .LVU454
 701:Middlewares/Third_Party/FreeRTOS/Source/event_groups.c **** 	}
 1511              		.loc 1 701 2 is_stmt 0 view .LVU455
 1512 000e 08BD     		pop	{r3, pc}
 1513              	.L106:
 1514              		.align	2
 1515              	.L105:
 1516 0010 00000000 		.word	vEventGroupSetBitsCallback
 1517              		.cfi_endproc
 1518              	.LFE16:
 1520              		.section	.text.uxEventGroupGetNumber,"ax",%progbits
 1521              		.align	1
 1522              		.global	uxEventGroupGetNumber
 1523              		.syntax unified
 1524              		.thumb
 1525              		.thumb_func
 1526              		.fpu fpv5-d16
 1528              	uxEventGroupGetNumber:
 1529              	.LVL132:
 1530              	.LFB17:
 702:Middlewares/Third_Party/FreeRTOS/Source/event_groups.c **** 
 703:Middlewares/Third_Party/FreeRTOS/Source/event_groups.c **** #endif
 704:Middlewares/Third_Party/FreeRTOS/Source/event_groups.c **** /*-----------------------------------------------------------*/
 705:Middlewares/Third_Party/FreeRTOS/Source/event_groups.c **** 
 706:Middlewares/Third_Party/FreeRTOS/Source/event_groups.c **** #if (configUSE_TRACE_FACILITY == 1)
 707:Middlewares/Third_Party/FreeRTOS/Source/event_groups.c **** 
 708:Middlewares/Third_Party/FreeRTOS/Source/event_groups.c **** 	UBaseType_t uxEventGroupGetNumber( void* xEventGroup )
 709:Middlewares/Third_Party/FreeRTOS/Source/event_groups.c **** 	{
 1531              		.loc 1 709 2 is_stmt 1 view -0
 1532              		.cfi_startproc
ARM GAS  /tmp/ccrT5O1S.s 			page 51


 1533              		@ args = 0, pretend = 0, frame = 0
 1534              		@ frame_needed = 0, uses_anonymous_args = 0
 1535              		@ link register save eliminated.
 710:Middlewares/Third_Party/FreeRTOS/Source/event_groups.c **** 	UBaseType_t xReturn;
 1536              		.loc 1 710 2 view .LVU457
 711:Middlewares/Third_Party/FreeRTOS/Source/event_groups.c **** 	EventGroup_t *pxEventBits = ( EventGroup_t * ) xEventGroup;
 1537              		.loc 1 711 2 view .LVU458
 712:Middlewares/Third_Party/FreeRTOS/Source/event_groups.c **** 
 713:Middlewares/Third_Party/FreeRTOS/Source/event_groups.c **** 		if( xEventGroup == NULL )
 1538              		.loc 1 713 3 view .LVU459
 1539              		.loc 1 713 5 is_stmt 0 view .LVU460
 1540 0000 08B1     		cbz	r0, .L109
 714:Middlewares/Third_Party/FreeRTOS/Source/event_groups.c **** 		{
 715:Middlewares/Third_Party/FreeRTOS/Source/event_groups.c **** 			xReturn = 0;
 716:Middlewares/Third_Party/FreeRTOS/Source/event_groups.c **** 		}
 717:Middlewares/Third_Party/FreeRTOS/Source/event_groups.c **** 		else
 718:Middlewares/Third_Party/FreeRTOS/Source/event_groups.c **** 		{
 719:Middlewares/Third_Party/FreeRTOS/Source/event_groups.c **** 			xReturn = pxEventBits->uxEventGroupNumber;
 1541              		.loc 1 719 4 is_stmt 1 view .LVU461
 1542              		.loc 1 719 12 is_stmt 0 view .LVU462
 1543 0002 8069     		ldr	r0, [r0, #24]
 1544              	.LVL133:
 1545              		.loc 1 719 12 view .LVU463
 1546 0004 7047     		bx	lr
 1547              	.LVL134:
 1548              	.L109:
 715:Middlewares/Third_Party/FreeRTOS/Source/event_groups.c **** 		}
 1549              		.loc 1 715 12 view .LVU464
 1550 0006 0020     		movs	r0, #0
 1551              	.LVL135:
 720:Middlewares/Third_Party/FreeRTOS/Source/event_groups.c **** 		}
 721:Middlewares/Third_Party/FreeRTOS/Source/event_groups.c **** 
 722:Middlewares/Third_Party/FreeRTOS/Source/event_groups.c **** 		return xReturn;
 1552              		.loc 1 722 3 is_stmt 1 view .LVU465
 723:Middlewares/Third_Party/FreeRTOS/Source/event_groups.c **** 	}
 1553              		.loc 1 723 2 is_stmt 0 view .LVU466
 1554 0008 7047     		bx	lr
 1555              		.cfi_endproc
 1556              	.LFE17:
 1558              		.section	.text.vEventGroupSetNumber,"ax",%progbits
 1559              		.align	1
 1560              		.global	vEventGroupSetNumber
 1561              		.syntax unified
 1562              		.thumb
 1563              		.thumb_func
 1564              		.fpu fpv5-d16
 1566              	vEventGroupSetNumber:
 1567              	.LVL136:
 1568              	.LFB18:
 724:Middlewares/Third_Party/FreeRTOS/Source/event_groups.c **** 
 725:Middlewares/Third_Party/FreeRTOS/Source/event_groups.c **** #endif /* configUSE_TRACE_FACILITY */
 726:Middlewares/Third_Party/FreeRTOS/Source/event_groups.c **** /*-----------------------------------------------------------*/
 727:Middlewares/Third_Party/FreeRTOS/Source/event_groups.c **** 
 728:Middlewares/Third_Party/FreeRTOS/Source/event_groups.c **** #if ( configUSE_TRACE_FACILITY == 1 )
 729:Middlewares/Third_Party/FreeRTOS/Source/event_groups.c **** 
 730:Middlewares/Third_Party/FreeRTOS/Source/event_groups.c **** 	void vEventGroupSetNumber( void * xEventGroup, UBaseType_t uxEventGroupNumber )
 731:Middlewares/Third_Party/FreeRTOS/Source/event_groups.c **** 	{
ARM GAS  /tmp/ccrT5O1S.s 			page 52


 1569              		.loc 1 731 2 is_stmt 1 view -0
 1570              		.cfi_startproc
 1571              		@ args = 0, pretend = 0, frame = 0
 1572              		@ frame_needed = 0, uses_anonymous_args = 0
 1573              		@ link register save eliminated.
 732:Middlewares/Third_Party/FreeRTOS/Source/event_groups.c **** 		( ( EventGroup_t * ) xEventGroup )->uxEventGroupNumber = uxEventGroupNumber;
 1574              		.loc 1 732 3 view .LVU468
 1575              		.loc 1 732 58 is_stmt 0 view .LVU469
 1576 0000 8161     		str	r1, [r0, #24]
 733:Middlewares/Third_Party/FreeRTOS/Source/event_groups.c **** 	}
 1577              		.loc 1 733 2 view .LVU470
 1578 0002 7047     		bx	lr
 1579              		.cfi_endproc
 1580              	.LFE18:
 1582              		.text
 1583              	.Letext0:
 1584              		.file 3 "/usr/lib/gcc/arm-none-eabi/9.1.0/include/stddef.h"
 1585              		.file 4 "/usr/arm-none-eabi/include/machine/_default_types.h"
 1586              		.file 5 "/usr/arm-none-eabi/include/sys/lock.h"
 1587              		.file 6 "/usr/arm-none-eabi/include/sys/_types.h"
 1588              		.file 7 "/usr/arm-none-eabi/include/sys/reent.h"
 1589              		.file 8 "/usr/arm-none-eabi/include/stdlib.h"
 1590              		.file 9 "/usr/arm-none-eabi/include/sys/_stdint.h"
 1591              		.file 10 "Inc/FreeRTOSConfig.h"
 1592              		.file 11 "Middlewares/Third_Party/FreeRTOS/Source/include/FreeRTOS.h"
 1593              		.file 12 "Middlewares/Third_Party/FreeRTOS/Source/include/list.h"
 1594              		.file 13 "Middlewares/Third_Party/FreeRTOS/Source/include/event_groups.h"
 1595              		.file 14 "Middlewares/Third_Party/FreeRTOS/Source/include/timers.h"
 1596              		.file 15 "Middlewares/Third_Party/FreeRTOS/Source/include/task.h"
 1597              		.file 16 "Middlewares/Third_Party/FreeRTOS/Source/include/portable.h"
ARM GAS  /tmp/ccrT5O1S.s 			page 53

