ARM GAS  /tmp/ccxC147N.s 			page 1


   1              		.cpu cortex-m7
   2              		.eabi_attribute 28, 1
   3              		.eabi_attribute 20, 1
   4              		.eabi_attribute 21, 1
   5              		.eabi_attribute 23, 3
   6              		.eabi_attribute 24, 1
   7              		.eabi_attribute 25, 1
   8              		.eabi_attribute 26, 1
   9              		.eabi_attribute 30, 1
  10              		.eabi_attribute 34, 1
  11              		.eabi_attribute 18, 4
  12              		.file	"stm32h7xx_hal_exti.c"
  13              		.text
  14              	.Ltext0:
  15              		.cfi_sections	.debug_frame
  16              		.section	.text.HAL_EXTI_SetConfigLine,"ax",%progbits
  17              		.align	1
  18              		.global	HAL_EXTI_SetConfigLine
  19              		.arch armv7e-m
  20              		.syntax unified
  21              		.thumb
  22              		.thumb_func
  23              		.fpu fpv5-d16
  25              	HAL_EXTI_SetConfigLine:
  26              	.LVL0:
  27              	.LFB141:
  28              		.file 1 "Drivers/STM32H7xx_HAL_Driver/Src/stm32h7xx_hal_exti.c"
   1:Drivers/STM32H7xx_HAL_Driver/Src/stm32h7xx_hal_exti.c **** /**
   2:Drivers/STM32H7xx_HAL_Driver/Src/stm32h7xx_hal_exti.c ****   ******************************************************************************
   3:Drivers/STM32H7xx_HAL_Driver/Src/stm32h7xx_hal_exti.c ****   * @file    stm32h7xx_hal_exti.c
   4:Drivers/STM32H7xx_HAL_Driver/Src/stm32h7xx_hal_exti.c ****   * @author  MCD Application Team
   5:Drivers/STM32H7xx_HAL_Driver/Src/stm32h7xx_hal_exti.c ****   * @brief   EXTI HAL module driver.
   6:Drivers/STM32H7xx_HAL_Driver/Src/stm32h7xx_hal_exti.c ****   *          This file provides firmware functions to manage the following
   7:Drivers/STM32H7xx_HAL_Driver/Src/stm32h7xx_hal_exti.c ****   *          functionalities of the General Purpose Input/Output (EXTI) peripheral:
   8:Drivers/STM32H7xx_HAL_Driver/Src/stm32h7xx_hal_exti.c ****   *           + Initialization and de-initialization functions
   9:Drivers/STM32H7xx_HAL_Driver/Src/stm32h7xx_hal_exti.c ****   *           + IO operation functions
  10:Drivers/STM32H7xx_HAL_Driver/Src/stm32h7xx_hal_exti.c ****   *
  11:Drivers/STM32H7xx_HAL_Driver/Src/stm32h7xx_hal_exti.c ****   @verbatim
  12:Drivers/STM32H7xx_HAL_Driver/Src/stm32h7xx_hal_exti.c ****   ==============================================================================
  13:Drivers/STM32H7xx_HAL_Driver/Src/stm32h7xx_hal_exti.c ****                     ##### EXTI Peripheral features #####
  14:Drivers/STM32H7xx_HAL_Driver/Src/stm32h7xx_hal_exti.c ****   ==============================================================================
  15:Drivers/STM32H7xx_HAL_Driver/Src/stm32h7xx_hal_exti.c ****   [..]
  16:Drivers/STM32H7xx_HAL_Driver/Src/stm32h7xx_hal_exti.c ****     (+) Each Exti line can be configured within this driver.
  17:Drivers/STM32H7xx_HAL_Driver/Src/stm32h7xx_hal_exti.c **** 
  18:Drivers/STM32H7xx_HAL_Driver/Src/stm32h7xx_hal_exti.c ****     (+) Exti line can be configured in 3 different modes
  19:Drivers/STM32H7xx_HAL_Driver/Src/stm32h7xx_hal_exti.c ****         (++) Interrupt (CORE1 or CORE2 in case of dual core line )
  20:Drivers/STM32H7xx_HAL_Driver/Src/stm32h7xx_hal_exti.c ****         (++) Event (CORE1 or CORE2 in case of dual core line )
  21:Drivers/STM32H7xx_HAL_Driver/Src/stm32h7xx_hal_exti.c ****         (++) a combination of the previous
  22:Drivers/STM32H7xx_HAL_Driver/Src/stm32h7xx_hal_exti.c **** 
  23:Drivers/STM32H7xx_HAL_Driver/Src/stm32h7xx_hal_exti.c ****     (+) Configurable Exti lines can be configured with 3 different triggers
  24:Drivers/STM32H7xx_HAL_Driver/Src/stm32h7xx_hal_exti.c ****         (++) Rising
  25:Drivers/STM32H7xx_HAL_Driver/Src/stm32h7xx_hal_exti.c ****         (++) Falling
  26:Drivers/STM32H7xx_HAL_Driver/Src/stm32h7xx_hal_exti.c ****         (++) Both of them
  27:Drivers/STM32H7xx_HAL_Driver/Src/stm32h7xx_hal_exti.c **** 
  28:Drivers/STM32H7xx_HAL_Driver/Src/stm32h7xx_hal_exti.c ****     (+) When set in interrupt mode, configurable Exti lines have two diffenrents
  29:Drivers/STM32H7xx_HAL_Driver/Src/stm32h7xx_hal_exti.c ****         interrupt pending registers which allow to distinguish which transition
  30:Drivers/STM32H7xx_HAL_Driver/Src/stm32h7xx_hal_exti.c ****         occurs:
ARM GAS  /tmp/ccxC147N.s 			page 2


  31:Drivers/STM32H7xx_HAL_Driver/Src/stm32h7xx_hal_exti.c ****         (++) Rising edge pending interrupt
  32:Drivers/STM32H7xx_HAL_Driver/Src/stm32h7xx_hal_exti.c ****         (++) Falling
  33:Drivers/STM32H7xx_HAL_Driver/Src/stm32h7xx_hal_exti.c **** 
  34:Drivers/STM32H7xx_HAL_Driver/Src/stm32h7xx_hal_exti.c ****     (+) Exti lines 0 to 15 are linked to gpio pin number 0 to 15. Gpio port can
  35:Drivers/STM32H7xx_HAL_Driver/Src/stm32h7xx_hal_exti.c ****         be selected throught multiplexer.
  36:Drivers/STM32H7xx_HAL_Driver/Src/stm32h7xx_hal_exti.c **** 
  37:Drivers/STM32H7xx_HAL_Driver/Src/stm32h7xx_hal_exti.c ****     (+) PendClearSource used to set the D3 Smart Run Domain autoamtic pend clear soure.
  38:Drivers/STM32H7xx_HAL_Driver/Src/stm32h7xx_hal_exti.c ****         It is applicable for line with wkaeup target is Any (CPU1 , CPU2 and D3 smart run domain).
  39:Drivers/STM32H7xx_HAL_Driver/Src/stm32h7xx_hal_exti.c ****         Value can be one of the following:
  40:Drivers/STM32H7xx_HAL_Driver/Src/stm32h7xx_hal_exti.c ****         (++)  EXTI_D3_PENDCLR_SRC_NONE : no pend clear source is selcted :
  41:Drivers/STM32H7xx_HAL_Driver/Src/stm32h7xx_hal_exti.c ****               In this case corresponding bit of D2PMRx register is set to 0
  42:Drivers/STM32H7xx_HAL_Driver/Src/stm32h7xx_hal_exti.c ****                 (+++) On a configurable Line : the D3 domain wakeup signal is
  43:Drivers/STM32H7xx_HAL_Driver/Src/stm32h7xx_hal_exti.c ****                       automatically cleared after after the Delay + Rising Edge detect
  44:Drivers/STM32H7xx_HAL_Driver/Src/stm32h7xx_hal_exti.c ****                 (+++) On a direct Line : the D3 domain wakeup signal is
  45:Drivers/STM32H7xx_HAL_Driver/Src/stm32h7xx_hal_exti.c ****                       cleared after the direct event input signal is cleared
  46:Drivers/STM32H7xx_HAL_Driver/Src/stm32h7xx_hal_exti.c **** 
  47:Drivers/STM32H7xx_HAL_Driver/Src/stm32h7xx_hal_exti.c ****         (++)  EXTI_D3_PENDCLR_SRC_DMACH6 : no pend clear source is selcted :
  48:Drivers/STM32H7xx_HAL_Driver/Src/stm32h7xx_hal_exti.c ****               In this case corresponding bit of D2PMRx register is set to 1
  49:Drivers/STM32H7xx_HAL_Driver/Src/stm32h7xx_hal_exti.c ****               and corresponding bits(2) of D3PCRxL/H is set to b00 :
  50:Drivers/STM32H7xx_HAL_Driver/Src/stm32h7xx_hal_exti.c ****                 DMA ch6 event selected as D3 domain pendclear source
  51:Drivers/STM32H7xx_HAL_Driver/Src/stm32h7xx_hal_exti.c **** 
  52:Drivers/STM32H7xx_HAL_Driver/Src/stm32h7xx_hal_exti.c ****         (++)  EXTI_D3_PENDCLR_SRC_DMACH7 : no pend clear source is selcted :
  53:Drivers/STM32H7xx_HAL_Driver/Src/stm32h7xx_hal_exti.c ****               In this case corresponding bit of D2PMRx register is set to 1
  54:Drivers/STM32H7xx_HAL_Driver/Src/stm32h7xx_hal_exti.c ****               and corresponding bits(2) of D3PCRxL/H is set to b01 :
  55:Drivers/STM32H7xx_HAL_Driver/Src/stm32h7xx_hal_exti.c ****                 DMA ch7 event selected as D3 domain pendclear source
  56:Drivers/STM32H7xx_HAL_Driver/Src/stm32h7xx_hal_exti.c **** 
  57:Drivers/STM32H7xx_HAL_Driver/Src/stm32h7xx_hal_exti.c ****         (++)  EXTI_D3_PENDCLR_SRC_LPTIM4 : no pend clear source is selcted :
  58:Drivers/STM32H7xx_HAL_Driver/Src/stm32h7xx_hal_exti.c ****               In this case corresponding bit of D2PMRx register is set to 1
  59:Drivers/STM32H7xx_HAL_Driver/Src/stm32h7xx_hal_exti.c ****               and corresponding bits(2) of D3PCRxL/H is set to b10 :
  60:Drivers/STM32H7xx_HAL_Driver/Src/stm32h7xx_hal_exti.c ****                 LPTIM4 out selected as D3 domain pendclear source
  61:Drivers/STM32H7xx_HAL_Driver/Src/stm32h7xx_hal_exti.c **** 
  62:Drivers/STM32H7xx_HAL_Driver/Src/stm32h7xx_hal_exti.c ****         (++)  EXTI_D3_PENDCLR_SRC_LPTIM5 : no pend clear source is selcted :
  63:Drivers/STM32H7xx_HAL_Driver/Src/stm32h7xx_hal_exti.c ****               In this case corresponding bit of D2PMRx register is set to 1
  64:Drivers/STM32H7xx_HAL_Driver/Src/stm32h7xx_hal_exti.c ****               and corresponding bits(2) of D3PCRxL/H is set to b11 :
  65:Drivers/STM32H7xx_HAL_Driver/Src/stm32h7xx_hal_exti.c ****                 LPTIM5 out selected as D3 domain pendclear source
  66:Drivers/STM32H7xx_HAL_Driver/Src/stm32h7xx_hal_exti.c **** 
  67:Drivers/STM32H7xx_HAL_Driver/Src/stm32h7xx_hal_exti.c **** 
  68:Drivers/STM32H7xx_HAL_Driver/Src/stm32h7xx_hal_exti.c ****                      ##### How to use this driver #####
  69:Drivers/STM32H7xx_HAL_Driver/Src/stm32h7xx_hal_exti.c ****   ==============================================================================
  70:Drivers/STM32H7xx_HAL_Driver/Src/stm32h7xx_hal_exti.c ****   [..]
  71:Drivers/STM32H7xx_HAL_Driver/Src/stm32h7xx_hal_exti.c **** 
  72:Drivers/STM32H7xx_HAL_Driver/Src/stm32h7xx_hal_exti.c ****     (#) Configure the EXTI line using HAL_EXTI_SetConfigLine().
  73:Drivers/STM32H7xx_HAL_Driver/Src/stm32h7xx_hal_exti.c ****         (++) Choose the interrupt line number by setting "Line" member from
  74:Drivers/STM32H7xx_HAL_Driver/Src/stm32h7xx_hal_exti.c ****              EXTI_ConfigTypeDef structure.
  75:Drivers/STM32H7xx_HAL_Driver/Src/stm32h7xx_hal_exti.c ****         (++) Configure the interrupt and/or event mode using "Mode" member from
  76:Drivers/STM32H7xx_HAL_Driver/Src/stm32h7xx_hal_exti.c ****              EXTI_ConfigTypeDef structure.
  77:Drivers/STM32H7xx_HAL_Driver/Src/stm32h7xx_hal_exti.c ****         (++) For configurable lines, configure rising and/or falling trigger
  78:Drivers/STM32H7xx_HAL_Driver/Src/stm32h7xx_hal_exti.c ****              "Trigger" member from EXTI_ConfigTypeDef structure.
  79:Drivers/STM32H7xx_HAL_Driver/Src/stm32h7xx_hal_exti.c ****         (++) For Exti lines linked to gpio, choose gpio port using "GPIOSel"
  80:Drivers/STM32H7xx_HAL_Driver/Src/stm32h7xx_hal_exti.c ****              member from GPIO_InitTypeDef structure.
  81:Drivers/STM32H7xx_HAL_Driver/Src/stm32h7xx_hal_exti.c ****         (++) For Exti lines with wkaeup target is Any (CPU1 , CPU2 and D3 smart run domain),
  82:Drivers/STM32H7xx_HAL_Driver/Src/stm32h7xx_hal_exti.c ****              choose gpio D3 PendClearSource using PendClearSource
  83:Drivers/STM32H7xx_HAL_Driver/Src/stm32h7xx_hal_exti.c ****              member from EXTI_PendClear_Source structure.
  84:Drivers/STM32H7xx_HAL_Driver/Src/stm32h7xx_hal_exti.c **** 
  85:Drivers/STM32H7xx_HAL_Driver/Src/stm32h7xx_hal_exti.c ****     (#) Get current Exti configuration of a dedicated line using
  86:Drivers/STM32H7xx_HAL_Driver/Src/stm32h7xx_hal_exti.c ****         HAL_EXTI_GetConfigLine().
  87:Drivers/STM32H7xx_HAL_Driver/Src/stm32h7xx_hal_exti.c ****         (++) Provide exiting handle as parameter.
ARM GAS  /tmp/ccxC147N.s 			page 3


  88:Drivers/STM32H7xx_HAL_Driver/Src/stm32h7xx_hal_exti.c ****         (++) Provide pointer on EXTI_ConfigTypeDef structure as second parameter.
  89:Drivers/STM32H7xx_HAL_Driver/Src/stm32h7xx_hal_exti.c **** 
  90:Drivers/STM32H7xx_HAL_Driver/Src/stm32h7xx_hal_exti.c ****     (#) Clear Exti configuration of a dedicated line using HAL_EXTI_GetConfigLine().
  91:Drivers/STM32H7xx_HAL_Driver/Src/stm32h7xx_hal_exti.c ****         (++) Provide exiting handle as parameter.
  92:Drivers/STM32H7xx_HAL_Driver/Src/stm32h7xx_hal_exti.c **** 
  93:Drivers/STM32H7xx_HAL_Driver/Src/stm32h7xx_hal_exti.c ****     (#) Register callback to treat Exti interrupts using HAL_EXTI_RegisterCallback().
  94:Drivers/STM32H7xx_HAL_Driver/Src/stm32h7xx_hal_exti.c ****         (++) Provide exiting handle as first parameter.
  95:Drivers/STM32H7xx_HAL_Driver/Src/stm32h7xx_hal_exti.c ****         (++) Provide which callback will be registered using one value from
  96:Drivers/STM32H7xx_HAL_Driver/Src/stm32h7xx_hal_exti.c ****              EXTI_CallbackIDTypeDef.
  97:Drivers/STM32H7xx_HAL_Driver/Src/stm32h7xx_hal_exti.c ****         (++) Provide callback function pointer.
  98:Drivers/STM32H7xx_HAL_Driver/Src/stm32h7xx_hal_exti.c **** 
  99:Drivers/STM32H7xx_HAL_Driver/Src/stm32h7xx_hal_exti.c ****     (#) Get interrupt pending bit using HAL_EXTI_GetPending().
 100:Drivers/STM32H7xx_HAL_Driver/Src/stm32h7xx_hal_exti.c **** 
 101:Drivers/STM32H7xx_HAL_Driver/Src/stm32h7xx_hal_exti.c ****     (#) Clear interrupt pending bit using HAL_EXTI_GetPending().
 102:Drivers/STM32H7xx_HAL_Driver/Src/stm32h7xx_hal_exti.c **** 
 103:Drivers/STM32H7xx_HAL_Driver/Src/stm32h7xx_hal_exti.c ****     (#) Generate software interrupt using HAL_EXTI_GenerateSWI().
 104:Drivers/STM32H7xx_HAL_Driver/Src/stm32h7xx_hal_exti.c **** 
 105:Drivers/STM32H7xx_HAL_Driver/Src/stm32h7xx_hal_exti.c ****   @endverbatim
 106:Drivers/STM32H7xx_HAL_Driver/Src/stm32h7xx_hal_exti.c ****   ******************************************************************************
 107:Drivers/STM32H7xx_HAL_Driver/Src/stm32h7xx_hal_exti.c ****   * @attention
 108:Drivers/STM32H7xx_HAL_Driver/Src/stm32h7xx_hal_exti.c ****   *
 109:Drivers/STM32H7xx_HAL_Driver/Src/stm32h7xx_hal_exti.c ****   * <h2><center>&copy; Copyright (c) 2017 STMicroelectronics.
 110:Drivers/STM32H7xx_HAL_Driver/Src/stm32h7xx_hal_exti.c ****   * All rights reserved.</center></h2>
 111:Drivers/STM32H7xx_HAL_Driver/Src/stm32h7xx_hal_exti.c ****   *
 112:Drivers/STM32H7xx_HAL_Driver/Src/stm32h7xx_hal_exti.c ****   * This software component is licensed by ST under BSD 3-Clause license,
 113:Drivers/STM32H7xx_HAL_Driver/Src/stm32h7xx_hal_exti.c ****   * the "License"; You may not use this file except in compliance with the
 114:Drivers/STM32H7xx_HAL_Driver/Src/stm32h7xx_hal_exti.c ****   * License. You may obtain a copy of the License at:
 115:Drivers/STM32H7xx_HAL_Driver/Src/stm32h7xx_hal_exti.c ****   *                        opensource.org/licenses/BSD-3-Clause
 116:Drivers/STM32H7xx_HAL_Driver/Src/stm32h7xx_hal_exti.c ****   *
 117:Drivers/STM32H7xx_HAL_Driver/Src/stm32h7xx_hal_exti.c ****   ******************************************************************************
 118:Drivers/STM32H7xx_HAL_Driver/Src/stm32h7xx_hal_exti.c ****   */
 119:Drivers/STM32H7xx_HAL_Driver/Src/stm32h7xx_hal_exti.c **** 
 120:Drivers/STM32H7xx_HAL_Driver/Src/stm32h7xx_hal_exti.c **** /* Includes ------------------------------------------------------------------*/
 121:Drivers/STM32H7xx_HAL_Driver/Src/stm32h7xx_hal_exti.c **** #include "stm32h7xx_hal.h"
 122:Drivers/STM32H7xx_HAL_Driver/Src/stm32h7xx_hal_exti.c **** 
 123:Drivers/STM32H7xx_HAL_Driver/Src/stm32h7xx_hal_exti.c **** /** @addtogroup STM32H7xx_HAL_Driver
 124:Drivers/STM32H7xx_HAL_Driver/Src/stm32h7xx_hal_exti.c ****   * @{
 125:Drivers/STM32H7xx_HAL_Driver/Src/stm32h7xx_hal_exti.c ****   */
 126:Drivers/STM32H7xx_HAL_Driver/Src/stm32h7xx_hal_exti.c **** 
 127:Drivers/STM32H7xx_HAL_Driver/Src/stm32h7xx_hal_exti.c **** /** @addtogroup EXTI
 128:Drivers/STM32H7xx_HAL_Driver/Src/stm32h7xx_hal_exti.c ****   * @{
 129:Drivers/STM32H7xx_HAL_Driver/Src/stm32h7xx_hal_exti.c ****   */
 130:Drivers/STM32H7xx_HAL_Driver/Src/stm32h7xx_hal_exti.c **** 
 131:Drivers/STM32H7xx_HAL_Driver/Src/stm32h7xx_hal_exti.c **** #ifdef HAL_EXTI_MODULE_ENABLED
 132:Drivers/STM32H7xx_HAL_Driver/Src/stm32h7xx_hal_exti.c **** 
 133:Drivers/STM32H7xx_HAL_Driver/Src/stm32h7xx_hal_exti.c **** /* Private typedef -----------------------------------------------------------*/
 134:Drivers/STM32H7xx_HAL_Driver/Src/stm32h7xx_hal_exti.c **** /* Private defines ------------------------------------------------------------*/
 135:Drivers/STM32H7xx_HAL_Driver/Src/stm32h7xx_hal_exti.c **** /** @defgroup EXTI_Private_Constants EXTI Private Constants
 136:Drivers/STM32H7xx_HAL_Driver/Src/stm32h7xx_hal_exti.c ****   * @{
 137:Drivers/STM32H7xx_HAL_Driver/Src/stm32h7xx_hal_exti.c ****   */
 138:Drivers/STM32H7xx_HAL_Driver/Src/stm32h7xx_hal_exti.c **** #define EXTI_MODE_OFFSET                    0x04U   /* 0x10: offset between CPU IMR/EMR registers *
 139:Drivers/STM32H7xx_HAL_Driver/Src/stm32h7xx_hal_exti.c **** #define EXTI_CONFIG_OFFSET                  0x08U   /* 0x20: offset between CPU Rising/Falling conf
 140:Drivers/STM32H7xx_HAL_Driver/Src/stm32h7xx_hal_exti.c **** /**
 141:Drivers/STM32H7xx_HAL_Driver/Src/stm32h7xx_hal_exti.c ****   * @}
 142:Drivers/STM32H7xx_HAL_Driver/Src/stm32h7xx_hal_exti.c ****   */
 143:Drivers/STM32H7xx_HAL_Driver/Src/stm32h7xx_hal_exti.c **** 
 144:Drivers/STM32H7xx_HAL_Driver/Src/stm32h7xx_hal_exti.c **** /* Private macros ------------------------------------------------------------*/
ARM GAS  /tmp/ccxC147N.s 			page 4


 145:Drivers/STM32H7xx_HAL_Driver/Src/stm32h7xx_hal_exti.c **** /* Private variables ---------------------------------------------------------*/
 146:Drivers/STM32H7xx_HAL_Driver/Src/stm32h7xx_hal_exti.c **** /* Private function prototypes -----------------------------------------------*/
 147:Drivers/STM32H7xx_HAL_Driver/Src/stm32h7xx_hal_exti.c **** /* Exported functions --------------------------------------------------------*/
 148:Drivers/STM32H7xx_HAL_Driver/Src/stm32h7xx_hal_exti.c **** 
 149:Drivers/STM32H7xx_HAL_Driver/Src/stm32h7xx_hal_exti.c **** /** @addtogroup EXTI_Exported_Functions
 150:Drivers/STM32H7xx_HAL_Driver/Src/stm32h7xx_hal_exti.c ****   * @{
 151:Drivers/STM32H7xx_HAL_Driver/Src/stm32h7xx_hal_exti.c ****   */
 152:Drivers/STM32H7xx_HAL_Driver/Src/stm32h7xx_hal_exti.c **** 
 153:Drivers/STM32H7xx_HAL_Driver/Src/stm32h7xx_hal_exti.c **** /** @addtogroup EXTI_Exported_Functions_Group1
 154:Drivers/STM32H7xx_HAL_Driver/Src/stm32h7xx_hal_exti.c ****  *  @brief    Configuration functions
 155:Drivers/STM32H7xx_HAL_Driver/Src/stm32h7xx_hal_exti.c ****  *
 156:Drivers/STM32H7xx_HAL_Driver/Src/stm32h7xx_hal_exti.c **** @verbatim
 157:Drivers/STM32H7xx_HAL_Driver/Src/stm32h7xx_hal_exti.c ****  ===============================================================================
 158:Drivers/STM32H7xx_HAL_Driver/Src/stm32h7xx_hal_exti.c ****               ##### Configuration functions #####
 159:Drivers/STM32H7xx_HAL_Driver/Src/stm32h7xx_hal_exti.c ****  ===============================================================================
 160:Drivers/STM32H7xx_HAL_Driver/Src/stm32h7xx_hal_exti.c **** 
 161:Drivers/STM32H7xx_HAL_Driver/Src/stm32h7xx_hal_exti.c **** @endverbatim
 162:Drivers/STM32H7xx_HAL_Driver/Src/stm32h7xx_hal_exti.c ****   * @{
 163:Drivers/STM32H7xx_HAL_Driver/Src/stm32h7xx_hal_exti.c ****   */
 164:Drivers/STM32H7xx_HAL_Driver/Src/stm32h7xx_hal_exti.c **** 
 165:Drivers/STM32H7xx_HAL_Driver/Src/stm32h7xx_hal_exti.c **** /**
 166:Drivers/STM32H7xx_HAL_Driver/Src/stm32h7xx_hal_exti.c ****   * @brief  Set configuration of a dedicated Exti line.
 167:Drivers/STM32H7xx_HAL_Driver/Src/stm32h7xx_hal_exti.c ****   * @param  hexti Exti handle.
 168:Drivers/STM32H7xx_HAL_Driver/Src/stm32h7xx_hal_exti.c ****   * @param  pExtiConfig Pointer on EXTI configuration to be set.
 169:Drivers/STM32H7xx_HAL_Driver/Src/stm32h7xx_hal_exti.c ****   * @retval HAL Status.
 170:Drivers/STM32H7xx_HAL_Driver/Src/stm32h7xx_hal_exti.c ****   */
 171:Drivers/STM32H7xx_HAL_Driver/Src/stm32h7xx_hal_exti.c **** HAL_StatusTypeDef HAL_EXTI_SetConfigLine(EXTI_HandleTypeDef *hexti, EXTI_ConfigTypeDef *pExtiConfig
 172:Drivers/STM32H7xx_HAL_Driver/Src/stm32h7xx_hal_exti.c **** {
  29              		.loc 1 172 1 view -0
  30              		.cfi_startproc
  31              		@ args = 0, pretend = 0, frame = 0
  32              		@ frame_needed = 0, uses_anonymous_args = 0
 173:Drivers/STM32H7xx_HAL_Driver/Src/stm32h7xx_hal_exti.c ****   __IO uint32_t *regaddr;
  33              		.loc 1 173 3 view .LVU1
 174:Drivers/STM32H7xx_HAL_Driver/Src/stm32h7xx_hal_exti.c ****   uint32_t regval;
  34              		.loc 1 174 3 view .LVU2
 175:Drivers/STM32H7xx_HAL_Driver/Src/stm32h7xx_hal_exti.c ****   uint32_t linepos;
  35              		.loc 1 175 3 view .LVU3
 176:Drivers/STM32H7xx_HAL_Driver/Src/stm32h7xx_hal_exti.c ****   uint32_t maskline;
  36              		.loc 1 176 3 view .LVU4
 177:Drivers/STM32H7xx_HAL_Driver/Src/stm32h7xx_hal_exti.c ****   uint32_t offset;
  37              		.loc 1 177 3 view .LVU5
 178:Drivers/STM32H7xx_HAL_Driver/Src/stm32h7xx_hal_exti.c ****   uint32_t pcrlinepos;
  38              		.loc 1 178 3 view .LVU6
 179:Drivers/STM32H7xx_HAL_Driver/Src/stm32h7xx_hal_exti.c **** 
 180:Drivers/STM32H7xx_HAL_Driver/Src/stm32h7xx_hal_exti.c ****   /* Check null pointer */
 181:Drivers/STM32H7xx_HAL_Driver/Src/stm32h7xx_hal_exti.c ****   if ((hexti == NULL) || (pExtiConfig == NULL))
  39              		.loc 1 181 3 view .LVU7
  40              		.loc 1 181 39 is_stmt 0 view .LVU8
  41 0000 0B46     		mov	r3, r1
  42 0002 B1FA81F1 		clz	r1, r1
  43              	.LVL1:
  44              		.loc 1 181 39 view .LVU9
  45 0006 4909     		lsrs	r1, r1, #5
  46              		.loc 1 181 23 view .LVU10
  47 0008 0028     		cmp	r0, #0
  48 000a 08BF     		it	eq
ARM GAS  /tmp/ccxC147N.s 			page 5


  49 000c 0121     		moveq	r1, #1
  50              		.loc 1 181 6 view .LVU11
  51 000e 0029     		cmp	r1, #0
  52 0010 40F08A80 		bne	.L15
 172:Drivers/STM32H7xx_HAL_Driver/Src/stm32h7xx_hal_exti.c ****   __IO uint32_t *regaddr;
  53              		.loc 1 172 1 view .LVU12
  54 0014 2DE9F041 		push	{r4, r5, r6, r7, r8, lr}
  55              	.LCFI0:
  56              		.cfi_def_cfa_offset 24
  57              		.cfi_offset 4, -24
  58              		.cfi_offset 5, -20
  59              		.cfi_offset 6, -16
  60              		.cfi_offset 7, -12
  61              		.cfi_offset 8, -8
  62              		.cfi_offset 14, -4
 182:Drivers/STM32H7xx_HAL_Driver/Src/stm32h7xx_hal_exti.c ****   {
 183:Drivers/STM32H7xx_HAL_Driver/Src/stm32h7xx_hal_exti.c ****     return HAL_ERROR;
 184:Drivers/STM32H7xx_HAL_Driver/Src/stm32h7xx_hal_exti.c ****   }
 185:Drivers/STM32H7xx_HAL_Driver/Src/stm32h7xx_hal_exti.c **** 
 186:Drivers/STM32H7xx_HAL_Driver/Src/stm32h7xx_hal_exti.c ****   /* Check the parameters */
 187:Drivers/STM32H7xx_HAL_Driver/Src/stm32h7xx_hal_exti.c ****   assert_param(IS_EXTI_LINE(pExtiConfig->Line));
  63              		.loc 1 187 3 is_stmt 1 view .LVU13
 188:Drivers/STM32H7xx_HAL_Driver/Src/stm32h7xx_hal_exti.c ****   assert_param(IS_EXTI_MODE(pExtiConfig->Mode));
  64              		.loc 1 188 3 view .LVU14
 189:Drivers/STM32H7xx_HAL_Driver/Src/stm32h7xx_hal_exti.c **** 
 190:Drivers/STM32H7xx_HAL_Driver/Src/stm32h7xx_hal_exti.c ****   /* Assign line number to handle */
 191:Drivers/STM32H7xx_HAL_Driver/Src/stm32h7xx_hal_exti.c ****   hexti->Line = pExtiConfig->Line;
  65              		.loc 1 191 3 view .LVU15
  66              		.loc 1 191 28 is_stmt 0 view .LVU16
  67 0018 1968     		ldr	r1, [r3]
  68              		.loc 1 191 15 view .LVU17
  69 001a 0160     		str	r1, [r0]
 192:Drivers/STM32H7xx_HAL_Driver/Src/stm32h7xx_hal_exti.c **** 
 193:Drivers/STM32H7xx_HAL_Driver/Src/stm32h7xx_hal_exti.c ****   /* compute line register offset and line mask */
 194:Drivers/STM32H7xx_HAL_Driver/Src/stm32h7xx_hal_exti.c ****   offset = ((pExtiConfig->Line & EXTI_REG_MASK) >> EXTI_REG_SHIFT);
  70              		.loc 1 194 3 is_stmt 1 view .LVU18
  71              		.loc 1 194 10 is_stmt 0 view .LVU19
  72 001c C1F30144 		ubfx	r4, r1, #16, #2
  73              	.LVL2:
 195:Drivers/STM32H7xx_HAL_Driver/Src/stm32h7xx_hal_exti.c ****   linepos = (pExtiConfig->Line & EXTI_PIN_MASK);
  74              		.loc 1 195 3 is_stmt 1 view .LVU20
  75              		.loc 1 195 11 is_stmt 0 view .LVU21
  76 0020 01F01F08 		and	r8, r1, #31
  77              	.LVL3:
 196:Drivers/STM32H7xx_HAL_Driver/Src/stm32h7xx_hal_exti.c ****   maskline = (1UL << linepos);
  78              		.loc 1 196 3 is_stmt 1 view .LVU22
  79              		.loc 1 196 12 is_stmt 0 view .LVU23
  80 0024 0122     		movs	r2, #1
  81 0026 02FA08F2 		lsl	r2, r2, r8
  82              	.LVL4:
 197:Drivers/STM32H7xx_HAL_Driver/Src/stm32h7xx_hal_exti.c **** 
 198:Drivers/STM32H7xx_HAL_Driver/Src/stm32h7xx_hal_exti.c ****   /* Configure triggers for configurable lines */
 199:Drivers/STM32H7xx_HAL_Driver/Src/stm32h7xx_hal_exti.c ****   if ((pExtiConfig->Line & EXTI_CONFIG) != 0x00U)
  83              		.loc 1 199 3 is_stmt 1 view .LVU24
  84              		.loc 1 199 6 is_stmt 0 view .LVU25
  85 002a 11F0007F 		tst	r1, #33554432
  86 002e 19D0     		beq	.L3
ARM GAS  /tmp/ccxC147N.s 			page 6


 200:Drivers/STM32H7xx_HAL_Driver/Src/stm32h7xx_hal_exti.c ****   {
 201:Drivers/STM32H7xx_HAL_Driver/Src/stm32h7xx_hal_exti.c ****     assert_param(IS_EXTI_TRIGGER(pExtiConfig->Trigger));
  87              		.loc 1 201 5 is_stmt 1 view .LVU26
 202:Drivers/STM32H7xx_HAL_Driver/Src/stm32h7xx_hal_exti.c **** 
 203:Drivers/STM32H7xx_HAL_Driver/Src/stm32h7xx_hal_exti.c ****     /* Configure rising trigger */
 204:Drivers/STM32H7xx_HAL_Driver/Src/stm32h7xx_hal_exti.c ****     regaddr = (__IO uint32_t *)(&EXTI->RTSR1 + (EXTI_CONFIG_OFFSET * offset));
  88              		.loc 1 204 5 view .LVU27
  89              		.loc 1 204 15 is_stmt 0 view .LVU28
  90 0030 6001     		lsls	r0, r4, #5
  91              	.LVL5:
  92              		.loc 1 204 13 view .LVU29
  93 0032 00F1B04C 		add	ip, r0, #1476395008
  94              	.LVL6:
 205:Drivers/STM32H7xx_HAL_Driver/Src/stm32h7xx_hal_exti.c ****     regval = *regaddr;
  95              		.loc 1 205 5 is_stmt 1 view .LVU30
  96              		.loc 1 205 12 is_stmt 0 view .LVU31
  97 0036 DCF80050 		ldr	r5, [ip]
  98              	.LVL7:
 206:Drivers/STM32H7xx_HAL_Driver/Src/stm32h7xx_hal_exti.c **** 
 207:Drivers/STM32H7xx_HAL_Driver/Src/stm32h7xx_hal_exti.c ****     /* Mask or set line */
 208:Drivers/STM32H7xx_HAL_Driver/Src/stm32h7xx_hal_exti.c ****     if ((pExtiConfig->Trigger & EXTI_TRIGGER_RISING) != 0x00U)
  99              		.loc 1 208 5 is_stmt 1 view .LVU32
 100              		.loc 1 208 21 is_stmt 0 view .LVU33
 101 003a 9F68     		ldr	r7, [r3, #8]
 102              		.loc 1 208 8 view .LVU34
 103 003c 17F0010F 		tst	r7, #1
 104 0040 2AD0     		beq	.L4
 209:Drivers/STM32H7xx_HAL_Driver/Src/stm32h7xx_hal_exti.c ****     {
 210:Drivers/STM32H7xx_HAL_Driver/Src/stm32h7xx_hal_exti.c ****       regval |= maskline;
 105              		.loc 1 210 7 is_stmt 1 view .LVU35
 106              		.loc 1 210 14 is_stmt 0 view .LVU36
 107 0042 1543     		orrs	r5, r5, r2
 108              	.LVL8:
 109              	.L5:
 211:Drivers/STM32H7xx_HAL_Driver/Src/stm32h7xx_hal_exti.c ****     }
 212:Drivers/STM32H7xx_HAL_Driver/Src/stm32h7xx_hal_exti.c ****     else
 213:Drivers/STM32H7xx_HAL_Driver/Src/stm32h7xx_hal_exti.c ****     {
 214:Drivers/STM32H7xx_HAL_Driver/Src/stm32h7xx_hal_exti.c ****       regval &= ~maskline;
 215:Drivers/STM32H7xx_HAL_Driver/Src/stm32h7xx_hal_exti.c ****     }
 216:Drivers/STM32H7xx_HAL_Driver/Src/stm32h7xx_hal_exti.c **** 
 217:Drivers/STM32H7xx_HAL_Driver/Src/stm32h7xx_hal_exti.c ****     /* Store rising trigger mode */
 218:Drivers/STM32H7xx_HAL_Driver/Src/stm32h7xx_hal_exti.c ****     *regaddr = regval;
 110              		.loc 1 218 5 is_stmt 1 view .LVU37
 111              		.loc 1 218 14 is_stmt 0 view .LVU38
 112 0044 CCF80050 		str	r5, [ip]
 219:Drivers/STM32H7xx_HAL_Driver/Src/stm32h7xx_hal_exti.c **** 
 220:Drivers/STM32H7xx_HAL_Driver/Src/stm32h7xx_hal_exti.c ****     /* Configure falling trigger */
 221:Drivers/STM32H7xx_HAL_Driver/Src/stm32h7xx_hal_exti.c ****     regaddr = (__IO uint32_t *)(&EXTI->FTSR1 + (EXTI_CONFIG_OFFSET * offset));
 113              		.loc 1 221 5 is_stmt 1 view .LVU39
 114              		.loc 1 221 13 is_stmt 0 view .LVU40
 115 0048 384F     		ldr	r7, .L23
 116              	.LVL9:
 222:Drivers/STM32H7xx_HAL_Driver/Src/stm32h7xx_hal_exti.c ****     regval = *regaddr;
 117              		.loc 1 222 5 is_stmt 1 view .LVU41
 118              		.loc 1 222 12 is_stmt 0 view .LVU42
 119 004a C559     		ldr	r5, [r0, r7]
 120              	.LVL10:
ARM GAS  /tmp/ccxC147N.s 			page 7


 223:Drivers/STM32H7xx_HAL_Driver/Src/stm32h7xx_hal_exti.c **** 
 224:Drivers/STM32H7xx_HAL_Driver/Src/stm32h7xx_hal_exti.c ****     /* Mask or set line */
 225:Drivers/STM32H7xx_HAL_Driver/Src/stm32h7xx_hal_exti.c ****     if ((pExtiConfig->Trigger & EXTI_TRIGGER_FALLING) != 0x00U)
 121              		.loc 1 225 5 is_stmt 1 view .LVU43
 122              		.loc 1 225 8 is_stmt 0 view .LVU44
 123 004c 9E68     		ldr	r6, [r3, #8]
 124 004e 16F0020F 		tst	r6, #2
 125 0052 24D0     		beq	.L6
 226:Drivers/STM32H7xx_HAL_Driver/Src/stm32h7xx_hal_exti.c ****     {
 227:Drivers/STM32H7xx_HAL_Driver/Src/stm32h7xx_hal_exti.c ****       regval |= maskline;
 126              		.loc 1 227 7 is_stmt 1 view .LVU45
 127              		.loc 1 227 14 is_stmt 0 view .LVU46
 128 0054 1543     		orrs	r5, r5, r2
 129              	.LVL11:
 130              	.L7:
 228:Drivers/STM32H7xx_HAL_Driver/Src/stm32h7xx_hal_exti.c ****     }
 229:Drivers/STM32H7xx_HAL_Driver/Src/stm32h7xx_hal_exti.c ****     else
 230:Drivers/STM32H7xx_HAL_Driver/Src/stm32h7xx_hal_exti.c ****     {
 231:Drivers/STM32H7xx_HAL_Driver/Src/stm32h7xx_hal_exti.c ****       regval &= ~maskline;
 232:Drivers/STM32H7xx_HAL_Driver/Src/stm32h7xx_hal_exti.c ****     }
 233:Drivers/STM32H7xx_HAL_Driver/Src/stm32h7xx_hal_exti.c **** 
 234:Drivers/STM32H7xx_HAL_Driver/Src/stm32h7xx_hal_exti.c ****     /* Store falling trigger mode */
 235:Drivers/STM32H7xx_HAL_Driver/Src/stm32h7xx_hal_exti.c ****     *regaddr = regval;
 131              		.loc 1 235 5 is_stmt 1 view .LVU47
 132              		.loc 1 235 14 is_stmt 0 view .LVU48
 133 0056 C551     		str	r5, [r0, r7]
 236:Drivers/STM32H7xx_HAL_Driver/Src/stm32h7xx_hal_exti.c **** 
 237:Drivers/STM32H7xx_HAL_Driver/Src/stm32h7xx_hal_exti.c ****     /* Configure gpio port selection in case of gpio exti line */
 238:Drivers/STM32H7xx_HAL_Driver/Src/stm32h7xx_hal_exti.c ****     if ((pExtiConfig->Line & EXTI_GPIO) == EXTI_GPIO)
 134              		.loc 1 238 5 is_stmt 1 view .LVU49
 135              		.loc 1 238 21 is_stmt 0 view .LVU50
 136 0058 1868     		ldr	r0, [r3]
 137              	.LVL12:
 138              		.loc 1 238 28 view .LVU51
 139 005a 00F0C060 		and	r0, r0, #100663296
 140              		.loc 1 238 8 view .LVU52
 141 005e B0F1C06F 		cmp	r0, #100663296
 142 0062 1FD0     		beq	.L21
 143              	.LVL13:
 144              	.L3:
 239:Drivers/STM32H7xx_HAL_Driver/Src/stm32h7xx_hal_exti.c ****     {
 240:Drivers/STM32H7xx_HAL_Driver/Src/stm32h7xx_hal_exti.c ****       assert_param(IS_EXTI_GPIO_PORT(pExtiConfig->GPIOSel));
 241:Drivers/STM32H7xx_HAL_Driver/Src/stm32h7xx_hal_exti.c ****       assert_param(IS_EXTI_GPIO_PIN(linepos));
 242:Drivers/STM32H7xx_HAL_Driver/Src/stm32h7xx_hal_exti.c **** 
 243:Drivers/STM32H7xx_HAL_Driver/Src/stm32h7xx_hal_exti.c ****       regval = SYSCFG->EXTICR[(linepos >> 2U) & 0x03UL];
 244:Drivers/STM32H7xx_HAL_Driver/Src/stm32h7xx_hal_exti.c ****       regval &= ~(SYSCFG_EXTICR1_EXTI0 << (SYSCFG_EXTICR1_EXTI1_Pos * (linepos & 0x03U)));
 245:Drivers/STM32H7xx_HAL_Driver/Src/stm32h7xx_hal_exti.c ****       regval |= (pExtiConfig->GPIOSel << (SYSCFG_EXTICR1_EXTI1_Pos * (linepos & 0x03U)));
 246:Drivers/STM32H7xx_HAL_Driver/Src/stm32h7xx_hal_exti.c ****       SYSCFG->EXTICR[(linepos >> 2U) & 0x03UL] = regval;
 247:Drivers/STM32H7xx_HAL_Driver/Src/stm32h7xx_hal_exti.c ****     }
 248:Drivers/STM32H7xx_HAL_Driver/Src/stm32h7xx_hal_exti.c ****   }
 249:Drivers/STM32H7xx_HAL_Driver/Src/stm32h7xx_hal_exti.c **** 
 250:Drivers/STM32H7xx_HAL_Driver/Src/stm32h7xx_hal_exti.c ****   /* Configure interrupt mode : read current mode */
 251:Drivers/STM32H7xx_HAL_Driver/Src/stm32h7xx_hal_exti.c ****   regaddr = (__IO uint32_t *)(&EXTI->IMR1 + (EXTI_MODE_OFFSET * offset));
 145              		.loc 1 251 3 is_stmt 1 view .LVU53
 146              		.loc 1 251 13 is_stmt 0 view .LVU54
 147 0064 2001     		lsls	r0, r4, #4
 148              		.loc 1 251 11 view .LVU55
ARM GAS  /tmp/ccxC147N.s 			page 8


 149 0066 324F     		ldr	r7, .L23+4
 150              	.LVL14:
 252:Drivers/STM32H7xx_HAL_Driver/Src/stm32h7xx_hal_exti.c ****   regval = *regaddr;
 151              		.loc 1 252 3 is_stmt 1 view .LVU56
 152              		.loc 1 252 10 is_stmt 0 view .LVU57
 153 0068 C559     		ldr	r5, [r0, r7]
 154              	.LVL15:
 253:Drivers/STM32H7xx_HAL_Driver/Src/stm32h7xx_hal_exti.c **** 
 254:Drivers/STM32H7xx_HAL_Driver/Src/stm32h7xx_hal_exti.c ****   /* Mask or set line */
 255:Drivers/STM32H7xx_HAL_Driver/Src/stm32h7xx_hal_exti.c ****   if ((pExtiConfig->Mode & EXTI_MODE_INTERRUPT) != 0x00U)
 155              		.loc 1 255 3 is_stmt 1 view .LVU58
 156              		.loc 1 255 6 is_stmt 0 view .LVU59
 157 006a 5E68     		ldr	r6, [r3, #4]
 158 006c 16F0010F 		tst	r6, #1
 159 0070 2DD0     		beq	.L8
 256:Drivers/STM32H7xx_HAL_Driver/Src/stm32h7xx_hal_exti.c ****   {
 257:Drivers/STM32H7xx_HAL_Driver/Src/stm32h7xx_hal_exti.c ****     regval |= maskline;
 160              		.loc 1 257 5 is_stmt 1 view .LVU60
 161              		.loc 1 257 12 is_stmt 0 view .LVU61
 162 0072 1543     		orrs	r5, r5, r2
 163              	.LVL16:
 164              	.L9:
 258:Drivers/STM32H7xx_HAL_Driver/Src/stm32h7xx_hal_exti.c ****   }
 259:Drivers/STM32H7xx_HAL_Driver/Src/stm32h7xx_hal_exti.c ****   else
 260:Drivers/STM32H7xx_HAL_Driver/Src/stm32h7xx_hal_exti.c ****   {
 261:Drivers/STM32H7xx_HAL_Driver/Src/stm32h7xx_hal_exti.c ****     regval &= ~maskline;
 262:Drivers/STM32H7xx_HAL_Driver/Src/stm32h7xx_hal_exti.c ****   }
 263:Drivers/STM32H7xx_HAL_Driver/Src/stm32h7xx_hal_exti.c **** 
 264:Drivers/STM32H7xx_HAL_Driver/Src/stm32h7xx_hal_exti.c ****   /* Store interrupt mode */
 265:Drivers/STM32H7xx_HAL_Driver/Src/stm32h7xx_hal_exti.c ****   *regaddr = regval;
 165              		.loc 1 265 3 is_stmt 1 view .LVU62
 166              		.loc 1 265 12 is_stmt 0 view .LVU63
 167 0074 C551     		str	r5, [r0, r7]
 266:Drivers/STM32H7xx_HAL_Driver/Src/stm32h7xx_hal_exti.c **** 
 267:Drivers/STM32H7xx_HAL_Driver/Src/stm32h7xx_hal_exti.c ****   /* The event mode cannot be configured if the line does not support it */
 268:Drivers/STM32H7xx_HAL_Driver/Src/stm32h7xx_hal_exti.c ****   assert_param(((pExtiConfig->Line & EXTI_EVENT) == EXTI_EVENT) || ((pExtiConfig->Mode & EXTI_MODE_
 168              		.loc 1 268 3 is_stmt 1 view .LVU64
 269:Drivers/STM32H7xx_HAL_Driver/Src/stm32h7xx_hal_exti.c **** 
 270:Drivers/STM32H7xx_HAL_Driver/Src/stm32h7xx_hal_exti.c ****   /* Configure event mode : read current mode */
 271:Drivers/STM32H7xx_HAL_Driver/Src/stm32h7xx_hal_exti.c ****   regaddr = (__IO uint32_t *)(&EXTI->EMR1 + (EXTI_MODE_OFFSET * offset));
 169              		.loc 1 271 3 view .LVU65
 170              		.loc 1 271 11 is_stmt 0 view .LVU66
 171 0076 2F4F     		ldr	r7, .L23+8
 172              	.LVL17:
 272:Drivers/STM32H7xx_HAL_Driver/Src/stm32h7xx_hal_exti.c ****   regval = *regaddr;
 173              		.loc 1 272 3 is_stmt 1 view .LVU67
 174              		.loc 1 272 10 is_stmt 0 view .LVU68
 175 0078 C559     		ldr	r5, [r0, r7]
 176              	.LVL18:
 273:Drivers/STM32H7xx_HAL_Driver/Src/stm32h7xx_hal_exti.c **** 
 274:Drivers/STM32H7xx_HAL_Driver/Src/stm32h7xx_hal_exti.c ****   /* Mask or set line */
 275:Drivers/STM32H7xx_HAL_Driver/Src/stm32h7xx_hal_exti.c ****   if ((pExtiConfig->Mode & EXTI_MODE_EVENT) != 0x00U)
 177              		.loc 1 275 3 is_stmt 1 view .LVU69
 178              		.loc 1 275 6 is_stmt 0 view .LVU70
 179 007a 5E68     		ldr	r6, [r3, #4]
 180 007c 16F0020F 		tst	r6, #2
 181 0080 28D0     		beq	.L10
ARM GAS  /tmp/ccxC147N.s 			page 9


 276:Drivers/STM32H7xx_HAL_Driver/Src/stm32h7xx_hal_exti.c ****   {
 277:Drivers/STM32H7xx_HAL_Driver/Src/stm32h7xx_hal_exti.c ****     regval |= maskline;
 182              		.loc 1 277 5 is_stmt 1 view .LVU71
 183              		.loc 1 277 12 is_stmt 0 view .LVU72
 184 0082 1543     		orrs	r5, r5, r2
 185              	.LVL19:
 186              	.L11:
 278:Drivers/STM32H7xx_HAL_Driver/Src/stm32h7xx_hal_exti.c ****   }
 279:Drivers/STM32H7xx_HAL_Driver/Src/stm32h7xx_hal_exti.c ****   else
 280:Drivers/STM32H7xx_HAL_Driver/Src/stm32h7xx_hal_exti.c ****   {
 281:Drivers/STM32H7xx_HAL_Driver/Src/stm32h7xx_hal_exti.c ****     regval &= ~maskline;
 282:Drivers/STM32H7xx_HAL_Driver/Src/stm32h7xx_hal_exti.c ****   }
 283:Drivers/STM32H7xx_HAL_Driver/Src/stm32h7xx_hal_exti.c **** 
 284:Drivers/STM32H7xx_HAL_Driver/Src/stm32h7xx_hal_exti.c ****   /* Store event mode */
 285:Drivers/STM32H7xx_HAL_Driver/Src/stm32h7xx_hal_exti.c ****   *regaddr = regval;
 187              		.loc 1 285 3 is_stmt 1 view .LVU73
 188              		.loc 1 285 12 is_stmt 0 view .LVU74
 189 0084 C551     		str	r5, [r0, r7]
 286:Drivers/STM32H7xx_HAL_Driver/Src/stm32h7xx_hal_exti.c **** 
 287:Drivers/STM32H7xx_HAL_Driver/Src/stm32h7xx_hal_exti.c **** #if defined (DUAL_CORE)
 288:Drivers/STM32H7xx_HAL_Driver/Src/stm32h7xx_hal_exti.c ****   /* Configure interrupt mode for Core2 : read current mode */
 289:Drivers/STM32H7xx_HAL_Driver/Src/stm32h7xx_hal_exti.c ****   regaddr = (__IO uint32_t *)(&EXTI->C2IMR1 + (EXTI_MODE_OFFSET * offset));
 290:Drivers/STM32H7xx_HAL_Driver/Src/stm32h7xx_hal_exti.c ****   regval = *regaddr;
 291:Drivers/STM32H7xx_HAL_Driver/Src/stm32h7xx_hal_exti.c **** 
 292:Drivers/STM32H7xx_HAL_Driver/Src/stm32h7xx_hal_exti.c ****   /* Mask or set line */
 293:Drivers/STM32H7xx_HAL_Driver/Src/stm32h7xx_hal_exti.c ****   if ((pExtiConfig->Mode & EXTI_MODE_CORE2_INTERRUPT) != 0x00U)
 294:Drivers/STM32H7xx_HAL_Driver/Src/stm32h7xx_hal_exti.c ****   {
 295:Drivers/STM32H7xx_HAL_Driver/Src/stm32h7xx_hal_exti.c ****     regval |= maskline;
 296:Drivers/STM32H7xx_HAL_Driver/Src/stm32h7xx_hal_exti.c ****   }
 297:Drivers/STM32H7xx_HAL_Driver/Src/stm32h7xx_hal_exti.c ****   else
 298:Drivers/STM32H7xx_HAL_Driver/Src/stm32h7xx_hal_exti.c ****   {
 299:Drivers/STM32H7xx_HAL_Driver/Src/stm32h7xx_hal_exti.c ****     regval &= ~maskline;
 300:Drivers/STM32H7xx_HAL_Driver/Src/stm32h7xx_hal_exti.c ****   }
 301:Drivers/STM32H7xx_HAL_Driver/Src/stm32h7xx_hal_exti.c **** 
 302:Drivers/STM32H7xx_HAL_Driver/Src/stm32h7xx_hal_exti.c ****   /* Store interrupt mode */
 303:Drivers/STM32H7xx_HAL_Driver/Src/stm32h7xx_hal_exti.c ****   *regaddr = regval;
 304:Drivers/STM32H7xx_HAL_Driver/Src/stm32h7xx_hal_exti.c **** 
 305:Drivers/STM32H7xx_HAL_Driver/Src/stm32h7xx_hal_exti.c ****   /* The event mode cannot be configured if the line does not support it */
 306:Drivers/STM32H7xx_HAL_Driver/Src/stm32h7xx_hal_exti.c ****   assert_param(((pExtiConfig->Line & EXTI_EVENT) == EXTI_EVENT) || ((pExtiConfig->Mode & EXTI_MODE_
 307:Drivers/STM32H7xx_HAL_Driver/Src/stm32h7xx_hal_exti.c **** 
 308:Drivers/STM32H7xx_HAL_Driver/Src/stm32h7xx_hal_exti.c ****   /* Configure event mode : read current mode */
 309:Drivers/STM32H7xx_HAL_Driver/Src/stm32h7xx_hal_exti.c ****   regaddr = (__IO uint32_t *)(&EXTI->C2EMR1 + (EXTI_MODE_OFFSET * offset));
 310:Drivers/STM32H7xx_HAL_Driver/Src/stm32h7xx_hal_exti.c ****   regval = *regaddr;
 311:Drivers/STM32H7xx_HAL_Driver/Src/stm32h7xx_hal_exti.c **** 
 312:Drivers/STM32H7xx_HAL_Driver/Src/stm32h7xx_hal_exti.c ****   /* Mask or set line */
 313:Drivers/STM32H7xx_HAL_Driver/Src/stm32h7xx_hal_exti.c ****   if ((pExtiConfig->Mode & EXTI_MODE_CORE2_EVENT) != 0x00U)
 314:Drivers/STM32H7xx_HAL_Driver/Src/stm32h7xx_hal_exti.c ****   {
 315:Drivers/STM32H7xx_HAL_Driver/Src/stm32h7xx_hal_exti.c ****     regval |= maskline;
 316:Drivers/STM32H7xx_HAL_Driver/Src/stm32h7xx_hal_exti.c ****   }
 317:Drivers/STM32H7xx_HAL_Driver/Src/stm32h7xx_hal_exti.c ****   else
 318:Drivers/STM32H7xx_HAL_Driver/Src/stm32h7xx_hal_exti.c ****   {
 319:Drivers/STM32H7xx_HAL_Driver/Src/stm32h7xx_hal_exti.c ****     regval &= ~maskline;
 320:Drivers/STM32H7xx_HAL_Driver/Src/stm32h7xx_hal_exti.c ****   }
 321:Drivers/STM32H7xx_HAL_Driver/Src/stm32h7xx_hal_exti.c **** 
 322:Drivers/STM32H7xx_HAL_Driver/Src/stm32h7xx_hal_exti.c ****   /* Store event mode */
 323:Drivers/STM32H7xx_HAL_Driver/Src/stm32h7xx_hal_exti.c ****   *regaddr = regval;
 324:Drivers/STM32H7xx_HAL_Driver/Src/stm32h7xx_hal_exti.c **** #endif /* DUAL_CORE */
ARM GAS  /tmp/ccxC147N.s 			page 10


 325:Drivers/STM32H7xx_HAL_Driver/Src/stm32h7xx_hal_exti.c **** 
 326:Drivers/STM32H7xx_HAL_Driver/Src/stm32h7xx_hal_exti.c ****   /* Configure the D3 PendClear source in case of Wakeup target is Any */
 327:Drivers/STM32H7xx_HAL_Driver/Src/stm32h7xx_hal_exti.c ****   if ((pExtiConfig->Line & EXTI_TARGET_MASK) == EXTI_TARGET_MSK_ALL)
 190              		.loc 1 327 3 is_stmt 1 view .LVU75
 191              		.loc 1 327 19 is_stmt 0 view .LVU76
 192 0086 1868     		ldr	r0, [r3]
 193              	.LVL20:
 194              		.loc 1 327 26 view .LVU77
 195 0088 00F44010 		and	r0, r0, #3145728
 196              		.loc 1 327 6 view .LVU78
 197 008c B0F5401F 		cmp	r0, #3145728
 198 0090 23D0     		beq	.L22
 328:Drivers/STM32H7xx_HAL_Driver/Src/stm32h7xx_hal_exti.c ****   {
 329:Drivers/STM32H7xx_HAL_Driver/Src/stm32h7xx_hal_exti.c ****     assert_param(IS_EXTI_D3_PENDCLR_SRC(pExtiConfig->PendClearSource));
 330:Drivers/STM32H7xx_HAL_Driver/Src/stm32h7xx_hal_exti.c **** 
 331:Drivers/STM32H7xx_HAL_Driver/Src/stm32h7xx_hal_exti.c ****     /*Calc the PMR register address for the given line */
 332:Drivers/STM32H7xx_HAL_Driver/Src/stm32h7xx_hal_exti.c ****     regaddr = (__IO uint32_t *)(&EXTI->D3PMR1 + (EXTI_CONFIG_OFFSET * offset));
 333:Drivers/STM32H7xx_HAL_Driver/Src/stm32h7xx_hal_exti.c ****     regval = *regaddr;
 334:Drivers/STM32H7xx_HAL_Driver/Src/stm32h7xx_hal_exti.c **** 
 335:Drivers/STM32H7xx_HAL_Driver/Src/stm32h7xx_hal_exti.c ****     if(pExtiConfig->PendClearSource == EXTI_D3_PENDCLR_SRC_NONE)
 336:Drivers/STM32H7xx_HAL_Driver/Src/stm32h7xx_hal_exti.c ****     {
 337:Drivers/STM32H7xx_HAL_Driver/Src/stm32h7xx_hal_exti.c ****       /* Clear D3PMRx register for the given line */
 338:Drivers/STM32H7xx_HAL_Driver/Src/stm32h7xx_hal_exti.c ****       regval &= ~maskline;
 339:Drivers/STM32H7xx_HAL_Driver/Src/stm32h7xx_hal_exti.c ****       /* Store D3PMRx register value */
 340:Drivers/STM32H7xx_HAL_Driver/Src/stm32h7xx_hal_exti.c ****       *regaddr = regval;
 341:Drivers/STM32H7xx_HAL_Driver/Src/stm32h7xx_hal_exti.c ****     }
 342:Drivers/STM32H7xx_HAL_Driver/Src/stm32h7xx_hal_exti.c ****     else
 343:Drivers/STM32H7xx_HAL_Driver/Src/stm32h7xx_hal_exti.c ****     {
 344:Drivers/STM32H7xx_HAL_Driver/Src/stm32h7xx_hal_exti.c ****       /* Set D3PMRx register to 1 for the given line */
 345:Drivers/STM32H7xx_HAL_Driver/Src/stm32h7xx_hal_exti.c ****       regval |= maskline;
 346:Drivers/STM32H7xx_HAL_Driver/Src/stm32h7xx_hal_exti.c ****       /* Store D3PMRx register value */
 347:Drivers/STM32H7xx_HAL_Driver/Src/stm32h7xx_hal_exti.c ****       *regaddr = regval;
 348:Drivers/STM32H7xx_HAL_Driver/Src/stm32h7xx_hal_exti.c **** 
 349:Drivers/STM32H7xx_HAL_Driver/Src/stm32h7xx_hal_exti.c ****       if(linepos < 16UL)
 350:Drivers/STM32H7xx_HAL_Driver/Src/stm32h7xx_hal_exti.c ****       {
 351:Drivers/STM32H7xx_HAL_Driver/Src/stm32h7xx_hal_exti.c ****         regaddr = (__IO uint32_t *)(&EXTI->D3PCR1L + (EXTI_CONFIG_OFFSET * offset));
 352:Drivers/STM32H7xx_HAL_Driver/Src/stm32h7xx_hal_exti.c ****         pcrlinepos = 1UL << linepos;
 353:Drivers/STM32H7xx_HAL_Driver/Src/stm32h7xx_hal_exti.c ****       }
 354:Drivers/STM32H7xx_HAL_Driver/Src/stm32h7xx_hal_exti.c ****       else
 355:Drivers/STM32H7xx_HAL_Driver/Src/stm32h7xx_hal_exti.c ****       {
 356:Drivers/STM32H7xx_HAL_Driver/Src/stm32h7xx_hal_exti.c ****         regaddr = (__IO uint32_t *)(&EXTI->D3PCR1H + (EXTI_CONFIG_OFFSET * offset));
 357:Drivers/STM32H7xx_HAL_Driver/Src/stm32h7xx_hal_exti.c ****         pcrlinepos = 1UL << (linepos - 16UL);
 358:Drivers/STM32H7xx_HAL_Driver/Src/stm32h7xx_hal_exti.c ****       }
 359:Drivers/STM32H7xx_HAL_Driver/Src/stm32h7xx_hal_exti.c **** 
 360:Drivers/STM32H7xx_HAL_Driver/Src/stm32h7xx_hal_exti.c ****       regval = (*regaddr & (~(pcrlinepos * pcrlinepos * 3UL))) | (pcrlinepos * pcrlinepos * (pExtiC
 361:Drivers/STM32H7xx_HAL_Driver/Src/stm32h7xx_hal_exti.c ****       *regaddr = regval;
 362:Drivers/STM32H7xx_HAL_Driver/Src/stm32h7xx_hal_exti.c ****     }
 363:Drivers/STM32H7xx_HAL_Driver/Src/stm32h7xx_hal_exti.c ****   }
 364:Drivers/STM32H7xx_HAL_Driver/Src/stm32h7xx_hal_exti.c **** 
 365:Drivers/STM32H7xx_HAL_Driver/Src/stm32h7xx_hal_exti.c ****   return HAL_OK;
 199              		.loc 1 365 10 view .LVU79
 200 0092 0020     		movs	r0, #0
 201              	.LVL21:
 202              	.L2:
 366:Drivers/STM32H7xx_HAL_Driver/Src/stm32h7xx_hal_exti.c **** }
 203              		.loc 1 366 1 view .LVU80
 204 0094 BDE8F081 		pop	{r4, r5, r6, r7, r8, pc}
ARM GAS  /tmp/ccxC147N.s 			page 11


 205              	.LVL22:
 206              	.L4:
 214:Drivers/STM32H7xx_HAL_Driver/Src/stm32h7xx_hal_exti.c ****     }
 207              		.loc 1 214 7 is_stmt 1 view .LVU81
 214:Drivers/STM32H7xx_HAL_Driver/Src/stm32h7xx_hal_exti.c ****     }
 208              		.loc 1 214 14 is_stmt 0 view .LVU82
 209 0098 25EA0205 		bic	r5, r5, r2
 210              	.LVL23:
 214:Drivers/STM32H7xx_HAL_Driver/Src/stm32h7xx_hal_exti.c ****     }
 211              		.loc 1 214 14 view .LVU83
 212 009c D2E7     		b	.L5
 213              	.LVL24:
 214              	.L6:
 231:Drivers/STM32H7xx_HAL_Driver/Src/stm32h7xx_hal_exti.c ****     }
 215              		.loc 1 231 7 is_stmt 1 view .LVU84
 231:Drivers/STM32H7xx_HAL_Driver/Src/stm32h7xx_hal_exti.c ****     }
 216              		.loc 1 231 14 is_stmt 0 view .LVU85
 217 009e 25EA0205 		bic	r5, r5, r2
 218              	.LVL25:
 231:Drivers/STM32H7xx_HAL_Driver/Src/stm32h7xx_hal_exti.c ****     }
 219              		.loc 1 231 14 view .LVU86
 220 00a2 D8E7     		b	.L7
 221              	.LVL26:
 222              	.L21:
 240:Drivers/STM32H7xx_HAL_Driver/Src/stm32h7xx_hal_exti.c ****       assert_param(IS_EXTI_GPIO_PIN(linepos));
 223              		.loc 1 240 7 is_stmt 1 view .LVU87
 241:Drivers/STM32H7xx_HAL_Driver/Src/stm32h7xx_hal_exti.c **** 
 224              		.loc 1 241 7 view .LVU88
 243:Drivers/STM32H7xx_HAL_Driver/Src/stm32h7xx_hal_exti.c ****       regval &= ~(SYSCFG_EXTICR1_EXTI0 << (SYSCFG_EXTICR1_EXTI1_Pos * (linepos & 0x03U)));
 225              		.loc 1 243 7 view .LVU89
 243:Drivers/STM32H7xx_HAL_Driver/Src/stm32h7xx_hal_exti.c ****       regval &= ~(SYSCFG_EXTICR1_EXTI0 << (SYSCFG_EXTICR1_EXTI1_Pos * (linepos & 0x03U)));
 226              		.loc 1 243 47 is_stmt 0 view .LVU90
 227 00a4 C8F38100 		ubfx	r0, r8, #2, #2
 243:Drivers/STM32H7xx_HAL_Driver/Src/stm32h7xx_hal_exti.c ****       regval &= ~(SYSCFG_EXTICR1_EXTI0 << (SYSCFG_EXTICR1_EXTI1_Pos * (linepos & 0x03U)));
 228              		.loc 1 243 14 view .LVU91
 229 00a8 DFF898E0 		ldr	lr, .L23+24
 230 00ac 0230     		adds	r0, r0, #2
 231 00ae 5EF820C0 		ldr	ip, [lr, r0, lsl #2]
 232              	.LVL27:
 244:Drivers/STM32H7xx_HAL_Driver/Src/stm32h7xx_hal_exti.c ****       regval |= (pExtiConfig->GPIOSel << (SYSCFG_EXTICR1_EXTI1_Pos * (linepos & 0x03U)));
 233              		.loc 1 244 7 is_stmt 1 view .LVU92
 244:Drivers/STM32H7xx_HAL_Driver/Src/stm32h7xx_hal_exti.c ****       regval |= (pExtiConfig->GPIOSel << (SYSCFG_EXTICR1_EXTI1_Pos * (linepos & 0x03U)));
 234              		.loc 1 244 80 is_stmt 0 view .LVU93
 235 00b2 01F00305 		and	r5, r1, #3
 244:Drivers/STM32H7xx_HAL_Driver/Src/stm32h7xx_hal_exti.c ****       regval |= (pExtiConfig->GPIOSel << (SYSCFG_EXTICR1_EXTI1_Pos * (linepos & 0x03U)));
 236              		.loc 1 244 69 view .LVU94
 237 00b6 AF00     		lsls	r7, r5, #2
 238              	.LVL28:
 244:Drivers/STM32H7xx_HAL_Driver/Src/stm32h7xx_hal_exti.c ****       regval |= (pExtiConfig->GPIOSel << (SYSCFG_EXTICR1_EXTI1_Pos * (linepos & 0x03U)));
 239              		.loc 1 244 40 view .LVU95
 240 00b8 0F25     		movs	r5, #15
 241 00ba BD40     		lsls	r5, r5, r7
 244:Drivers/STM32H7xx_HAL_Driver/Src/stm32h7xx_hal_exti.c ****       regval |= (pExtiConfig->GPIOSel << (SYSCFG_EXTICR1_EXTI1_Pos * (linepos & 0x03U)));
 242              		.loc 1 244 14 view .LVU96
 243 00bc 2CEA050C 		bic	ip, ip, r5
 244              	.LVL29:
 245:Drivers/STM32H7xx_HAL_Driver/Src/stm32h7xx_hal_exti.c ****       SYSCFG->EXTICR[(linepos >> 2U) & 0x03UL] = regval;
ARM GAS  /tmp/ccxC147N.s 			page 12


 245              		.loc 1 245 7 is_stmt 1 view .LVU97
 245:Drivers/STM32H7xx_HAL_Driver/Src/stm32h7xx_hal_exti.c ****       SYSCFG->EXTICR[(linepos >> 2U) & 0x03UL] = regval;
 246              		.loc 1 245 29 is_stmt 0 view .LVU98
 247 00c0 DD68     		ldr	r5, [r3, #12]
 245:Drivers/STM32H7xx_HAL_Driver/Src/stm32h7xx_hal_exti.c ****       SYSCFG->EXTICR[(linepos >> 2U) & 0x03UL] = regval;
 248              		.loc 1 245 39 view .LVU99
 249 00c2 BD40     		lsls	r5, r5, r7
 245:Drivers/STM32H7xx_HAL_Driver/Src/stm32h7xx_hal_exti.c ****       SYSCFG->EXTICR[(linepos >> 2U) & 0x03UL] = regval;
 250              		.loc 1 245 14 view .LVU100
 251 00c4 45EA0C05 		orr	r5, r5, ip
 252              	.LVL30:
 246:Drivers/STM32H7xx_HAL_Driver/Src/stm32h7xx_hal_exti.c ****     }
 253              		.loc 1 246 7 is_stmt 1 view .LVU101
 246:Drivers/STM32H7xx_HAL_Driver/Src/stm32h7xx_hal_exti.c ****     }
 254              		.loc 1 246 48 is_stmt 0 view .LVU102
 255 00c8 4EF82050 		str	r5, [lr, r0, lsl #2]
 256 00cc CAE7     		b	.L3
 257              	.LVL31:
 258              	.L8:
 261:Drivers/STM32H7xx_HAL_Driver/Src/stm32h7xx_hal_exti.c ****   }
 259              		.loc 1 261 5 is_stmt 1 view .LVU103
 261:Drivers/STM32H7xx_HAL_Driver/Src/stm32h7xx_hal_exti.c ****   }
 260              		.loc 1 261 12 is_stmt 0 view .LVU104
 261 00ce 25EA0205 		bic	r5, r5, r2
 262              	.LVL32:
 261:Drivers/STM32H7xx_HAL_Driver/Src/stm32h7xx_hal_exti.c ****   }
 263              		.loc 1 261 12 view .LVU105
 264 00d2 CFE7     		b	.L9
 265              	.L10:
 281:Drivers/STM32H7xx_HAL_Driver/Src/stm32h7xx_hal_exti.c ****   }
 266              		.loc 1 281 5 is_stmt 1 view .LVU106
 281:Drivers/STM32H7xx_HAL_Driver/Src/stm32h7xx_hal_exti.c ****   }
 267              		.loc 1 281 12 is_stmt 0 view .LVU107
 268 00d4 25EA0205 		bic	r5, r5, r2
 269              	.LVL33:
 281:Drivers/STM32H7xx_HAL_Driver/Src/stm32h7xx_hal_exti.c ****   }
 270              		.loc 1 281 12 view .LVU108
 271 00d8 D4E7     		b	.L11
 272              	.LVL34:
 273              	.L22:
 329:Drivers/STM32H7xx_HAL_Driver/Src/stm32h7xx_hal_exti.c **** 
 274              		.loc 1 329 5 is_stmt 1 view .LVU109
 332:Drivers/STM32H7xx_HAL_Driver/Src/stm32h7xx_hal_exti.c ****     regval = *regaddr;
 275              		.loc 1 332 5 view .LVU110
 332:Drivers/STM32H7xx_HAL_Driver/Src/stm32h7xx_hal_exti.c ****     regval = *regaddr;
 276              		.loc 1 332 15 is_stmt 0 view .LVU111
 277 00da 6401     		lsls	r4, r4, #5
 278              	.LVL35:
 332:Drivers/STM32H7xx_HAL_Driver/Src/stm32h7xx_hal_exti.c ****     regval = *regaddr;
 279              		.loc 1 332 13 view .LVU112
 280 00dc 164D     		ldr	r5, .L23+12
 281              	.LVL36:
 333:Drivers/STM32H7xx_HAL_Driver/Src/stm32h7xx_hal_exti.c **** 
 282              		.loc 1 333 5 is_stmt 1 view .LVU113
 333:Drivers/STM32H7xx_HAL_Driver/Src/stm32h7xx_hal_exti.c **** 
 283              		.loc 1 333 12 is_stmt 0 view .LVU114
 284 00de 6059     		ldr	r0, [r4, r5]
ARM GAS  /tmp/ccxC147N.s 			page 13


 285              	.LVL37:
 335:Drivers/STM32H7xx_HAL_Driver/Src/stm32h7xx_hal_exti.c ****     {
 286              		.loc 1 335 5 is_stmt 1 view .LVU115
 335:Drivers/STM32H7xx_HAL_Driver/Src/stm32h7xx_hal_exti.c ****     {
 287              		.loc 1 335 19 is_stmt 0 view .LVU116
 288 00e0 1F69     		ldr	r7, [r3, #16]
 335:Drivers/STM32H7xx_HAL_Driver/Src/stm32h7xx_hal_exti.c ****     {
 289              		.loc 1 335 7 view .LVU117
 290 00e2 27B9     		cbnz	r7, .L12
 338:Drivers/STM32H7xx_HAL_Driver/Src/stm32h7xx_hal_exti.c ****       /* Store D3PMRx register value */
 291              		.loc 1 338 7 is_stmt 1 view .LVU118
 338:Drivers/STM32H7xx_HAL_Driver/Src/stm32h7xx_hal_exti.c ****       /* Store D3PMRx register value */
 292              		.loc 1 338 14 is_stmt 0 view .LVU119
 293 00e4 20EA0202 		bic	r2, r0, r2
 294              	.LVL38:
 340:Drivers/STM32H7xx_HAL_Driver/Src/stm32h7xx_hal_exti.c ****     }
 295              		.loc 1 340 7 is_stmt 1 view .LVU120
 340:Drivers/STM32H7xx_HAL_Driver/Src/stm32h7xx_hal_exti.c ****     }
 296              		.loc 1 340 16 is_stmt 0 view .LVU121
 297 00e8 6251     		str	r2, [r4, r5]
 365:Drivers/STM32H7xx_HAL_Driver/Src/stm32h7xx_hal_exti.c **** }
 298              		.loc 1 365 10 view .LVU122
 299 00ea 0020     		movs	r0, #0
 300 00ec D2E7     		b	.L2
 301              	.LVL39:
 302              	.L12:
 345:Drivers/STM32H7xx_HAL_Driver/Src/stm32h7xx_hal_exti.c ****       /* Store D3PMRx register value */
 303              		.loc 1 345 7 is_stmt 1 view .LVU123
 345:Drivers/STM32H7xx_HAL_Driver/Src/stm32h7xx_hal_exti.c ****       /* Store D3PMRx register value */
 304              		.loc 1 345 14 is_stmt 0 view .LVU124
 305 00ee 1043     		orrs	r0, r0, r2
 306              	.LVL40:
 347:Drivers/STM32H7xx_HAL_Driver/Src/stm32h7xx_hal_exti.c **** 
 307              		.loc 1 347 7 is_stmt 1 view .LVU125
 347:Drivers/STM32H7xx_HAL_Driver/Src/stm32h7xx_hal_exti.c **** 
 308              		.loc 1 347 16 is_stmt 0 view .LVU126
 309 00f0 6051     		str	r0, [r4, r5]
 349:Drivers/STM32H7xx_HAL_Driver/Src/stm32h7xx_hal_exti.c ****       {
 310              		.loc 1 349 7 is_stmt 1 view .LVU127
 349:Drivers/STM32H7xx_HAL_Driver/Src/stm32h7xx_hal_exti.c ****       {
 311              		.loc 1 349 9 is_stmt 0 view .LVU128
 312 00f2 11F0100F 		tst	r1, #16
 313 00f6 10D1     		bne	.L13
 351:Drivers/STM32H7xx_HAL_Driver/Src/stm32h7xx_hal_exti.c ****         pcrlinepos = 1UL << linepos;
 314              		.loc 1 351 9 is_stmt 1 view .LVU129
 351:Drivers/STM32H7xx_HAL_Driver/Src/stm32h7xx_hal_exti.c ****         pcrlinepos = 1UL << linepos;
 315              		.loc 1 351 17 is_stmt 0 view .LVU130
 316 00f8 1048     		ldr	r0, .L23+16
 317              	.LVL41:
 351:Drivers/STM32H7xx_HAL_Driver/Src/stm32h7xx_hal_exti.c ****         pcrlinepos = 1UL << linepos;
 318              		.loc 1 351 17 view .LVU131
 319 00fa 2044     		add	r0, r0, r4
 320              	.LVL42:
 352:Drivers/STM32H7xx_HAL_Driver/Src/stm32h7xx_hal_exti.c ****       }
 321              		.loc 1 352 9 is_stmt 1 view .LVU132
 322              	.L14:
 360:Drivers/STM32H7xx_HAL_Driver/Src/stm32h7xx_hal_exti.c ****       *regaddr = regval;
ARM GAS  /tmp/ccxC147N.s 			page 14


 323              		.loc 1 360 7 view .LVU133
 360:Drivers/STM32H7xx_HAL_Driver/Src/stm32h7xx_hal_exti.c ****       *regaddr = regval;
 324              		.loc 1 360 17 is_stmt 0 view .LVU134
 325 00fc 0168     		ldr	r1, [r0]
 326              	.LVL43:
 360:Drivers/STM32H7xx_HAL_Driver/Src/stm32h7xx_hal_exti.c ****       *regaddr = regval;
 327              		.loc 1 360 42 view .LVU135
 328 00fe 02FB02F2 		mul	r2, r2, r2
 329              	.LVL44:
 360:Drivers/STM32H7xx_HAL_Driver/Src/stm32h7xx_hal_exti.c ****       *regaddr = regval;
 330              		.loc 1 360 55 view .LVU136
 331 0102 02EB4204 		add	r4, r2, r2, lsl #1
 332              	.LVL45:
 360:Drivers/STM32H7xx_HAL_Driver/Src/stm32h7xx_hal_exti.c ****       *regaddr = regval;
 333              		.loc 1 360 26 view .LVU137
 334 0106 21EA0401 		bic	r1, r1, r4
 360:Drivers/STM32H7xx_HAL_Driver/Src/stm32h7xx_hal_exti.c ****       *regaddr = regval;
 335              		.loc 1 360 105 view .LVU138
 336 010a 1B69     		ldr	r3, [r3, #16]
 337              	.LVL46:
 360:Drivers/STM32H7xx_HAL_Driver/Src/stm32h7xx_hal_exti.c ****       *regaddr = regval;
 338              		.loc 1 360 123 view .LVU139
 339 010c 013B     		subs	r3, r3, #1
 360:Drivers/STM32H7xx_HAL_Driver/Src/stm32h7xx_hal_exti.c ****       *regaddr = regval;
 340              		.loc 1 360 91 view .LVU140
 341 010e 03FB02F2 		mul	r2, r3, r2
 360:Drivers/STM32H7xx_HAL_Driver/Src/stm32h7xx_hal_exti.c ****       *regaddr = regval;
 342              		.loc 1 360 14 view .LVU141
 343 0112 0A43     		orrs	r2, r2, r1
 344              	.LVL47:
 361:Drivers/STM32H7xx_HAL_Driver/Src/stm32h7xx_hal_exti.c ****     }
 345              		.loc 1 361 7 is_stmt 1 view .LVU142
 361:Drivers/STM32H7xx_HAL_Driver/Src/stm32h7xx_hal_exti.c ****     }
 346              		.loc 1 361 16 is_stmt 0 view .LVU143
 347 0114 0260     		str	r2, [r0]
 365:Drivers/STM32H7xx_HAL_Driver/Src/stm32h7xx_hal_exti.c **** }
 348              		.loc 1 365 10 view .LVU144
 349 0116 0020     		movs	r0, #0
 350              	.LVL48:
 365:Drivers/STM32H7xx_HAL_Driver/Src/stm32h7xx_hal_exti.c **** }
 351              		.loc 1 365 10 view .LVU145
 352 0118 BCE7     		b	.L2
 353              	.LVL49:
 354              	.L13:
 356:Drivers/STM32H7xx_HAL_Driver/Src/stm32h7xx_hal_exti.c ****         pcrlinepos = 1UL << (linepos - 16UL);
 355              		.loc 1 356 9 is_stmt 1 view .LVU146
 356:Drivers/STM32H7xx_HAL_Driver/Src/stm32h7xx_hal_exti.c ****         pcrlinepos = 1UL << (linepos - 16UL);
 356              		.loc 1 356 17 is_stmt 0 view .LVU147
 357 011a 0948     		ldr	r0, .L23+20
 358              	.LVL50:
 356:Drivers/STM32H7xx_HAL_Driver/Src/stm32h7xx_hal_exti.c ****         pcrlinepos = 1UL << (linepos - 16UL);
 359              		.loc 1 356 17 view .LVU148
 360 011c 2044     		add	r0, r0, r4
 361              	.LVL51:
 357:Drivers/STM32H7xx_HAL_Driver/Src/stm32h7xx_hal_exti.c ****       }
 362              		.loc 1 357 9 is_stmt 1 view .LVU149
 357:Drivers/STM32H7xx_HAL_Driver/Src/stm32h7xx_hal_exti.c ****       }
ARM GAS  /tmp/ccxC147N.s 			page 15


 363              		.loc 1 357 38 is_stmt 0 view .LVU150
 364 011e A8F11006 		sub	r6, r8, #16
 357:Drivers/STM32H7xx_HAL_Driver/Src/stm32h7xx_hal_exti.c ****       }
 365              		.loc 1 357 20 view .LVU151
 366 0122 0122     		movs	r2, #1
 367              	.LVL52:
 357:Drivers/STM32H7xx_HAL_Driver/Src/stm32h7xx_hal_exti.c ****       }
 368              		.loc 1 357 20 view .LVU152
 369 0124 B240     		lsls	r2, r2, r6
 370              	.LVL53:
 357:Drivers/STM32H7xx_HAL_Driver/Src/stm32h7xx_hal_exti.c ****       }
 371              		.loc 1 357 20 view .LVU153
 372 0126 E9E7     		b	.L14
 373              	.LVL54:
 374              	.L15:
 375              	.LCFI1:
 376              		.cfi_def_cfa_offset 0
 377              		.cfi_restore 4
 378              		.cfi_restore 5
 379              		.cfi_restore 6
 380              		.cfi_restore 7
 381              		.cfi_restore 8
 382              		.cfi_restore 14
 183:Drivers/STM32H7xx_HAL_Driver/Src/stm32h7xx_hal_exti.c ****   }
 383              		.loc 1 183 12 view .LVU154
 384 0128 0120     		movs	r0, #1
 385              	.LVL55:
 386              		.loc 1 366 1 view .LVU155
 387 012a 7047     		bx	lr
 388              	.L24:
 389              		.align	2
 390              	.L23:
 391 012c 04000058 		.word	1476395012
 392 0130 80000058 		.word	1476395136
 393 0134 84000058 		.word	1476395140
 394 0138 0C000058 		.word	1476395020
 395 013c 10000058 		.word	1476395024
 396 0140 14000058 		.word	1476395028
 397 0144 00040058 		.word	1476396032
 398              		.cfi_endproc
 399              	.LFE141:
 401              		.section	.text.HAL_EXTI_GetConfigLine,"ax",%progbits
 402              		.align	1
 403              		.global	HAL_EXTI_GetConfigLine
 404              		.syntax unified
 405              		.thumb
 406              		.thumb_func
 407              		.fpu fpv5-d16
 409              	HAL_EXTI_GetConfigLine:
 410              	.LVL56:
 411              	.LFB142:
 367:Drivers/STM32H7xx_HAL_Driver/Src/stm32h7xx_hal_exti.c **** 
 368:Drivers/STM32H7xx_HAL_Driver/Src/stm32h7xx_hal_exti.c **** 
 369:Drivers/STM32H7xx_HAL_Driver/Src/stm32h7xx_hal_exti.c **** /**
 370:Drivers/STM32H7xx_HAL_Driver/Src/stm32h7xx_hal_exti.c ****   * @brief  Get configuration of a dedicated Exti line.
 371:Drivers/STM32H7xx_HAL_Driver/Src/stm32h7xx_hal_exti.c ****   * @param  hexti Exti handle.
 372:Drivers/STM32H7xx_HAL_Driver/Src/stm32h7xx_hal_exti.c ****   * @param  pExtiConfig Pointer on structure to store Exti configuration.
ARM GAS  /tmp/ccxC147N.s 			page 16


 373:Drivers/STM32H7xx_HAL_Driver/Src/stm32h7xx_hal_exti.c ****   * @retval HAL Status.
 374:Drivers/STM32H7xx_HAL_Driver/Src/stm32h7xx_hal_exti.c ****   */
 375:Drivers/STM32H7xx_HAL_Driver/Src/stm32h7xx_hal_exti.c **** HAL_StatusTypeDef HAL_EXTI_GetConfigLine(EXTI_HandleTypeDef *hexti, EXTI_ConfigTypeDef *pExtiConfig
 376:Drivers/STM32H7xx_HAL_Driver/Src/stm32h7xx_hal_exti.c **** {
 412              		.loc 1 376 1 is_stmt 1 view -0
 413              		.cfi_startproc
 414              		@ args = 0, pretend = 0, frame = 0
 415              		@ frame_needed = 0, uses_anonymous_args = 0
 416              		@ link register save eliminated.
 377:Drivers/STM32H7xx_HAL_Driver/Src/stm32h7xx_hal_exti.c ****   __IO uint32_t *regaddr;
 417              		.loc 1 377 3 view .LVU157
 378:Drivers/STM32H7xx_HAL_Driver/Src/stm32h7xx_hal_exti.c ****   uint32_t regval;
 418              		.loc 1 378 3 view .LVU158
 379:Drivers/STM32H7xx_HAL_Driver/Src/stm32h7xx_hal_exti.c ****   uint32_t linepos;
 419              		.loc 1 379 3 view .LVU159
 380:Drivers/STM32H7xx_HAL_Driver/Src/stm32h7xx_hal_exti.c ****   uint32_t maskline;
 420              		.loc 1 380 3 view .LVU160
 381:Drivers/STM32H7xx_HAL_Driver/Src/stm32h7xx_hal_exti.c ****   uint32_t offset;
 421              		.loc 1 381 3 view .LVU161
 382:Drivers/STM32H7xx_HAL_Driver/Src/stm32h7xx_hal_exti.c ****   uint32_t pcrlinepos;
 422              		.loc 1 382 3 view .LVU162
 383:Drivers/STM32H7xx_HAL_Driver/Src/stm32h7xx_hal_exti.c **** 
 384:Drivers/STM32H7xx_HAL_Driver/Src/stm32h7xx_hal_exti.c ****   /* Check null pointer */
 385:Drivers/STM32H7xx_HAL_Driver/Src/stm32h7xx_hal_exti.c ****   if ((hexti == NULL) || (pExtiConfig == NULL))
 423              		.loc 1 385 3 view .LVU163
 424              		.loc 1 385 39 is_stmt 0 view .LVU164
 425 0000 0B46     		mov	r3, r1
 426 0002 B1FA81F1 		clz	r1, r1
 427              	.LVL57:
 428              		.loc 1 385 39 view .LVU165
 429 0006 4909     		lsrs	r1, r1, #5
 430              		.loc 1 385 23 view .LVU166
 431 0008 0028     		cmp	r0, #0
 432 000a 08BF     		it	eq
 433 000c 0121     		moveq	r1, #1
 434              		.loc 1 385 6 view .LVU167
 435 000e 0029     		cmp	r1, #0
 436 0010 72D1     		bne	.L39
 376:Drivers/STM32H7xx_HAL_Driver/Src/stm32h7xx_hal_exti.c ****   __IO uint32_t *regaddr;
 437              		.loc 1 376 1 view .LVU168
 438 0012 F0B4     		push	{r4, r5, r6, r7}
 439              	.LCFI2:
 440              		.cfi_def_cfa_offset 16
 441              		.cfi_offset 4, -16
 442              		.cfi_offset 5, -12
 443              		.cfi_offset 6, -8
 444              		.cfi_offset 7, -4
 386:Drivers/STM32H7xx_HAL_Driver/Src/stm32h7xx_hal_exti.c ****   {
 387:Drivers/STM32H7xx_HAL_Driver/Src/stm32h7xx_hal_exti.c ****     return HAL_ERROR;
 388:Drivers/STM32H7xx_HAL_Driver/Src/stm32h7xx_hal_exti.c ****   }
 389:Drivers/STM32H7xx_HAL_Driver/Src/stm32h7xx_hal_exti.c **** 
 390:Drivers/STM32H7xx_HAL_Driver/Src/stm32h7xx_hal_exti.c ****   /* Check the parameter */
 391:Drivers/STM32H7xx_HAL_Driver/Src/stm32h7xx_hal_exti.c ****   assert_param(IS_EXTI_LINE(hexti->Line));
 445              		.loc 1 391 3 is_stmt 1 view .LVU169
 392:Drivers/STM32H7xx_HAL_Driver/Src/stm32h7xx_hal_exti.c **** 
 393:Drivers/STM32H7xx_HAL_Driver/Src/stm32h7xx_hal_exti.c ****   /* Store handle line number to configuration structure */
 394:Drivers/STM32H7xx_HAL_Driver/Src/stm32h7xx_hal_exti.c ****   pExtiConfig->Line = hexti->Line;
ARM GAS  /tmp/ccxC147N.s 			page 17


 446              		.loc 1 394 3 view .LVU170
 447              		.loc 1 394 28 is_stmt 0 view .LVU171
 448 0014 0168     		ldr	r1, [r0]
 449              		.loc 1 394 21 view .LVU172
 450 0016 1960     		str	r1, [r3]
 395:Drivers/STM32H7xx_HAL_Driver/Src/stm32h7xx_hal_exti.c **** 
 396:Drivers/STM32H7xx_HAL_Driver/Src/stm32h7xx_hal_exti.c ****   /* compute line register offset and line mask */
 397:Drivers/STM32H7xx_HAL_Driver/Src/stm32h7xx_hal_exti.c ****   offset = ((pExtiConfig->Line & EXTI_REG_MASK) >> EXTI_REG_SHIFT);
 451              		.loc 1 397 3 is_stmt 1 view .LVU173
 452              		.loc 1 397 10 is_stmt 0 view .LVU174
 453 0018 C1F30144 		ubfx	r4, r1, #16, #2
 454              	.LVL58:
 398:Drivers/STM32H7xx_HAL_Driver/Src/stm32h7xx_hal_exti.c ****   linepos = (pExtiConfig->Line & EXTI_PIN_MASK);
 455              		.loc 1 398 3 is_stmt 1 view .LVU175
 456              		.loc 1 398 11 is_stmt 0 view .LVU176
 457 001c 01F01F05 		and	r5, r1, #31
 458              	.LVL59:
 399:Drivers/STM32H7xx_HAL_Driver/Src/stm32h7xx_hal_exti.c ****   maskline = (1UL << linepos);
 459              		.loc 1 399 3 is_stmt 1 view .LVU177
 460              		.loc 1 399 12 is_stmt 0 view .LVU178
 461 0020 0122     		movs	r2, #1
 462 0022 AA40     		lsls	r2, r2, r5
 463              	.LVL60:
 400:Drivers/STM32H7xx_HAL_Driver/Src/stm32h7xx_hal_exti.c **** 
 401:Drivers/STM32H7xx_HAL_Driver/Src/stm32h7xx_hal_exti.c ****   /* 1] Get core mode : interrupt */
 402:Drivers/STM32H7xx_HAL_Driver/Src/stm32h7xx_hal_exti.c ****   regaddr = (__IO uint32_t *)(&EXTI->IMR1 + (EXTI_MODE_OFFSET * offset));
 464              		.loc 1 402 3 is_stmt 1 view .LVU179
 465              		.loc 1 402 13 is_stmt 0 view .LVU180
 466 0024 2001     		lsls	r0, r4, #4
 467              	.LVL61:
 468              		.loc 1 402 11 view .LVU181
 469 0026 354E     		ldr	r6, .L46
 470              	.LVL62:
 403:Drivers/STM32H7xx_HAL_Driver/Src/stm32h7xx_hal_exti.c ****   regval = *regaddr;
 471              		.loc 1 403 3 is_stmt 1 view .LVU182
 472              		.loc 1 403 10 is_stmt 0 view .LVU183
 473 0028 8659     		ldr	r6, [r0, r6]
 474              	.LVL63:
 404:Drivers/STM32H7xx_HAL_Driver/Src/stm32h7xx_hal_exti.c **** 
 405:Drivers/STM32H7xx_HAL_Driver/Src/stm32h7xx_hal_exti.c ****   pExtiConfig->Mode = EXTI_MODE_NONE;
 475              		.loc 1 405 3 is_stmt 1 view .LVU184
 476              		.loc 1 405 21 is_stmt 0 view .LVU185
 477 002a 0027     		movs	r7, #0
 478 002c 5F60     		str	r7, [r3, #4]
 406:Drivers/STM32H7xx_HAL_Driver/Src/stm32h7xx_hal_exti.c **** 
 407:Drivers/STM32H7xx_HAL_Driver/Src/stm32h7xx_hal_exti.c ****   /* Check if selected line is enable */
 408:Drivers/STM32H7xx_HAL_Driver/Src/stm32h7xx_hal_exti.c ****   if ((regval & maskline) != 0x00U)
 479              		.loc 1 408 3 is_stmt 1 view .LVU186
 480              		.loc 1 408 6 is_stmt 0 view .LVU187
 481 002e 3242     		tst	r2, r6
 482 0030 01D0     		beq	.L27
 409:Drivers/STM32H7xx_HAL_Driver/Src/stm32h7xx_hal_exti.c ****   {
 410:Drivers/STM32H7xx_HAL_Driver/Src/stm32h7xx_hal_exti.c ****     pExtiConfig->Mode = EXTI_MODE_INTERRUPT;
 483              		.loc 1 410 5 is_stmt 1 view .LVU188
 484              		.loc 1 410 23 is_stmt 0 view .LVU189
 485 0032 0126     		movs	r6, #1
 486              	.LVL64:
ARM GAS  /tmp/ccxC147N.s 			page 18


 487              		.loc 1 410 23 view .LVU190
 488 0034 5E60     		str	r6, [r3, #4]
 489              	.L27:
 411:Drivers/STM32H7xx_HAL_Driver/Src/stm32h7xx_hal_exti.c ****   }
 412:Drivers/STM32H7xx_HAL_Driver/Src/stm32h7xx_hal_exti.c **** 
 413:Drivers/STM32H7xx_HAL_Driver/Src/stm32h7xx_hal_exti.c ****   /* Get event mode */
 414:Drivers/STM32H7xx_HAL_Driver/Src/stm32h7xx_hal_exti.c ****   regaddr = (__IO uint32_t *)(&EXTI->EMR1 + (EXTI_MODE_OFFSET * offset));
 490              		.loc 1 414 3 is_stmt 1 view .LVU191
 491              		.loc 1 414 11 is_stmt 0 view .LVU192
 492 0036 324E     		ldr	r6, .L46+4
 493              	.LVL65:
 415:Drivers/STM32H7xx_HAL_Driver/Src/stm32h7xx_hal_exti.c ****   regval = *regaddr;
 494              		.loc 1 415 3 is_stmt 1 view .LVU193
 495              		.loc 1 415 10 is_stmt 0 view .LVU194
 496 0038 8059     		ldr	r0, [r0, r6]
 497              	.LVL66:
 416:Drivers/STM32H7xx_HAL_Driver/Src/stm32h7xx_hal_exti.c **** 
 417:Drivers/STM32H7xx_HAL_Driver/Src/stm32h7xx_hal_exti.c ****   /* Check if selected line is enable */
 418:Drivers/STM32H7xx_HAL_Driver/Src/stm32h7xx_hal_exti.c ****   if ((regval & maskline) != 0x00U)
 498              		.loc 1 418 3 is_stmt 1 view .LVU195
 499              		.loc 1 418 6 is_stmt 0 view .LVU196
 500 003a 0242     		tst	r2, r0
 501 003c 03D0     		beq	.L28
 419:Drivers/STM32H7xx_HAL_Driver/Src/stm32h7xx_hal_exti.c ****   {
 420:Drivers/STM32H7xx_HAL_Driver/Src/stm32h7xx_hal_exti.c ****     pExtiConfig->Mode |= EXTI_MODE_EVENT;
 502              		.loc 1 420 5 is_stmt 1 view .LVU197
 503              		.loc 1 420 23 is_stmt 0 view .LVU198
 504 003e 5868     		ldr	r0, [r3, #4]
 505              	.LVL67:
 506              		.loc 1 420 23 view .LVU199
 507 0040 40F00200 		orr	r0, r0, #2
 508 0044 5860     		str	r0, [r3, #4]
 509              	.L28:
 421:Drivers/STM32H7xx_HAL_Driver/Src/stm32h7xx_hal_exti.c ****   }
 422:Drivers/STM32H7xx_HAL_Driver/Src/stm32h7xx_hal_exti.c **** #if defined (DUAL_CORE)
 423:Drivers/STM32H7xx_HAL_Driver/Src/stm32h7xx_hal_exti.c ****   regaddr = (__IO uint32_t *)(&EXTI->C2IMR1 + (EXTI_MODE_OFFSET * offset));
 424:Drivers/STM32H7xx_HAL_Driver/Src/stm32h7xx_hal_exti.c ****   regval = *regaddr;
 425:Drivers/STM32H7xx_HAL_Driver/Src/stm32h7xx_hal_exti.c **** 
 426:Drivers/STM32H7xx_HAL_Driver/Src/stm32h7xx_hal_exti.c ****   /* Check if selected line is enable */
 427:Drivers/STM32H7xx_HAL_Driver/Src/stm32h7xx_hal_exti.c ****   if ((regval & maskline) != 0x00U)
 428:Drivers/STM32H7xx_HAL_Driver/Src/stm32h7xx_hal_exti.c ****   {
 429:Drivers/STM32H7xx_HAL_Driver/Src/stm32h7xx_hal_exti.c ****     pExtiConfig->Mode = EXTI_MODE_CORE2_INTERRUPT;
 430:Drivers/STM32H7xx_HAL_Driver/Src/stm32h7xx_hal_exti.c ****   }
 431:Drivers/STM32H7xx_HAL_Driver/Src/stm32h7xx_hal_exti.c **** 
 432:Drivers/STM32H7xx_HAL_Driver/Src/stm32h7xx_hal_exti.c ****   /* Get event mode */
 433:Drivers/STM32H7xx_HAL_Driver/Src/stm32h7xx_hal_exti.c ****   regaddr = (__IO uint32_t *)(&EXTI->C2EMR1 + (EXTI_MODE_OFFSET * offset));
 434:Drivers/STM32H7xx_HAL_Driver/Src/stm32h7xx_hal_exti.c ****   regval = *regaddr;
 435:Drivers/STM32H7xx_HAL_Driver/Src/stm32h7xx_hal_exti.c **** 
 436:Drivers/STM32H7xx_HAL_Driver/Src/stm32h7xx_hal_exti.c ****   /* Check if selected line is enable */
 437:Drivers/STM32H7xx_HAL_Driver/Src/stm32h7xx_hal_exti.c ****   if ((regval & maskline) != 0x00U)
 438:Drivers/STM32H7xx_HAL_Driver/Src/stm32h7xx_hal_exti.c ****   {
 439:Drivers/STM32H7xx_HAL_Driver/Src/stm32h7xx_hal_exti.c ****     pExtiConfig->Mode |= EXTI_MODE_CORE2_EVENT;
 440:Drivers/STM32H7xx_HAL_Driver/Src/stm32h7xx_hal_exti.c ****   }
 441:Drivers/STM32H7xx_HAL_Driver/Src/stm32h7xx_hal_exti.c **** #endif /*DUAL_CORE*/
 442:Drivers/STM32H7xx_HAL_Driver/Src/stm32h7xx_hal_exti.c **** 
 443:Drivers/STM32H7xx_HAL_Driver/Src/stm32h7xx_hal_exti.c ****   /* 2] Get trigger for configurable lines : rising */
 444:Drivers/STM32H7xx_HAL_Driver/Src/stm32h7xx_hal_exti.c ****   if ((pExtiConfig->Line & EXTI_CONFIG) != 0x00U)
ARM GAS  /tmp/ccxC147N.s 			page 19


 510              		.loc 1 444 3 is_stmt 1 view .LVU200
 511              		.loc 1 444 6 is_stmt 0 view .LVU201
 512 0046 11F0007F 		tst	r1, #33554432
 513 004a 29D0     		beq	.L29
 445:Drivers/STM32H7xx_HAL_Driver/Src/stm32h7xx_hal_exti.c ****   {
 446:Drivers/STM32H7xx_HAL_Driver/Src/stm32h7xx_hal_exti.c ****     regaddr = (__IO uint32_t *)(&EXTI->RTSR1 + (EXTI_CONFIG_OFFSET * offset));
 514              		.loc 1 446 5 is_stmt 1 view .LVU202
 515              		.loc 1 446 15 is_stmt 0 view .LVU203
 516 004c 6001     		lsls	r0, r4, #5
 517              		.loc 1 446 13 view .LVU204
 518 004e 00F1B046 		add	r6, r0, #1476395008
 519              	.LVL68:
 447:Drivers/STM32H7xx_HAL_Driver/Src/stm32h7xx_hal_exti.c ****     regval = *regaddr;
 520              		.loc 1 447 5 is_stmt 1 view .LVU205
 521              		.loc 1 447 12 is_stmt 0 view .LVU206
 522 0052 3668     		ldr	r6, [r6]
 523              	.LVL69:
 448:Drivers/STM32H7xx_HAL_Driver/Src/stm32h7xx_hal_exti.c **** 
 449:Drivers/STM32H7xx_HAL_Driver/Src/stm32h7xx_hal_exti.c ****     /* Check if configuration of selected line is enable */
 450:Drivers/STM32H7xx_HAL_Driver/Src/stm32h7xx_hal_exti.c ****     if ((regval & maskline) != 0x00U)
 524              		.loc 1 450 5 is_stmt 1 view .LVU207
 525              		.loc 1 450 8 is_stmt 0 view .LVU208
 526 0054 3242     		tst	r2, r6
 527 0056 12D0     		beq	.L30
 451:Drivers/STM32H7xx_HAL_Driver/Src/stm32h7xx_hal_exti.c ****     {
 452:Drivers/STM32H7xx_HAL_Driver/Src/stm32h7xx_hal_exti.c ****       pExtiConfig->Trigger = EXTI_TRIGGER_RISING;
 528              		.loc 1 452 7 is_stmt 1 view .LVU209
 529              		.loc 1 452 28 is_stmt 0 view .LVU210
 530 0058 0126     		movs	r6, #1
 531              	.LVL70:
 532              		.loc 1 452 28 view .LVU211
 533 005a 9E60     		str	r6, [r3, #8]
 534              	.L31:
 453:Drivers/STM32H7xx_HAL_Driver/Src/stm32h7xx_hal_exti.c ****     }
 454:Drivers/STM32H7xx_HAL_Driver/Src/stm32h7xx_hal_exti.c ****     else
 455:Drivers/STM32H7xx_HAL_Driver/Src/stm32h7xx_hal_exti.c ****     {
 456:Drivers/STM32H7xx_HAL_Driver/Src/stm32h7xx_hal_exti.c ****       pExtiConfig->Trigger = EXTI_TRIGGER_NONE;
 457:Drivers/STM32H7xx_HAL_Driver/Src/stm32h7xx_hal_exti.c ****     }
 458:Drivers/STM32H7xx_HAL_Driver/Src/stm32h7xx_hal_exti.c **** 
 459:Drivers/STM32H7xx_HAL_Driver/Src/stm32h7xx_hal_exti.c ****     /* Get falling configuration */
 460:Drivers/STM32H7xx_HAL_Driver/Src/stm32h7xx_hal_exti.c ****     regaddr = (__IO uint32_t *)(&EXTI->FTSR1 + (EXTI_CONFIG_OFFSET * offset));
 535              		.loc 1 460 5 is_stmt 1 view .LVU212
 536              		.loc 1 460 13 is_stmt 0 view .LVU213
 537 005c 294E     		ldr	r6, .L46+8
 538              	.LVL71:
 461:Drivers/STM32H7xx_HAL_Driver/Src/stm32h7xx_hal_exti.c ****     regval = *regaddr;
 539              		.loc 1 461 5 is_stmt 1 view .LVU214
 540              		.loc 1 461 12 is_stmt 0 view .LVU215
 541 005e 8059     		ldr	r0, [r0, r6]
 542              	.LVL72:
 462:Drivers/STM32H7xx_HAL_Driver/Src/stm32h7xx_hal_exti.c **** 
 463:Drivers/STM32H7xx_HAL_Driver/Src/stm32h7xx_hal_exti.c ****     /* Check if configuration of selected line is enable */
 464:Drivers/STM32H7xx_HAL_Driver/Src/stm32h7xx_hal_exti.c ****     if ((regval & maskline) != 0x00U)
 543              		.loc 1 464 5 is_stmt 1 view .LVU216
 544              		.loc 1 464 8 is_stmt 0 view .LVU217
 545 0060 0242     		tst	r2, r0
 546 0062 03D0     		beq	.L32
ARM GAS  /tmp/ccxC147N.s 			page 20


 465:Drivers/STM32H7xx_HAL_Driver/Src/stm32h7xx_hal_exti.c ****     {
 466:Drivers/STM32H7xx_HAL_Driver/Src/stm32h7xx_hal_exti.c ****       pExtiConfig->Trigger |= EXTI_TRIGGER_FALLING;
 547              		.loc 1 466 7 is_stmt 1 view .LVU218
 548              		.loc 1 466 28 is_stmt 0 view .LVU219
 549 0064 9868     		ldr	r0, [r3, #8]
 550              	.LVL73:
 551              		.loc 1 466 28 view .LVU220
 552 0066 40F00200 		orr	r0, r0, #2
 553 006a 9860     		str	r0, [r3, #8]
 554              	.L32:
 467:Drivers/STM32H7xx_HAL_Driver/Src/stm32h7xx_hal_exti.c ****     }
 468:Drivers/STM32H7xx_HAL_Driver/Src/stm32h7xx_hal_exti.c **** 
 469:Drivers/STM32H7xx_HAL_Driver/Src/stm32h7xx_hal_exti.c ****     /* Get Gpio port selection for gpio lines */
 470:Drivers/STM32H7xx_HAL_Driver/Src/stm32h7xx_hal_exti.c ****     if ((pExtiConfig->Line & EXTI_GPIO) == EXTI_GPIO)
 555              		.loc 1 470 5 is_stmt 1 view .LVU221
 556              		.loc 1 470 21 is_stmt 0 view .LVU222
 557 006c 1868     		ldr	r0, [r3]
 558              		.loc 1 470 28 view .LVU223
 559 006e 00F0C060 		and	r0, r0, #100663296
 560              		.loc 1 470 8 view .LVU224
 561 0072 B0F1C06F 		cmp	r0, #100663296
 562 0076 05D0     		beq	.L44
 471:Drivers/STM32H7xx_HAL_Driver/Src/stm32h7xx_hal_exti.c ****     {
 472:Drivers/STM32H7xx_HAL_Driver/Src/stm32h7xx_hal_exti.c ****       assert_param(IS_EXTI_GPIO_PIN(linepos));
 473:Drivers/STM32H7xx_HAL_Driver/Src/stm32h7xx_hal_exti.c **** 
 474:Drivers/STM32H7xx_HAL_Driver/Src/stm32h7xx_hal_exti.c ****       regval = SYSCFG->EXTICR[(linepos >> 2U) & 0x03UL];
 475:Drivers/STM32H7xx_HAL_Driver/Src/stm32h7xx_hal_exti.c ****       pExtiConfig->GPIOSel = ((regval << (SYSCFG_EXTICR1_EXTI1_Pos * (3UL - (linepos & 0x03UL)))) >
 476:Drivers/STM32H7xx_HAL_Driver/Src/stm32h7xx_hal_exti.c ****     }
 477:Drivers/STM32H7xx_HAL_Driver/Src/stm32h7xx_hal_exti.c ****     else
 478:Drivers/STM32H7xx_HAL_Driver/Src/stm32h7xx_hal_exti.c ****     {
 479:Drivers/STM32H7xx_HAL_Driver/Src/stm32h7xx_hal_exti.c ****       pExtiConfig->GPIOSel = 0x00U;
 563              		.loc 1 479 7 is_stmt 1 view .LVU225
 564              		.loc 1 479 28 is_stmt 0 view .LVU226
 565 0078 0020     		movs	r0, #0
 566 007a D860     		str	r0, [r3, #12]
 567 007c 13E0     		b	.L34
 568              	.LVL74:
 569              	.L30:
 456:Drivers/STM32H7xx_HAL_Driver/Src/stm32h7xx_hal_exti.c ****     }
 570              		.loc 1 456 7 is_stmt 1 view .LVU227
 456:Drivers/STM32H7xx_HAL_Driver/Src/stm32h7xx_hal_exti.c ****     }
 571              		.loc 1 456 28 is_stmt 0 view .LVU228
 572 007e 0026     		movs	r6, #0
 573              	.LVL75:
 456:Drivers/STM32H7xx_HAL_Driver/Src/stm32h7xx_hal_exti.c ****     }
 574              		.loc 1 456 28 view .LVU229
 575 0080 9E60     		str	r6, [r3, #8]
 576 0082 EBE7     		b	.L31
 577              	.LVL76:
 578              	.L44:
 472:Drivers/STM32H7xx_HAL_Driver/Src/stm32h7xx_hal_exti.c **** 
 579              		.loc 1 472 7 is_stmt 1 view .LVU230
 474:Drivers/STM32H7xx_HAL_Driver/Src/stm32h7xx_hal_exti.c ****       pExtiConfig->GPIOSel = ((regval << (SYSCFG_EXTICR1_EXTI1_Pos * (3UL - (linepos & 0x03UL)))) >
 580              		.loc 1 474 7 view .LVU231
 474:Drivers/STM32H7xx_HAL_Driver/Src/stm32h7xx_hal_exti.c ****       pExtiConfig->GPIOSel = ((regval << (SYSCFG_EXTICR1_EXTI1_Pos * (3UL - (linepos & 0x03UL)))) >
 581              		.loc 1 474 47 is_stmt 0 view .LVU232
 582 0084 C5F38100 		ubfx	r0, r5, #2, #2
ARM GAS  /tmp/ccxC147N.s 			page 21


 474:Drivers/STM32H7xx_HAL_Driver/Src/stm32h7xx_hal_exti.c ****       pExtiConfig->GPIOSel = ((regval << (SYSCFG_EXTICR1_EXTI1_Pos * (3UL - (linepos & 0x03UL)))) >
 583              		.loc 1 474 14 view .LVU233
 584 0088 0230     		adds	r0, r0, #2
 585 008a 1F4E     		ldr	r6, .L46+12
 586              	.LVL77:
 474:Drivers/STM32H7xx_HAL_Driver/Src/stm32h7xx_hal_exti.c ****       pExtiConfig->GPIOSel = ((regval << (SYSCFG_EXTICR1_EXTI1_Pos * (3UL - (linepos & 0x03UL)))) >
 587              		.loc 1 474 14 view .LVU234
 588 008c 56F82000 		ldr	r0, [r6, r0, lsl #2]
 589              	.LVL78:
 475:Drivers/STM32H7xx_HAL_Driver/Src/stm32h7xx_hal_exti.c ****     }
 590              		.loc 1 475 7 is_stmt 1 view .LVU235
 475:Drivers/STM32H7xx_HAL_Driver/Src/stm32h7xx_hal_exti.c ****     }
 591              		.loc 1 475 75 is_stmt 0 view .LVU236
 592 0090 EE43     		mvns	r6, r5
 593 0092 06F00306 		and	r6, r6, #3
 475:Drivers/STM32H7xx_HAL_Driver/Src/stm32h7xx_hal_exti.c ****     }
 594              		.loc 1 475 68 view .LVU237
 595 0096 B600     		lsls	r6, r6, #2
 475:Drivers/STM32H7xx_HAL_Driver/Src/stm32h7xx_hal_exti.c ****     }
 596              		.loc 1 475 39 view .LVU238
 597 0098 B040     		lsls	r0, r0, r6
 598              	.LVL79:
 475:Drivers/STM32H7xx_HAL_Driver/Src/stm32h7xx_hal_exti.c ****     }
 599              		.loc 1 475 99 view .LVU239
 600 009a 000E     		lsrs	r0, r0, #24
 475:Drivers/STM32H7xx_HAL_Driver/Src/stm32h7xx_hal_exti.c ****     }
 601              		.loc 1 475 28 view .LVU240
 602 009c D860     		str	r0, [r3, #12]
 603 009e 02E0     		b	.L34
 604              	.LVL80:
 605              	.L29:
 480:Drivers/STM32H7xx_HAL_Driver/Src/stm32h7xx_hal_exti.c ****     }
 481:Drivers/STM32H7xx_HAL_Driver/Src/stm32h7xx_hal_exti.c ****   }
 482:Drivers/STM32H7xx_HAL_Driver/Src/stm32h7xx_hal_exti.c ****   else
 483:Drivers/STM32H7xx_HAL_Driver/Src/stm32h7xx_hal_exti.c ****   {
 484:Drivers/STM32H7xx_HAL_Driver/Src/stm32h7xx_hal_exti.c ****     pExtiConfig->Trigger = EXTI_TRIGGER_NONE;
 606              		.loc 1 484 5 is_stmt 1 view .LVU241
 607              		.loc 1 484 26 is_stmt 0 view .LVU242
 608 00a0 0020     		movs	r0, #0
 609 00a2 9860     		str	r0, [r3, #8]
 485:Drivers/STM32H7xx_HAL_Driver/Src/stm32h7xx_hal_exti.c ****     pExtiConfig->GPIOSel = 0x00U;
 610              		.loc 1 485 5 is_stmt 1 view .LVU243
 611              		.loc 1 485 26 is_stmt 0 view .LVU244
 612 00a4 D860     		str	r0, [r3, #12]
 613              	.LVL81:
 614              	.L34:
 486:Drivers/STM32H7xx_HAL_Driver/Src/stm32h7xx_hal_exti.c ****   }
 487:Drivers/STM32H7xx_HAL_Driver/Src/stm32h7xx_hal_exti.c **** 
 488:Drivers/STM32H7xx_HAL_Driver/Src/stm32h7xx_hal_exti.c ****   /* 3] Get D3 Pend Clear source */
 489:Drivers/STM32H7xx_HAL_Driver/Src/stm32h7xx_hal_exti.c ****   if ((pExtiConfig->Line & EXTI_TARGET_MASK) == EXTI_TARGET_MSK_ALL)
 615              		.loc 1 489 3 is_stmt 1 view .LVU245
 616              		.loc 1 489 19 is_stmt 0 view .LVU246
 617 00a6 1868     		ldr	r0, [r3]
 618              		.loc 1 489 26 view .LVU247
 619 00a8 00F44010 		and	r0, r0, #3145728
 620              		.loc 1 489 6 view .LVU248
 621 00ac B0F5401F 		cmp	r0, #3145728
ARM GAS  /tmp/ccxC147N.s 			page 22


 622 00b0 03D0     		beq	.L45
 490:Drivers/STM32H7xx_HAL_Driver/Src/stm32h7xx_hal_exti.c ****   {
 491:Drivers/STM32H7xx_HAL_Driver/Src/stm32h7xx_hal_exti.c ****     regaddr = (__IO uint32_t *)(&EXTI->D3PMR1 + (EXTI_CONFIG_OFFSET * offset));
 492:Drivers/STM32H7xx_HAL_Driver/Src/stm32h7xx_hal_exti.c ****     if(((*regaddr) & linepos) == 0UL)
 493:Drivers/STM32H7xx_HAL_Driver/Src/stm32h7xx_hal_exti.c ****     {
 494:Drivers/STM32H7xx_HAL_Driver/Src/stm32h7xx_hal_exti.c ****       /* if PMR unset, then no pend clear source is used */
 495:Drivers/STM32H7xx_HAL_Driver/Src/stm32h7xx_hal_exti.c ****       pExtiConfig->PendClearSource = EXTI_D3_PENDCLR_SRC_NONE;
 496:Drivers/STM32H7xx_HAL_Driver/Src/stm32h7xx_hal_exti.c ****     }
 497:Drivers/STM32H7xx_HAL_Driver/Src/stm32h7xx_hal_exti.c ****     else
 498:Drivers/STM32H7xx_HAL_Driver/Src/stm32h7xx_hal_exti.c ****     {
 499:Drivers/STM32H7xx_HAL_Driver/Src/stm32h7xx_hal_exti.c ****       /* if wakeup target is any and PMR set, the read pend clear source from  D3PCRxL/H */
 500:Drivers/STM32H7xx_HAL_Driver/Src/stm32h7xx_hal_exti.c ****       if(linepos < 16UL)
 501:Drivers/STM32H7xx_HAL_Driver/Src/stm32h7xx_hal_exti.c ****       {
 502:Drivers/STM32H7xx_HAL_Driver/Src/stm32h7xx_hal_exti.c ****         regaddr = (__IO uint32_t *)(&EXTI->D3PCR1L + (EXTI_CONFIG_OFFSET * offset));
 503:Drivers/STM32H7xx_HAL_Driver/Src/stm32h7xx_hal_exti.c ****         pcrlinepos = 1UL << linepos;
 504:Drivers/STM32H7xx_HAL_Driver/Src/stm32h7xx_hal_exti.c ****       }
 505:Drivers/STM32H7xx_HAL_Driver/Src/stm32h7xx_hal_exti.c ****       else
 506:Drivers/STM32H7xx_HAL_Driver/Src/stm32h7xx_hal_exti.c ****       {
 507:Drivers/STM32H7xx_HAL_Driver/Src/stm32h7xx_hal_exti.c ****         regaddr = (__IO uint32_t *)(&EXTI->D3PCR1H + (EXTI_CONFIG_OFFSET * offset));
 508:Drivers/STM32H7xx_HAL_Driver/Src/stm32h7xx_hal_exti.c ****         pcrlinepos = 1UL << (linepos - 16UL);
 509:Drivers/STM32H7xx_HAL_Driver/Src/stm32h7xx_hal_exti.c ****       }
 510:Drivers/STM32H7xx_HAL_Driver/Src/stm32h7xx_hal_exti.c **** 
 511:Drivers/STM32H7xx_HAL_Driver/Src/stm32h7xx_hal_exti.c ****       pExtiConfig->PendClearSource = 1UL + ((*regaddr & (pcrlinepos * pcrlinepos * 3UL)) / (pcrline
 512:Drivers/STM32H7xx_HAL_Driver/Src/stm32h7xx_hal_exti.c ****     }
 513:Drivers/STM32H7xx_HAL_Driver/Src/stm32h7xx_hal_exti.c ****   }
 514:Drivers/STM32H7xx_HAL_Driver/Src/stm32h7xx_hal_exti.c ****   else
 515:Drivers/STM32H7xx_HAL_Driver/Src/stm32h7xx_hal_exti.c ****   {
 516:Drivers/STM32H7xx_HAL_Driver/Src/stm32h7xx_hal_exti.c ****     /* if line wakeup target is not any, then no pend clear source is used  */
 517:Drivers/STM32H7xx_HAL_Driver/Src/stm32h7xx_hal_exti.c ****     pExtiConfig->PendClearSource = EXTI_D3_PENDCLR_SRC_NONE;
 623              		.loc 1 517 5 is_stmt 1 view .LVU249
 624              		.loc 1 517 34 is_stmt 0 view .LVU250
 625 00b2 0020     		movs	r0, #0
 626 00b4 1861     		str	r0, [r3, #16]
 627              	.LVL82:
 628              	.L26:
 518:Drivers/STM32H7xx_HAL_Driver/Src/stm32h7xx_hal_exti.c ****   }
 519:Drivers/STM32H7xx_HAL_Driver/Src/stm32h7xx_hal_exti.c **** 
 520:Drivers/STM32H7xx_HAL_Driver/Src/stm32h7xx_hal_exti.c ****   return HAL_OK;
 521:Drivers/STM32H7xx_HAL_Driver/Src/stm32h7xx_hal_exti.c **** }
 629              		.loc 1 521 1 view .LVU251
 630 00b6 F0BC     		pop	{r4, r5, r6, r7}
 631              	.LCFI3:
 632              		.cfi_remember_state
 633              		.cfi_restore 7
 634              		.cfi_restore 6
 635              		.cfi_restore 5
 636              		.cfi_restore 4
 637              		.cfi_def_cfa_offset 0
 638 00b8 7047     		bx	lr
 639              	.LVL83:
 640              	.L45:
 641              	.LCFI4:
 642              		.cfi_restore_state
 491:Drivers/STM32H7xx_HAL_Driver/Src/stm32h7xx_hal_exti.c ****     if(((*regaddr) & linepos) == 0UL)
 643              		.loc 1 491 5 is_stmt 1 view .LVU252
 491:Drivers/STM32H7xx_HAL_Driver/Src/stm32h7xx_hal_exti.c ****     if(((*regaddr) & linepos) == 0UL)
 644              		.loc 1 491 15 is_stmt 0 view .LVU253
ARM GAS  /tmp/ccxC147N.s 			page 23


 645 00ba 6401     		lsls	r4, r4, #5
 646              	.LVL84:
 491:Drivers/STM32H7xx_HAL_Driver/Src/stm32h7xx_hal_exti.c ****     if(((*regaddr) & linepos) == 0UL)
 647              		.loc 1 491 13 view .LVU254
 648 00bc 1348     		ldr	r0, .L46+16
 649              	.LVL85:
 492:Drivers/STM32H7xx_HAL_Driver/Src/stm32h7xx_hal_exti.c ****     {
 650              		.loc 1 492 5 is_stmt 1 view .LVU255
 492:Drivers/STM32H7xx_HAL_Driver/Src/stm32h7xx_hal_exti.c ****     {
 651              		.loc 1 492 10 is_stmt 0 view .LVU256
 652 00be 2058     		ldr	r0, [r4, r0]
 653              	.LVL86:
 492:Drivers/STM32H7xx_HAL_Driver/Src/stm32h7xx_hal_exti.c ****     {
 654              		.loc 1 492 7 view .LVU257
 655 00c0 2842     		tst	r0, r5
 656 00c2 02D1     		bne	.L36
 495:Drivers/STM32H7xx_HAL_Driver/Src/stm32h7xx_hal_exti.c ****     }
 657              		.loc 1 495 7 is_stmt 1 view .LVU258
 495:Drivers/STM32H7xx_HAL_Driver/Src/stm32h7xx_hal_exti.c ****     }
 658              		.loc 1 495 36 is_stmt 0 view .LVU259
 659 00c4 0020     		movs	r0, #0
 660 00c6 1861     		str	r0, [r3, #16]
 661 00c8 F5E7     		b	.L26
 662              	.L36:
 500:Drivers/STM32H7xx_HAL_Driver/Src/stm32h7xx_hal_exti.c ****       {
 663              		.loc 1 500 7 is_stmt 1 view .LVU260
 500:Drivers/STM32H7xx_HAL_Driver/Src/stm32h7xx_hal_exti.c ****       {
 664              		.loc 1 500 9 is_stmt 0 view .LVU261
 665 00ca 11F0100F 		tst	r1, #16
 666 00ce 0DD1     		bne	.L37
 502:Drivers/STM32H7xx_HAL_Driver/Src/stm32h7xx_hal_exti.c ****         pcrlinepos = 1UL << linepos;
 667              		.loc 1 502 9 is_stmt 1 view .LVU262
 502:Drivers/STM32H7xx_HAL_Driver/Src/stm32h7xx_hal_exti.c ****         pcrlinepos = 1UL << linepos;
 668              		.loc 1 502 17 is_stmt 0 view .LVU263
 669 00d0 0F49     		ldr	r1, .L46+20
 670              	.LVL87:
 502:Drivers/STM32H7xx_HAL_Driver/Src/stm32h7xx_hal_exti.c ****         pcrlinepos = 1UL << linepos;
 671              		.loc 1 502 17 view .LVU264
 672 00d2 2144     		add	r1, r1, r4
 673              	.LVL88:
 503:Drivers/STM32H7xx_HAL_Driver/Src/stm32h7xx_hal_exti.c ****       }
 674              		.loc 1 503 9 is_stmt 1 view .LVU265
 675              	.L38:
 511:Drivers/STM32H7xx_HAL_Driver/Src/stm32h7xx_hal_exti.c ****     }
 676              		.loc 1 511 7 view .LVU266
 511:Drivers/STM32H7xx_HAL_Driver/Src/stm32h7xx_hal_exti.c ****     }
 677              		.loc 1 511 46 is_stmt 0 view .LVU267
 678 00d4 0968     		ldr	r1, [r1]
 679              	.LVL89:
 511:Drivers/STM32H7xx_HAL_Driver/Src/stm32h7xx_hal_exti.c ****     }
 680              		.loc 1 511 69 view .LVU268
 681 00d6 02FB02F2 		mul	r2, r2, r2
 682              	.LVL90:
 511:Drivers/STM32H7xx_HAL_Driver/Src/stm32h7xx_hal_exti.c ****     }
 683              		.loc 1 511 82 view .LVU269
 684 00da 02EB4200 		add	r0, r2, r2, lsl #1
 511:Drivers/STM32H7xx_HAL_Driver/Src/stm32h7xx_hal_exti.c ****     }
ARM GAS  /tmp/ccxC147N.s 			page 24


 685              		.loc 1 511 55 view .LVU270
 686 00de 0140     		ands	r1, r1, r0
 511:Drivers/STM32H7xx_HAL_Driver/Src/stm32h7xx_hal_exti.c ****     }
 687              		.loc 1 511 90 view .LVU271
 688 00e0 B1FBF2F2 		udiv	r2, r1, r2
 511:Drivers/STM32H7xx_HAL_Driver/Src/stm32h7xx_hal_exti.c ****     }
 689              		.loc 1 511 42 view .LVU272
 690 00e4 0132     		adds	r2, r2, #1
 511:Drivers/STM32H7xx_HAL_Driver/Src/stm32h7xx_hal_exti.c ****     }
 691              		.loc 1 511 36 view .LVU273
 692 00e6 1A61     		str	r2, [r3, #16]
 520:Drivers/STM32H7xx_HAL_Driver/Src/stm32h7xx_hal_exti.c **** }
 693              		.loc 1 520 10 view .LVU274
 694 00e8 0020     		movs	r0, #0
 695 00ea E4E7     		b	.L26
 696              	.LVL91:
 697              	.L37:
 507:Drivers/STM32H7xx_HAL_Driver/Src/stm32h7xx_hal_exti.c ****         pcrlinepos = 1UL << (linepos - 16UL);
 698              		.loc 1 507 9 is_stmt 1 view .LVU275
 507:Drivers/STM32H7xx_HAL_Driver/Src/stm32h7xx_hal_exti.c ****         pcrlinepos = 1UL << (linepos - 16UL);
 699              		.loc 1 507 17 is_stmt 0 view .LVU276
 700 00ec 0949     		ldr	r1, .L46+24
 701              	.LVL92:
 507:Drivers/STM32H7xx_HAL_Driver/Src/stm32h7xx_hal_exti.c ****         pcrlinepos = 1UL << (linepos - 16UL);
 702              		.loc 1 507 17 view .LVU277
 703 00ee 2144     		add	r1, r1, r4
 704              	.LVL93:
 508:Drivers/STM32H7xx_HAL_Driver/Src/stm32h7xx_hal_exti.c ****       }
 705              		.loc 1 508 9 is_stmt 1 view .LVU278
 508:Drivers/STM32H7xx_HAL_Driver/Src/stm32h7xx_hal_exti.c ****       }
 706              		.loc 1 508 38 is_stmt 0 view .LVU279
 707 00f0 103D     		subs	r5, r5, #16
 708              	.LVL94:
 508:Drivers/STM32H7xx_HAL_Driver/Src/stm32h7xx_hal_exti.c ****       }
 709              		.loc 1 508 20 view .LVU280
 710 00f2 0122     		movs	r2, #1
 711              	.LVL95:
 508:Drivers/STM32H7xx_HAL_Driver/Src/stm32h7xx_hal_exti.c ****       }
 712              		.loc 1 508 20 view .LVU281
 713 00f4 AA40     		lsls	r2, r2, r5
 714              	.LVL96:
 508:Drivers/STM32H7xx_HAL_Driver/Src/stm32h7xx_hal_exti.c ****       }
 715              		.loc 1 508 20 view .LVU282
 716 00f6 EDE7     		b	.L38
 717              	.LVL97:
 718              	.L39:
 719              	.LCFI5:
 720              		.cfi_def_cfa_offset 0
 721              		.cfi_restore 4
 722              		.cfi_restore 5
 723              		.cfi_restore 6
 724              		.cfi_restore 7
 387:Drivers/STM32H7xx_HAL_Driver/Src/stm32h7xx_hal_exti.c ****   }
 725              		.loc 1 387 12 view .LVU283
 726 00f8 0120     		movs	r0, #1
 727              	.LVL98:
 728              		.loc 1 521 1 view .LVU284
ARM GAS  /tmp/ccxC147N.s 			page 25


 729 00fa 7047     		bx	lr
 730              	.L47:
 731              		.align	2
 732              	.L46:
 733 00fc 80000058 		.word	1476395136
 734 0100 84000058 		.word	1476395140
 735 0104 04000058 		.word	1476395012
 736 0108 00040058 		.word	1476396032
 737 010c 0C000058 		.word	1476395020
 738 0110 10000058 		.word	1476395024
 739 0114 14000058 		.word	1476395028
 740              		.cfi_endproc
 741              	.LFE142:
 743              		.section	.text.HAL_EXTI_ClearConfigLine,"ax",%progbits
 744              		.align	1
 745              		.global	HAL_EXTI_ClearConfigLine
 746              		.syntax unified
 747              		.thumb
 748              		.thumb_func
 749              		.fpu fpv5-d16
 751              	HAL_EXTI_ClearConfigLine:
 752              	.LVL99:
 753              	.LFB143:
 522:Drivers/STM32H7xx_HAL_Driver/Src/stm32h7xx_hal_exti.c **** 
 523:Drivers/STM32H7xx_HAL_Driver/Src/stm32h7xx_hal_exti.c **** 
 524:Drivers/STM32H7xx_HAL_Driver/Src/stm32h7xx_hal_exti.c **** /**
 525:Drivers/STM32H7xx_HAL_Driver/Src/stm32h7xx_hal_exti.c ****   * @brief  Clear whole configuration of a dedicated Exti line.
 526:Drivers/STM32H7xx_HAL_Driver/Src/stm32h7xx_hal_exti.c ****   * @param  hexti Exti handle.
 527:Drivers/STM32H7xx_HAL_Driver/Src/stm32h7xx_hal_exti.c ****   * @retval HAL Status.
 528:Drivers/STM32H7xx_HAL_Driver/Src/stm32h7xx_hal_exti.c ****   */
 529:Drivers/STM32H7xx_HAL_Driver/Src/stm32h7xx_hal_exti.c **** HAL_StatusTypeDef HAL_EXTI_ClearConfigLine(EXTI_HandleTypeDef *hexti)
 530:Drivers/STM32H7xx_HAL_Driver/Src/stm32h7xx_hal_exti.c **** {
 754              		.loc 1 530 1 is_stmt 1 view -0
 755              		.cfi_startproc
 756              		@ args = 0, pretend = 0, frame = 0
 757              		@ frame_needed = 0, uses_anonymous_args = 0
 531:Drivers/STM32H7xx_HAL_Driver/Src/stm32h7xx_hal_exti.c ****   __IO uint32_t *regaddr;
 758              		.loc 1 531 3 view .LVU286
 532:Drivers/STM32H7xx_HAL_Driver/Src/stm32h7xx_hal_exti.c ****   uint32_t regval;
 759              		.loc 1 532 3 view .LVU287
 533:Drivers/STM32H7xx_HAL_Driver/Src/stm32h7xx_hal_exti.c ****   uint32_t linepos;
 760              		.loc 1 533 3 view .LVU288
 534:Drivers/STM32H7xx_HAL_Driver/Src/stm32h7xx_hal_exti.c ****   uint32_t maskline;
 761              		.loc 1 534 3 view .LVU289
 535:Drivers/STM32H7xx_HAL_Driver/Src/stm32h7xx_hal_exti.c ****   uint32_t offset;
 762              		.loc 1 535 3 view .LVU290
 536:Drivers/STM32H7xx_HAL_Driver/Src/stm32h7xx_hal_exti.c ****   uint32_t pcrlinepos;
 763              		.loc 1 536 3 view .LVU291
 537:Drivers/STM32H7xx_HAL_Driver/Src/stm32h7xx_hal_exti.c **** 
 538:Drivers/STM32H7xx_HAL_Driver/Src/stm32h7xx_hal_exti.c ****   /* Check null pointer */
 539:Drivers/STM32H7xx_HAL_Driver/Src/stm32h7xx_hal_exti.c ****   if (hexti == NULL)
 764              		.loc 1 539 3 view .LVU292
 765              		.loc 1 539 6 is_stmt 0 view .LVU293
 766 0000 0028     		cmp	r0, #0
 767 0002 6BD0     		beq	.L53
 530:Drivers/STM32H7xx_HAL_Driver/Src/stm32h7xx_hal_exti.c ****   __IO uint32_t *regaddr;
 768              		.loc 1 530 1 view .LVU294
ARM GAS  /tmp/ccxC147N.s 			page 26


 769 0004 2DE9F041 		push	{r4, r5, r6, r7, r8, lr}
 770              	.LCFI6:
 771              		.cfi_def_cfa_offset 24
 772              		.cfi_offset 4, -24
 773              		.cfi_offset 5, -20
 774              		.cfi_offset 6, -16
 775              		.cfi_offset 7, -12
 776              		.cfi_offset 8, -8
 777              		.cfi_offset 14, -4
 778 0008 0146     		mov	r1, r0
 540:Drivers/STM32H7xx_HAL_Driver/Src/stm32h7xx_hal_exti.c ****   {
 541:Drivers/STM32H7xx_HAL_Driver/Src/stm32h7xx_hal_exti.c ****     return HAL_ERROR;
 542:Drivers/STM32H7xx_HAL_Driver/Src/stm32h7xx_hal_exti.c ****   }
 543:Drivers/STM32H7xx_HAL_Driver/Src/stm32h7xx_hal_exti.c **** 
 544:Drivers/STM32H7xx_HAL_Driver/Src/stm32h7xx_hal_exti.c ****   /* Check the parameter */
 545:Drivers/STM32H7xx_HAL_Driver/Src/stm32h7xx_hal_exti.c ****   assert_param(IS_EXTI_LINE(hexti->Line));
 779              		.loc 1 545 3 is_stmt 1 view .LVU295
 546:Drivers/STM32H7xx_HAL_Driver/Src/stm32h7xx_hal_exti.c **** 
 547:Drivers/STM32H7xx_HAL_Driver/Src/stm32h7xx_hal_exti.c ****   /* compute line register offset and line mask */
 548:Drivers/STM32H7xx_HAL_Driver/Src/stm32h7xx_hal_exti.c ****   offset = ((hexti->Line & EXTI_REG_MASK) >> EXTI_REG_SHIFT);
 780              		.loc 1 548 3 view .LVU296
 781              		.loc 1 548 19 is_stmt 0 view .LVU297
 782 000a 0568     		ldr	r5, [r0]
 783              		.loc 1 548 10 view .LVU298
 784 000c C5F30140 		ubfx	r0, r5, #16, #2
 785              	.LVL100:
 549:Drivers/STM32H7xx_HAL_Driver/Src/stm32h7xx_hal_exti.c ****   linepos = (hexti->Line & EXTI_PIN_MASK);
 786              		.loc 1 549 3 is_stmt 1 view .LVU299
 787              		.loc 1 549 11 is_stmt 0 view .LVU300
 788 0010 05F01F07 		and	r7, r5, #31
 789              	.LVL101:
 550:Drivers/STM32H7xx_HAL_Driver/Src/stm32h7xx_hal_exti.c ****   maskline = (1UL << linepos);
 790              		.loc 1 550 3 is_stmt 1 view .LVU301
 791              		.loc 1 550 12 is_stmt 0 view .LVU302
 792 0014 0123     		movs	r3, #1
 793 0016 BB40     		lsls	r3, r3, r7
 794              	.LVL102:
 551:Drivers/STM32H7xx_HAL_Driver/Src/stm32h7xx_hal_exti.c **** 
 552:Drivers/STM32H7xx_HAL_Driver/Src/stm32h7xx_hal_exti.c ****   /* 1] Clear interrupt mode */
 553:Drivers/STM32H7xx_HAL_Driver/Src/stm32h7xx_hal_exti.c ****   regaddr = (__IO uint32_t *)(&EXTI->IMR1 + (EXTI_MODE_OFFSET * offset));
 795              		.loc 1 553 3 is_stmt 1 view .LVU303
 796              		.loc 1 553 13 is_stmt 0 view .LVU304
 797 0018 0201     		lsls	r2, r0, #4
 798              		.loc 1 553 11 view .LVU305
 799 001a DFF8CCC0 		ldr	ip, .L61+8
 800              	.LVL103:
 554:Drivers/STM32H7xx_HAL_Driver/Src/stm32h7xx_hal_exti.c ****   regval = (*regaddr & ~maskline);
 801              		.loc 1 554 3 is_stmt 1 view .LVU306
 802              		.loc 1 554 13 is_stmt 0 view .LVU307
 803 001e 52F80C40 		ldr	r4, [r2, ip]
 804              		.loc 1 554 24 view .LVU308
 805 0022 DE43     		mvns	r6, r3
 806              		.loc 1 554 10 view .LVU309
 807 0024 24EA0304 		bic	r4, r4, r3
 808              	.LVL104:
 555:Drivers/STM32H7xx_HAL_Driver/Src/stm32h7xx_hal_exti.c ****   *regaddr = regval;
 809              		.loc 1 555 3 is_stmt 1 view .LVU310
ARM GAS  /tmp/ccxC147N.s 			page 27


 810              		.loc 1 555 12 is_stmt 0 view .LVU311
 811 0028 42F80C40 		str	r4, [r2, ip]
 556:Drivers/STM32H7xx_HAL_Driver/Src/stm32h7xx_hal_exti.c **** 
 557:Drivers/STM32H7xx_HAL_Driver/Src/stm32h7xx_hal_exti.c ****   /* 2] Clear event mode */
 558:Drivers/STM32H7xx_HAL_Driver/Src/stm32h7xx_hal_exti.c ****   regaddr = (__IO uint32_t *)(&EXTI->EMR1 + (EXTI_MODE_OFFSET * offset));
 812              		.loc 1 558 3 is_stmt 1 view .LVU312
 813              		.loc 1 558 11 is_stmt 0 view .LVU313
 814 002c 0CF1040C 		add	ip, ip, #4
 815              	.LVL105:
 559:Drivers/STM32H7xx_HAL_Driver/Src/stm32h7xx_hal_exti.c ****   regval = (*regaddr & ~maskline);
 816              		.loc 1 559 3 is_stmt 1 view .LVU314
 817              		.loc 1 559 13 is_stmt 0 view .LVU315
 818 0030 52F80C40 		ldr	r4, [r2, ip]
 819              	.LVL106:
 820              		.loc 1 559 10 view .LVU316
 821 0034 24EA0304 		bic	r4, r4, r3
 822              	.LVL107:
 560:Drivers/STM32H7xx_HAL_Driver/Src/stm32h7xx_hal_exti.c ****   *regaddr = regval;
 823              		.loc 1 560 3 is_stmt 1 view .LVU317
 824              		.loc 1 560 12 is_stmt 0 view .LVU318
 825 0038 42F80C40 		str	r4, [r2, ip]
 561:Drivers/STM32H7xx_HAL_Driver/Src/stm32h7xx_hal_exti.c **** 
 562:Drivers/STM32H7xx_HAL_Driver/Src/stm32h7xx_hal_exti.c **** #if defined (DUAL_CORE)
 563:Drivers/STM32H7xx_HAL_Driver/Src/stm32h7xx_hal_exti.c ****     /* 1] Clear CM4 interrupt mode */
 564:Drivers/STM32H7xx_HAL_Driver/Src/stm32h7xx_hal_exti.c ****   regaddr = (__IO uint32_t *)(&EXTI->C2IMR1 + (EXTI_MODE_OFFSET * offset));
 565:Drivers/STM32H7xx_HAL_Driver/Src/stm32h7xx_hal_exti.c ****   regval = (*regaddr & ~maskline);
 566:Drivers/STM32H7xx_HAL_Driver/Src/stm32h7xx_hal_exti.c ****   *regaddr = regval;
 567:Drivers/STM32H7xx_HAL_Driver/Src/stm32h7xx_hal_exti.c **** 
 568:Drivers/STM32H7xx_HAL_Driver/Src/stm32h7xx_hal_exti.c ****   /* 2] Clear CM4 event mode */
 569:Drivers/STM32H7xx_HAL_Driver/Src/stm32h7xx_hal_exti.c ****   regaddr = (__IO uint32_t *)(&EXTI->C2EMR1 + (EXTI_MODE_OFFSET * offset));
 570:Drivers/STM32H7xx_HAL_Driver/Src/stm32h7xx_hal_exti.c ****   regval = (*regaddr & ~maskline);
 571:Drivers/STM32H7xx_HAL_Driver/Src/stm32h7xx_hal_exti.c ****   *regaddr = regval;
 572:Drivers/STM32H7xx_HAL_Driver/Src/stm32h7xx_hal_exti.c **** #endif /* DUAL_CORE */
 573:Drivers/STM32H7xx_HAL_Driver/Src/stm32h7xx_hal_exti.c **** 
 574:Drivers/STM32H7xx_HAL_Driver/Src/stm32h7xx_hal_exti.c ****   /* 3] Clear triggers in case of configurable lines */
 575:Drivers/STM32H7xx_HAL_Driver/Src/stm32h7xx_hal_exti.c ****   if ((hexti->Line & EXTI_CONFIG) != 0x00U)
 826              		.loc 1 575 3 is_stmt 1 view .LVU319
 827              		.loc 1 575 13 is_stmt 0 view .LVU320
 828 003c 0A68     		ldr	r2, [r1]
 829              	.LVL108:
 830              		.loc 1 575 6 view .LVU321
 831 003e 12F0007F 		tst	r2, #33554432
 832 0042 14D0     		beq	.L50
 576:Drivers/STM32H7xx_HAL_Driver/Src/stm32h7xx_hal_exti.c ****   {
 577:Drivers/STM32H7xx_HAL_Driver/Src/stm32h7xx_hal_exti.c ****     regaddr = (__IO uint32_t *)(&EXTI->RTSR1 + (EXTI_CONFIG_OFFSET * offset));
 833              		.loc 1 577 5 is_stmt 1 view .LVU322
 834              		.loc 1 577 15 is_stmt 0 view .LVU323
 835 0044 4201     		lsls	r2, r0, #5
 836              		.loc 1 577 13 view .LVU324
 837 0046 02F1B04C 		add	ip, r2, #1476395008
 838              	.LVL109:
 578:Drivers/STM32H7xx_HAL_Driver/Src/stm32h7xx_hal_exti.c ****     regval = (*regaddr & ~maskline);
 839              		.loc 1 578 5 is_stmt 1 view .LVU325
 840              		.loc 1 578 15 is_stmt 0 view .LVU326
 841 004a DCF80040 		ldr	r4, [ip]
 842              	.LVL110:
 843              		.loc 1 578 12 view .LVU327
ARM GAS  /tmp/ccxC147N.s 			page 28


 844 004e 3440     		ands	r4, r4, r6
 845              	.LVL111:
 579:Drivers/STM32H7xx_HAL_Driver/Src/stm32h7xx_hal_exti.c ****     *regaddr = regval;
 846              		.loc 1 579 5 is_stmt 1 view .LVU328
 847              		.loc 1 579 14 is_stmt 0 view .LVU329
 848 0050 CCF80040 		str	r4, [ip]
 580:Drivers/STM32H7xx_HAL_Driver/Src/stm32h7xx_hal_exti.c **** 
 581:Drivers/STM32H7xx_HAL_Driver/Src/stm32h7xx_hal_exti.c ****     regaddr = (__IO uint32_t *)(&EXTI->FTSR1 + (EXTI_CONFIG_OFFSET * offset));
 849              		.loc 1 581 5 is_stmt 1 view .LVU330
 850              		.loc 1 581 13 is_stmt 0 view .LVU331
 851 0054 DFF894C0 		ldr	ip, .L61+12
 852              	.LVL112:
 582:Drivers/STM32H7xx_HAL_Driver/Src/stm32h7xx_hal_exti.c ****     regval = (*regaddr & ~maskline);
 853              		.loc 1 582 5 is_stmt 1 view .LVU332
 854              		.loc 1 582 15 is_stmt 0 view .LVU333
 855 0058 52F80C40 		ldr	r4, [r2, ip]
 856              	.LVL113:
 857              		.loc 1 582 12 view .LVU334
 858 005c 3440     		ands	r4, r4, r6
 859              	.LVL114:
 583:Drivers/STM32H7xx_HAL_Driver/Src/stm32h7xx_hal_exti.c ****     *regaddr = regval;
 860              		.loc 1 583 5 is_stmt 1 view .LVU335
 861              		.loc 1 583 14 is_stmt 0 view .LVU336
 862 005e 42F80C40 		str	r4, [r2, ip]
 584:Drivers/STM32H7xx_HAL_Driver/Src/stm32h7xx_hal_exti.c **** 
 585:Drivers/STM32H7xx_HAL_Driver/Src/stm32h7xx_hal_exti.c ****     /* Get Gpio port selection for gpio lines */
 586:Drivers/STM32H7xx_HAL_Driver/Src/stm32h7xx_hal_exti.c ****     if ((hexti->Line & EXTI_GPIO) == EXTI_GPIO)
 863              		.loc 1 586 5 is_stmt 1 view .LVU337
 864              		.loc 1 586 15 is_stmt 0 view .LVU338
 865 0062 0A68     		ldr	r2, [r1]
 866              	.LVL115:
 867              		.loc 1 586 22 view .LVU339
 868 0064 02F0C062 		and	r2, r2, #100663296
 869              		.loc 1 586 8 view .LVU340
 870 0068 B2F1C06F 		cmp	r2, #100663296
 871 006c 08D0     		beq	.L59
 872              	.LVL116:
 873              	.L50:
 587:Drivers/STM32H7xx_HAL_Driver/Src/stm32h7xx_hal_exti.c ****     {
 588:Drivers/STM32H7xx_HAL_Driver/Src/stm32h7xx_hal_exti.c ****       assert_param(IS_EXTI_GPIO_PIN(linepos));
 589:Drivers/STM32H7xx_HAL_Driver/Src/stm32h7xx_hal_exti.c **** 
 590:Drivers/STM32H7xx_HAL_Driver/Src/stm32h7xx_hal_exti.c ****       regval = SYSCFG->EXTICR[(linepos >> 2U) & 0x03UL];
 591:Drivers/STM32H7xx_HAL_Driver/Src/stm32h7xx_hal_exti.c ****       regval &= ~(SYSCFG_EXTICR1_EXTI0 << (SYSCFG_EXTICR1_EXTI1_Pos * (linepos & 0x03UL)));
 592:Drivers/STM32H7xx_HAL_Driver/Src/stm32h7xx_hal_exti.c ****       SYSCFG->EXTICR[(linepos >> 2U) & 0x03UL] = regval;
 593:Drivers/STM32H7xx_HAL_Driver/Src/stm32h7xx_hal_exti.c ****     }
 594:Drivers/STM32H7xx_HAL_Driver/Src/stm32h7xx_hal_exti.c ****   }
 595:Drivers/STM32H7xx_HAL_Driver/Src/stm32h7xx_hal_exti.c **** 
 596:Drivers/STM32H7xx_HAL_Driver/Src/stm32h7xx_hal_exti.c ****   /* 4] Clear D3 Config lines */
 597:Drivers/STM32H7xx_HAL_Driver/Src/stm32h7xx_hal_exti.c ****   if ((hexti->Line & EXTI_TARGET_MASK) == EXTI_TARGET_MSK_ALL)
 874              		.loc 1 597 3 is_stmt 1 view .LVU341
 875              		.loc 1 597 13 is_stmt 0 view .LVU342
 876 006e 0A68     		ldr	r2, [r1]
 877              		.loc 1 597 20 view .LVU343
 878 0070 02F44012 		and	r2, r2, #3145728
 879              		.loc 1 597 6 view .LVU344
 880 0074 B2F5401F 		cmp	r2, #3145728
 881 0078 16D0     		beq	.L60
ARM GAS  /tmp/ccxC147N.s 			page 29


 598:Drivers/STM32H7xx_HAL_Driver/Src/stm32h7xx_hal_exti.c ****   {
 599:Drivers/STM32H7xx_HAL_Driver/Src/stm32h7xx_hal_exti.c ****     regaddr = (__IO uint32_t *)(&EXTI->D3PMR1 + (EXTI_CONFIG_OFFSET * offset));
 600:Drivers/STM32H7xx_HAL_Driver/Src/stm32h7xx_hal_exti.c ****     *regaddr = (*regaddr & ~maskline);
 601:Drivers/STM32H7xx_HAL_Driver/Src/stm32h7xx_hal_exti.c **** 
 602:Drivers/STM32H7xx_HAL_Driver/Src/stm32h7xx_hal_exti.c ****     if(linepos < 16UL)
 603:Drivers/STM32H7xx_HAL_Driver/Src/stm32h7xx_hal_exti.c ****     {
 604:Drivers/STM32H7xx_HAL_Driver/Src/stm32h7xx_hal_exti.c ****       regaddr = (__IO uint32_t *)(&EXTI->D3PCR1L + (EXTI_CONFIG_OFFSET * offset));
 605:Drivers/STM32H7xx_HAL_Driver/Src/stm32h7xx_hal_exti.c ****       pcrlinepos = 1UL << linepos;
 606:Drivers/STM32H7xx_HAL_Driver/Src/stm32h7xx_hal_exti.c ****     }
 607:Drivers/STM32H7xx_HAL_Driver/Src/stm32h7xx_hal_exti.c ****     else
 608:Drivers/STM32H7xx_HAL_Driver/Src/stm32h7xx_hal_exti.c ****     {
 609:Drivers/STM32H7xx_HAL_Driver/Src/stm32h7xx_hal_exti.c ****       regaddr = (__IO uint32_t *)(&EXTI->D3PCR1H + (EXTI_CONFIG_OFFSET * offset));
 610:Drivers/STM32H7xx_HAL_Driver/Src/stm32h7xx_hal_exti.c ****       pcrlinepos = 1UL << (linepos - 16UL);
 611:Drivers/STM32H7xx_HAL_Driver/Src/stm32h7xx_hal_exti.c ****     }
 612:Drivers/STM32H7xx_HAL_Driver/Src/stm32h7xx_hal_exti.c **** 
 613:Drivers/STM32H7xx_HAL_Driver/Src/stm32h7xx_hal_exti.c ****     /*Clear D3 PendClear source */
 614:Drivers/STM32H7xx_HAL_Driver/Src/stm32h7xx_hal_exti.c ****     *regaddr &= (~(pcrlinepos * pcrlinepos * 3UL));
 615:Drivers/STM32H7xx_HAL_Driver/Src/stm32h7xx_hal_exti.c ****   }
 616:Drivers/STM32H7xx_HAL_Driver/Src/stm32h7xx_hal_exti.c **** 
 617:Drivers/STM32H7xx_HAL_Driver/Src/stm32h7xx_hal_exti.c ****   return HAL_OK;
 882              		.loc 1 617 10 view .LVU345
 883 007a 0020     		movs	r0, #0
 884              	.LVL117:
 885              	.L49:
 618:Drivers/STM32H7xx_HAL_Driver/Src/stm32h7xx_hal_exti.c **** }
 886              		.loc 1 618 1 view .LVU346
 887 007c BDE8F081 		pop	{r4, r5, r6, r7, r8, pc}
 888              	.LVL118:
 889              	.L59:
 588:Drivers/STM32H7xx_HAL_Driver/Src/stm32h7xx_hal_exti.c **** 
 890              		.loc 1 588 7 is_stmt 1 view .LVU347
 590:Drivers/STM32H7xx_HAL_Driver/Src/stm32h7xx_hal_exti.c ****       regval &= ~(SYSCFG_EXTICR1_EXTI0 << (SYSCFG_EXTICR1_EXTI1_Pos * (linepos & 0x03UL)));
 891              		.loc 1 590 7 view .LVU348
 590:Drivers/STM32H7xx_HAL_Driver/Src/stm32h7xx_hal_exti.c ****       regval &= ~(SYSCFG_EXTICR1_EXTI0 << (SYSCFG_EXTICR1_EXTI1_Pos * (linepos & 0x03UL)));
 892              		.loc 1 590 47 is_stmt 0 view .LVU349
 893 0080 C7F38102 		ubfx	r2, r7, #2, #2
 590:Drivers/STM32H7xx_HAL_Driver/Src/stm32h7xx_hal_exti.c ****       regval &= ~(SYSCFG_EXTICR1_EXTI0 << (SYSCFG_EXTICR1_EXTI1_Pos * (linepos & 0x03UL)));
 894              		.loc 1 590 14 view .LVU350
 895 0084 DFF868E0 		ldr	lr, .L61+16
 896 0088 0232     		adds	r2, r2, #2
 897 008a 5EF82240 		ldr	r4, [lr, r2, lsl #2]
 898              	.LVL119:
 591:Drivers/STM32H7xx_HAL_Driver/Src/stm32h7xx_hal_exti.c ****       SYSCFG->EXTICR[(linepos >> 2U) & 0x03UL] = regval;
 899              		.loc 1 591 7 is_stmt 1 view .LVU351
 591:Drivers/STM32H7xx_HAL_Driver/Src/stm32h7xx_hal_exti.c ****       SYSCFG->EXTICR[(linepos >> 2U) & 0x03UL] = regval;
 900              		.loc 1 591 80 is_stmt 0 view .LVU352
 901 008e 05F0030C 		and	ip, r5, #3
 902              	.LVL120:
 591:Drivers/STM32H7xx_HAL_Driver/Src/stm32h7xx_hal_exti.c ****       SYSCFG->EXTICR[(linepos >> 2U) & 0x03UL] = regval;
 903              		.loc 1 591 69 view .LVU353
 904 0092 4FEA8C08 		lsl	r8, ip, #2
 591:Drivers/STM32H7xx_HAL_Driver/Src/stm32h7xx_hal_exti.c ****       SYSCFG->EXTICR[(linepos >> 2U) & 0x03UL] = regval;
 905              		.loc 1 591 40 view .LVU354
 906 0096 4FF00F0C 		mov	ip, #15
 907 009a 0CFA08FC 		lsl	ip, ip, r8
 591:Drivers/STM32H7xx_HAL_Driver/Src/stm32h7xx_hal_exti.c ****       SYSCFG->EXTICR[(linepos >> 2U) & 0x03UL] = regval;
 908              		.loc 1 591 14 view .LVU355
ARM GAS  /tmp/ccxC147N.s 			page 30


 909 009e 24EA0C04 		bic	r4, r4, ip
 910              	.LVL121:
 592:Drivers/STM32H7xx_HAL_Driver/Src/stm32h7xx_hal_exti.c ****     }
 911              		.loc 1 592 7 is_stmt 1 view .LVU356
 592:Drivers/STM32H7xx_HAL_Driver/Src/stm32h7xx_hal_exti.c ****     }
 912              		.loc 1 592 48 is_stmt 0 view .LVU357
 913 00a2 4EF82240 		str	r4, [lr, r2, lsl #2]
 914 00a6 E2E7     		b	.L50
 915              	.LVL122:
 916              	.L60:
 599:Drivers/STM32H7xx_HAL_Driver/Src/stm32h7xx_hal_exti.c ****     *regaddr = (*regaddr & ~maskline);
 917              		.loc 1 599 5 is_stmt 1 view .LVU358
 599:Drivers/STM32H7xx_HAL_Driver/Src/stm32h7xx_hal_exti.c ****     *regaddr = (*regaddr & ~maskline);
 918              		.loc 1 599 15 is_stmt 0 view .LVU359
 919 00a8 4001     		lsls	r0, r0, #5
 920              	.LVL123:
 599:Drivers/STM32H7xx_HAL_Driver/Src/stm32h7xx_hal_exti.c ****     *regaddr = (*regaddr & ~maskline);
 921              		.loc 1 599 13 view .LVU360
 922 00aa 0D4A     		ldr	r2, .L61
 923              	.LVL124:
 600:Drivers/STM32H7xx_HAL_Driver/Src/stm32h7xx_hal_exti.c **** 
 924              		.loc 1 600 5 is_stmt 1 view .LVU361
 600:Drivers/STM32H7xx_HAL_Driver/Src/stm32h7xx_hal_exti.c **** 
 925              		.loc 1 600 17 is_stmt 0 view .LVU362
 926 00ac 8158     		ldr	r1, [r0, r2]
 927              	.LVL125:
 600:Drivers/STM32H7xx_HAL_Driver/Src/stm32h7xx_hal_exti.c **** 
 928              		.loc 1 600 26 view .LVU363
 929 00ae 0E40     		ands	r6, r6, r1
 600:Drivers/STM32H7xx_HAL_Driver/Src/stm32h7xx_hal_exti.c **** 
 930              		.loc 1 600 14 view .LVU364
 931 00b0 8650     		str	r6, [r0, r2]
 602:Drivers/STM32H7xx_HAL_Driver/Src/stm32h7xx_hal_exti.c ****     {
 932              		.loc 1 602 5 is_stmt 1 view .LVU365
 602:Drivers/STM32H7xx_HAL_Driver/Src/stm32h7xx_hal_exti.c ****     {
 933              		.loc 1 602 7 is_stmt 0 view .LVU366
 934 00b2 15F0100F 		tst	r5, #16
 935 00b6 0BD1     		bne	.L51
 604:Drivers/STM32H7xx_HAL_Driver/Src/stm32h7xx_hal_exti.c ****       pcrlinepos = 1UL << linepos;
 936              		.loc 1 604 7 is_stmt 1 view .LVU367
 604:Drivers/STM32H7xx_HAL_Driver/Src/stm32h7xx_hal_exti.c ****       pcrlinepos = 1UL << linepos;
 937              		.loc 1 604 15 is_stmt 0 view .LVU368
 938 00b8 0432     		adds	r2, r2, #4
 939              	.LVL126:
 604:Drivers/STM32H7xx_HAL_Driver/Src/stm32h7xx_hal_exti.c ****       pcrlinepos = 1UL << linepos;
 940              		.loc 1 604 15 view .LVU369
 941 00ba 0244     		add	r2, r2, r0
 942              	.LVL127:
 605:Drivers/STM32H7xx_HAL_Driver/Src/stm32h7xx_hal_exti.c ****     }
 943              		.loc 1 605 7 is_stmt 1 view .LVU370
 944              	.L52:
 614:Drivers/STM32H7xx_HAL_Driver/Src/stm32h7xx_hal_exti.c ****   }
 945              		.loc 1 614 5 view .LVU371
 614:Drivers/STM32H7xx_HAL_Driver/Src/stm32h7xx_hal_exti.c ****   }
 946              		.loc 1 614 14 is_stmt 0 view .LVU372
 947 00bc 1168     		ldr	r1, [r2]
 614:Drivers/STM32H7xx_HAL_Driver/Src/stm32h7xx_hal_exti.c ****   }
ARM GAS  /tmp/ccxC147N.s 			page 31


 948              		.loc 1 614 31 view .LVU373
 949 00be 03FB03F3 		mul	r3, r3, r3
 950              	.LVL128:
 614:Drivers/STM32H7xx_HAL_Driver/Src/stm32h7xx_hal_exti.c ****   }
 951              		.loc 1 614 44 view .LVU374
 952 00c2 03EB4303 		add	r3, r3, r3, lsl #1
 614:Drivers/STM32H7xx_HAL_Driver/Src/stm32h7xx_hal_exti.c ****   }
 953              		.loc 1 614 14 view .LVU375
 954 00c6 21EA0303 		bic	r3, r1, r3
 955 00ca 1360     		str	r3, [r2]
 617:Drivers/STM32H7xx_HAL_Driver/Src/stm32h7xx_hal_exti.c **** }
 956              		.loc 1 617 10 view .LVU376
 957 00cc 0020     		movs	r0, #0
 958 00ce D5E7     		b	.L49
 959              	.LVL129:
 960              	.L51:
 609:Drivers/STM32H7xx_HAL_Driver/Src/stm32h7xx_hal_exti.c ****       pcrlinepos = 1UL << (linepos - 16UL);
 961              		.loc 1 609 7 is_stmt 1 view .LVU377
 609:Drivers/STM32H7xx_HAL_Driver/Src/stm32h7xx_hal_exti.c ****       pcrlinepos = 1UL << (linepos - 16UL);
 962              		.loc 1 609 15 is_stmt 0 view .LVU378
 963 00d0 044A     		ldr	r2, .L61+4
 964              	.LVL130:
 609:Drivers/STM32H7xx_HAL_Driver/Src/stm32h7xx_hal_exti.c ****       pcrlinepos = 1UL << (linepos - 16UL);
 965              		.loc 1 609 15 view .LVU379
 966 00d2 0244     		add	r2, r2, r0
 967              	.LVL131:
 610:Drivers/STM32H7xx_HAL_Driver/Src/stm32h7xx_hal_exti.c ****     }
 968              		.loc 1 610 7 is_stmt 1 view .LVU380
 610:Drivers/STM32H7xx_HAL_Driver/Src/stm32h7xx_hal_exti.c ****     }
 969              		.loc 1 610 36 is_stmt 0 view .LVU381
 970 00d4 103F     		subs	r7, r7, #16
 971              	.LVL132:
 610:Drivers/STM32H7xx_HAL_Driver/Src/stm32h7xx_hal_exti.c ****     }
 972              		.loc 1 610 18 view .LVU382
 973 00d6 0123     		movs	r3, #1
 974              	.LVL133:
 610:Drivers/STM32H7xx_HAL_Driver/Src/stm32h7xx_hal_exti.c ****     }
 975              		.loc 1 610 18 view .LVU383
 976 00d8 BB40     		lsls	r3, r3, r7
 977              	.LVL134:
 610:Drivers/STM32H7xx_HAL_Driver/Src/stm32h7xx_hal_exti.c ****     }
 978              		.loc 1 610 18 view .LVU384
 979 00da EFE7     		b	.L52
 980              	.LVL135:
 981              	.L53:
 982              	.LCFI7:
 983              		.cfi_def_cfa_offset 0
 984              		.cfi_restore 4
 985              		.cfi_restore 5
 986              		.cfi_restore 6
 987              		.cfi_restore 7
 988              		.cfi_restore 8
 989              		.cfi_restore 14
 541:Drivers/STM32H7xx_HAL_Driver/Src/stm32h7xx_hal_exti.c ****   }
 990              		.loc 1 541 12 view .LVU385
 991 00dc 0120     		movs	r0, #1
 992              	.LVL136:
ARM GAS  /tmp/ccxC147N.s 			page 32


 993              		.loc 1 618 1 view .LVU386
 994 00de 7047     		bx	lr
 995              	.L62:
 996              		.align	2
 997              	.L61:
 998 00e0 0C000058 		.word	1476395020
 999 00e4 14000058 		.word	1476395028
 1000 00e8 80000058 		.word	1476395136
 1001 00ec 04000058 		.word	1476395012
 1002 00f0 00040058 		.word	1476396032
 1003              		.cfi_endproc
 1004              	.LFE143:
 1006              		.section	.text.HAL_EXTI_RegisterCallback,"ax",%progbits
 1007              		.align	1
 1008              		.global	HAL_EXTI_RegisterCallback
 1009              		.syntax unified
 1010              		.thumb
 1011              		.thumb_func
 1012              		.fpu fpv5-d16
 1014              	HAL_EXTI_RegisterCallback:
 1015              	.LVL137:
 1016              	.LFB144:
 619:Drivers/STM32H7xx_HAL_Driver/Src/stm32h7xx_hal_exti.c **** 
 620:Drivers/STM32H7xx_HAL_Driver/Src/stm32h7xx_hal_exti.c **** 
 621:Drivers/STM32H7xx_HAL_Driver/Src/stm32h7xx_hal_exti.c **** /**
 622:Drivers/STM32H7xx_HAL_Driver/Src/stm32h7xx_hal_exti.c ****   * @brief  Register callback for a dedicated Exti line.
 623:Drivers/STM32H7xx_HAL_Driver/Src/stm32h7xx_hal_exti.c ****   * @param  hexti Exti handle.
 624:Drivers/STM32H7xx_HAL_Driver/Src/stm32h7xx_hal_exti.c ****   * @param  CallbackID User callback identifier.
 625:Drivers/STM32H7xx_HAL_Driver/Src/stm32h7xx_hal_exti.c ****   *         This parameter can be one of @arg @ref EXTI_CallbackIDTypeDef values.
 626:Drivers/STM32H7xx_HAL_Driver/Src/stm32h7xx_hal_exti.c ****   * @param  pPendingCbfn function pointer to be stored as callback.
 627:Drivers/STM32H7xx_HAL_Driver/Src/stm32h7xx_hal_exti.c ****   * @retval HAL Status.
 628:Drivers/STM32H7xx_HAL_Driver/Src/stm32h7xx_hal_exti.c ****   */
 629:Drivers/STM32H7xx_HAL_Driver/Src/stm32h7xx_hal_exti.c **** HAL_StatusTypeDef HAL_EXTI_RegisterCallback(EXTI_HandleTypeDef *hexti, EXTI_CallbackIDTypeDef Callb
 630:Drivers/STM32H7xx_HAL_Driver/Src/stm32h7xx_hal_exti.c **** {
 1017              		.loc 1 630 1 is_stmt 1 view -0
 1018              		.cfi_startproc
 1019              		@ args = 0, pretend = 0, frame = 0
 1020              		@ frame_needed = 0, uses_anonymous_args = 0
 1021              		@ link register save eliminated.
 631:Drivers/STM32H7xx_HAL_Driver/Src/stm32h7xx_hal_exti.c ****   HAL_StatusTypeDef status = HAL_OK;
 1022              		.loc 1 631 3 view .LVU388
 632:Drivers/STM32H7xx_HAL_Driver/Src/stm32h7xx_hal_exti.c **** 
 633:Drivers/STM32H7xx_HAL_Driver/Src/stm32h7xx_hal_exti.c ****   /* Check null pointer */
 634:Drivers/STM32H7xx_HAL_Driver/Src/stm32h7xx_hal_exti.c ****   if (hexti == NULL)
 1023              		.loc 1 634 3 view .LVU389
 1024              		.loc 1 634 6 is_stmt 0 view .LVU390
 1025 0000 18B1     		cbz	r0, .L65
 635:Drivers/STM32H7xx_HAL_Driver/Src/stm32h7xx_hal_exti.c ****   {
 636:Drivers/STM32H7xx_HAL_Driver/Src/stm32h7xx_hal_exti.c ****     return HAL_ERROR;
 637:Drivers/STM32H7xx_HAL_Driver/Src/stm32h7xx_hal_exti.c ****   }
 638:Drivers/STM32H7xx_HAL_Driver/Src/stm32h7xx_hal_exti.c **** 
 639:Drivers/STM32H7xx_HAL_Driver/Src/stm32h7xx_hal_exti.c ****   switch (CallbackID)
 1026              		.loc 1 639 3 is_stmt 1 view .LVU391
 1027 0002 21B9     		cbnz	r1, .L66
 640:Drivers/STM32H7xx_HAL_Driver/Src/stm32h7xx_hal_exti.c ****   {
 641:Drivers/STM32H7xx_HAL_Driver/Src/stm32h7xx_hal_exti.c ****     case  HAL_EXTI_COMMON_CB_ID:
 642:Drivers/STM32H7xx_HAL_Driver/Src/stm32h7xx_hal_exti.c ****       hexti->PendingCallback = pPendingCbfn;
ARM GAS  /tmp/ccxC147N.s 			page 33


 1028              		.loc 1 642 7 view .LVU392
 1029              		.loc 1 642 30 is_stmt 0 view .LVU393
 1030 0004 4260     		str	r2, [r0, #4]
 643:Drivers/STM32H7xx_HAL_Driver/Src/stm32h7xx_hal_exti.c ****       break;
 1031              		.loc 1 643 7 is_stmt 1 view .LVU394
 631:Drivers/STM32H7xx_HAL_Driver/Src/stm32h7xx_hal_exti.c **** 
 1032              		.loc 1 631 21 is_stmt 0 view .LVU395
 1033 0006 0846     		mov	r0, r1
 1034              	.LVL138:
 1035              		.loc 1 643 7 view .LVU396
 1036 0008 7047     		bx	lr
 1037              	.LVL139:
 1038              	.L65:
 636:Drivers/STM32H7xx_HAL_Driver/Src/stm32h7xx_hal_exti.c ****   }
 1039              		.loc 1 636 12 view .LVU397
 1040 000a 0120     		movs	r0, #1
 1041              	.LVL140:
 636:Drivers/STM32H7xx_HAL_Driver/Src/stm32h7xx_hal_exti.c ****   }
 1042              		.loc 1 636 12 view .LVU398
 1043 000c 7047     		bx	lr
 1044              	.LVL141:
 1045              	.L66:
 644:Drivers/STM32H7xx_HAL_Driver/Src/stm32h7xx_hal_exti.c **** 
 645:Drivers/STM32H7xx_HAL_Driver/Src/stm32h7xx_hal_exti.c ****     default:
 646:Drivers/STM32H7xx_HAL_Driver/Src/stm32h7xx_hal_exti.c ****       status = HAL_ERROR;
 1046              		.loc 1 646 14 view .LVU399
 1047 000e 0120     		movs	r0, #1
 1048              	.LVL142:
 647:Drivers/STM32H7xx_HAL_Driver/Src/stm32h7xx_hal_exti.c ****       break;
 648:Drivers/STM32H7xx_HAL_Driver/Src/stm32h7xx_hal_exti.c ****   }
 649:Drivers/STM32H7xx_HAL_Driver/Src/stm32h7xx_hal_exti.c **** 
 650:Drivers/STM32H7xx_HAL_Driver/Src/stm32h7xx_hal_exti.c ****   return status;
 651:Drivers/STM32H7xx_HAL_Driver/Src/stm32h7xx_hal_exti.c **** }
 1049              		.loc 1 651 1 view .LVU400
 1050 0010 7047     		bx	lr
 1051              		.cfi_endproc
 1052              	.LFE144:
 1054              		.section	.text.HAL_EXTI_GetHandle,"ax",%progbits
 1055              		.align	1
 1056              		.global	HAL_EXTI_GetHandle
 1057              		.syntax unified
 1058              		.thumb
 1059              		.thumb_func
 1060              		.fpu fpv5-d16
 1062              	HAL_EXTI_GetHandle:
 1063              	.LVL143:
 1064              	.LFB145:
 652:Drivers/STM32H7xx_HAL_Driver/Src/stm32h7xx_hal_exti.c **** 
 653:Drivers/STM32H7xx_HAL_Driver/Src/stm32h7xx_hal_exti.c **** 
 654:Drivers/STM32H7xx_HAL_Driver/Src/stm32h7xx_hal_exti.c **** /**
 655:Drivers/STM32H7xx_HAL_Driver/Src/stm32h7xx_hal_exti.c ****   * @brief  Store line number as handle private field.
 656:Drivers/STM32H7xx_HAL_Driver/Src/stm32h7xx_hal_exti.c ****   * @param  hexti Exti handle.
 657:Drivers/STM32H7xx_HAL_Driver/Src/stm32h7xx_hal_exti.c ****   * @param  ExtiLine Exti line number.
 658:Drivers/STM32H7xx_HAL_Driver/Src/stm32h7xx_hal_exti.c ****   *         This parameter can be from 0 to @ref EXTI_LINE_NB.
 659:Drivers/STM32H7xx_HAL_Driver/Src/stm32h7xx_hal_exti.c ****   * @retval HAL Status.
 660:Drivers/STM32H7xx_HAL_Driver/Src/stm32h7xx_hal_exti.c ****   */
 661:Drivers/STM32H7xx_HAL_Driver/Src/stm32h7xx_hal_exti.c **** HAL_StatusTypeDef HAL_EXTI_GetHandle(EXTI_HandleTypeDef *hexti, uint32_t ExtiLine)
ARM GAS  /tmp/ccxC147N.s 			page 34


 662:Drivers/STM32H7xx_HAL_Driver/Src/stm32h7xx_hal_exti.c **** {
 1065              		.loc 1 662 1 is_stmt 1 view -0
 1066              		.cfi_startproc
 1067              		@ args = 0, pretend = 0, frame = 0
 1068              		@ frame_needed = 0, uses_anonymous_args = 0
 1069              		@ link register save eliminated.
 663:Drivers/STM32H7xx_HAL_Driver/Src/stm32h7xx_hal_exti.c ****   /* Check the parameters */
 664:Drivers/STM32H7xx_HAL_Driver/Src/stm32h7xx_hal_exti.c ****   assert_param(IS_EXTI_LINE(ExtiLine));
 1070              		.loc 1 664 3 view .LVU402
 665:Drivers/STM32H7xx_HAL_Driver/Src/stm32h7xx_hal_exti.c **** 
 666:Drivers/STM32H7xx_HAL_Driver/Src/stm32h7xx_hal_exti.c ****   /* Check null pointer */
 667:Drivers/STM32H7xx_HAL_Driver/Src/stm32h7xx_hal_exti.c ****   if (hexti == NULL)
 1071              		.loc 1 667 3 view .LVU403
 1072              		.loc 1 667 6 is_stmt 0 view .LVU404
 1073 0000 10B1     		cbz	r0, .L69
 668:Drivers/STM32H7xx_HAL_Driver/Src/stm32h7xx_hal_exti.c ****   {
 669:Drivers/STM32H7xx_HAL_Driver/Src/stm32h7xx_hal_exti.c ****     return HAL_ERROR;
 670:Drivers/STM32H7xx_HAL_Driver/Src/stm32h7xx_hal_exti.c ****   }
 671:Drivers/STM32H7xx_HAL_Driver/Src/stm32h7xx_hal_exti.c ****   else
 672:Drivers/STM32H7xx_HAL_Driver/Src/stm32h7xx_hal_exti.c ****   {
 673:Drivers/STM32H7xx_HAL_Driver/Src/stm32h7xx_hal_exti.c ****     /* Store line number as handle private field */
 674:Drivers/STM32H7xx_HAL_Driver/Src/stm32h7xx_hal_exti.c ****     hexti->Line = ExtiLine;
 1074              		.loc 1 674 5 is_stmt 1 view .LVU405
 1075              		.loc 1 674 17 is_stmt 0 view .LVU406
 1076 0002 0160     		str	r1, [r0]
 675:Drivers/STM32H7xx_HAL_Driver/Src/stm32h7xx_hal_exti.c **** 
 676:Drivers/STM32H7xx_HAL_Driver/Src/stm32h7xx_hal_exti.c ****     return HAL_OK;
 1077              		.loc 1 676 5 is_stmt 1 view .LVU407
 1078              		.loc 1 676 12 is_stmt 0 view .LVU408
 1079 0004 0020     		movs	r0, #0
 1080              	.LVL144:
 1081              		.loc 1 676 12 view .LVU409
 1082 0006 7047     		bx	lr
 1083              	.LVL145:
 1084              	.L69:
 669:Drivers/STM32H7xx_HAL_Driver/Src/stm32h7xx_hal_exti.c ****   }
 1085              		.loc 1 669 12 view .LVU410
 1086 0008 0120     		movs	r0, #1
 1087              	.LVL146:
 677:Drivers/STM32H7xx_HAL_Driver/Src/stm32h7xx_hal_exti.c ****   }
 678:Drivers/STM32H7xx_HAL_Driver/Src/stm32h7xx_hal_exti.c **** }
 1088              		.loc 1 678 1 view .LVU411
 1089 000a 7047     		bx	lr
 1090              		.cfi_endproc
 1091              	.LFE145:
 1093              		.section	.text.HAL_EXTI_IRQHandler,"ax",%progbits
 1094              		.align	1
 1095              		.global	HAL_EXTI_IRQHandler
 1096              		.syntax unified
 1097              		.thumb
 1098              		.thumb_func
 1099              		.fpu fpv5-d16
 1101              	HAL_EXTI_IRQHandler:
 1102              	.LVL147:
 1103              	.LFB146:
 679:Drivers/STM32H7xx_HAL_Driver/Src/stm32h7xx_hal_exti.c **** 
 680:Drivers/STM32H7xx_HAL_Driver/Src/stm32h7xx_hal_exti.c **** 
ARM GAS  /tmp/ccxC147N.s 			page 35


 681:Drivers/STM32H7xx_HAL_Driver/Src/stm32h7xx_hal_exti.c **** /**
 682:Drivers/STM32H7xx_HAL_Driver/Src/stm32h7xx_hal_exti.c ****   * @}
 683:Drivers/STM32H7xx_HAL_Driver/Src/stm32h7xx_hal_exti.c ****   */
 684:Drivers/STM32H7xx_HAL_Driver/Src/stm32h7xx_hal_exti.c **** 
 685:Drivers/STM32H7xx_HAL_Driver/Src/stm32h7xx_hal_exti.c **** /** @addtogroup EXTI_Exported_Functions_Group2
 686:Drivers/STM32H7xx_HAL_Driver/Src/stm32h7xx_hal_exti.c ****  *  @brief EXTI IO functions.
 687:Drivers/STM32H7xx_HAL_Driver/Src/stm32h7xx_hal_exti.c ****  *
 688:Drivers/STM32H7xx_HAL_Driver/Src/stm32h7xx_hal_exti.c **** @verbatim
 689:Drivers/STM32H7xx_HAL_Driver/Src/stm32h7xx_hal_exti.c ****  ===============================================================================
 690:Drivers/STM32H7xx_HAL_Driver/Src/stm32h7xx_hal_exti.c ****                        ##### IO operation functions #####
 691:Drivers/STM32H7xx_HAL_Driver/Src/stm32h7xx_hal_exti.c ****  ===============================================================================
 692:Drivers/STM32H7xx_HAL_Driver/Src/stm32h7xx_hal_exti.c **** 
 693:Drivers/STM32H7xx_HAL_Driver/Src/stm32h7xx_hal_exti.c **** @endverbatim
 694:Drivers/STM32H7xx_HAL_Driver/Src/stm32h7xx_hal_exti.c ****   * @{
 695:Drivers/STM32H7xx_HAL_Driver/Src/stm32h7xx_hal_exti.c ****   */
 696:Drivers/STM32H7xx_HAL_Driver/Src/stm32h7xx_hal_exti.c **** 
 697:Drivers/STM32H7xx_HAL_Driver/Src/stm32h7xx_hal_exti.c **** /**
 698:Drivers/STM32H7xx_HAL_Driver/Src/stm32h7xx_hal_exti.c ****   * @brief  Handle EXTI interrupt request.
 699:Drivers/STM32H7xx_HAL_Driver/Src/stm32h7xx_hal_exti.c ****   * @param  hexti Exti handle.
 700:Drivers/STM32H7xx_HAL_Driver/Src/stm32h7xx_hal_exti.c ****   * @retval none.
 701:Drivers/STM32H7xx_HAL_Driver/Src/stm32h7xx_hal_exti.c ****   */
 702:Drivers/STM32H7xx_HAL_Driver/Src/stm32h7xx_hal_exti.c **** void HAL_EXTI_IRQHandler(EXTI_HandleTypeDef *hexti)
 703:Drivers/STM32H7xx_HAL_Driver/Src/stm32h7xx_hal_exti.c **** {
 1104              		.loc 1 703 1 is_stmt 1 view -0
 1105              		.cfi_startproc
 1106              		@ args = 0, pretend = 0, frame = 0
 1107              		@ frame_needed = 0, uses_anonymous_args = 0
 1108              		.loc 1 703 1 is_stmt 0 view .LVU413
 1109 0000 10B5     		push	{r4, lr}
 1110              	.LCFI8:
 1111              		.cfi_def_cfa_offset 8
 1112              		.cfi_offset 4, -8
 1113              		.cfi_offset 14, -4
 704:Drivers/STM32H7xx_HAL_Driver/Src/stm32h7xx_hal_exti.c ****   __IO uint32_t *regaddr;
 1114              		.loc 1 704 3 is_stmt 1 view .LVU414
 705:Drivers/STM32H7xx_HAL_Driver/Src/stm32h7xx_hal_exti.c ****   uint32_t regval;
 1115              		.loc 1 705 3 view .LVU415
 706:Drivers/STM32H7xx_HAL_Driver/Src/stm32h7xx_hal_exti.c ****   uint32_t maskline;
 1116              		.loc 1 706 3 view .LVU416
 707:Drivers/STM32H7xx_HAL_Driver/Src/stm32h7xx_hal_exti.c ****   uint32_t offset;
 1117              		.loc 1 707 3 view .LVU417
 708:Drivers/STM32H7xx_HAL_Driver/Src/stm32h7xx_hal_exti.c **** 
 709:Drivers/STM32H7xx_HAL_Driver/Src/stm32h7xx_hal_exti.c ****   /* Compute line register offset and line mask */
 710:Drivers/STM32H7xx_HAL_Driver/Src/stm32h7xx_hal_exti.c ****   offset = ((hexti->Line & EXTI_REG_MASK) >> EXTI_REG_SHIFT);
 1118              		.loc 1 710 3 view .LVU418
 1119              		.loc 1 710 19 is_stmt 0 view .LVU419
 1120 0002 0368     		ldr	r3, [r0]
 1121              		.loc 1 710 10 view .LVU420
 1122 0004 C3F30142 		ubfx	r2, r3, #16, #2
 1123              	.LVL148:
 711:Drivers/STM32H7xx_HAL_Driver/Src/stm32h7xx_hal_exti.c ****   maskline = (1UL << (hexti->Line & EXTI_PIN_MASK));
 1124              		.loc 1 711 3 is_stmt 1 view .LVU421
 1125              		.loc 1 711 35 is_stmt 0 view .LVU422
 1126 0008 03F01F03 		and	r3, r3, #31
 1127              		.loc 1 711 12 view .LVU423
 1128 000c 0121     		movs	r1, #1
 1129 000e 01FA03F3 		lsl	r3, r1, r3
ARM GAS  /tmp/ccxC147N.s 			page 36


 1130              	.LVL149:
 712:Drivers/STM32H7xx_HAL_Driver/Src/stm32h7xx_hal_exti.c **** 
 713:Drivers/STM32H7xx_HAL_Driver/Src/stm32h7xx_hal_exti.c **** #if defined(DUAL_CORE)
 714:Drivers/STM32H7xx_HAL_Driver/Src/stm32h7xx_hal_exti.c ****   if (HAL_GetCurrentCPUID() == CM7_CPUID)
 715:Drivers/STM32H7xx_HAL_Driver/Src/stm32h7xx_hal_exti.c ****   {
 716:Drivers/STM32H7xx_HAL_Driver/Src/stm32h7xx_hal_exti.c ****     /* Get pending register address */
 717:Drivers/STM32H7xx_HAL_Driver/Src/stm32h7xx_hal_exti.c ****     regaddr = (__IO uint32_t *)(&EXTI->PR1 + (EXTI_MODE_OFFSET * offset));
 718:Drivers/STM32H7xx_HAL_Driver/Src/stm32h7xx_hal_exti.c ****   }
 719:Drivers/STM32H7xx_HAL_Driver/Src/stm32h7xx_hal_exti.c ****   else /* Cortex-M4*/
 720:Drivers/STM32H7xx_HAL_Driver/Src/stm32h7xx_hal_exti.c ****   {
 721:Drivers/STM32H7xx_HAL_Driver/Src/stm32h7xx_hal_exti.c ****     /* Get pending register address */
 722:Drivers/STM32H7xx_HAL_Driver/Src/stm32h7xx_hal_exti.c ****     regaddr = (__IO uint32_t *)(&EXTI->C2PR1 + (EXTI_MODE_OFFSET * offset));
 723:Drivers/STM32H7xx_HAL_Driver/Src/stm32h7xx_hal_exti.c ****   }
 724:Drivers/STM32H7xx_HAL_Driver/Src/stm32h7xx_hal_exti.c **** #else
 725:Drivers/STM32H7xx_HAL_Driver/Src/stm32h7xx_hal_exti.c ****   regaddr = (__IO uint32_t *)(&EXTI->PR1 + (EXTI_MODE_OFFSET * offset));
 1131              		.loc 1 725 3 is_stmt 1 view .LVU424
 1132              		.loc 1 725 13 is_stmt 0 view .LVU425
 1133 0012 1201     		lsls	r2, r2, #4
 1134              	.LVL150:
 1135              		.loc 1 725 11 view .LVU426
 1136 0014 0449     		ldr	r1, .L73
 1137              	.LVL151:
 726:Drivers/STM32H7xx_HAL_Driver/Src/stm32h7xx_hal_exti.c **** #endif /* DUAL_CORE */
 727:Drivers/STM32H7xx_HAL_Driver/Src/stm32h7xx_hal_exti.c **** 
 728:Drivers/STM32H7xx_HAL_Driver/Src/stm32h7xx_hal_exti.c ****   /* Get pending bit  */
 729:Drivers/STM32H7xx_HAL_Driver/Src/stm32h7xx_hal_exti.c ****   regval = (*regaddr & maskline);
 1138              		.loc 1 729 3 is_stmt 1 view .LVU427
 1139              		.loc 1 729 13 is_stmt 0 view .LVU428
 1140 0016 5458     		ldr	r4, [r2, r1]
 1141              	.LVL152:
 730:Drivers/STM32H7xx_HAL_Driver/Src/stm32h7xx_hal_exti.c **** 
 731:Drivers/STM32H7xx_HAL_Driver/Src/stm32h7xx_hal_exti.c ****   if (regval != 0x00U)
 1142              		.loc 1 731 3 is_stmt 1 view .LVU429
 1143              		.loc 1 731 6 is_stmt 0 view .LVU430
 1144 0018 1C42     		tst	r4, r3
 1145 001a 03D0     		beq	.L70
 732:Drivers/STM32H7xx_HAL_Driver/Src/stm32h7xx_hal_exti.c ****   {
 733:Drivers/STM32H7xx_HAL_Driver/Src/stm32h7xx_hal_exti.c ****     /* Clear pending bit */
 734:Drivers/STM32H7xx_HAL_Driver/Src/stm32h7xx_hal_exti.c ****     *regaddr = maskline;
 1146              		.loc 1 734 5 is_stmt 1 view .LVU431
 1147              		.loc 1 734 14 is_stmt 0 view .LVU432
 1148 001c 5350     		str	r3, [r2, r1]
 1149              	.LVL153:
 735:Drivers/STM32H7xx_HAL_Driver/Src/stm32h7xx_hal_exti.c **** 
 736:Drivers/STM32H7xx_HAL_Driver/Src/stm32h7xx_hal_exti.c ****     /* Call callback */
 737:Drivers/STM32H7xx_HAL_Driver/Src/stm32h7xx_hal_exti.c ****     if (hexti->PendingCallback != NULL)
 1150              		.loc 1 737 5 is_stmt 1 view .LVU433
 1151              		.loc 1 737 14 is_stmt 0 view .LVU434
 1152 001e 4368     		ldr	r3, [r0, #4]
 1153              	.LVL154:
 1154              		.loc 1 737 8 view .LVU435
 1155 0020 03B1     		cbz	r3, .L70
 738:Drivers/STM32H7xx_HAL_Driver/Src/stm32h7xx_hal_exti.c ****     {
 739:Drivers/STM32H7xx_HAL_Driver/Src/stm32h7xx_hal_exti.c ****       hexti->PendingCallback();
 1156              		.loc 1 739 7 is_stmt 1 view .LVU436
 1157 0022 9847     		blx	r3
 1158              	.LVL155:
ARM GAS  /tmp/ccxC147N.s 			page 37


 1159              	.L70:
 740:Drivers/STM32H7xx_HAL_Driver/Src/stm32h7xx_hal_exti.c ****     }
 741:Drivers/STM32H7xx_HAL_Driver/Src/stm32h7xx_hal_exti.c ****   }
 742:Drivers/STM32H7xx_HAL_Driver/Src/stm32h7xx_hal_exti.c **** }
 1160              		.loc 1 742 1 is_stmt 0 view .LVU437
 1161 0024 10BD     		pop	{r4, pc}
 1162              	.L74:
 1163              		.loc 1 742 1 view .LVU438
 1164 0026 00BF     		.align	2
 1165              	.L73:
 1166 0028 88000058 		.word	1476395144
 1167              		.cfi_endproc
 1168              	.LFE146:
 1170              		.section	.text.HAL_EXTI_GetPending,"ax",%progbits
 1171              		.align	1
 1172              		.global	HAL_EXTI_GetPending
 1173              		.syntax unified
 1174              		.thumb
 1175              		.thumb_func
 1176              		.fpu fpv5-d16
 1178              	HAL_EXTI_GetPending:
 1179              	.LVL156:
 1180              	.LFB147:
 743:Drivers/STM32H7xx_HAL_Driver/Src/stm32h7xx_hal_exti.c **** 
 744:Drivers/STM32H7xx_HAL_Driver/Src/stm32h7xx_hal_exti.c **** 
 745:Drivers/STM32H7xx_HAL_Driver/Src/stm32h7xx_hal_exti.c **** /**
 746:Drivers/STM32H7xx_HAL_Driver/Src/stm32h7xx_hal_exti.c ****   * @brief  Get interrupt pending bit of a dedicated line.
 747:Drivers/STM32H7xx_HAL_Driver/Src/stm32h7xx_hal_exti.c ****   * @param  hexti Exti handle.
 748:Drivers/STM32H7xx_HAL_Driver/Src/stm32h7xx_hal_exti.c ****   * @param  Edge Specify which pending edge as to be checked.
 749:Drivers/STM32H7xx_HAL_Driver/Src/stm32h7xx_hal_exti.c ****   *         This parameter can be one of the following values:
 750:Drivers/STM32H7xx_HAL_Driver/Src/stm32h7xx_hal_exti.c ****   *           @arg @ref EXTI_TRIGGER_RISING_FALLING
 751:Drivers/STM32H7xx_HAL_Driver/Src/stm32h7xx_hal_exti.c ****   *         This parameter is kept for compatibility with other series.
 752:Drivers/STM32H7xx_HAL_Driver/Src/stm32h7xx_hal_exti.c ****   * @retval 1 if interrupt is pending else 0.
 753:Drivers/STM32H7xx_HAL_Driver/Src/stm32h7xx_hal_exti.c ****   */
 754:Drivers/STM32H7xx_HAL_Driver/Src/stm32h7xx_hal_exti.c **** uint32_t HAL_EXTI_GetPending(EXTI_HandleTypeDef *hexti, uint32_t Edge)
 755:Drivers/STM32H7xx_HAL_Driver/Src/stm32h7xx_hal_exti.c **** {
 1181              		.loc 1 755 1 is_stmt 1 view -0
 1182              		.cfi_startproc
 1183              		@ args = 0, pretend = 0, frame = 0
 1184              		@ frame_needed = 0, uses_anonymous_args = 0
 1185              		@ link register save eliminated.
 756:Drivers/STM32H7xx_HAL_Driver/Src/stm32h7xx_hal_exti.c ****   __IO uint32_t *regaddr;
 1186              		.loc 1 756 3 view .LVU440
 757:Drivers/STM32H7xx_HAL_Driver/Src/stm32h7xx_hal_exti.c ****   uint32_t regval;
 1187              		.loc 1 757 3 view .LVU441
 758:Drivers/STM32H7xx_HAL_Driver/Src/stm32h7xx_hal_exti.c ****   uint32_t linepos;
 1188              		.loc 1 758 3 view .LVU442
 759:Drivers/STM32H7xx_HAL_Driver/Src/stm32h7xx_hal_exti.c ****   uint32_t maskline;
 1189              		.loc 1 759 3 view .LVU443
 760:Drivers/STM32H7xx_HAL_Driver/Src/stm32h7xx_hal_exti.c ****   uint32_t offset;
 1190              		.loc 1 760 3 view .LVU444
 761:Drivers/STM32H7xx_HAL_Driver/Src/stm32h7xx_hal_exti.c **** 
 762:Drivers/STM32H7xx_HAL_Driver/Src/stm32h7xx_hal_exti.c ****   /* Check parameters */
 763:Drivers/STM32H7xx_HAL_Driver/Src/stm32h7xx_hal_exti.c ****   assert_param(IS_EXTI_LINE(hexti->Line));
 1191              		.loc 1 763 3 view .LVU445
 764:Drivers/STM32H7xx_HAL_Driver/Src/stm32h7xx_hal_exti.c ****   assert_param(IS_EXTI_CONFIG_LINE(hexti->Line));
 1192              		.loc 1 764 3 view .LVU446
ARM GAS  /tmp/ccxC147N.s 			page 38


 765:Drivers/STM32H7xx_HAL_Driver/Src/stm32h7xx_hal_exti.c ****   assert_param(IS_EXTI_PENDING_EDGE(Edge));
 1193              		.loc 1 765 3 view .LVU447
 766:Drivers/STM32H7xx_HAL_Driver/Src/stm32h7xx_hal_exti.c **** 
 767:Drivers/STM32H7xx_HAL_Driver/Src/stm32h7xx_hal_exti.c ****   /* compute line register offset and line mask */
 768:Drivers/STM32H7xx_HAL_Driver/Src/stm32h7xx_hal_exti.c ****   offset = ((hexti->Line & EXTI_REG_MASK) >> EXTI_REG_SHIFT);
 1194              		.loc 1 768 3 view .LVU448
 1195              		.loc 1 768 19 is_stmt 0 view .LVU449
 1196 0000 0368     		ldr	r3, [r0]
 1197              		.loc 1 768 10 view .LVU450
 1198 0002 C3F30141 		ubfx	r1, r3, #16, #2
 1199              	.LVL157:
 769:Drivers/STM32H7xx_HAL_Driver/Src/stm32h7xx_hal_exti.c ****   linepos = (hexti->Line & EXTI_PIN_MASK);
 1200              		.loc 1 769 3 is_stmt 1 view .LVU451
 1201              		.loc 1 769 11 is_stmt 0 view .LVU452
 1202 0006 03F01F03 		and	r3, r3, #31
 1203              	.LVL158:
 770:Drivers/STM32H7xx_HAL_Driver/Src/stm32h7xx_hal_exti.c ****   maskline = (1UL << linepos);
 1204              		.loc 1 770 3 is_stmt 1 view .LVU453
 1205              		.loc 1 770 12 is_stmt 0 view .LVU454
 1206 000a 0120     		movs	r0, #1
 1207              	.LVL159:
 1208              		.loc 1 770 12 view .LVU455
 1209 000c 00FA03F2 		lsl	r2, r0, r3
 1210              	.LVL160:
 771:Drivers/STM32H7xx_HAL_Driver/Src/stm32h7xx_hal_exti.c **** 
 772:Drivers/STM32H7xx_HAL_Driver/Src/stm32h7xx_hal_exti.c **** #if defined(DUAL_CORE)
 773:Drivers/STM32H7xx_HAL_Driver/Src/stm32h7xx_hal_exti.c ****   if (HAL_GetCurrentCPUID() == CM7_CPUID)
 774:Drivers/STM32H7xx_HAL_Driver/Src/stm32h7xx_hal_exti.c ****   {
 775:Drivers/STM32H7xx_HAL_Driver/Src/stm32h7xx_hal_exti.c ****     /* Get pending register address */
 776:Drivers/STM32H7xx_HAL_Driver/Src/stm32h7xx_hal_exti.c ****     regaddr = (__IO uint32_t *)(&EXTI->PR1 + (EXTI_MODE_OFFSET * offset));
 777:Drivers/STM32H7xx_HAL_Driver/Src/stm32h7xx_hal_exti.c ****   }
 778:Drivers/STM32H7xx_HAL_Driver/Src/stm32h7xx_hal_exti.c ****   else /* Cortex-M4 */
 779:Drivers/STM32H7xx_HAL_Driver/Src/stm32h7xx_hal_exti.c ****   {
 780:Drivers/STM32H7xx_HAL_Driver/Src/stm32h7xx_hal_exti.c ****     /* Get pending register address */
 781:Drivers/STM32H7xx_HAL_Driver/Src/stm32h7xx_hal_exti.c ****     regaddr = (__IO uint32_t *)(&EXTI->C2PR1 + (EXTI_MODE_OFFSET * offset));
 782:Drivers/STM32H7xx_HAL_Driver/Src/stm32h7xx_hal_exti.c ****   }
 783:Drivers/STM32H7xx_HAL_Driver/Src/stm32h7xx_hal_exti.c **** #else
 784:Drivers/STM32H7xx_HAL_Driver/Src/stm32h7xx_hal_exti.c ****   regaddr = (__IO uint32_t *)(&EXTI->PR1 + (EXTI_MODE_OFFSET * offset));
 1211              		.loc 1 784 3 is_stmt 1 view .LVU456
 1212              		.loc 1 784 13 is_stmt 0 view .LVU457
 1213 0010 0901     		lsls	r1, r1, #4
 1214              	.LVL161:
 1215              		.loc 1 784 11 view .LVU458
 1216 0012 0248     		ldr	r0, .L76
 1217              	.LVL162:
 785:Drivers/STM32H7xx_HAL_Driver/Src/stm32h7xx_hal_exti.c **** #endif /* DUAL_CORE */
 786:Drivers/STM32H7xx_HAL_Driver/Src/stm32h7xx_hal_exti.c **** 
 787:Drivers/STM32H7xx_HAL_Driver/Src/stm32h7xx_hal_exti.c ****   /* return 1 if bit is set else 0 */
 788:Drivers/STM32H7xx_HAL_Driver/Src/stm32h7xx_hal_exti.c ****   regval = ((*regaddr & maskline) >> linepos);
 1218              		.loc 1 788 3 is_stmt 1 view .LVU459
 1219              		.loc 1 788 14 is_stmt 0 view .LVU460
 1220 0014 0858     		ldr	r0, [r1, r0]
 1221              	.LVL163:
 1222              		.loc 1 788 23 view .LVU461
 1223 0016 1040     		ands	r0, r0, r2
 1224              	.LVL164:
 789:Drivers/STM32H7xx_HAL_Driver/Src/stm32h7xx_hal_exti.c ****   return regval;
ARM GAS  /tmp/ccxC147N.s 			page 39


 1225              		.loc 1 789 3 is_stmt 1 view .LVU462
 790:Drivers/STM32H7xx_HAL_Driver/Src/stm32h7xx_hal_exti.c **** }
 1226              		.loc 1 790 1 is_stmt 0 view .LVU463
 1227 0018 D840     		lsrs	r0, r0, r3
 1228              	.LVL165:
 1229              		.loc 1 790 1 view .LVU464
 1230 001a 7047     		bx	lr
 1231              	.L77:
 1232              		.align	2
 1233              	.L76:
 1234 001c 88000058 		.word	1476395144
 1235              		.cfi_endproc
 1236              	.LFE147:
 1238              		.section	.text.HAL_EXTI_ClearPending,"ax",%progbits
 1239              		.align	1
 1240              		.global	HAL_EXTI_ClearPending
 1241              		.syntax unified
 1242              		.thumb
 1243              		.thumb_func
 1244              		.fpu fpv5-d16
 1246              	HAL_EXTI_ClearPending:
 1247              	.LVL166:
 1248              	.LFB148:
 791:Drivers/STM32H7xx_HAL_Driver/Src/stm32h7xx_hal_exti.c **** 
 792:Drivers/STM32H7xx_HAL_Driver/Src/stm32h7xx_hal_exti.c **** 
 793:Drivers/STM32H7xx_HAL_Driver/Src/stm32h7xx_hal_exti.c **** /**
 794:Drivers/STM32H7xx_HAL_Driver/Src/stm32h7xx_hal_exti.c ****   * @brief  Clear interrupt pending bit of a dedicated line.
 795:Drivers/STM32H7xx_HAL_Driver/Src/stm32h7xx_hal_exti.c ****   * @param  hexti Exti handle.
 796:Drivers/STM32H7xx_HAL_Driver/Src/stm32h7xx_hal_exti.c ****   * @param  Edge Specify which pending edge as to be clear.
 797:Drivers/STM32H7xx_HAL_Driver/Src/stm32h7xx_hal_exti.c ****   *         This parameter can be one of the following values:
 798:Drivers/STM32H7xx_HAL_Driver/Src/stm32h7xx_hal_exti.c ****   *           @arg @ref EXTI_TRIGGER_RISING_FALLING
 799:Drivers/STM32H7xx_HAL_Driver/Src/stm32h7xx_hal_exti.c ****   *         This parameter is kept for compatibility with other series.
 800:Drivers/STM32H7xx_HAL_Driver/Src/stm32h7xx_hal_exti.c ****   * @retval None.
 801:Drivers/STM32H7xx_HAL_Driver/Src/stm32h7xx_hal_exti.c ****   */
 802:Drivers/STM32H7xx_HAL_Driver/Src/stm32h7xx_hal_exti.c **** void HAL_EXTI_ClearPending(EXTI_HandleTypeDef *hexti, uint32_t Edge)
 803:Drivers/STM32H7xx_HAL_Driver/Src/stm32h7xx_hal_exti.c **** {
 1249              		.loc 1 803 1 is_stmt 1 view -0
 1250              		.cfi_startproc
 1251              		@ args = 0, pretend = 0, frame = 0
 1252              		@ frame_needed = 0, uses_anonymous_args = 0
 1253              		@ link register save eliminated.
 804:Drivers/STM32H7xx_HAL_Driver/Src/stm32h7xx_hal_exti.c ****   __IO uint32_t *regaddr;
 1254              		.loc 1 804 3 view .LVU466
 805:Drivers/STM32H7xx_HAL_Driver/Src/stm32h7xx_hal_exti.c ****   uint32_t maskline;
 1255              		.loc 1 805 3 view .LVU467
 806:Drivers/STM32H7xx_HAL_Driver/Src/stm32h7xx_hal_exti.c ****   uint32_t offset;
 1256              		.loc 1 806 3 view .LVU468
 807:Drivers/STM32H7xx_HAL_Driver/Src/stm32h7xx_hal_exti.c **** 
 808:Drivers/STM32H7xx_HAL_Driver/Src/stm32h7xx_hal_exti.c ****   /* Check parameters */
 809:Drivers/STM32H7xx_HAL_Driver/Src/stm32h7xx_hal_exti.c ****   assert_param(IS_EXTI_LINE(hexti->Line));
 1257              		.loc 1 809 3 view .LVU469
 810:Drivers/STM32H7xx_HAL_Driver/Src/stm32h7xx_hal_exti.c ****   assert_param(IS_EXTI_CONFIG_LINE(hexti->Line));
 1258              		.loc 1 810 3 view .LVU470
 811:Drivers/STM32H7xx_HAL_Driver/Src/stm32h7xx_hal_exti.c ****   assert_param(IS_EXTI_PENDING_EDGE(Edge));
 1259              		.loc 1 811 3 view .LVU471
 812:Drivers/STM32H7xx_HAL_Driver/Src/stm32h7xx_hal_exti.c **** 
 813:Drivers/STM32H7xx_HAL_Driver/Src/stm32h7xx_hal_exti.c ****   /* compute line register offset and line mask */
ARM GAS  /tmp/ccxC147N.s 			page 40


 814:Drivers/STM32H7xx_HAL_Driver/Src/stm32h7xx_hal_exti.c ****   offset = ((hexti->Line & EXTI_REG_MASK) >> EXTI_REG_SHIFT);
 1260              		.loc 1 814 3 view .LVU472
 1261              		.loc 1 814 19 is_stmt 0 view .LVU473
 1262 0000 0368     		ldr	r3, [r0]
 1263              		.loc 1 814 10 view .LVU474
 1264 0002 C3F30142 		ubfx	r2, r3, #16, #2
 1265              	.LVL167:
 815:Drivers/STM32H7xx_HAL_Driver/Src/stm32h7xx_hal_exti.c ****   maskline = (1UL << (hexti->Line & EXTI_PIN_MASK));
 1266              		.loc 1 815 3 is_stmt 1 view .LVU475
 1267              		.loc 1 815 35 is_stmt 0 view .LVU476
 1268 0006 03F01F03 		and	r3, r3, #31
 1269              		.loc 1 815 12 view .LVU477
 1270 000a 0121     		movs	r1, #1
 1271              	.LVL168:
 1272              		.loc 1 815 12 view .LVU478
 1273 000c 01FA03F3 		lsl	r3, r1, r3
 1274              	.LVL169:
 816:Drivers/STM32H7xx_HAL_Driver/Src/stm32h7xx_hal_exti.c **** 
 817:Drivers/STM32H7xx_HAL_Driver/Src/stm32h7xx_hal_exti.c **** #if defined(DUAL_CORE)
 818:Drivers/STM32H7xx_HAL_Driver/Src/stm32h7xx_hal_exti.c ****   if (HAL_GetCurrentCPUID() == CM7_CPUID)
 819:Drivers/STM32H7xx_HAL_Driver/Src/stm32h7xx_hal_exti.c ****   {
 820:Drivers/STM32H7xx_HAL_Driver/Src/stm32h7xx_hal_exti.c ****     /* Get pending register address */
 821:Drivers/STM32H7xx_HAL_Driver/Src/stm32h7xx_hal_exti.c ****     regaddr = (__IO uint32_t *)(&EXTI->PR1 + (EXTI_MODE_OFFSET * offset));
 822:Drivers/STM32H7xx_HAL_Driver/Src/stm32h7xx_hal_exti.c ****   }
 823:Drivers/STM32H7xx_HAL_Driver/Src/stm32h7xx_hal_exti.c ****   else /* Cortex-M4 */
 824:Drivers/STM32H7xx_HAL_Driver/Src/stm32h7xx_hal_exti.c ****   {
 825:Drivers/STM32H7xx_HAL_Driver/Src/stm32h7xx_hal_exti.c ****     /* Get pending register address */
 826:Drivers/STM32H7xx_HAL_Driver/Src/stm32h7xx_hal_exti.c ****     regaddr = (__IO uint32_t *)(&EXTI->C2PR1 + (EXTI_MODE_OFFSET * offset));
 827:Drivers/STM32H7xx_HAL_Driver/Src/stm32h7xx_hal_exti.c ****   }
 828:Drivers/STM32H7xx_HAL_Driver/Src/stm32h7xx_hal_exti.c **** #else
 829:Drivers/STM32H7xx_HAL_Driver/Src/stm32h7xx_hal_exti.c ****   regaddr = (__IO uint32_t *)(&EXTI->PR1 + (EXTI_MODE_OFFSET * offset));
 1275              		.loc 1 829 3 is_stmt 1 view .LVU479
 1276              		.loc 1 829 13 is_stmt 0 view .LVU480
 1277 0010 1201     		lsls	r2, r2, #4
 1278              	.LVL170:
 1279              		.loc 1 829 11 view .LVU481
 1280 0012 0149     		ldr	r1, .L79
 1281              	.LVL171:
 830:Drivers/STM32H7xx_HAL_Driver/Src/stm32h7xx_hal_exti.c **** #endif /* DUAL_CORE */
 831:Drivers/STM32H7xx_HAL_Driver/Src/stm32h7xx_hal_exti.c **** 
 832:Drivers/STM32H7xx_HAL_Driver/Src/stm32h7xx_hal_exti.c ****   /* Clear Pending bit */
 833:Drivers/STM32H7xx_HAL_Driver/Src/stm32h7xx_hal_exti.c ****   *regaddr =  maskline;
 1282              		.loc 1 833 3 is_stmt 1 view .LVU482
 1283              		.loc 1 833 12 is_stmt 0 view .LVU483
 1284 0014 5350     		str	r3, [r2, r1]
 1285              	.LVL172:
 834:Drivers/STM32H7xx_HAL_Driver/Src/stm32h7xx_hal_exti.c **** }
 1286              		.loc 1 834 1 view .LVU484
 1287 0016 7047     		bx	lr
 1288              	.L80:
 1289              		.align	2
 1290              	.L79:
 1291 0018 88000058 		.word	1476395144
 1292              		.cfi_endproc
 1293              	.LFE148:
 1295              		.section	.text.HAL_EXTI_GenerateSWI,"ax",%progbits
 1296              		.align	1
ARM GAS  /tmp/ccxC147N.s 			page 41


 1297              		.global	HAL_EXTI_GenerateSWI
 1298              		.syntax unified
 1299              		.thumb
 1300              		.thumb_func
 1301              		.fpu fpv5-d16
 1303              	HAL_EXTI_GenerateSWI:
 1304              	.LVL173:
 1305              	.LFB149:
 835:Drivers/STM32H7xx_HAL_Driver/Src/stm32h7xx_hal_exti.c **** 
 836:Drivers/STM32H7xx_HAL_Driver/Src/stm32h7xx_hal_exti.c **** /**
 837:Drivers/STM32H7xx_HAL_Driver/Src/stm32h7xx_hal_exti.c ****   * @brief  Generate a software interrupt for a dedicated line.
 838:Drivers/STM32H7xx_HAL_Driver/Src/stm32h7xx_hal_exti.c ****   * @param  hexti Exti handle.
 839:Drivers/STM32H7xx_HAL_Driver/Src/stm32h7xx_hal_exti.c ****   * @retval None.
 840:Drivers/STM32H7xx_HAL_Driver/Src/stm32h7xx_hal_exti.c ****   */
 841:Drivers/STM32H7xx_HAL_Driver/Src/stm32h7xx_hal_exti.c **** void HAL_EXTI_GenerateSWI(EXTI_HandleTypeDef *hexti)
 842:Drivers/STM32H7xx_HAL_Driver/Src/stm32h7xx_hal_exti.c **** {
 1306              		.loc 1 842 1 is_stmt 1 view -0
 1307              		.cfi_startproc
 1308              		@ args = 0, pretend = 0, frame = 0
 1309              		@ frame_needed = 0, uses_anonymous_args = 0
 1310              		@ link register save eliminated.
 843:Drivers/STM32H7xx_HAL_Driver/Src/stm32h7xx_hal_exti.c ****   __IO uint32_t *regaddr;
 1311              		.loc 1 843 3 view .LVU486
 844:Drivers/STM32H7xx_HAL_Driver/Src/stm32h7xx_hal_exti.c ****   uint32_t maskline;
 1312              		.loc 1 844 3 view .LVU487
 845:Drivers/STM32H7xx_HAL_Driver/Src/stm32h7xx_hal_exti.c ****   uint32_t offset;
 1313              		.loc 1 845 3 view .LVU488
 846:Drivers/STM32H7xx_HAL_Driver/Src/stm32h7xx_hal_exti.c **** 
 847:Drivers/STM32H7xx_HAL_Driver/Src/stm32h7xx_hal_exti.c ****   /* Check parameters */
 848:Drivers/STM32H7xx_HAL_Driver/Src/stm32h7xx_hal_exti.c ****   assert_param(IS_EXTI_LINE(hexti->Line));
 1314              		.loc 1 848 3 view .LVU489
 849:Drivers/STM32H7xx_HAL_Driver/Src/stm32h7xx_hal_exti.c ****   assert_param(IS_EXTI_CONFIG_LINE(hexti->Line));
 1315              		.loc 1 849 3 view .LVU490
 850:Drivers/STM32H7xx_HAL_Driver/Src/stm32h7xx_hal_exti.c **** 
 851:Drivers/STM32H7xx_HAL_Driver/Src/stm32h7xx_hal_exti.c ****   /* compute line register offset and line mask */
 852:Drivers/STM32H7xx_HAL_Driver/Src/stm32h7xx_hal_exti.c ****   offset = ((hexti->Line & EXTI_REG_MASK) >> EXTI_REG_SHIFT);
 1316              		.loc 1 852 3 view .LVU491
 1317              		.loc 1 852 19 is_stmt 0 view .LVU492
 1318 0000 0368     		ldr	r3, [r0]
 1319              		.loc 1 852 10 view .LVU493
 1320 0002 C3F30142 		ubfx	r2, r3, #16, #2
 1321              	.LVL174:
 853:Drivers/STM32H7xx_HAL_Driver/Src/stm32h7xx_hal_exti.c ****   maskline = (1UL << (hexti->Line & EXTI_PIN_MASK));
 1322              		.loc 1 853 3 is_stmt 1 view .LVU494
 1323              		.loc 1 853 35 is_stmt 0 view .LVU495
 1324 0006 03F01F03 		and	r3, r3, #31
 1325              		.loc 1 853 12 view .LVU496
 1326 000a 0121     		movs	r1, #1
 1327 000c 01FA03F3 		lsl	r3, r1, r3
 1328              	.LVL175:
 854:Drivers/STM32H7xx_HAL_Driver/Src/stm32h7xx_hal_exti.c **** 
 855:Drivers/STM32H7xx_HAL_Driver/Src/stm32h7xx_hal_exti.c ****   regaddr = (__IO uint32_t *)(&EXTI->SWIER1 + (EXTI_CONFIG_OFFSET * offset));
 1329              		.loc 1 855 3 is_stmt 1 view .LVU497
 1330              		.loc 1 855 13 is_stmt 0 view .LVU498
 1331 0010 5201     		lsls	r2, r2, #5
 1332              	.LVL176:
 1333              		.loc 1 855 11 view .LVU499
ARM GAS  /tmp/ccxC147N.s 			page 42


 1334 0012 0149     		ldr	r1, .L82
 1335              	.LVL177:
 856:Drivers/STM32H7xx_HAL_Driver/Src/stm32h7xx_hal_exti.c ****   *regaddr = maskline;
 1336              		.loc 1 856 3 is_stmt 1 view .LVU500
 1337              		.loc 1 856 12 is_stmt 0 view .LVU501
 1338 0014 5350     		str	r3, [r2, r1]
 1339              	.LVL178:
 857:Drivers/STM32H7xx_HAL_Driver/Src/stm32h7xx_hal_exti.c **** }
 1340              		.loc 1 857 1 view .LVU502
 1341 0016 7047     		bx	lr
 1342              	.L83:
 1343              		.align	2
 1344              	.L82:
 1345 0018 08000058 		.word	1476395016
 1346              		.cfi_endproc
 1347              	.LFE149:
 1349              		.text
 1350              	.Letext0:
 1351              		.file 2 "/usr/arm-none-eabi/include/machine/_default_types.h"
 1352              		.file 3 "/usr/arm-none-eabi/include/sys/_stdint.h"
 1353              		.file 4 "Drivers/CMSIS/Include/core_cm7.h"
 1354              		.file 5 "Drivers/CMSIS/Device/ST/STM32H7xx/Include/system_stm32h7xx.h"
 1355              		.file 6 "Drivers/CMSIS/Device/ST/STM32H7xx/Include/stm32h743xx.h"
 1356              		.file 7 "/usr/arm-none-eabi/include/sys/lock.h"
 1357              		.file 8 "/usr/arm-none-eabi/include/sys/_types.h"
 1358              		.file 9 "/usr/lib/gcc/arm-none-eabi/9.1.0/include/stddef.h"
 1359              		.file 10 "/usr/arm-none-eabi/include/sys/reent.h"
 1360              		.file 11 "/usr/arm-none-eabi/include/math.h"
 1361              		.file 12 "Drivers/STM32H7xx_HAL_Driver/Inc/stm32h7xx_hal_def.h"
 1362              		.file 13 "Drivers/STM32H7xx_HAL_Driver/Inc/stm32h7xx_hal_exti.h"
 1363              		.file 14 "Drivers/STM32H7xx_HAL_Driver/Inc/stm32h7xx_hal_flash.h"
 1364              		.file 15 "Drivers/STM32H7xx_HAL_Driver/Inc/stm32h7xx_hal.h"
ARM GAS  /tmp/ccxC147N.s 			page 43

