ARM GAS  /tmp/cc7FXRb9.s 			page 1


   1              		.cpu cortex-m7
   2              		.eabi_attribute 28, 1
   3              		.eabi_attribute 20, 1
   4              		.eabi_attribute 21, 1
   5              		.eabi_attribute 23, 3
   6              		.eabi_attribute 24, 1
   7              		.eabi_attribute 25, 1
   8              		.eabi_attribute 26, 1
   9              		.eabi_attribute 30, 1
  10              		.eabi_attribute 34, 1
  11              		.eabi_attribute 18, 4
  12              		.file	"stm32h7xx_hal_msp.c"
  13              		.text
  14              	.Ltext0:
  15              		.cfi_sections	.debug_frame
  16              		.section	.text.HAL_MspInit,"ax",%progbits
  17              		.align	1
  18              		.global	HAL_MspInit
  19              		.arch armv7e-m
  20              		.syntax unified
  21              		.thumb
  22              		.thumb_func
  23              		.fpu fpv5-d16
  25              	HAL_MspInit:
  26              	.LFB141:
  27              		.file 1 "Src/stm32h7xx_hal_msp.c"
   1:Src/stm32h7xx_hal_msp.c **** /* USER CODE BEGIN Header */
   2:Src/stm32h7xx_hal_msp.c **** /**
   3:Src/stm32h7xx_hal_msp.c ****   ******************************************************************************
   4:Src/stm32h7xx_hal_msp.c ****   * File Name          : stm32h7xx_hal_msp.c
   5:Src/stm32h7xx_hal_msp.c ****   * Description        : This file provides code for the MSP Initialization 
   6:Src/stm32h7xx_hal_msp.c ****   *                      and de-Initialization codes.
   7:Src/stm32h7xx_hal_msp.c ****   ******************************************************************************
   8:Src/stm32h7xx_hal_msp.c ****   * @attention
   9:Src/stm32h7xx_hal_msp.c ****   *
  10:Src/stm32h7xx_hal_msp.c ****   * <h2><center>&copy; Copyright (c) 2019 STMicroelectronics.
  11:Src/stm32h7xx_hal_msp.c ****   * All rights reserved.</center></h2>
  12:Src/stm32h7xx_hal_msp.c ****   *
  13:Src/stm32h7xx_hal_msp.c ****   * This software component is licensed by ST under Ultimate Liberty license
  14:Src/stm32h7xx_hal_msp.c ****   * SLA0044, the "License"; You may not use this file except in compliance with
  15:Src/stm32h7xx_hal_msp.c ****   * the License. You may obtain a copy of the License at:
  16:Src/stm32h7xx_hal_msp.c ****   *                             www.st.com/SLA0044
  17:Src/stm32h7xx_hal_msp.c ****   *
  18:Src/stm32h7xx_hal_msp.c ****   ******************************************************************************
  19:Src/stm32h7xx_hal_msp.c ****   */
  20:Src/stm32h7xx_hal_msp.c **** /* USER CODE END Header */
  21:Src/stm32h7xx_hal_msp.c **** 
  22:Src/stm32h7xx_hal_msp.c **** /* Includes ------------------------------------------------------------------*/
  23:Src/stm32h7xx_hal_msp.c **** #include "main.h"
  24:Src/stm32h7xx_hal_msp.c **** /* USER CODE BEGIN Includes */
  25:Src/stm32h7xx_hal_msp.c **** 
  26:Src/stm32h7xx_hal_msp.c **** /* USER CODE END Includes */
  27:Src/stm32h7xx_hal_msp.c **** 
  28:Src/stm32h7xx_hal_msp.c **** /* Private typedef -----------------------------------------------------------*/
  29:Src/stm32h7xx_hal_msp.c **** /* USER CODE BEGIN TD */
  30:Src/stm32h7xx_hal_msp.c **** 
  31:Src/stm32h7xx_hal_msp.c **** /* USER CODE END TD */
ARM GAS  /tmp/cc7FXRb9.s 			page 2


  32:Src/stm32h7xx_hal_msp.c **** 
  33:Src/stm32h7xx_hal_msp.c **** /* Private define ------------------------------------------------------------*/
  34:Src/stm32h7xx_hal_msp.c **** /* USER CODE BEGIN Define */
  35:Src/stm32h7xx_hal_msp.c ****  
  36:Src/stm32h7xx_hal_msp.c **** /* USER CODE END Define */
  37:Src/stm32h7xx_hal_msp.c **** 
  38:Src/stm32h7xx_hal_msp.c **** /* Private macro -------------------------------------------------------------*/
  39:Src/stm32h7xx_hal_msp.c **** /* USER CODE BEGIN Macro */
  40:Src/stm32h7xx_hal_msp.c **** 
  41:Src/stm32h7xx_hal_msp.c **** /* USER CODE END Macro */
  42:Src/stm32h7xx_hal_msp.c **** 
  43:Src/stm32h7xx_hal_msp.c **** /* Private variables ---------------------------------------------------------*/
  44:Src/stm32h7xx_hal_msp.c **** /* USER CODE BEGIN PV */
  45:Src/stm32h7xx_hal_msp.c **** 
  46:Src/stm32h7xx_hal_msp.c **** /* USER CODE END PV */
  47:Src/stm32h7xx_hal_msp.c **** 
  48:Src/stm32h7xx_hal_msp.c **** /* Private function prototypes -----------------------------------------------*/
  49:Src/stm32h7xx_hal_msp.c **** /* USER CODE BEGIN PFP */
  50:Src/stm32h7xx_hal_msp.c **** 
  51:Src/stm32h7xx_hal_msp.c **** /* USER CODE END PFP */
  52:Src/stm32h7xx_hal_msp.c **** 
  53:Src/stm32h7xx_hal_msp.c **** /* External functions --------------------------------------------------------*/
  54:Src/stm32h7xx_hal_msp.c **** /* USER CODE BEGIN ExternalFunctions */
  55:Src/stm32h7xx_hal_msp.c **** 
  56:Src/stm32h7xx_hal_msp.c **** /* USER CODE END ExternalFunctions */
  57:Src/stm32h7xx_hal_msp.c **** 
  58:Src/stm32h7xx_hal_msp.c **** /* USER CODE BEGIN 0 */
  59:Src/stm32h7xx_hal_msp.c **** 
  60:Src/stm32h7xx_hal_msp.c **** /* USER CODE END 0 */
  61:Src/stm32h7xx_hal_msp.c **** /**
  62:Src/stm32h7xx_hal_msp.c ****   * Initializes the Global MSP.
  63:Src/stm32h7xx_hal_msp.c ****   */
  64:Src/stm32h7xx_hal_msp.c **** void HAL_MspInit(void)
  65:Src/stm32h7xx_hal_msp.c **** {
  28              		.loc 1 65 1 view -0
  29              		.cfi_startproc
  30              		@ args = 0, pretend = 0, frame = 8
  31              		@ frame_needed = 0, uses_anonymous_args = 0
  32 0000 00B5     		push	{lr}
  33              	.LCFI0:
  34              		.cfi_def_cfa_offset 4
  35              		.cfi_offset 14, -4
  36 0002 83B0     		sub	sp, sp, #12
  37              	.LCFI1:
  38              		.cfi_def_cfa_offset 16
  66:Src/stm32h7xx_hal_msp.c ****   /* USER CODE BEGIN MspInit 0 */
  67:Src/stm32h7xx_hal_msp.c **** 
  68:Src/stm32h7xx_hal_msp.c ****   /* USER CODE END MspInit 0 */
  69:Src/stm32h7xx_hal_msp.c **** 
  70:Src/stm32h7xx_hal_msp.c ****   __HAL_RCC_SYSCFG_CLK_ENABLE();
  39              		.loc 1 70 3 view .LVU1
  40              	.LBB2:
  41              		.loc 1 70 3 view .LVU2
  42              		.loc 1 70 3 view .LVU3
  43 0004 0A4B     		ldr	r3, .L3
  44 0006 D3F8F420 		ldr	r2, [r3, #244]
  45 000a 42F00202 		orr	r2, r2, #2
ARM GAS  /tmp/cc7FXRb9.s 			page 3


  46 000e C3F8F420 		str	r2, [r3, #244]
  47              		.loc 1 70 3 view .LVU4
  48 0012 D3F8F430 		ldr	r3, [r3, #244]
  49 0016 03F00203 		and	r3, r3, #2
  50 001a 0193     		str	r3, [sp, #4]
  51              		.loc 1 70 3 view .LVU5
  52 001c 019B     		ldr	r3, [sp, #4]
  53              	.LBE2:
  71:Src/stm32h7xx_hal_msp.c **** 
  72:Src/stm32h7xx_hal_msp.c ****   /* System interrupt init*/
  73:Src/stm32h7xx_hal_msp.c ****   /* PendSV_IRQn interrupt configuration */
  74:Src/stm32h7xx_hal_msp.c ****   HAL_NVIC_SetPriority(PendSV_IRQn, 15, 0);
  54              		.loc 1 74 3 view .LVU6
  55 001e 0022     		movs	r2, #0
  56 0020 0F21     		movs	r1, #15
  57 0022 6FF00100 		mvn	r0, #1
  58 0026 FFF7FEFF 		bl	HAL_NVIC_SetPriority
  59              	.LVL0:
  75:Src/stm32h7xx_hal_msp.c **** 
  76:Src/stm32h7xx_hal_msp.c ****   /* USER CODE BEGIN MspInit 1 */
  77:Src/stm32h7xx_hal_msp.c **** 
  78:Src/stm32h7xx_hal_msp.c ****   /* USER CODE END MspInit 1 */
  79:Src/stm32h7xx_hal_msp.c **** }
  60              		.loc 1 79 1 is_stmt 0 view .LVU7
  61 002a 03B0     		add	sp, sp, #12
  62              	.LCFI2:
  63              		.cfi_def_cfa_offset 4
  64              		@ sp needed
  65 002c 5DF804FB 		ldr	pc, [sp], #4
  66              	.L4:
  67              		.align	2
  68              	.L3:
  69 0030 00440258 		.word	1476543488
  70              		.cfi_endproc
  71              	.LFE141:
  73              		.section	.text.HAL_ETH_MspInit,"ax",%progbits
  74              		.align	1
  75              		.global	HAL_ETH_MspInit
  76              		.syntax unified
  77              		.thumb
  78              		.thumb_func
  79              		.fpu fpv5-d16
  81              	HAL_ETH_MspInit:
  82              	.LVL1:
  83              	.LFB142:
  80:Src/stm32h7xx_hal_msp.c **** 
  81:Src/stm32h7xx_hal_msp.c **** /**
  82:Src/stm32h7xx_hal_msp.c **** * @brief ETH MSP Initialization
  83:Src/stm32h7xx_hal_msp.c **** * This function configures the hardware resources used in this example
  84:Src/stm32h7xx_hal_msp.c **** * @param heth: ETH handle pointer
  85:Src/stm32h7xx_hal_msp.c **** * @retval None
  86:Src/stm32h7xx_hal_msp.c **** */
  87:Src/stm32h7xx_hal_msp.c **** void HAL_ETH_MspInit(ETH_HandleTypeDef* heth)
  88:Src/stm32h7xx_hal_msp.c **** {
  84              		.loc 1 88 1 is_stmt 1 view -0
  85              		.cfi_startproc
  86              		@ args = 0, pretend = 0, frame = 48
ARM GAS  /tmp/cc7FXRb9.s 			page 4


  87              		@ frame_needed = 0, uses_anonymous_args = 0
  88              		.loc 1 88 1 is_stmt 0 view .LVU9
  89 0000 70B5     		push	{r4, r5, r6, lr}
  90              	.LCFI3:
  91              		.cfi_def_cfa_offset 16
  92              		.cfi_offset 4, -16
  93              		.cfi_offset 5, -12
  94              		.cfi_offset 6, -8
  95              		.cfi_offset 14, -4
  96 0002 8CB0     		sub	sp, sp, #48
  97              	.LCFI4:
  98              		.cfi_def_cfa_offset 64
  89:Src/stm32h7xx_hal_msp.c ****   GPIO_InitTypeDef GPIO_InitStruct = {0};
  99              		.loc 1 89 3 is_stmt 1 view .LVU10
 100              		.loc 1 89 20 is_stmt 0 view .LVU11
 101 0004 0023     		movs	r3, #0
 102 0006 0793     		str	r3, [sp, #28]
 103 0008 0893     		str	r3, [sp, #32]
 104 000a 0993     		str	r3, [sp, #36]
 105 000c 0A93     		str	r3, [sp, #40]
 106 000e 0B93     		str	r3, [sp, #44]
  90:Src/stm32h7xx_hal_msp.c ****   if(heth->Instance==ETH)
 107              		.loc 1 90 3 is_stmt 1 view .LVU12
 108              		.loc 1 90 10 is_stmt 0 view .LVU13
 109 0010 0268     		ldr	r2, [r0]
 110              		.loc 1 90 5 view .LVU14
 111 0012 434B     		ldr	r3, .L9
 112 0014 9A42     		cmp	r2, r3
 113 0016 01D0     		beq	.L8
 114              	.LVL2:
 115              	.L5:
  91:Src/stm32h7xx_hal_msp.c ****   {
  92:Src/stm32h7xx_hal_msp.c ****   /* USER CODE BEGIN ETH_MspInit 0 */
  93:Src/stm32h7xx_hal_msp.c **** 
  94:Src/stm32h7xx_hal_msp.c ****   /* USER CODE END ETH_MspInit 0 */
  95:Src/stm32h7xx_hal_msp.c ****     /* Peripheral clock enable */
  96:Src/stm32h7xx_hal_msp.c ****     __HAL_RCC_ETH1MAC_CLK_ENABLE();
  97:Src/stm32h7xx_hal_msp.c ****     __HAL_RCC_ETH1TX_CLK_ENABLE();
  98:Src/stm32h7xx_hal_msp.c ****     __HAL_RCC_ETH1RX_CLK_ENABLE();
  99:Src/stm32h7xx_hal_msp.c ****   
 100:Src/stm32h7xx_hal_msp.c ****     __HAL_RCC_GPIOC_CLK_ENABLE();
 101:Src/stm32h7xx_hal_msp.c ****     __HAL_RCC_GPIOA_CLK_ENABLE();
 102:Src/stm32h7xx_hal_msp.c ****     __HAL_RCC_GPIOB_CLK_ENABLE();
 103:Src/stm32h7xx_hal_msp.c ****     __HAL_RCC_GPIOG_CLK_ENABLE();
 104:Src/stm32h7xx_hal_msp.c ****     /**ETH GPIO Configuration    
 105:Src/stm32h7xx_hal_msp.c ****     PC1     ------> ETH_MDC
 106:Src/stm32h7xx_hal_msp.c ****     PA1     ------> ETH_REF_CLK
 107:Src/stm32h7xx_hal_msp.c ****     PA2     ------> ETH_MDIO
 108:Src/stm32h7xx_hal_msp.c ****     PA7     ------> ETH_CRS_DV
 109:Src/stm32h7xx_hal_msp.c ****     PC4     ------> ETH_RXD0
 110:Src/stm32h7xx_hal_msp.c ****     PC5     ------> ETH_RXD1
 111:Src/stm32h7xx_hal_msp.c ****     PB13     ------> ETH_TXD1
 112:Src/stm32h7xx_hal_msp.c ****     PG11     ------> ETH_TX_EN
 113:Src/stm32h7xx_hal_msp.c ****     PG13     ------> ETH_TXD0 
 114:Src/stm32h7xx_hal_msp.c ****     */
 115:Src/stm32h7xx_hal_msp.c ****     GPIO_InitStruct.Pin = GPIO_PIN_1|GPIO_PIN_4|GPIO_PIN_5;
 116:Src/stm32h7xx_hal_msp.c ****     GPIO_InitStruct.Mode = GPIO_MODE_AF_PP;
ARM GAS  /tmp/cc7FXRb9.s 			page 5


 117:Src/stm32h7xx_hal_msp.c ****     GPIO_InitStruct.Pull = GPIO_NOPULL;
 118:Src/stm32h7xx_hal_msp.c ****     GPIO_InitStruct.Speed = GPIO_SPEED_FREQ_LOW;
 119:Src/stm32h7xx_hal_msp.c ****     GPIO_InitStruct.Alternate = GPIO_AF11_ETH;
 120:Src/stm32h7xx_hal_msp.c ****     HAL_GPIO_Init(GPIOC, &GPIO_InitStruct);
 121:Src/stm32h7xx_hal_msp.c **** 
 122:Src/stm32h7xx_hal_msp.c ****     GPIO_InitStruct.Pin = GPIO_PIN_1|GPIO_PIN_2|GPIO_PIN_7;
 123:Src/stm32h7xx_hal_msp.c ****     GPIO_InitStruct.Mode = GPIO_MODE_AF_PP;
 124:Src/stm32h7xx_hal_msp.c ****     GPIO_InitStruct.Pull = GPIO_NOPULL;
 125:Src/stm32h7xx_hal_msp.c ****     GPIO_InitStruct.Speed = GPIO_SPEED_FREQ_LOW;
 126:Src/stm32h7xx_hal_msp.c ****     GPIO_InitStruct.Alternate = GPIO_AF11_ETH;
 127:Src/stm32h7xx_hal_msp.c ****     HAL_GPIO_Init(GPIOA, &GPIO_InitStruct);
 128:Src/stm32h7xx_hal_msp.c **** 
 129:Src/stm32h7xx_hal_msp.c ****     GPIO_InitStruct.Pin = GPIO_PIN_13;
 130:Src/stm32h7xx_hal_msp.c ****     GPIO_InitStruct.Mode = GPIO_MODE_AF_PP;
 131:Src/stm32h7xx_hal_msp.c ****     GPIO_InitStruct.Pull = GPIO_NOPULL;
 132:Src/stm32h7xx_hal_msp.c ****     GPIO_InitStruct.Speed = GPIO_SPEED_FREQ_LOW;
 133:Src/stm32h7xx_hal_msp.c ****     GPIO_InitStruct.Alternate = GPIO_AF11_ETH;
 134:Src/stm32h7xx_hal_msp.c ****     HAL_GPIO_Init(GPIOB, &GPIO_InitStruct);
 135:Src/stm32h7xx_hal_msp.c **** 
 136:Src/stm32h7xx_hal_msp.c ****     GPIO_InitStruct.Pin = GPIO_PIN_11|GPIO_PIN_13;
 137:Src/stm32h7xx_hal_msp.c ****     GPIO_InitStruct.Mode = GPIO_MODE_AF_PP;
 138:Src/stm32h7xx_hal_msp.c ****     GPIO_InitStruct.Pull = GPIO_NOPULL;
 139:Src/stm32h7xx_hal_msp.c ****     GPIO_InitStruct.Speed = GPIO_SPEED_FREQ_LOW;
 140:Src/stm32h7xx_hal_msp.c ****     GPIO_InitStruct.Alternate = GPIO_AF11_ETH;
 141:Src/stm32h7xx_hal_msp.c ****     HAL_GPIO_Init(GPIOG, &GPIO_InitStruct);
 142:Src/stm32h7xx_hal_msp.c **** 
 143:Src/stm32h7xx_hal_msp.c ****   /* USER CODE BEGIN ETH_MspInit 1 */
 144:Src/stm32h7xx_hal_msp.c **** 
 145:Src/stm32h7xx_hal_msp.c ****   /* USER CODE END ETH_MspInit 1 */
 146:Src/stm32h7xx_hal_msp.c ****   }
 147:Src/stm32h7xx_hal_msp.c **** 
 148:Src/stm32h7xx_hal_msp.c **** }
 116              		.loc 1 148 1 view .LVU15
 117 0018 0CB0     		add	sp, sp, #48
 118              	.LCFI5:
 119              		.cfi_remember_state
 120              		.cfi_def_cfa_offset 16
 121              		@ sp needed
 122 001a 70BD     		pop	{r4, r5, r6, pc}
 123              	.LVL3:
 124              	.L8:
 125              	.LCFI6:
 126              		.cfi_restore_state
  96:Src/stm32h7xx_hal_msp.c ****     __HAL_RCC_ETH1TX_CLK_ENABLE();
 127              		.loc 1 96 5 is_stmt 1 view .LVU16
 128              	.LBB3:
  96:Src/stm32h7xx_hal_msp.c ****     __HAL_RCC_ETH1TX_CLK_ENABLE();
 129              		.loc 1 96 5 view .LVU17
  96:Src/stm32h7xx_hal_msp.c ****     __HAL_RCC_ETH1TX_CLK_ENABLE();
 130              		.loc 1 96 5 view .LVU18
 131 001c 414B     		ldr	r3, .L9+4
 132 001e D3F8D820 		ldr	r2, [r3, #216]
 133 0022 42F40042 		orr	r2, r2, #32768
 134 0026 C3F8D820 		str	r2, [r3, #216]
  96:Src/stm32h7xx_hal_msp.c ****     __HAL_RCC_ETH1TX_CLK_ENABLE();
 135              		.loc 1 96 5 view .LVU19
 136 002a D3F8D820 		ldr	r2, [r3, #216]
ARM GAS  /tmp/cc7FXRb9.s 			page 6


 137 002e 02F40042 		and	r2, r2, #32768
 138 0032 0092     		str	r2, [sp]
  96:Src/stm32h7xx_hal_msp.c ****     __HAL_RCC_ETH1TX_CLK_ENABLE();
 139              		.loc 1 96 5 view .LVU20
 140 0034 009A     		ldr	r2, [sp]
 141              	.LBE3:
  97:Src/stm32h7xx_hal_msp.c ****     __HAL_RCC_ETH1RX_CLK_ENABLE();
 142              		.loc 1 97 5 view .LVU21
 143              	.LBB4:
  97:Src/stm32h7xx_hal_msp.c ****     __HAL_RCC_ETH1RX_CLK_ENABLE();
 144              		.loc 1 97 5 view .LVU22
  97:Src/stm32h7xx_hal_msp.c ****     __HAL_RCC_ETH1RX_CLK_ENABLE();
 145              		.loc 1 97 5 view .LVU23
 146 0036 D3F8D820 		ldr	r2, [r3, #216]
 147 003a 42F48032 		orr	r2, r2, #65536
 148 003e C3F8D820 		str	r2, [r3, #216]
  97:Src/stm32h7xx_hal_msp.c ****     __HAL_RCC_ETH1RX_CLK_ENABLE();
 149              		.loc 1 97 5 view .LVU24
 150 0042 D3F8D820 		ldr	r2, [r3, #216]
 151 0046 02F48032 		and	r2, r2, #65536
 152 004a 0192     		str	r2, [sp, #4]
  97:Src/stm32h7xx_hal_msp.c ****     __HAL_RCC_ETH1RX_CLK_ENABLE();
 153              		.loc 1 97 5 view .LVU25
 154 004c 019A     		ldr	r2, [sp, #4]
 155              	.LBE4:
  98:Src/stm32h7xx_hal_msp.c ****   
 156              		.loc 1 98 5 view .LVU26
 157              	.LBB5:
  98:Src/stm32h7xx_hal_msp.c ****   
 158              		.loc 1 98 5 view .LVU27
  98:Src/stm32h7xx_hal_msp.c ****   
 159              		.loc 1 98 5 view .LVU28
 160 004e D3F8D820 		ldr	r2, [r3, #216]
 161 0052 42F40032 		orr	r2, r2, #131072
 162 0056 C3F8D820 		str	r2, [r3, #216]
  98:Src/stm32h7xx_hal_msp.c ****   
 163              		.loc 1 98 5 view .LVU29
 164 005a D3F8D820 		ldr	r2, [r3, #216]
 165 005e 02F40032 		and	r2, r2, #131072
 166 0062 0292     		str	r2, [sp, #8]
  98:Src/stm32h7xx_hal_msp.c ****   
 167              		.loc 1 98 5 view .LVU30
 168 0064 029A     		ldr	r2, [sp, #8]
 169              	.LBE5:
 100:Src/stm32h7xx_hal_msp.c ****     __HAL_RCC_GPIOA_CLK_ENABLE();
 170              		.loc 1 100 5 view .LVU31
 171              	.LBB6:
 100:Src/stm32h7xx_hal_msp.c ****     __HAL_RCC_GPIOA_CLK_ENABLE();
 172              		.loc 1 100 5 view .LVU32
 100:Src/stm32h7xx_hal_msp.c ****     __HAL_RCC_GPIOA_CLK_ENABLE();
 173              		.loc 1 100 5 view .LVU33
 174 0066 D3F8E020 		ldr	r2, [r3, #224]
 175 006a 42F00402 		orr	r2, r2, #4
 176 006e C3F8E020 		str	r2, [r3, #224]
 100:Src/stm32h7xx_hal_msp.c ****     __HAL_RCC_GPIOA_CLK_ENABLE();
 177              		.loc 1 100 5 view .LVU34
 178 0072 D3F8E020 		ldr	r2, [r3, #224]
ARM GAS  /tmp/cc7FXRb9.s 			page 7


 179 0076 02F00402 		and	r2, r2, #4
 180 007a 0392     		str	r2, [sp, #12]
 100:Src/stm32h7xx_hal_msp.c ****     __HAL_RCC_GPIOA_CLK_ENABLE();
 181              		.loc 1 100 5 view .LVU35
 182 007c 039A     		ldr	r2, [sp, #12]
 183              	.LBE6:
 101:Src/stm32h7xx_hal_msp.c ****     __HAL_RCC_GPIOB_CLK_ENABLE();
 184              		.loc 1 101 5 view .LVU36
 185              	.LBB7:
 101:Src/stm32h7xx_hal_msp.c ****     __HAL_RCC_GPIOB_CLK_ENABLE();
 186              		.loc 1 101 5 view .LVU37
 101:Src/stm32h7xx_hal_msp.c ****     __HAL_RCC_GPIOB_CLK_ENABLE();
 187              		.loc 1 101 5 view .LVU38
 188 007e D3F8E020 		ldr	r2, [r3, #224]
 189 0082 42F00102 		orr	r2, r2, #1
 190 0086 C3F8E020 		str	r2, [r3, #224]
 101:Src/stm32h7xx_hal_msp.c ****     __HAL_RCC_GPIOB_CLK_ENABLE();
 191              		.loc 1 101 5 view .LVU39
 192 008a D3F8E020 		ldr	r2, [r3, #224]
 193 008e 02F00102 		and	r2, r2, #1
 194 0092 0492     		str	r2, [sp, #16]
 101:Src/stm32h7xx_hal_msp.c ****     __HAL_RCC_GPIOB_CLK_ENABLE();
 195              		.loc 1 101 5 view .LVU40
 196 0094 049A     		ldr	r2, [sp, #16]
 197              	.LBE7:
 102:Src/stm32h7xx_hal_msp.c ****     __HAL_RCC_GPIOG_CLK_ENABLE();
 198              		.loc 1 102 5 view .LVU41
 199              	.LBB8:
 102:Src/stm32h7xx_hal_msp.c ****     __HAL_RCC_GPIOG_CLK_ENABLE();
 200              		.loc 1 102 5 view .LVU42
 102:Src/stm32h7xx_hal_msp.c ****     __HAL_RCC_GPIOG_CLK_ENABLE();
 201              		.loc 1 102 5 view .LVU43
 202 0096 D3F8E020 		ldr	r2, [r3, #224]
 203 009a 42F00202 		orr	r2, r2, #2
 204 009e C3F8E020 		str	r2, [r3, #224]
 102:Src/stm32h7xx_hal_msp.c ****     __HAL_RCC_GPIOG_CLK_ENABLE();
 205              		.loc 1 102 5 view .LVU44
 206 00a2 D3F8E020 		ldr	r2, [r3, #224]
 207 00a6 02F00202 		and	r2, r2, #2
 208 00aa 0592     		str	r2, [sp, #20]
 102:Src/stm32h7xx_hal_msp.c ****     __HAL_RCC_GPIOG_CLK_ENABLE();
 209              		.loc 1 102 5 view .LVU45
 210 00ac 059A     		ldr	r2, [sp, #20]
 211              	.LBE8:
 103:Src/stm32h7xx_hal_msp.c ****     /**ETH GPIO Configuration    
 212              		.loc 1 103 5 view .LVU46
 213              	.LBB9:
 103:Src/stm32h7xx_hal_msp.c ****     /**ETH GPIO Configuration    
 214              		.loc 1 103 5 view .LVU47
 103:Src/stm32h7xx_hal_msp.c ****     /**ETH GPIO Configuration    
 215              		.loc 1 103 5 view .LVU48
 216 00ae D3F8E020 		ldr	r2, [r3, #224]
 217 00b2 42F04002 		orr	r2, r2, #64
 218 00b6 C3F8E020 		str	r2, [r3, #224]
 103:Src/stm32h7xx_hal_msp.c ****     /**ETH GPIO Configuration    
 219              		.loc 1 103 5 view .LVU49
 220 00ba D3F8E030 		ldr	r3, [r3, #224]
ARM GAS  /tmp/cc7FXRb9.s 			page 8


 221 00be 03F04003 		and	r3, r3, #64
 222 00c2 0693     		str	r3, [sp, #24]
 103:Src/stm32h7xx_hal_msp.c ****     /**ETH GPIO Configuration    
 223              		.loc 1 103 5 view .LVU50
 224 00c4 069B     		ldr	r3, [sp, #24]
 225              	.LBE9:
 115:Src/stm32h7xx_hal_msp.c ****     GPIO_InitStruct.Mode = GPIO_MODE_AF_PP;
 226              		.loc 1 115 5 view .LVU51
 115:Src/stm32h7xx_hal_msp.c ****     GPIO_InitStruct.Mode = GPIO_MODE_AF_PP;
 227              		.loc 1 115 25 is_stmt 0 view .LVU52
 228 00c6 3223     		movs	r3, #50
 229 00c8 0793     		str	r3, [sp, #28]
 116:Src/stm32h7xx_hal_msp.c ****     GPIO_InitStruct.Pull = GPIO_NOPULL;
 230              		.loc 1 116 5 is_stmt 1 view .LVU53
 116:Src/stm32h7xx_hal_msp.c ****     GPIO_InitStruct.Pull = GPIO_NOPULL;
 231              		.loc 1 116 26 is_stmt 0 view .LVU54
 232 00ca 0226     		movs	r6, #2
 233 00cc 0896     		str	r6, [sp, #32]
 117:Src/stm32h7xx_hal_msp.c ****     GPIO_InitStruct.Speed = GPIO_SPEED_FREQ_LOW;
 234              		.loc 1 117 5 is_stmt 1 view .LVU55
 118:Src/stm32h7xx_hal_msp.c ****     GPIO_InitStruct.Alternate = GPIO_AF11_ETH;
 235              		.loc 1 118 5 view .LVU56
 119:Src/stm32h7xx_hal_msp.c ****     HAL_GPIO_Init(GPIOC, &GPIO_InitStruct);
 236              		.loc 1 119 5 view .LVU57
 119:Src/stm32h7xx_hal_msp.c ****     HAL_GPIO_Init(GPIOC, &GPIO_InitStruct);
 237              		.loc 1 119 31 is_stmt 0 view .LVU58
 238 00ce 0B25     		movs	r5, #11
 239 00d0 0B95     		str	r5, [sp, #44]
 120:Src/stm32h7xx_hal_msp.c **** 
 240              		.loc 1 120 5 is_stmt 1 view .LVU59
 241 00d2 07A9     		add	r1, sp, #28
 242 00d4 1448     		ldr	r0, .L9+8
 243              	.LVL4:
 120:Src/stm32h7xx_hal_msp.c **** 
 244              		.loc 1 120 5 is_stmt 0 view .LVU60
 245 00d6 FFF7FEFF 		bl	HAL_GPIO_Init
 246              	.LVL5:
 122:Src/stm32h7xx_hal_msp.c ****     GPIO_InitStruct.Mode = GPIO_MODE_AF_PP;
 247              		.loc 1 122 5 is_stmt 1 view .LVU61
 122:Src/stm32h7xx_hal_msp.c ****     GPIO_InitStruct.Mode = GPIO_MODE_AF_PP;
 248              		.loc 1 122 25 is_stmt 0 view .LVU62
 249 00da 8623     		movs	r3, #134
 250 00dc 0793     		str	r3, [sp, #28]
 123:Src/stm32h7xx_hal_msp.c ****     GPIO_InitStruct.Pull = GPIO_NOPULL;
 251              		.loc 1 123 5 is_stmt 1 view .LVU63
 123:Src/stm32h7xx_hal_msp.c ****     GPIO_InitStruct.Pull = GPIO_NOPULL;
 252              		.loc 1 123 26 is_stmt 0 view .LVU64
 253 00de 0896     		str	r6, [sp, #32]
 124:Src/stm32h7xx_hal_msp.c ****     GPIO_InitStruct.Speed = GPIO_SPEED_FREQ_LOW;
 254              		.loc 1 124 5 is_stmt 1 view .LVU65
 124:Src/stm32h7xx_hal_msp.c ****     GPIO_InitStruct.Speed = GPIO_SPEED_FREQ_LOW;
 255              		.loc 1 124 26 is_stmt 0 view .LVU66
 256 00e0 0024     		movs	r4, #0
 257 00e2 0994     		str	r4, [sp, #36]
 125:Src/stm32h7xx_hal_msp.c ****     GPIO_InitStruct.Alternate = GPIO_AF11_ETH;
 258              		.loc 1 125 5 is_stmt 1 view .LVU67
 125:Src/stm32h7xx_hal_msp.c ****     GPIO_InitStruct.Alternate = GPIO_AF11_ETH;
ARM GAS  /tmp/cc7FXRb9.s 			page 9


 259              		.loc 1 125 27 is_stmt 0 view .LVU68
 260 00e4 0A94     		str	r4, [sp, #40]
 126:Src/stm32h7xx_hal_msp.c ****     HAL_GPIO_Init(GPIOA, &GPIO_InitStruct);
 261              		.loc 1 126 5 is_stmt 1 view .LVU69
 126:Src/stm32h7xx_hal_msp.c ****     HAL_GPIO_Init(GPIOA, &GPIO_InitStruct);
 262              		.loc 1 126 31 is_stmt 0 view .LVU70
 263 00e6 0B95     		str	r5, [sp, #44]
 127:Src/stm32h7xx_hal_msp.c **** 
 264              		.loc 1 127 5 is_stmt 1 view .LVU71
 265 00e8 07A9     		add	r1, sp, #28
 266 00ea 1048     		ldr	r0, .L9+12
 267 00ec FFF7FEFF 		bl	HAL_GPIO_Init
 268              	.LVL6:
 129:Src/stm32h7xx_hal_msp.c ****     GPIO_InitStruct.Mode = GPIO_MODE_AF_PP;
 269              		.loc 1 129 5 view .LVU72
 129:Src/stm32h7xx_hal_msp.c ****     GPIO_InitStruct.Mode = GPIO_MODE_AF_PP;
 270              		.loc 1 129 25 is_stmt 0 view .LVU73
 271 00f0 4FF40053 		mov	r3, #8192
 272 00f4 0793     		str	r3, [sp, #28]
 130:Src/stm32h7xx_hal_msp.c ****     GPIO_InitStruct.Pull = GPIO_NOPULL;
 273              		.loc 1 130 5 is_stmt 1 view .LVU74
 130:Src/stm32h7xx_hal_msp.c ****     GPIO_InitStruct.Pull = GPIO_NOPULL;
 274              		.loc 1 130 26 is_stmt 0 view .LVU75
 275 00f6 0896     		str	r6, [sp, #32]
 131:Src/stm32h7xx_hal_msp.c ****     GPIO_InitStruct.Speed = GPIO_SPEED_FREQ_LOW;
 276              		.loc 1 131 5 is_stmt 1 view .LVU76
 131:Src/stm32h7xx_hal_msp.c ****     GPIO_InitStruct.Speed = GPIO_SPEED_FREQ_LOW;
 277              		.loc 1 131 26 is_stmt 0 view .LVU77
 278 00f8 0994     		str	r4, [sp, #36]
 132:Src/stm32h7xx_hal_msp.c ****     GPIO_InitStruct.Alternate = GPIO_AF11_ETH;
 279              		.loc 1 132 5 is_stmt 1 view .LVU78
 132:Src/stm32h7xx_hal_msp.c ****     GPIO_InitStruct.Alternate = GPIO_AF11_ETH;
 280              		.loc 1 132 27 is_stmt 0 view .LVU79
 281 00fa 0A94     		str	r4, [sp, #40]
 133:Src/stm32h7xx_hal_msp.c ****     HAL_GPIO_Init(GPIOB, &GPIO_InitStruct);
 282              		.loc 1 133 5 is_stmt 1 view .LVU80
 133:Src/stm32h7xx_hal_msp.c ****     HAL_GPIO_Init(GPIOB, &GPIO_InitStruct);
 283              		.loc 1 133 31 is_stmt 0 view .LVU81
 284 00fc 0B95     		str	r5, [sp, #44]
 134:Src/stm32h7xx_hal_msp.c **** 
 285              		.loc 1 134 5 is_stmt 1 view .LVU82
 286 00fe 07A9     		add	r1, sp, #28
 287 0100 0B48     		ldr	r0, .L9+16
 288 0102 FFF7FEFF 		bl	HAL_GPIO_Init
 289              	.LVL7:
 136:Src/stm32h7xx_hal_msp.c ****     GPIO_InitStruct.Mode = GPIO_MODE_AF_PP;
 290              		.loc 1 136 5 view .LVU83
 136:Src/stm32h7xx_hal_msp.c ****     GPIO_InitStruct.Mode = GPIO_MODE_AF_PP;
 291              		.loc 1 136 25 is_stmt 0 view .LVU84
 292 0106 4FF42053 		mov	r3, #10240
 293 010a 0793     		str	r3, [sp, #28]
 137:Src/stm32h7xx_hal_msp.c ****     GPIO_InitStruct.Pull = GPIO_NOPULL;
 294              		.loc 1 137 5 is_stmt 1 view .LVU85
 137:Src/stm32h7xx_hal_msp.c ****     GPIO_InitStruct.Pull = GPIO_NOPULL;
 295              		.loc 1 137 26 is_stmt 0 view .LVU86
 296 010c 0896     		str	r6, [sp, #32]
 138:Src/stm32h7xx_hal_msp.c ****     GPIO_InitStruct.Speed = GPIO_SPEED_FREQ_LOW;
ARM GAS  /tmp/cc7FXRb9.s 			page 10


 297              		.loc 1 138 5 is_stmt 1 view .LVU87
 138:Src/stm32h7xx_hal_msp.c ****     GPIO_InitStruct.Speed = GPIO_SPEED_FREQ_LOW;
 298              		.loc 1 138 26 is_stmt 0 view .LVU88
 299 010e 0994     		str	r4, [sp, #36]
 139:Src/stm32h7xx_hal_msp.c ****     GPIO_InitStruct.Alternate = GPIO_AF11_ETH;
 300              		.loc 1 139 5 is_stmt 1 view .LVU89
 139:Src/stm32h7xx_hal_msp.c ****     GPIO_InitStruct.Alternate = GPIO_AF11_ETH;
 301              		.loc 1 139 27 is_stmt 0 view .LVU90
 302 0110 0A94     		str	r4, [sp, #40]
 140:Src/stm32h7xx_hal_msp.c ****     HAL_GPIO_Init(GPIOG, &GPIO_InitStruct);
 303              		.loc 1 140 5 is_stmt 1 view .LVU91
 140:Src/stm32h7xx_hal_msp.c ****     HAL_GPIO_Init(GPIOG, &GPIO_InitStruct);
 304              		.loc 1 140 31 is_stmt 0 view .LVU92
 305 0112 0B95     		str	r5, [sp, #44]
 141:Src/stm32h7xx_hal_msp.c **** 
 306              		.loc 1 141 5 is_stmt 1 view .LVU93
 307 0114 07A9     		add	r1, sp, #28
 308 0116 0748     		ldr	r0, .L9+20
 309 0118 FFF7FEFF 		bl	HAL_GPIO_Init
 310              	.LVL8:
 311              		.loc 1 148 1 is_stmt 0 view .LVU94
 312 011c 7CE7     		b	.L5
 313              	.L10:
 314 011e 00BF     		.align	2
 315              	.L9:
 316 0120 00800240 		.word	1073905664
 317 0124 00440258 		.word	1476543488
 318 0128 00080258 		.word	1476528128
 319 012c 00000258 		.word	1476526080
 320 0130 00040258 		.word	1476527104
 321 0134 00180258 		.word	1476532224
 322              		.cfi_endproc
 323              	.LFE142:
 325              		.section	.text.HAL_ETH_MspDeInit,"ax",%progbits
 326              		.align	1
 327              		.global	HAL_ETH_MspDeInit
 328              		.syntax unified
 329              		.thumb
 330              		.thumb_func
 331              		.fpu fpv5-d16
 333              	HAL_ETH_MspDeInit:
 334              	.LVL9:
 335              	.LFB143:
 149:Src/stm32h7xx_hal_msp.c **** 
 150:Src/stm32h7xx_hal_msp.c **** /**
 151:Src/stm32h7xx_hal_msp.c **** * @brief ETH MSP De-Initialization
 152:Src/stm32h7xx_hal_msp.c **** * This function freeze the hardware resources used in this example
 153:Src/stm32h7xx_hal_msp.c **** * @param heth: ETH handle pointer
 154:Src/stm32h7xx_hal_msp.c **** * @retval None
 155:Src/stm32h7xx_hal_msp.c **** */
 156:Src/stm32h7xx_hal_msp.c **** void HAL_ETH_MspDeInit(ETH_HandleTypeDef* heth)
 157:Src/stm32h7xx_hal_msp.c **** {
 336              		.loc 1 157 1 is_stmt 1 view -0
 337              		.cfi_startproc
 338              		@ args = 0, pretend = 0, frame = 0
 339              		@ frame_needed = 0, uses_anonymous_args = 0
 340              		.loc 1 157 1 is_stmt 0 view .LVU96
ARM GAS  /tmp/cc7FXRb9.s 			page 11


 341 0000 08B5     		push	{r3, lr}
 342              	.LCFI7:
 343              		.cfi_def_cfa_offset 8
 344              		.cfi_offset 3, -8
 345              		.cfi_offset 14, -4
 158:Src/stm32h7xx_hal_msp.c ****   if(heth->Instance==ETH)
 346              		.loc 1 158 3 is_stmt 1 view .LVU97
 347              		.loc 1 158 10 is_stmt 0 view .LVU98
 348 0002 0268     		ldr	r2, [r0]
 349              		.loc 1 158 5 view .LVU99
 350 0004 144B     		ldr	r3, .L15
 351 0006 9A42     		cmp	r2, r3
 352 0008 00D0     		beq	.L14
 353              	.LVL10:
 354              	.L11:
 159:Src/stm32h7xx_hal_msp.c ****   {
 160:Src/stm32h7xx_hal_msp.c ****   /* USER CODE BEGIN ETH_MspDeInit 0 */
 161:Src/stm32h7xx_hal_msp.c **** 
 162:Src/stm32h7xx_hal_msp.c ****   /* USER CODE END ETH_MspDeInit 0 */
 163:Src/stm32h7xx_hal_msp.c ****     /* Peripheral clock disable */
 164:Src/stm32h7xx_hal_msp.c ****     __HAL_RCC_ETH1MAC_CLK_DISABLE();
 165:Src/stm32h7xx_hal_msp.c ****     __HAL_RCC_ETH1TX_CLK_DISABLE();
 166:Src/stm32h7xx_hal_msp.c ****     __HAL_RCC_ETH1RX_CLK_DISABLE();
 167:Src/stm32h7xx_hal_msp.c ****   
 168:Src/stm32h7xx_hal_msp.c ****     /**ETH GPIO Configuration    
 169:Src/stm32h7xx_hal_msp.c ****     PC1     ------> ETH_MDC
 170:Src/stm32h7xx_hal_msp.c ****     PA1     ------> ETH_REF_CLK
 171:Src/stm32h7xx_hal_msp.c ****     PA2     ------> ETH_MDIO
 172:Src/stm32h7xx_hal_msp.c ****     PA7     ------> ETH_CRS_DV
 173:Src/stm32h7xx_hal_msp.c ****     PC4     ------> ETH_RXD0
 174:Src/stm32h7xx_hal_msp.c ****     PC5     ------> ETH_RXD1
 175:Src/stm32h7xx_hal_msp.c ****     PB13     ------> ETH_TXD1
 176:Src/stm32h7xx_hal_msp.c ****     PG11     ------> ETH_TX_EN
 177:Src/stm32h7xx_hal_msp.c ****     PG13     ------> ETH_TXD0 
 178:Src/stm32h7xx_hal_msp.c ****     */
 179:Src/stm32h7xx_hal_msp.c ****     HAL_GPIO_DeInit(GPIOC, GPIO_PIN_1|GPIO_PIN_4|GPIO_PIN_5);
 180:Src/stm32h7xx_hal_msp.c **** 
 181:Src/stm32h7xx_hal_msp.c ****     HAL_GPIO_DeInit(GPIOA, GPIO_PIN_1|GPIO_PIN_2|GPIO_PIN_7);
 182:Src/stm32h7xx_hal_msp.c **** 
 183:Src/stm32h7xx_hal_msp.c ****     HAL_GPIO_DeInit(GPIOB, GPIO_PIN_13);
 184:Src/stm32h7xx_hal_msp.c **** 
 185:Src/stm32h7xx_hal_msp.c ****     HAL_GPIO_DeInit(GPIOG, GPIO_PIN_11|GPIO_PIN_13);
 186:Src/stm32h7xx_hal_msp.c **** 
 187:Src/stm32h7xx_hal_msp.c ****   /* USER CODE BEGIN ETH_MspDeInit 1 */
 188:Src/stm32h7xx_hal_msp.c **** 
 189:Src/stm32h7xx_hal_msp.c ****   /* USER CODE END ETH_MspDeInit 1 */
 190:Src/stm32h7xx_hal_msp.c ****   }
 191:Src/stm32h7xx_hal_msp.c **** 
 192:Src/stm32h7xx_hal_msp.c **** }
 355              		.loc 1 192 1 view .LVU100
 356 000a 08BD     		pop	{r3, pc}
 357              	.LVL11:
 358              	.L14:
 164:Src/stm32h7xx_hal_msp.c ****     __HAL_RCC_ETH1TX_CLK_DISABLE();
 359              		.loc 1 164 5 is_stmt 1 view .LVU101
 360 000c 134B     		ldr	r3, .L15+4
 361 000e D3F8D820 		ldr	r2, [r3, #216]
ARM GAS  /tmp/cc7FXRb9.s 			page 12


 362 0012 22F40042 		bic	r2, r2, #32768
 363 0016 C3F8D820 		str	r2, [r3, #216]
 165:Src/stm32h7xx_hal_msp.c ****     __HAL_RCC_ETH1RX_CLK_DISABLE();
 364              		.loc 1 165 5 view .LVU102
 365 001a D3F8D820 		ldr	r2, [r3, #216]
 366 001e 22F48032 		bic	r2, r2, #65536
 367 0022 C3F8D820 		str	r2, [r3, #216]
 166:Src/stm32h7xx_hal_msp.c ****   
 368              		.loc 1 166 5 view .LVU103
 369 0026 D3F8D820 		ldr	r2, [r3, #216]
 370 002a 22F40032 		bic	r2, r2, #131072
 371 002e C3F8D820 		str	r2, [r3, #216]
 179:Src/stm32h7xx_hal_msp.c **** 
 372              		.loc 1 179 5 view .LVU104
 373 0032 3221     		movs	r1, #50
 374 0034 0A48     		ldr	r0, .L15+8
 375              	.LVL12:
 179:Src/stm32h7xx_hal_msp.c **** 
 376              		.loc 1 179 5 is_stmt 0 view .LVU105
 377 0036 FFF7FEFF 		bl	HAL_GPIO_DeInit
 378              	.LVL13:
 181:Src/stm32h7xx_hal_msp.c **** 
 379              		.loc 1 181 5 is_stmt 1 view .LVU106
 380 003a 8621     		movs	r1, #134
 381 003c 0948     		ldr	r0, .L15+12
 382 003e FFF7FEFF 		bl	HAL_GPIO_DeInit
 383              	.LVL14:
 183:Src/stm32h7xx_hal_msp.c **** 
 384              		.loc 1 183 5 view .LVU107
 385 0042 4FF40051 		mov	r1, #8192
 386 0046 0848     		ldr	r0, .L15+16
 387 0048 FFF7FEFF 		bl	HAL_GPIO_DeInit
 388              	.LVL15:
 185:Src/stm32h7xx_hal_msp.c **** 
 389              		.loc 1 185 5 view .LVU108
 390 004c 4FF42051 		mov	r1, #10240
 391 0050 0648     		ldr	r0, .L15+20
 392 0052 FFF7FEFF 		bl	HAL_GPIO_DeInit
 393              	.LVL16:
 394              		.loc 1 192 1 is_stmt 0 view .LVU109
 395 0056 D8E7     		b	.L11
 396              	.L16:
 397              		.align	2
 398              	.L15:
 399 0058 00800240 		.word	1073905664
 400 005c 00440258 		.word	1476543488
 401 0060 00080258 		.word	1476528128
 402 0064 00000258 		.word	1476526080
 403 0068 00040258 		.word	1476527104
 404 006c 00180258 		.word	1476532224
 405              		.cfi_endproc
 406              	.LFE143:
 408              		.section	.text.HAL_UART_MspInit,"ax",%progbits
 409              		.align	1
 410              		.global	HAL_UART_MspInit
 411              		.syntax unified
 412              		.thumb
ARM GAS  /tmp/cc7FXRb9.s 			page 13


 413              		.thumb_func
 414              		.fpu fpv5-d16
 416              	HAL_UART_MspInit:
 417              	.LVL17:
 418              	.LFB144:
 193:Src/stm32h7xx_hal_msp.c **** 
 194:Src/stm32h7xx_hal_msp.c **** /**
 195:Src/stm32h7xx_hal_msp.c **** * @brief UART MSP Initialization
 196:Src/stm32h7xx_hal_msp.c **** * This function configures the hardware resources used in this example
 197:Src/stm32h7xx_hal_msp.c **** * @param huart: UART handle pointer
 198:Src/stm32h7xx_hal_msp.c **** * @retval None
 199:Src/stm32h7xx_hal_msp.c **** */
 200:Src/stm32h7xx_hal_msp.c **** void HAL_UART_MspInit(UART_HandleTypeDef* huart)
 201:Src/stm32h7xx_hal_msp.c **** {
 419              		.loc 1 201 1 is_stmt 1 view -0
 420              		.cfi_startproc
 421              		@ args = 0, pretend = 0, frame = 32
 422              		@ frame_needed = 0, uses_anonymous_args = 0
 423              		.loc 1 201 1 is_stmt 0 view .LVU111
 424 0000 00B5     		push	{lr}
 425              	.LCFI8:
 426              		.cfi_def_cfa_offset 4
 427              		.cfi_offset 14, -4
 428 0002 89B0     		sub	sp, sp, #36
 429              	.LCFI9:
 430              		.cfi_def_cfa_offset 40
 202:Src/stm32h7xx_hal_msp.c ****   GPIO_InitTypeDef GPIO_InitStruct = {0};
 431              		.loc 1 202 3 is_stmt 1 view .LVU112
 432              		.loc 1 202 20 is_stmt 0 view .LVU113
 433 0004 0023     		movs	r3, #0
 434 0006 0393     		str	r3, [sp, #12]
 435 0008 0493     		str	r3, [sp, #16]
 436 000a 0593     		str	r3, [sp, #20]
 437 000c 0693     		str	r3, [sp, #24]
 438 000e 0793     		str	r3, [sp, #28]
 203:Src/stm32h7xx_hal_msp.c ****   if(huart->Instance==USART3)
 439              		.loc 1 203 3 is_stmt 1 view .LVU114
 440              		.loc 1 203 11 is_stmt 0 view .LVU115
 441 0010 0268     		ldr	r2, [r0]
 442              		.loc 1 203 5 view .LVU116
 443 0012 154B     		ldr	r3, .L21
 444 0014 9A42     		cmp	r2, r3
 445 0016 02D0     		beq	.L20
 446              	.LVL18:
 447              	.L17:
 204:Src/stm32h7xx_hal_msp.c ****   {
 205:Src/stm32h7xx_hal_msp.c ****   /* USER CODE BEGIN USART3_MspInit 0 */
 206:Src/stm32h7xx_hal_msp.c **** 
 207:Src/stm32h7xx_hal_msp.c ****   /* USER CODE END USART3_MspInit 0 */
 208:Src/stm32h7xx_hal_msp.c ****     /* Peripheral clock enable */
 209:Src/stm32h7xx_hal_msp.c ****     __HAL_RCC_USART3_CLK_ENABLE();
 210:Src/stm32h7xx_hal_msp.c ****   
 211:Src/stm32h7xx_hal_msp.c ****     __HAL_RCC_GPIOD_CLK_ENABLE();
 212:Src/stm32h7xx_hal_msp.c ****     /**USART3 GPIO Configuration    
 213:Src/stm32h7xx_hal_msp.c ****     PD8     ------> USART3_TX
 214:Src/stm32h7xx_hal_msp.c ****     PD9     ------> USART3_RX 
 215:Src/stm32h7xx_hal_msp.c ****     */
ARM GAS  /tmp/cc7FXRb9.s 			page 14


 216:Src/stm32h7xx_hal_msp.c ****     GPIO_InitStruct.Pin = STLINK_RX_Pin|STLINK_TX_Pin;
 217:Src/stm32h7xx_hal_msp.c ****     GPIO_InitStruct.Mode = GPIO_MODE_AF_PP;
 218:Src/stm32h7xx_hal_msp.c ****     GPIO_InitStruct.Pull = GPIO_NOPULL;
 219:Src/stm32h7xx_hal_msp.c ****     GPIO_InitStruct.Speed = GPIO_SPEED_FREQ_LOW;
 220:Src/stm32h7xx_hal_msp.c ****     GPIO_InitStruct.Alternate = GPIO_AF7_USART3;
 221:Src/stm32h7xx_hal_msp.c ****     HAL_GPIO_Init(GPIOD, &GPIO_InitStruct);
 222:Src/stm32h7xx_hal_msp.c **** 
 223:Src/stm32h7xx_hal_msp.c ****   /* USER CODE BEGIN USART3_MspInit 1 */
 224:Src/stm32h7xx_hal_msp.c **** 
 225:Src/stm32h7xx_hal_msp.c ****   /* USER CODE END USART3_MspInit 1 */
 226:Src/stm32h7xx_hal_msp.c ****   }
 227:Src/stm32h7xx_hal_msp.c **** 
 228:Src/stm32h7xx_hal_msp.c **** }
 448              		.loc 1 228 1 view .LVU117
 449 0018 09B0     		add	sp, sp, #36
 450              	.LCFI10:
 451              		.cfi_remember_state
 452              		.cfi_def_cfa_offset 4
 453              		@ sp needed
 454 001a 5DF804FB 		ldr	pc, [sp], #4
 455              	.LVL19:
 456              	.L20:
 457              	.LCFI11:
 458              		.cfi_restore_state
 209:Src/stm32h7xx_hal_msp.c ****   
 459              		.loc 1 209 5 is_stmt 1 view .LVU118
 460              	.LBB10:
 209:Src/stm32h7xx_hal_msp.c ****   
 461              		.loc 1 209 5 view .LVU119
 209:Src/stm32h7xx_hal_msp.c ****   
 462              		.loc 1 209 5 view .LVU120
 463 001e 134B     		ldr	r3, .L21+4
 464 0020 D3F8E820 		ldr	r2, [r3, #232]
 465 0024 42F48022 		orr	r2, r2, #262144
 466 0028 C3F8E820 		str	r2, [r3, #232]
 209:Src/stm32h7xx_hal_msp.c ****   
 467              		.loc 1 209 5 view .LVU121
 468 002c D3F8E820 		ldr	r2, [r3, #232]
 469 0030 02F48022 		and	r2, r2, #262144
 470 0034 0192     		str	r2, [sp, #4]
 209:Src/stm32h7xx_hal_msp.c ****   
 471              		.loc 1 209 5 view .LVU122
 472 0036 019A     		ldr	r2, [sp, #4]
 473              	.LBE10:
 211:Src/stm32h7xx_hal_msp.c ****     /**USART3 GPIO Configuration    
 474              		.loc 1 211 5 view .LVU123
 475              	.LBB11:
 211:Src/stm32h7xx_hal_msp.c ****     /**USART3 GPIO Configuration    
 476              		.loc 1 211 5 view .LVU124
 211:Src/stm32h7xx_hal_msp.c ****     /**USART3 GPIO Configuration    
 477              		.loc 1 211 5 view .LVU125
 478 0038 D3F8E020 		ldr	r2, [r3, #224]
 479 003c 42F00802 		orr	r2, r2, #8
 480 0040 C3F8E020 		str	r2, [r3, #224]
 211:Src/stm32h7xx_hal_msp.c ****     /**USART3 GPIO Configuration    
 481              		.loc 1 211 5 view .LVU126
 482 0044 D3F8E030 		ldr	r3, [r3, #224]
ARM GAS  /tmp/cc7FXRb9.s 			page 15


 483 0048 03F00803 		and	r3, r3, #8
 484 004c 0293     		str	r3, [sp, #8]
 211:Src/stm32h7xx_hal_msp.c ****     /**USART3 GPIO Configuration    
 485              		.loc 1 211 5 view .LVU127
 486 004e 029B     		ldr	r3, [sp, #8]
 487              	.LBE11:
 216:Src/stm32h7xx_hal_msp.c ****     GPIO_InitStruct.Mode = GPIO_MODE_AF_PP;
 488              		.loc 1 216 5 view .LVU128
 216:Src/stm32h7xx_hal_msp.c ****     GPIO_InitStruct.Mode = GPIO_MODE_AF_PP;
 489              		.loc 1 216 25 is_stmt 0 view .LVU129
 490 0050 4FF44073 		mov	r3, #768
 491 0054 0393     		str	r3, [sp, #12]
 217:Src/stm32h7xx_hal_msp.c ****     GPIO_InitStruct.Pull = GPIO_NOPULL;
 492              		.loc 1 217 5 is_stmt 1 view .LVU130
 217:Src/stm32h7xx_hal_msp.c ****     GPIO_InitStruct.Pull = GPIO_NOPULL;
 493              		.loc 1 217 26 is_stmt 0 view .LVU131
 494 0056 0223     		movs	r3, #2
 495 0058 0493     		str	r3, [sp, #16]
 218:Src/stm32h7xx_hal_msp.c ****     GPIO_InitStruct.Speed = GPIO_SPEED_FREQ_LOW;
 496              		.loc 1 218 5 is_stmt 1 view .LVU132
 219:Src/stm32h7xx_hal_msp.c ****     GPIO_InitStruct.Alternate = GPIO_AF7_USART3;
 497              		.loc 1 219 5 view .LVU133
 220:Src/stm32h7xx_hal_msp.c ****     HAL_GPIO_Init(GPIOD, &GPIO_InitStruct);
 498              		.loc 1 220 5 view .LVU134
 220:Src/stm32h7xx_hal_msp.c ****     HAL_GPIO_Init(GPIOD, &GPIO_InitStruct);
 499              		.loc 1 220 31 is_stmt 0 view .LVU135
 500 005a 0723     		movs	r3, #7
 501 005c 0793     		str	r3, [sp, #28]
 221:Src/stm32h7xx_hal_msp.c **** 
 502              		.loc 1 221 5 is_stmt 1 view .LVU136
 503 005e 03A9     		add	r1, sp, #12
 504 0060 0348     		ldr	r0, .L21+8
 505              	.LVL20:
 221:Src/stm32h7xx_hal_msp.c **** 
 506              		.loc 1 221 5 is_stmt 0 view .LVU137
 507 0062 FFF7FEFF 		bl	HAL_GPIO_Init
 508              	.LVL21:
 509              		.loc 1 228 1 view .LVU138
 510 0066 D7E7     		b	.L17
 511              	.L22:
 512              		.align	2
 513              	.L21:
 514 0068 00480040 		.word	1073760256
 515 006c 00440258 		.word	1476543488
 516 0070 000C0258 		.word	1476529152
 517              		.cfi_endproc
 518              	.LFE144:
 520              		.section	.text.HAL_UART_MspDeInit,"ax",%progbits
 521              		.align	1
 522              		.global	HAL_UART_MspDeInit
 523              		.syntax unified
 524              		.thumb
 525              		.thumb_func
 526              		.fpu fpv5-d16
 528              	HAL_UART_MspDeInit:
 529              	.LVL22:
 530              	.LFB145:
ARM GAS  /tmp/cc7FXRb9.s 			page 16


 229:Src/stm32h7xx_hal_msp.c **** 
 230:Src/stm32h7xx_hal_msp.c **** /**
 231:Src/stm32h7xx_hal_msp.c **** * @brief UART MSP De-Initialization
 232:Src/stm32h7xx_hal_msp.c **** * This function freeze the hardware resources used in this example
 233:Src/stm32h7xx_hal_msp.c **** * @param huart: UART handle pointer
 234:Src/stm32h7xx_hal_msp.c **** * @retval None
 235:Src/stm32h7xx_hal_msp.c **** */
 236:Src/stm32h7xx_hal_msp.c **** void HAL_UART_MspDeInit(UART_HandleTypeDef* huart)
 237:Src/stm32h7xx_hal_msp.c **** {
 531              		.loc 1 237 1 is_stmt 1 view -0
 532              		.cfi_startproc
 533              		@ args = 0, pretend = 0, frame = 0
 534              		@ frame_needed = 0, uses_anonymous_args = 0
 535              		.loc 1 237 1 is_stmt 0 view .LVU140
 536 0000 08B5     		push	{r3, lr}
 537              	.LCFI12:
 538              		.cfi_def_cfa_offset 8
 539              		.cfi_offset 3, -8
 540              		.cfi_offset 14, -4
 238:Src/stm32h7xx_hal_msp.c ****   if(huart->Instance==USART3)
 541              		.loc 1 238 3 is_stmt 1 view .LVU141
 542              		.loc 1 238 11 is_stmt 0 view .LVU142
 543 0002 0268     		ldr	r2, [r0]
 544              		.loc 1 238 5 view .LVU143
 545 0004 084B     		ldr	r3, .L27
 546 0006 9A42     		cmp	r2, r3
 547 0008 00D0     		beq	.L26
 548              	.LVL23:
 549              	.L23:
 239:Src/stm32h7xx_hal_msp.c ****   {
 240:Src/stm32h7xx_hal_msp.c ****   /* USER CODE BEGIN USART3_MspDeInit 0 */
 241:Src/stm32h7xx_hal_msp.c **** 
 242:Src/stm32h7xx_hal_msp.c ****   /* USER CODE END USART3_MspDeInit 0 */
 243:Src/stm32h7xx_hal_msp.c ****     /* Peripheral clock disable */
 244:Src/stm32h7xx_hal_msp.c ****     __HAL_RCC_USART3_CLK_DISABLE();
 245:Src/stm32h7xx_hal_msp.c ****   
 246:Src/stm32h7xx_hal_msp.c ****     /**USART3 GPIO Configuration    
 247:Src/stm32h7xx_hal_msp.c ****     PD8     ------> USART3_TX
 248:Src/stm32h7xx_hal_msp.c ****     PD9     ------> USART3_RX 
 249:Src/stm32h7xx_hal_msp.c ****     */
 250:Src/stm32h7xx_hal_msp.c ****     HAL_GPIO_DeInit(GPIOD, STLINK_RX_Pin|STLINK_TX_Pin);
 251:Src/stm32h7xx_hal_msp.c **** 
 252:Src/stm32h7xx_hal_msp.c ****   /* USER CODE BEGIN USART3_MspDeInit 1 */
 253:Src/stm32h7xx_hal_msp.c **** 
 254:Src/stm32h7xx_hal_msp.c ****   /* USER CODE END USART3_MspDeInit 1 */
 255:Src/stm32h7xx_hal_msp.c ****   }
 256:Src/stm32h7xx_hal_msp.c **** 
 257:Src/stm32h7xx_hal_msp.c **** }
 550              		.loc 1 257 1 view .LVU144
 551 000a 08BD     		pop	{r3, pc}
 552              	.LVL24:
 553              	.L26:
 244:Src/stm32h7xx_hal_msp.c ****   
 554              		.loc 1 244 5 is_stmt 1 view .LVU145
 555 000c 074A     		ldr	r2, .L27+4
 556 000e D2F8E830 		ldr	r3, [r2, #232]
 557 0012 23F48023 		bic	r3, r3, #262144
ARM GAS  /tmp/cc7FXRb9.s 			page 17


 558 0016 C2F8E830 		str	r3, [r2, #232]
 250:Src/stm32h7xx_hal_msp.c **** 
 559              		.loc 1 250 5 view .LVU146
 560 001a 4FF44071 		mov	r1, #768
 561 001e 0448     		ldr	r0, .L27+8
 562              	.LVL25:
 250:Src/stm32h7xx_hal_msp.c **** 
 563              		.loc 1 250 5 is_stmt 0 view .LVU147
 564 0020 FFF7FEFF 		bl	HAL_GPIO_DeInit
 565              	.LVL26:
 566              		.loc 1 257 1 view .LVU148
 567 0024 F1E7     		b	.L23
 568              	.L28:
 569 0026 00BF     		.align	2
 570              	.L27:
 571 0028 00480040 		.word	1073760256
 572 002c 00440258 		.word	1476543488
 573 0030 000C0258 		.word	1476529152
 574              		.cfi_endproc
 575              	.LFE145:
 577              		.section	.text.HAL_PCD_MspInit,"ax",%progbits
 578              		.align	1
 579              		.global	HAL_PCD_MspInit
 580              		.syntax unified
 581              		.thumb
 582              		.thumb_func
 583              		.fpu fpv5-d16
 585              	HAL_PCD_MspInit:
 586              	.LVL27:
 587              	.LFB146:
 258:Src/stm32h7xx_hal_msp.c **** 
 259:Src/stm32h7xx_hal_msp.c **** /**
 260:Src/stm32h7xx_hal_msp.c **** * @brief PCD MSP Initialization
 261:Src/stm32h7xx_hal_msp.c **** * This function configures the hardware resources used in this example
 262:Src/stm32h7xx_hal_msp.c **** * @param hpcd: PCD handle pointer
 263:Src/stm32h7xx_hal_msp.c **** * @retval None
 264:Src/stm32h7xx_hal_msp.c **** */
 265:Src/stm32h7xx_hal_msp.c **** void HAL_PCD_MspInit(PCD_HandleTypeDef* hpcd)
 266:Src/stm32h7xx_hal_msp.c **** {
 588              		.loc 1 266 1 is_stmt 1 view -0
 589              		.cfi_startproc
 590              		@ args = 0, pretend = 0, frame = 32
 591              		@ frame_needed = 0, uses_anonymous_args = 0
 592              		.loc 1 266 1 is_stmt 0 view .LVU150
 593 0000 30B5     		push	{r4, r5, lr}
 594              	.LCFI13:
 595              		.cfi_def_cfa_offset 12
 596              		.cfi_offset 4, -12
 597              		.cfi_offset 5, -8
 598              		.cfi_offset 14, -4
 599 0002 89B0     		sub	sp, sp, #36
 600              	.LCFI14:
 601              		.cfi_def_cfa_offset 48
 267:Src/stm32h7xx_hal_msp.c ****   GPIO_InitTypeDef GPIO_InitStruct = {0};
 602              		.loc 1 267 3 is_stmt 1 view .LVU151
 603              		.loc 1 267 20 is_stmt 0 view .LVU152
 604 0004 0023     		movs	r3, #0
ARM GAS  /tmp/cc7FXRb9.s 			page 18


 605 0006 0393     		str	r3, [sp, #12]
 606 0008 0493     		str	r3, [sp, #16]
 607 000a 0593     		str	r3, [sp, #20]
 608 000c 0693     		str	r3, [sp, #24]
 609 000e 0793     		str	r3, [sp, #28]
 268:Src/stm32h7xx_hal_msp.c ****   if(hpcd->Instance==USB_OTG_FS)
 610              		.loc 1 268 3 is_stmt 1 view .LVU153
 611              		.loc 1 268 10 is_stmt 0 view .LVU154
 612 0010 0268     		ldr	r2, [r0]
 613              		.loc 1 268 5 view .LVU155
 614 0012 1A4B     		ldr	r3, .L33
 615 0014 9A42     		cmp	r2, r3
 616 0016 01D0     		beq	.L32
 617              	.LVL28:
 618              	.L29:
 269:Src/stm32h7xx_hal_msp.c ****   {
 270:Src/stm32h7xx_hal_msp.c ****   /* USER CODE BEGIN USB_OTG_FS_MspInit 0 */
 271:Src/stm32h7xx_hal_msp.c **** 
 272:Src/stm32h7xx_hal_msp.c ****   /* USER CODE END USB_OTG_FS_MspInit 0 */
 273:Src/stm32h7xx_hal_msp.c ****   
 274:Src/stm32h7xx_hal_msp.c ****     __HAL_RCC_GPIOA_CLK_ENABLE();
 275:Src/stm32h7xx_hal_msp.c ****     /**USB_OTG_FS GPIO Configuration    
 276:Src/stm32h7xx_hal_msp.c ****     PA8     ------> USB_OTG_FS_SOF
 277:Src/stm32h7xx_hal_msp.c ****     PA9     ------> USB_OTG_FS_VBUS
 278:Src/stm32h7xx_hal_msp.c ****     PA11     ------> USB_OTG_FS_DM
 279:Src/stm32h7xx_hal_msp.c ****     PA12     ------> USB_OTG_FS_DP 
 280:Src/stm32h7xx_hal_msp.c ****     */
 281:Src/stm32h7xx_hal_msp.c ****     GPIO_InitStruct.Pin = GPIO_PIN_8|GPIO_PIN_11|GPIO_PIN_12;
 282:Src/stm32h7xx_hal_msp.c ****     GPIO_InitStruct.Mode = GPIO_MODE_AF_PP;
 283:Src/stm32h7xx_hal_msp.c ****     GPIO_InitStruct.Pull = GPIO_NOPULL;
 284:Src/stm32h7xx_hal_msp.c ****     GPIO_InitStruct.Speed = GPIO_SPEED_FREQ_LOW;
 285:Src/stm32h7xx_hal_msp.c ****     GPIO_InitStruct.Alternate = GPIO_AF10_OTG1_FS;
 286:Src/stm32h7xx_hal_msp.c ****     HAL_GPIO_Init(GPIOA, &GPIO_InitStruct);
 287:Src/stm32h7xx_hal_msp.c **** 
 288:Src/stm32h7xx_hal_msp.c ****     GPIO_InitStruct.Pin = GPIO_PIN_9;
 289:Src/stm32h7xx_hal_msp.c ****     GPIO_InitStruct.Mode = GPIO_MODE_INPUT;
 290:Src/stm32h7xx_hal_msp.c ****     GPIO_InitStruct.Pull = GPIO_NOPULL;
 291:Src/stm32h7xx_hal_msp.c ****     HAL_GPIO_Init(GPIOA, &GPIO_InitStruct);
 292:Src/stm32h7xx_hal_msp.c **** 
 293:Src/stm32h7xx_hal_msp.c ****     /* Peripheral clock enable */
 294:Src/stm32h7xx_hal_msp.c ****     __HAL_RCC_USB_OTG_FS_CLK_ENABLE();
 295:Src/stm32h7xx_hal_msp.c ****   /* USER CODE BEGIN USB_OTG_FS_MspInit 1 */
 296:Src/stm32h7xx_hal_msp.c **** 
 297:Src/stm32h7xx_hal_msp.c ****   /* USER CODE END USB_OTG_FS_MspInit 1 */
 298:Src/stm32h7xx_hal_msp.c ****   }
 299:Src/stm32h7xx_hal_msp.c **** 
 300:Src/stm32h7xx_hal_msp.c **** }
 619              		.loc 1 300 1 view .LVU156
 620 0018 09B0     		add	sp, sp, #36
 621              	.LCFI15:
 622              		.cfi_remember_state
 623              		.cfi_def_cfa_offset 12
 624              		@ sp needed
 625 001a 30BD     		pop	{r4, r5, pc}
 626              	.LVL29:
 627              	.L32:
 628              	.LCFI16:
ARM GAS  /tmp/cc7FXRb9.s 			page 19


 629              		.cfi_restore_state
 274:Src/stm32h7xx_hal_msp.c ****     /**USB_OTG_FS GPIO Configuration    
 630              		.loc 1 274 5 is_stmt 1 view .LVU157
 631              	.LBB12:
 274:Src/stm32h7xx_hal_msp.c ****     /**USB_OTG_FS GPIO Configuration    
 632              		.loc 1 274 5 view .LVU158
 274:Src/stm32h7xx_hal_msp.c ****     /**USB_OTG_FS GPIO Configuration    
 633              		.loc 1 274 5 view .LVU159
 634 001c 184C     		ldr	r4, .L33+4
 635 001e D4F8E030 		ldr	r3, [r4, #224]
 636 0022 43F00103 		orr	r3, r3, #1
 637 0026 C4F8E030 		str	r3, [r4, #224]
 274:Src/stm32h7xx_hal_msp.c ****     /**USB_OTG_FS GPIO Configuration    
 638              		.loc 1 274 5 view .LVU160
 639 002a D4F8E030 		ldr	r3, [r4, #224]
 640 002e 03F00103 		and	r3, r3, #1
 641 0032 0193     		str	r3, [sp, #4]
 274:Src/stm32h7xx_hal_msp.c ****     /**USB_OTG_FS GPIO Configuration    
 642              		.loc 1 274 5 view .LVU161
 643 0034 019B     		ldr	r3, [sp, #4]
 644              	.LBE12:
 281:Src/stm32h7xx_hal_msp.c ****     GPIO_InitStruct.Mode = GPIO_MODE_AF_PP;
 645              		.loc 1 281 5 view .LVU162
 281:Src/stm32h7xx_hal_msp.c ****     GPIO_InitStruct.Mode = GPIO_MODE_AF_PP;
 646              		.loc 1 281 25 is_stmt 0 view .LVU163
 647 0036 4FF4C853 		mov	r3, #6400
 648 003a 0393     		str	r3, [sp, #12]
 282:Src/stm32h7xx_hal_msp.c ****     GPIO_InitStruct.Pull = GPIO_NOPULL;
 649              		.loc 1 282 5 is_stmt 1 view .LVU164
 282:Src/stm32h7xx_hal_msp.c ****     GPIO_InitStruct.Pull = GPIO_NOPULL;
 650              		.loc 1 282 26 is_stmt 0 view .LVU165
 651 003c 0223     		movs	r3, #2
 652 003e 0493     		str	r3, [sp, #16]
 283:Src/stm32h7xx_hal_msp.c ****     GPIO_InitStruct.Speed = GPIO_SPEED_FREQ_LOW;
 653              		.loc 1 283 5 is_stmt 1 view .LVU166
 284:Src/stm32h7xx_hal_msp.c ****     GPIO_InitStruct.Alternate = GPIO_AF10_OTG1_FS;
 654              		.loc 1 284 5 view .LVU167
 285:Src/stm32h7xx_hal_msp.c ****     HAL_GPIO_Init(GPIOA, &GPIO_InitStruct);
 655              		.loc 1 285 5 view .LVU168
 285:Src/stm32h7xx_hal_msp.c ****     HAL_GPIO_Init(GPIOA, &GPIO_InitStruct);
 656              		.loc 1 285 31 is_stmt 0 view .LVU169
 657 0040 0A23     		movs	r3, #10
 658 0042 0793     		str	r3, [sp, #28]
 286:Src/stm32h7xx_hal_msp.c **** 
 659              		.loc 1 286 5 is_stmt 1 view .LVU170
 660 0044 0F4D     		ldr	r5, .L33+8
 661 0046 03A9     		add	r1, sp, #12
 662 0048 2846     		mov	r0, r5
 663              	.LVL30:
 286:Src/stm32h7xx_hal_msp.c **** 
 664              		.loc 1 286 5 is_stmt 0 view .LVU171
 665 004a FFF7FEFF 		bl	HAL_GPIO_Init
 666              	.LVL31:
 288:Src/stm32h7xx_hal_msp.c ****     GPIO_InitStruct.Mode = GPIO_MODE_INPUT;
 667              		.loc 1 288 5 is_stmt 1 view .LVU172
 288:Src/stm32h7xx_hal_msp.c ****     GPIO_InitStruct.Mode = GPIO_MODE_INPUT;
 668              		.loc 1 288 25 is_stmt 0 view .LVU173
ARM GAS  /tmp/cc7FXRb9.s 			page 20


 669 004e 4FF40073 		mov	r3, #512
 670 0052 0393     		str	r3, [sp, #12]
 289:Src/stm32h7xx_hal_msp.c ****     GPIO_InitStruct.Pull = GPIO_NOPULL;
 671              		.loc 1 289 5 is_stmt 1 view .LVU174
 289:Src/stm32h7xx_hal_msp.c ****     GPIO_InitStruct.Pull = GPIO_NOPULL;
 672              		.loc 1 289 26 is_stmt 0 view .LVU175
 673 0054 0023     		movs	r3, #0
 674 0056 0493     		str	r3, [sp, #16]
 290:Src/stm32h7xx_hal_msp.c ****     HAL_GPIO_Init(GPIOA, &GPIO_InitStruct);
 675              		.loc 1 290 5 is_stmt 1 view .LVU176
 290:Src/stm32h7xx_hal_msp.c ****     HAL_GPIO_Init(GPIOA, &GPIO_InitStruct);
 676              		.loc 1 290 26 is_stmt 0 view .LVU177
 677 0058 0593     		str	r3, [sp, #20]
 291:Src/stm32h7xx_hal_msp.c **** 
 678              		.loc 1 291 5 is_stmt 1 view .LVU178
 679 005a 03A9     		add	r1, sp, #12
 680 005c 2846     		mov	r0, r5
 681 005e FFF7FEFF 		bl	HAL_GPIO_Init
 682              	.LVL32:
 294:Src/stm32h7xx_hal_msp.c ****   /* USER CODE BEGIN USB_OTG_FS_MspInit 1 */
 683              		.loc 1 294 5 view .LVU179
 684              	.LBB13:
 294:Src/stm32h7xx_hal_msp.c ****   /* USER CODE BEGIN USB_OTG_FS_MspInit 1 */
 685              		.loc 1 294 5 view .LVU180
 294:Src/stm32h7xx_hal_msp.c ****   /* USER CODE BEGIN USB_OTG_FS_MspInit 1 */
 686              		.loc 1 294 5 view .LVU181
 687 0062 D4F8D830 		ldr	r3, [r4, #216]
 688 0066 43F00063 		orr	r3, r3, #134217728
 689 006a C4F8D830 		str	r3, [r4, #216]
 294:Src/stm32h7xx_hal_msp.c ****   /* USER CODE BEGIN USB_OTG_FS_MspInit 1 */
 690              		.loc 1 294 5 view .LVU182
 691 006e D4F8D830 		ldr	r3, [r4, #216]
 692 0072 03F00063 		and	r3, r3, #134217728
 693 0076 0293     		str	r3, [sp, #8]
 294:Src/stm32h7xx_hal_msp.c ****   /* USER CODE BEGIN USB_OTG_FS_MspInit 1 */
 694              		.loc 1 294 5 view .LVU183
 695 0078 029B     		ldr	r3, [sp, #8]
 696              	.LBE13:
 697              		.loc 1 300 1 is_stmt 0 view .LVU184
 698 007a CDE7     		b	.L29
 699              	.L34:
 700              		.align	2
 701              	.L33:
 702 007c 00000840 		.word	1074266112
 703 0080 00440258 		.word	1476543488
 704 0084 00000258 		.word	1476526080
 705              		.cfi_endproc
 706              	.LFE146:
 708              		.section	.text.HAL_PCD_MspDeInit,"ax",%progbits
 709              		.align	1
 710              		.global	HAL_PCD_MspDeInit
 711              		.syntax unified
 712              		.thumb
 713              		.thumb_func
 714              		.fpu fpv5-d16
 716              	HAL_PCD_MspDeInit:
 717              	.LVL33:
ARM GAS  /tmp/cc7FXRb9.s 			page 21


 718              	.LFB147:
 301:Src/stm32h7xx_hal_msp.c **** 
 302:Src/stm32h7xx_hal_msp.c **** /**
 303:Src/stm32h7xx_hal_msp.c **** * @brief PCD MSP De-Initialization
 304:Src/stm32h7xx_hal_msp.c **** * This function freeze the hardware resources used in this example
 305:Src/stm32h7xx_hal_msp.c **** * @param hpcd: PCD handle pointer
 306:Src/stm32h7xx_hal_msp.c **** * @retval None
 307:Src/stm32h7xx_hal_msp.c **** */
 308:Src/stm32h7xx_hal_msp.c **** void HAL_PCD_MspDeInit(PCD_HandleTypeDef* hpcd)
 309:Src/stm32h7xx_hal_msp.c **** {
 719              		.loc 1 309 1 is_stmt 1 view -0
 720              		.cfi_startproc
 721              		@ args = 0, pretend = 0, frame = 0
 722              		@ frame_needed = 0, uses_anonymous_args = 0
 723              		.loc 1 309 1 is_stmt 0 view .LVU186
 724 0000 08B5     		push	{r3, lr}
 725              	.LCFI17:
 726              		.cfi_def_cfa_offset 8
 727              		.cfi_offset 3, -8
 728              		.cfi_offset 14, -4
 310:Src/stm32h7xx_hal_msp.c ****   if(hpcd->Instance==USB_OTG_FS)
 729              		.loc 1 310 3 is_stmt 1 view .LVU187
 730              		.loc 1 310 10 is_stmt 0 view .LVU188
 731 0002 0268     		ldr	r2, [r0]
 732              		.loc 1 310 5 view .LVU189
 733 0004 084B     		ldr	r3, .L39
 734 0006 9A42     		cmp	r2, r3
 735 0008 00D0     		beq	.L38
 736              	.LVL34:
 737              	.L35:
 311:Src/stm32h7xx_hal_msp.c ****   {
 312:Src/stm32h7xx_hal_msp.c ****   /* USER CODE BEGIN USB_OTG_FS_MspDeInit 0 */
 313:Src/stm32h7xx_hal_msp.c **** 
 314:Src/stm32h7xx_hal_msp.c ****   /* USER CODE END USB_OTG_FS_MspDeInit 0 */
 315:Src/stm32h7xx_hal_msp.c ****     /* Peripheral clock disable */
 316:Src/stm32h7xx_hal_msp.c ****     __HAL_RCC_USB_OTG_FS_CLK_DISABLE();
 317:Src/stm32h7xx_hal_msp.c ****   
 318:Src/stm32h7xx_hal_msp.c ****     /**USB_OTG_FS GPIO Configuration    
 319:Src/stm32h7xx_hal_msp.c ****     PA8     ------> USB_OTG_FS_SOF
 320:Src/stm32h7xx_hal_msp.c ****     PA9     ------> USB_OTG_FS_VBUS
 321:Src/stm32h7xx_hal_msp.c ****     PA11     ------> USB_OTG_FS_DM
 322:Src/stm32h7xx_hal_msp.c ****     PA12     ------> USB_OTG_FS_DP 
 323:Src/stm32h7xx_hal_msp.c ****     */
 324:Src/stm32h7xx_hal_msp.c ****     HAL_GPIO_DeInit(GPIOA, GPIO_PIN_8|GPIO_PIN_9|GPIO_PIN_11|GPIO_PIN_12);
 325:Src/stm32h7xx_hal_msp.c **** 
 326:Src/stm32h7xx_hal_msp.c ****   /* USER CODE BEGIN USB_OTG_FS_MspDeInit 1 */
 327:Src/stm32h7xx_hal_msp.c **** 
 328:Src/stm32h7xx_hal_msp.c ****   /* USER CODE END USB_OTG_FS_MspDeInit 1 */
 329:Src/stm32h7xx_hal_msp.c ****   }
 330:Src/stm32h7xx_hal_msp.c **** 
 331:Src/stm32h7xx_hal_msp.c **** }
 738              		.loc 1 331 1 view .LVU190
 739 000a 08BD     		pop	{r3, pc}
 740              	.LVL35:
 741              	.L38:
 316:Src/stm32h7xx_hal_msp.c ****   
 742              		.loc 1 316 5 is_stmt 1 view .LVU191
ARM GAS  /tmp/cc7FXRb9.s 			page 22


 743 000c 074A     		ldr	r2, .L39+4
 744 000e D2F8D830 		ldr	r3, [r2, #216]
 745 0012 23F00063 		bic	r3, r3, #134217728
 746 0016 C2F8D830 		str	r3, [r2, #216]
 324:Src/stm32h7xx_hal_msp.c **** 
 747              		.loc 1 324 5 view .LVU192
 748 001a 4FF4D851 		mov	r1, #6912
 749 001e 0448     		ldr	r0, .L39+8
 750              	.LVL36:
 324:Src/stm32h7xx_hal_msp.c **** 
 751              		.loc 1 324 5 is_stmt 0 view .LVU193
 752 0020 FFF7FEFF 		bl	HAL_GPIO_DeInit
 753              	.LVL37:
 754              		.loc 1 331 1 view .LVU194
 755 0024 F1E7     		b	.L35
 756              	.L40:
 757 0026 00BF     		.align	2
 758              	.L39:
 759 0028 00000840 		.word	1074266112
 760 002c 00440258 		.word	1476543488
 761 0030 00000258 		.word	1476526080
 762              		.cfi_endproc
 763              	.LFE147:
 765              		.text
 766              	.Letext0:
 767              		.file 2 "/usr/arm-none-eabi/include/machine/_default_types.h"
 768              		.file 3 "/usr/arm-none-eabi/include/sys/_stdint.h"
 769              		.file 4 "Drivers/CMSIS/Include/core_cm7.h"
 770              		.file 5 "Drivers/CMSIS/Device/ST/STM32H7xx/Include/system_stm32h7xx.h"
 771              		.file 6 "Drivers/CMSIS/Device/ST/STM32H7xx/Include/stm32h743xx.h"
 772              		.file 7 "/usr/arm-none-eabi/include/sys/lock.h"
 773              		.file 8 "/usr/arm-none-eabi/include/sys/_types.h"
 774              		.file 9 "/usr/lib/gcc/arm-none-eabi/9.1.0/include/stddef.h"
 775              		.file 10 "/usr/arm-none-eabi/include/sys/reent.h"
 776              		.file 11 "/usr/arm-none-eabi/include/math.h"
 777              		.file 12 "Drivers/STM32H7xx_HAL_Driver/Inc/stm32h7xx_hal_def.h"
 778              		.file 13 "Drivers/STM32H7xx_HAL_Driver/Inc/stm32h7xx_hal_gpio.h"
 779              		.file 14 "Drivers/STM32H7xx_HAL_Driver/Inc/stm32h7xx_hal_dma.h"
 780              		.file 15 "Drivers/STM32H7xx_HAL_Driver/Inc/stm32h7xx_hal_eth.h"
 781              		.file 16 "Drivers/STM32H7xx_HAL_Driver/Inc/stm32h7xx_hal_flash.h"
 782              		.file 17 "Drivers/STM32H7xx_HAL_Driver/Inc/stm32h7xx_hal_uart.h"
 783              		.file 18 "Drivers/STM32H7xx_HAL_Driver/Inc/stm32h7xx_ll_usb.h"
 784              		.file 19 "Drivers/STM32H7xx_HAL_Driver/Inc/stm32h7xx_hal_pcd.h"
 785              		.file 20 "Drivers/STM32H7xx_HAL_Driver/Inc/stm32h7xx_hal.h"
 786              		.file 21 "Drivers/STM32H7xx_HAL_Driver/Inc/stm32h7xx_hal_cortex.h"
ARM GAS  /tmp/cc7FXRb9.s 			page 23

