ARM GAS  /tmp/cc0TWTOC.s 			page 1


   1              		.cpu cortex-m7
   2              		.eabi_attribute 28, 1
   3              		.eabi_attribute 20, 1
   4              		.eabi_attribute 21, 1
   5              		.eabi_attribute 23, 3
   6              		.eabi_attribute 24, 1
   7              		.eabi_attribute 25, 1
   8              		.eabi_attribute 26, 1
   9              		.eabi_attribute 30, 1
  10              		.eabi_attribute 34, 1
  11              		.eabi_attribute 18, 4
  12              		.file	"stm32h7xx_ll_usb.c"
  13              		.text
  14              	.Ltext0:
  15              		.cfi_sections	.debug_frame
  16              		.section	.text.USB_CoreReset,"ax",%progbits
  17              		.align	1
  18              		.arch armv7e-m
  19              		.syntax unified
  20              		.thumb
  21              		.thumb_func
  22              		.fpu fpv5-d16
  24              	USB_CoreReset:
  25              	.LVL0:
  26              	.LFB174:
  27              		.file 1 "Drivers/STM32H7xx_HAL_Driver/Src/stm32h7xx_ll_usb.c"
   1:Drivers/STM32H7xx_HAL_Driver/Src/stm32h7xx_ll_usb.c **** /**
   2:Drivers/STM32H7xx_HAL_Driver/Src/stm32h7xx_ll_usb.c ****   ******************************************************************************
   3:Drivers/STM32H7xx_HAL_Driver/Src/stm32h7xx_ll_usb.c ****   * @file    stm32h7xx_ll_usb.c
   4:Drivers/STM32H7xx_HAL_Driver/Src/stm32h7xx_ll_usb.c ****   * @author  MCD Application Team
   5:Drivers/STM32H7xx_HAL_Driver/Src/stm32h7xx_ll_usb.c ****   * @brief   USB Low Layer HAL module driver.
   6:Drivers/STM32H7xx_HAL_Driver/Src/stm32h7xx_ll_usb.c ****   *
   7:Drivers/STM32H7xx_HAL_Driver/Src/stm32h7xx_ll_usb.c ****   *          This file provides firmware functions to manage the following
   8:Drivers/STM32H7xx_HAL_Driver/Src/stm32h7xx_ll_usb.c ****   *          functionalities of the USB Peripheral Controller:
   9:Drivers/STM32H7xx_HAL_Driver/Src/stm32h7xx_ll_usb.c ****   *           + Initialization/de-initialization functions
  10:Drivers/STM32H7xx_HAL_Driver/Src/stm32h7xx_ll_usb.c ****   *           + I/O operation functions
  11:Drivers/STM32H7xx_HAL_Driver/Src/stm32h7xx_ll_usb.c ****   *           + Peripheral Control functions
  12:Drivers/STM32H7xx_HAL_Driver/Src/stm32h7xx_ll_usb.c ****   *           + Peripheral State functions
  13:Drivers/STM32H7xx_HAL_Driver/Src/stm32h7xx_ll_usb.c ****   *
  14:Drivers/STM32H7xx_HAL_Driver/Src/stm32h7xx_ll_usb.c ****   @verbatim
  15:Drivers/STM32H7xx_HAL_Driver/Src/stm32h7xx_ll_usb.c ****   ==============================================================================
  16:Drivers/STM32H7xx_HAL_Driver/Src/stm32h7xx_ll_usb.c ****                     ##### How to use this driver #####
  17:Drivers/STM32H7xx_HAL_Driver/Src/stm32h7xx_ll_usb.c ****   ==============================================================================
  18:Drivers/STM32H7xx_HAL_Driver/Src/stm32h7xx_ll_usb.c ****     [..]
  19:Drivers/STM32H7xx_HAL_Driver/Src/stm32h7xx_ll_usb.c ****       (#) Fill parameters of Init structure in USB_OTG_CfgTypeDef structure.
  20:Drivers/STM32H7xx_HAL_Driver/Src/stm32h7xx_ll_usb.c **** 
  21:Drivers/STM32H7xx_HAL_Driver/Src/stm32h7xx_ll_usb.c ****       (#) Call USB_CoreInit() API to initialize the USB Core peripheral.
  22:Drivers/STM32H7xx_HAL_Driver/Src/stm32h7xx_ll_usb.c **** 
  23:Drivers/STM32H7xx_HAL_Driver/Src/stm32h7xx_ll_usb.c ****       (#) The upper HAL HCD/PCD driver will call the right routines for its internal processes.
  24:Drivers/STM32H7xx_HAL_Driver/Src/stm32h7xx_ll_usb.c **** 
  25:Drivers/STM32H7xx_HAL_Driver/Src/stm32h7xx_ll_usb.c ****   @endverbatim
  26:Drivers/STM32H7xx_HAL_Driver/Src/stm32h7xx_ll_usb.c ****   ******************************************************************************
  27:Drivers/STM32H7xx_HAL_Driver/Src/stm32h7xx_ll_usb.c ****   * @attention
  28:Drivers/STM32H7xx_HAL_Driver/Src/stm32h7xx_ll_usb.c ****   *
  29:Drivers/STM32H7xx_HAL_Driver/Src/stm32h7xx_ll_usb.c ****   * <h2><center>&copy; Copyright (c) 2017 STMicroelectronics.
  30:Drivers/STM32H7xx_HAL_Driver/Src/stm32h7xx_ll_usb.c ****   * All rights reserved.</center></h2>
  31:Drivers/STM32H7xx_HAL_Driver/Src/stm32h7xx_ll_usb.c ****   *
ARM GAS  /tmp/cc0TWTOC.s 			page 2


  32:Drivers/STM32H7xx_HAL_Driver/Src/stm32h7xx_ll_usb.c ****   * This software component is licensed by ST under BSD 3-Clause license,
  33:Drivers/STM32H7xx_HAL_Driver/Src/stm32h7xx_ll_usb.c ****   * the "License"; You may not use this file except in compliance with the
  34:Drivers/STM32H7xx_HAL_Driver/Src/stm32h7xx_ll_usb.c ****   * License. You may obtain a copy of the License at:
  35:Drivers/STM32H7xx_HAL_Driver/Src/stm32h7xx_ll_usb.c ****   *                        opensource.org/licenses/BSD-3-Clause
  36:Drivers/STM32H7xx_HAL_Driver/Src/stm32h7xx_ll_usb.c ****   *
  37:Drivers/STM32H7xx_HAL_Driver/Src/stm32h7xx_ll_usb.c ****   ******************************************************************************
  38:Drivers/STM32H7xx_HAL_Driver/Src/stm32h7xx_ll_usb.c ****   */
  39:Drivers/STM32H7xx_HAL_Driver/Src/stm32h7xx_ll_usb.c **** 
  40:Drivers/STM32H7xx_HAL_Driver/Src/stm32h7xx_ll_usb.c **** /* Includes ------------------------------------------------------------------*/
  41:Drivers/STM32H7xx_HAL_Driver/Src/stm32h7xx_ll_usb.c **** #include "stm32h7xx_hal.h"
  42:Drivers/STM32H7xx_HAL_Driver/Src/stm32h7xx_ll_usb.c **** 
  43:Drivers/STM32H7xx_HAL_Driver/Src/stm32h7xx_ll_usb.c **** /** @addtogroup STM32H7xx_LL_USB_DRIVER
  44:Drivers/STM32H7xx_HAL_Driver/Src/stm32h7xx_ll_usb.c ****   * @{
  45:Drivers/STM32H7xx_HAL_Driver/Src/stm32h7xx_ll_usb.c ****   */
  46:Drivers/STM32H7xx_HAL_Driver/Src/stm32h7xx_ll_usb.c **** 
  47:Drivers/STM32H7xx_HAL_Driver/Src/stm32h7xx_ll_usb.c **** #if defined (HAL_PCD_MODULE_ENABLED) || defined (HAL_HCD_MODULE_ENABLED)
  48:Drivers/STM32H7xx_HAL_Driver/Src/stm32h7xx_ll_usb.c **** #if defined (USB_OTG_FS) || defined (USB_OTG_HS)
  49:Drivers/STM32H7xx_HAL_Driver/Src/stm32h7xx_ll_usb.c **** /* Private typedef -----------------------------------------------------------*/
  50:Drivers/STM32H7xx_HAL_Driver/Src/stm32h7xx_ll_usb.c **** /* Private define ------------------------------------------------------------*/
  51:Drivers/STM32H7xx_HAL_Driver/Src/stm32h7xx_ll_usb.c **** /* Private macro -------------------------------------------------------------*/
  52:Drivers/STM32H7xx_HAL_Driver/Src/stm32h7xx_ll_usb.c **** /* Private variables ---------------------------------------------------------*/
  53:Drivers/STM32H7xx_HAL_Driver/Src/stm32h7xx_ll_usb.c **** /* Private function prototypes -----------------------------------------------*/
  54:Drivers/STM32H7xx_HAL_Driver/Src/stm32h7xx_ll_usb.c **** /* Private functions ---------------------------------------------------------*/
  55:Drivers/STM32H7xx_HAL_Driver/Src/stm32h7xx_ll_usb.c **** #if defined (USB_OTG_FS) || defined (USB_OTG_HS)
  56:Drivers/STM32H7xx_HAL_Driver/Src/stm32h7xx_ll_usb.c **** static HAL_StatusTypeDef USB_CoreReset(USB_OTG_GlobalTypeDef *USBx);
  57:Drivers/STM32H7xx_HAL_Driver/Src/stm32h7xx_ll_usb.c **** 
  58:Drivers/STM32H7xx_HAL_Driver/Src/stm32h7xx_ll_usb.c **** /* Exported functions --------------------------------------------------------*/
  59:Drivers/STM32H7xx_HAL_Driver/Src/stm32h7xx_ll_usb.c **** /** @defgroup USB_LL_Exported_Functions USB Low Layer Exported Functions
  60:Drivers/STM32H7xx_HAL_Driver/Src/stm32h7xx_ll_usb.c ****   * @{
  61:Drivers/STM32H7xx_HAL_Driver/Src/stm32h7xx_ll_usb.c ****   */
  62:Drivers/STM32H7xx_HAL_Driver/Src/stm32h7xx_ll_usb.c **** 
  63:Drivers/STM32H7xx_HAL_Driver/Src/stm32h7xx_ll_usb.c **** /** @defgroup USB_LL_Exported_Functions_Group1 Initialization/de-initialization functions
  64:Drivers/STM32H7xx_HAL_Driver/Src/stm32h7xx_ll_usb.c ****  *  @brief    Initialization and Configuration functions
  65:Drivers/STM32H7xx_HAL_Driver/Src/stm32h7xx_ll_usb.c ****  *
  66:Drivers/STM32H7xx_HAL_Driver/Src/stm32h7xx_ll_usb.c **** @verbatim
  67:Drivers/STM32H7xx_HAL_Driver/Src/stm32h7xx_ll_usb.c ****  ===============================================================================
  68:Drivers/STM32H7xx_HAL_Driver/Src/stm32h7xx_ll_usb.c ****                       ##### Initialization/de-initialization functions #####
  69:Drivers/STM32H7xx_HAL_Driver/Src/stm32h7xx_ll_usb.c ****  ===============================================================================
  70:Drivers/STM32H7xx_HAL_Driver/Src/stm32h7xx_ll_usb.c **** 
  71:Drivers/STM32H7xx_HAL_Driver/Src/stm32h7xx_ll_usb.c **** @endverbatim
  72:Drivers/STM32H7xx_HAL_Driver/Src/stm32h7xx_ll_usb.c ****   * @{
  73:Drivers/STM32H7xx_HAL_Driver/Src/stm32h7xx_ll_usb.c ****   */
  74:Drivers/STM32H7xx_HAL_Driver/Src/stm32h7xx_ll_usb.c **** 
  75:Drivers/STM32H7xx_HAL_Driver/Src/stm32h7xx_ll_usb.c **** /**
  76:Drivers/STM32H7xx_HAL_Driver/Src/stm32h7xx_ll_usb.c ****   * @brief  Initializes the USB Core
  77:Drivers/STM32H7xx_HAL_Driver/Src/stm32h7xx_ll_usb.c ****   * @param  USBx USB Instance
  78:Drivers/STM32H7xx_HAL_Driver/Src/stm32h7xx_ll_usb.c ****   * @param  cfg pointer to a USB_OTG_CfgTypeDef structure that contains
  79:Drivers/STM32H7xx_HAL_Driver/Src/stm32h7xx_ll_usb.c ****   *         the configuration information for the specified USBx peripheral.
  80:Drivers/STM32H7xx_HAL_Driver/Src/stm32h7xx_ll_usb.c ****   * @retval HAL status
  81:Drivers/STM32H7xx_HAL_Driver/Src/stm32h7xx_ll_usb.c ****   */
  82:Drivers/STM32H7xx_HAL_Driver/Src/stm32h7xx_ll_usb.c **** HAL_StatusTypeDef USB_CoreInit(USB_OTG_GlobalTypeDef *USBx, USB_OTG_CfgTypeDef cfg)
  83:Drivers/STM32H7xx_HAL_Driver/Src/stm32h7xx_ll_usb.c **** {
  84:Drivers/STM32H7xx_HAL_Driver/Src/stm32h7xx_ll_usb.c ****   HAL_StatusTypeDef ret;
  85:Drivers/STM32H7xx_HAL_Driver/Src/stm32h7xx_ll_usb.c **** 
  86:Drivers/STM32H7xx_HAL_Driver/Src/stm32h7xx_ll_usb.c ****   if (cfg.phy_itface == USB_OTG_ULPI_PHY)
  87:Drivers/STM32H7xx_HAL_Driver/Src/stm32h7xx_ll_usb.c ****   {
  88:Drivers/STM32H7xx_HAL_Driver/Src/stm32h7xx_ll_usb.c ****     USBx->GCCFG &= ~(USB_OTG_GCCFG_PWRDWN);
ARM GAS  /tmp/cc0TWTOC.s 			page 3


  89:Drivers/STM32H7xx_HAL_Driver/Src/stm32h7xx_ll_usb.c **** 
  90:Drivers/STM32H7xx_HAL_Driver/Src/stm32h7xx_ll_usb.c ****     /* Init The ULPI Interface */
  91:Drivers/STM32H7xx_HAL_Driver/Src/stm32h7xx_ll_usb.c ****     USBx->GUSBCFG &= ~(USB_OTG_GUSBCFG_TSDPS | USB_OTG_GUSBCFG_ULPIFSLS | USB_OTG_GUSBCFG_PHYSEL);
  92:Drivers/STM32H7xx_HAL_Driver/Src/stm32h7xx_ll_usb.c **** 
  93:Drivers/STM32H7xx_HAL_Driver/Src/stm32h7xx_ll_usb.c ****     /* Select vbus source */
  94:Drivers/STM32H7xx_HAL_Driver/Src/stm32h7xx_ll_usb.c ****     USBx->GUSBCFG &= ~(USB_OTG_GUSBCFG_ULPIEVBUSD | USB_OTG_GUSBCFG_ULPIEVBUSI);
  95:Drivers/STM32H7xx_HAL_Driver/Src/stm32h7xx_ll_usb.c ****     if (cfg.use_external_vbus == 1U)
  96:Drivers/STM32H7xx_HAL_Driver/Src/stm32h7xx_ll_usb.c ****     {
  97:Drivers/STM32H7xx_HAL_Driver/Src/stm32h7xx_ll_usb.c ****       USBx->GUSBCFG |= USB_OTG_GUSBCFG_ULPIEVBUSD;
  98:Drivers/STM32H7xx_HAL_Driver/Src/stm32h7xx_ll_usb.c ****     }
  99:Drivers/STM32H7xx_HAL_Driver/Src/stm32h7xx_ll_usb.c ****     /* Reset after a PHY select  */
 100:Drivers/STM32H7xx_HAL_Driver/Src/stm32h7xx_ll_usb.c ****     ret = USB_CoreReset(USBx);
 101:Drivers/STM32H7xx_HAL_Driver/Src/stm32h7xx_ll_usb.c ****   }
 102:Drivers/STM32H7xx_HAL_Driver/Src/stm32h7xx_ll_usb.c ****   else /* FS interface (embedded Phy) */
 103:Drivers/STM32H7xx_HAL_Driver/Src/stm32h7xx_ll_usb.c ****   {
 104:Drivers/STM32H7xx_HAL_Driver/Src/stm32h7xx_ll_usb.c ****     /* Select FS Embedded PHY */
 105:Drivers/STM32H7xx_HAL_Driver/Src/stm32h7xx_ll_usb.c ****     USBx->GUSBCFG |= USB_OTG_GUSBCFG_PHYSEL;
 106:Drivers/STM32H7xx_HAL_Driver/Src/stm32h7xx_ll_usb.c **** 
 107:Drivers/STM32H7xx_HAL_Driver/Src/stm32h7xx_ll_usb.c ****     /* Reset after a PHY select and set Host mode */
 108:Drivers/STM32H7xx_HAL_Driver/Src/stm32h7xx_ll_usb.c ****     ret = USB_CoreReset(USBx);
 109:Drivers/STM32H7xx_HAL_Driver/Src/stm32h7xx_ll_usb.c **** 
 110:Drivers/STM32H7xx_HAL_Driver/Src/stm32h7xx_ll_usb.c ****     if (cfg.battery_charging_enable == 0U)
 111:Drivers/STM32H7xx_HAL_Driver/Src/stm32h7xx_ll_usb.c ****     {
 112:Drivers/STM32H7xx_HAL_Driver/Src/stm32h7xx_ll_usb.c ****       /* Activate the USB Transceiver */
 113:Drivers/STM32H7xx_HAL_Driver/Src/stm32h7xx_ll_usb.c ****       USBx->GCCFG |= USB_OTG_GCCFG_PWRDWN;
 114:Drivers/STM32H7xx_HAL_Driver/Src/stm32h7xx_ll_usb.c ****     }
 115:Drivers/STM32H7xx_HAL_Driver/Src/stm32h7xx_ll_usb.c ****     else
 116:Drivers/STM32H7xx_HAL_Driver/Src/stm32h7xx_ll_usb.c ****     {
 117:Drivers/STM32H7xx_HAL_Driver/Src/stm32h7xx_ll_usb.c ****       /* Deactivate the USB Transceiver */
 118:Drivers/STM32H7xx_HAL_Driver/Src/stm32h7xx_ll_usb.c ****       USBx->GCCFG &= ~(USB_OTG_GCCFG_PWRDWN);
 119:Drivers/STM32H7xx_HAL_Driver/Src/stm32h7xx_ll_usb.c ****     }
 120:Drivers/STM32H7xx_HAL_Driver/Src/stm32h7xx_ll_usb.c ****   }
 121:Drivers/STM32H7xx_HAL_Driver/Src/stm32h7xx_ll_usb.c **** 
 122:Drivers/STM32H7xx_HAL_Driver/Src/stm32h7xx_ll_usb.c ****   if (cfg.dma_enable == 1U)
 123:Drivers/STM32H7xx_HAL_Driver/Src/stm32h7xx_ll_usb.c ****   {
 124:Drivers/STM32H7xx_HAL_Driver/Src/stm32h7xx_ll_usb.c ****     USBx->GAHBCFG |= USB_OTG_GAHBCFG_HBSTLEN_2;
 125:Drivers/STM32H7xx_HAL_Driver/Src/stm32h7xx_ll_usb.c ****     USBx->GAHBCFG |= USB_OTG_GAHBCFG_DMAEN;
 126:Drivers/STM32H7xx_HAL_Driver/Src/stm32h7xx_ll_usb.c ****   }
 127:Drivers/STM32H7xx_HAL_Driver/Src/stm32h7xx_ll_usb.c **** 
 128:Drivers/STM32H7xx_HAL_Driver/Src/stm32h7xx_ll_usb.c ****   return ret;
 129:Drivers/STM32H7xx_HAL_Driver/Src/stm32h7xx_ll_usb.c **** }
 130:Drivers/STM32H7xx_HAL_Driver/Src/stm32h7xx_ll_usb.c **** 
 131:Drivers/STM32H7xx_HAL_Driver/Src/stm32h7xx_ll_usb.c **** 
 132:Drivers/STM32H7xx_HAL_Driver/Src/stm32h7xx_ll_usb.c **** /**
 133:Drivers/STM32H7xx_HAL_Driver/Src/stm32h7xx_ll_usb.c ****   * @brief  Set the USB turnaround time
 134:Drivers/STM32H7xx_HAL_Driver/Src/stm32h7xx_ll_usb.c ****   * @param  USBx USB Instance
 135:Drivers/STM32H7xx_HAL_Driver/Src/stm32h7xx_ll_usb.c ****   * @param  hclk: AHB clock frequency
 136:Drivers/STM32H7xx_HAL_Driver/Src/stm32h7xx_ll_usb.c ****   * @retval USB turnaround time In PHY Clocks number
 137:Drivers/STM32H7xx_HAL_Driver/Src/stm32h7xx_ll_usb.c ****   */
 138:Drivers/STM32H7xx_HAL_Driver/Src/stm32h7xx_ll_usb.c **** HAL_StatusTypeDef USB_SetTurnaroundTime(USB_OTG_GlobalTypeDef *USBx,
 139:Drivers/STM32H7xx_HAL_Driver/Src/stm32h7xx_ll_usb.c ****                                         uint32_t hclk, uint8_t speed)
 140:Drivers/STM32H7xx_HAL_Driver/Src/stm32h7xx_ll_usb.c **** {
 141:Drivers/STM32H7xx_HAL_Driver/Src/stm32h7xx_ll_usb.c ****   uint32_t UsbTrd;
 142:Drivers/STM32H7xx_HAL_Driver/Src/stm32h7xx_ll_usb.c **** 
 143:Drivers/STM32H7xx_HAL_Driver/Src/stm32h7xx_ll_usb.c ****   /* The USBTRD is configured according to the tables below, depending on AHB frequency
 144:Drivers/STM32H7xx_HAL_Driver/Src/stm32h7xx_ll_usb.c ****   used by application. In the low AHB frequency range it is used to stretch enough the USB response
 145:Drivers/STM32H7xx_HAL_Driver/Src/stm32h7xx_ll_usb.c ****   time to IN tokens, the USB turnaround time, so to compensate for the longer AHB read access
ARM GAS  /tmp/cc0TWTOC.s 			page 4


 146:Drivers/STM32H7xx_HAL_Driver/Src/stm32h7xx_ll_usb.c ****   latency to the Data FIFO */
 147:Drivers/STM32H7xx_HAL_Driver/Src/stm32h7xx_ll_usb.c ****   if (speed == USBD_FS_SPEED)
 148:Drivers/STM32H7xx_HAL_Driver/Src/stm32h7xx_ll_usb.c ****   {
 149:Drivers/STM32H7xx_HAL_Driver/Src/stm32h7xx_ll_usb.c ****     if ((hclk >= 14200000U) && (hclk < 15000000U))
 150:Drivers/STM32H7xx_HAL_Driver/Src/stm32h7xx_ll_usb.c ****     {
 151:Drivers/STM32H7xx_HAL_Driver/Src/stm32h7xx_ll_usb.c ****       /* hclk Clock Range between 14.2-15 MHz */
 152:Drivers/STM32H7xx_HAL_Driver/Src/stm32h7xx_ll_usb.c ****       UsbTrd = 0xFU;
 153:Drivers/STM32H7xx_HAL_Driver/Src/stm32h7xx_ll_usb.c ****     }
 154:Drivers/STM32H7xx_HAL_Driver/Src/stm32h7xx_ll_usb.c ****     else if ((hclk >= 15000000U) && (hclk < 16000000U))
 155:Drivers/STM32H7xx_HAL_Driver/Src/stm32h7xx_ll_usb.c ****     {
 156:Drivers/STM32H7xx_HAL_Driver/Src/stm32h7xx_ll_usb.c ****       /* hclk Clock Range between 15-16 MHz */
 157:Drivers/STM32H7xx_HAL_Driver/Src/stm32h7xx_ll_usb.c ****       UsbTrd = 0xEU;
 158:Drivers/STM32H7xx_HAL_Driver/Src/stm32h7xx_ll_usb.c ****     }
 159:Drivers/STM32H7xx_HAL_Driver/Src/stm32h7xx_ll_usb.c ****     else if ((hclk >= 16000000U) && (hclk < 17200000U))
 160:Drivers/STM32H7xx_HAL_Driver/Src/stm32h7xx_ll_usb.c ****     {
 161:Drivers/STM32H7xx_HAL_Driver/Src/stm32h7xx_ll_usb.c ****       /* hclk Clock Range between 16-17.2 MHz */
 162:Drivers/STM32H7xx_HAL_Driver/Src/stm32h7xx_ll_usb.c ****       UsbTrd = 0xDU;
 163:Drivers/STM32H7xx_HAL_Driver/Src/stm32h7xx_ll_usb.c ****     }
 164:Drivers/STM32H7xx_HAL_Driver/Src/stm32h7xx_ll_usb.c ****     else if ((hclk >= 17200000U) && (hclk < 18500000U))
 165:Drivers/STM32H7xx_HAL_Driver/Src/stm32h7xx_ll_usb.c ****     {
 166:Drivers/STM32H7xx_HAL_Driver/Src/stm32h7xx_ll_usb.c ****       /* hclk Clock Range between 17.2-18.5 MHz */
 167:Drivers/STM32H7xx_HAL_Driver/Src/stm32h7xx_ll_usb.c ****       UsbTrd = 0xCU;
 168:Drivers/STM32H7xx_HAL_Driver/Src/stm32h7xx_ll_usb.c ****     }
 169:Drivers/STM32H7xx_HAL_Driver/Src/stm32h7xx_ll_usb.c ****     else if ((hclk >= 18500000U) && (hclk < 20000000U))
 170:Drivers/STM32H7xx_HAL_Driver/Src/stm32h7xx_ll_usb.c ****     {
 171:Drivers/STM32H7xx_HAL_Driver/Src/stm32h7xx_ll_usb.c ****       /* hclk Clock Range between 18.5-20 MHz */
 172:Drivers/STM32H7xx_HAL_Driver/Src/stm32h7xx_ll_usb.c ****       UsbTrd = 0xBU;
 173:Drivers/STM32H7xx_HAL_Driver/Src/stm32h7xx_ll_usb.c ****     }
 174:Drivers/STM32H7xx_HAL_Driver/Src/stm32h7xx_ll_usb.c ****     else if ((hclk >= 20000000U) && (hclk < 21800000U))
 175:Drivers/STM32H7xx_HAL_Driver/Src/stm32h7xx_ll_usb.c ****     {
 176:Drivers/STM32H7xx_HAL_Driver/Src/stm32h7xx_ll_usb.c ****       /* hclk Clock Range between 20-21.8 MHz */
 177:Drivers/STM32H7xx_HAL_Driver/Src/stm32h7xx_ll_usb.c ****       UsbTrd = 0xAU;
 178:Drivers/STM32H7xx_HAL_Driver/Src/stm32h7xx_ll_usb.c ****     }
 179:Drivers/STM32H7xx_HAL_Driver/Src/stm32h7xx_ll_usb.c ****     else if ((hclk >= 21800000U) && (hclk < 24000000U))
 180:Drivers/STM32H7xx_HAL_Driver/Src/stm32h7xx_ll_usb.c ****     {
 181:Drivers/STM32H7xx_HAL_Driver/Src/stm32h7xx_ll_usb.c ****       /* hclk Clock Range between 21.8-24 MHz */
 182:Drivers/STM32H7xx_HAL_Driver/Src/stm32h7xx_ll_usb.c ****       UsbTrd = 0x9U;
 183:Drivers/STM32H7xx_HAL_Driver/Src/stm32h7xx_ll_usb.c ****     }
 184:Drivers/STM32H7xx_HAL_Driver/Src/stm32h7xx_ll_usb.c ****     else if ((hclk >= 24000000U) && (hclk < 27700000U))
 185:Drivers/STM32H7xx_HAL_Driver/Src/stm32h7xx_ll_usb.c ****     {
 186:Drivers/STM32H7xx_HAL_Driver/Src/stm32h7xx_ll_usb.c ****       /* hclk Clock Range between 24-27.7 MHz */
 187:Drivers/STM32H7xx_HAL_Driver/Src/stm32h7xx_ll_usb.c ****       UsbTrd = 0x8U;
 188:Drivers/STM32H7xx_HAL_Driver/Src/stm32h7xx_ll_usb.c ****     }
 189:Drivers/STM32H7xx_HAL_Driver/Src/stm32h7xx_ll_usb.c ****     else if ((hclk >= 27700000U) && (hclk < 32000000U))
 190:Drivers/STM32H7xx_HAL_Driver/Src/stm32h7xx_ll_usb.c ****     {
 191:Drivers/STM32H7xx_HAL_Driver/Src/stm32h7xx_ll_usb.c ****       /* hclk Clock Range between 27.7-32 MHz */
 192:Drivers/STM32H7xx_HAL_Driver/Src/stm32h7xx_ll_usb.c ****       UsbTrd = 0x7U;
 193:Drivers/STM32H7xx_HAL_Driver/Src/stm32h7xx_ll_usb.c ****     }
 194:Drivers/STM32H7xx_HAL_Driver/Src/stm32h7xx_ll_usb.c ****     else /* if(hclk >= 32000000) */
 195:Drivers/STM32H7xx_HAL_Driver/Src/stm32h7xx_ll_usb.c ****     {
 196:Drivers/STM32H7xx_HAL_Driver/Src/stm32h7xx_ll_usb.c ****       /* hclk Clock Range between 32-200 MHz */
 197:Drivers/STM32H7xx_HAL_Driver/Src/stm32h7xx_ll_usb.c ****       UsbTrd = 0x6U;
 198:Drivers/STM32H7xx_HAL_Driver/Src/stm32h7xx_ll_usb.c ****     }
 199:Drivers/STM32H7xx_HAL_Driver/Src/stm32h7xx_ll_usb.c ****   }
 200:Drivers/STM32H7xx_HAL_Driver/Src/stm32h7xx_ll_usb.c ****   else if (speed == USBD_HS_SPEED)
 201:Drivers/STM32H7xx_HAL_Driver/Src/stm32h7xx_ll_usb.c ****   {
 202:Drivers/STM32H7xx_HAL_Driver/Src/stm32h7xx_ll_usb.c ****     UsbTrd = USBD_HS_TRDT_VALUE;
ARM GAS  /tmp/cc0TWTOC.s 			page 5


 203:Drivers/STM32H7xx_HAL_Driver/Src/stm32h7xx_ll_usb.c ****   }
 204:Drivers/STM32H7xx_HAL_Driver/Src/stm32h7xx_ll_usb.c ****   else
 205:Drivers/STM32H7xx_HAL_Driver/Src/stm32h7xx_ll_usb.c ****   {
 206:Drivers/STM32H7xx_HAL_Driver/Src/stm32h7xx_ll_usb.c ****     UsbTrd = USBD_DEFAULT_TRDT_VALUE;
 207:Drivers/STM32H7xx_HAL_Driver/Src/stm32h7xx_ll_usb.c ****   }
 208:Drivers/STM32H7xx_HAL_Driver/Src/stm32h7xx_ll_usb.c **** 
 209:Drivers/STM32H7xx_HAL_Driver/Src/stm32h7xx_ll_usb.c ****   USBx->GUSBCFG &= ~USB_OTG_GUSBCFG_TRDT;
 210:Drivers/STM32H7xx_HAL_Driver/Src/stm32h7xx_ll_usb.c ****   USBx->GUSBCFG |= (uint32_t)((UsbTrd << 10) & USB_OTG_GUSBCFG_TRDT);
 211:Drivers/STM32H7xx_HAL_Driver/Src/stm32h7xx_ll_usb.c **** 
 212:Drivers/STM32H7xx_HAL_Driver/Src/stm32h7xx_ll_usb.c ****   return HAL_OK;
 213:Drivers/STM32H7xx_HAL_Driver/Src/stm32h7xx_ll_usb.c **** }
 214:Drivers/STM32H7xx_HAL_Driver/Src/stm32h7xx_ll_usb.c **** 
 215:Drivers/STM32H7xx_HAL_Driver/Src/stm32h7xx_ll_usb.c **** /**
 216:Drivers/STM32H7xx_HAL_Driver/Src/stm32h7xx_ll_usb.c ****   * @brief  USB_EnableGlobalInt
 217:Drivers/STM32H7xx_HAL_Driver/Src/stm32h7xx_ll_usb.c ****   *         Enables the controller's Global Int in the AHB Config reg
 218:Drivers/STM32H7xx_HAL_Driver/Src/stm32h7xx_ll_usb.c ****   * @param  USBx  Selected device
 219:Drivers/STM32H7xx_HAL_Driver/Src/stm32h7xx_ll_usb.c ****   * @retval HAL status
 220:Drivers/STM32H7xx_HAL_Driver/Src/stm32h7xx_ll_usb.c ****   */
 221:Drivers/STM32H7xx_HAL_Driver/Src/stm32h7xx_ll_usb.c **** HAL_StatusTypeDef USB_EnableGlobalInt(USB_OTG_GlobalTypeDef *USBx)
 222:Drivers/STM32H7xx_HAL_Driver/Src/stm32h7xx_ll_usb.c **** {
 223:Drivers/STM32H7xx_HAL_Driver/Src/stm32h7xx_ll_usb.c ****   USBx->GAHBCFG |= USB_OTG_GAHBCFG_GINT;
 224:Drivers/STM32H7xx_HAL_Driver/Src/stm32h7xx_ll_usb.c ****   return HAL_OK;
 225:Drivers/STM32H7xx_HAL_Driver/Src/stm32h7xx_ll_usb.c **** }
 226:Drivers/STM32H7xx_HAL_Driver/Src/stm32h7xx_ll_usb.c **** 
 227:Drivers/STM32H7xx_HAL_Driver/Src/stm32h7xx_ll_usb.c **** /**
 228:Drivers/STM32H7xx_HAL_Driver/Src/stm32h7xx_ll_usb.c ****   * @brief  USB_DisableGlobalInt
 229:Drivers/STM32H7xx_HAL_Driver/Src/stm32h7xx_ll_usb.c ****   *         Disable the controller's Global Int in the AHB Config reg
 230:Drivers/STM32H7xx_HAL_Driver/Src/stm32h7xx_ll_usb.c ****   * @param  USBx  Selected device
 231:Drivers/STM32H7xx_HAL_Driver/Src/stm32h7xx_ll_usb.c ****   * @retval HAL status
 232:Drivers/STM32H7xx_HAL_Driver/Src/stm32h7xx_ll_usb.c **** */
 233:Drivers/STM32H7xx_HAL_Driver/Src/stm32h7xx_ll_usb.c **** HAL_StatusTypeDef USB_DisableGlobalInt(USB_OTG_GlobalTypeDef *USBx)
 234:Drivers/STM32H7xx_HAL_Driver/Src/stm32h7xx_ll_usb.c **** {
 235:Drivers/STM32H7xx_HAL_Driver/Src/stm32h7xx_ll_usb.c ****   USBx->GAHBCFG &= ~USB_OTG_GAHBCFG_GINT;
 236:Drivers/STM32H7xx_HAL_Driver/Src/stm32h7xx_ll_usb.c ****   return HAL_OK;
 237:Drivers/STM32H7xx_HAL_Driver/Src/stm32h7xx_ll_usb.c **** }
 238:Drivers/STM32H7xx_HAL_Driver/Src/stm32h7xx_ll_usb.c **** 
 239:Drivers/STM32H7xx_HAL_Driver/Src/stm32h7xx_ll_usb.c **** /**
 240:Drivers/STM32H7xx_HAL_Driver/Src/stm32h7xx_ll_usb.c ****   * @brief  USB_SetCurrentMode : Set functional mode
 241:Drivers/STM32H7xx_HAL_Driver/Src/stm32h7xx_ll_usb.c ****   * @param  USBx  Selected device
 242:Drivers/STM32H7xx_HAL_Driver/Src/stm32h7xx_ll_usb.c ****   * @param  mode   current core mode
 243:Drivers/STM32H7xx_HAL_Driver/Src/stm32h7xx_ll_usb.c ****   *          This parameter can be one of these values:
 244:Drivers/STM32H7xx_HAL_Driver/Src/stm32h7xx_ll_usb.c ****   *            @arg USB_DEVICE_MODE: Peripheral mode
 245:Drivers/STM32H7xx_HAL_Driver/Src/stm32h7xx_ll_usb.c ****   *            @arg USB_HOST_MODE: Host mode
 246:Drivers/STM32H7xx_HAL_Driver/Src/stm32h7xx_ll_usb.c ****   *            @arg USB_DRD_MODE: Dual Role Device mode
 247:Drivers/STM32H7xx_HAL_Driver/Src/stm32h7xx_ll_usb.c ****   * @retval HAL status
 248:Drivers/STM32H7xx_HAL_Driver/Src/stm32h7xx_ll_usb.c ****   */
 249:Drivers/STM32H7xx_HAL_Driver/Src/stm32h7xx_ll_usb.c **** HAL_StatusTypeDef USB_SetCurrentMode(USB_OTG_GlobalTypeDef *USBx, USB_OTG_ModeTypeDef mode)
 250:Drivers/STM32H7xx_HAL_Driver/Src/stm32h7xx_ll_usb.c **** {
 251:Drivers/STM32H7xx_HAL_Driver/Src/stm32h7xx_ll_usb.c ****   USBx->GUSBCFG &= ~(USB_OTG_GUSBCFG_FHMOD | USB_OTG_GUSBCFG_FDMOD);
 252:Drivers/STM32H7xx_HAL_Driver/Src/stm32h7xx_ll_usb.c **** 
 253:Drivers/STM32H7xx_HAL_Driver/Src/stm32h7xx_ll_usb.c ****   if (mode == USB_HOST_MODE)
 254:Drivers/STM32H7xx_HAL_Driver/Src/stm32h7xx_ll_usb.c ****   {
 255:Drivers/STM32H7xx_HAL_Driver/Src/stm32h7xx_ll_usb.c ****     USBx->GUSBCFG |= USB_OTG_GUSBCFG_FHMOD;
 256:Drivers/STM32H7xx_HAL_Driver/Src/stm32h7xx_ll_usb.c ****   }
 257:Drivers/STM32H7xx_HAL_Driver/Src/stm32h7xx_ll_usb.c ****   else if (mode == USB_DEVICE_MODE)
 258:Drivers/STM32H7xx_HAL_Driver/Src/stm32h7xx_ll_usb.c ****   {
 259:Drivers/STM32H7xx_HAL_Driver/Src/stm32h7xx_ll_usb.c ****     USBx->GUSBCFG |= USB_OTG_GUSBCFG_FDMOD;
ARM GAS  /tmp/cc0TWTOC.s 			page 6


 260:Drivers/STM32H7xx_HAL_Driver/Src/stm32h7xx_ll_usb.c ****   }
 261:Drivers/STM32H7xx_HAL_Driver/Src/stm32h7xx_ll_usb.c ****   else
 262:Drivers/STM32H7xx_HAL_Driver/Src/stm32h7xx_ll_usb.c ****   {
 263:Drivers/STM32H7xx_HAL_Driver/Src/stm32h7xx_ll_usb.c ****     return HAL_ERROR;
 264:Drivers/STM32H7xx_HAL_Driver/Src/stm32h7xx_ll_usb.c ****   }
 265:Drivers/STM32H7xx_HAL_Driver/Src/stm32h7xx_ll_usb.c ****   HAL_Delay(50U);
 266:Drivers/STM32H7xx_HAL_Driver/Src/stm32h7xx_ll_usb.c **** 
 267:Drivers/STM32H7xx_HAL_Driver/Src/stm32h7xx_ll_usb.c ****   return HAL_OK;
 268:Drivers/STM32H7xx_HAL_Driver/Src/stm32h7xx_ll_usb.c **** }
 269:Drivers/STM32H7xx_HAL_Driver/Src/stm32h7xx_ll_usb.c **** 
 270:Drivers/STM32H7xx_HAL_Driver/Src/stm32h7xx_ll_usb.c **** /**
 271:Drivers/STM32H7xx_HAL_Driver/Src/stm32h7xx_ll_usb.c ****   * @brief  USB_DevInit : Initializes the USB_OTG controller registers
 272:Drivers/STM32H7xx_HAL_Driver/Src/stm32h7xx_ll_usb.c ****   *         for device mode
 273:Drivers/STM32H7xx_HAL_Driver/Src/stm32h7xx_ll_usb.c ****   * @param  USBx  Selected device
 274:Drivers/STM32H7xx_HAL_Driver/Src/stm32h7xx_ll_usb.c ****   * @param  cfg   pointer to a USB_OTG_CfgTypeDef structure that contains
 275:Drivers/STM32H7xx_HAL_Driver/Src/stm32h7xx_ll_usb.c ****   *         the configuration information for the specified USBx peripheral.
 276:Drivers/STM32H7xx_HAL_Driver/Src/stm32h7xx_ll_usb.c ****   * @retval HAL status
 277:Drivers/STM32H7xx_HAL_Driver/Src/stm32h7xx_ll_usb.c ****   */
 278:Drivers/STM32H7xx_HAL_Driver/Src/stm32h7xx_ll_usb.c **** HAL_StatusTypeDef USB_DevInit(USB_OTG_GlobalTypeDef *USBx, USB_OTG_CfgTypeDef cfg)
 279:Drivers/STM32H7xx_HAL_Driver/Src/stm32h7xx_ll_usb.c **** {
 280:Drivers/STM32H7xx_HAL_Driver/Src/stm32h7xx_ll_usb.c ****   HAL_StatusTypeDef ret = HAL_OK;
 281:Drivers/STM32H7xx_HAL_Driver/Src/stm32h7xx_ll_usb.c ****   uint32_t USBx_BASE = (uint32_t)USBx;
 282:Drivers/STM32H7xx_HAL_Driver/Src/stm32h7xx_ll_usb.c ****   uint32_t i;
 283:Drivers/STM32H7xx_HAL_Driver/Src/stm32h7xx_ll_usb.c **** 
 284:Drivers/STM32H7xx_HAL_Driver/Src/stm32h7xx_ll_usb.c ****   for (i = 0U; i < 15U; i++)
 285:Drivers/STM32H7xx_HAL_Driver/Src/stm32h7xx_ll_usb.c ****   {
 286:Drivers/STM32H7xx_HAL_Driver/Src/stm32h7xx_ll_usb.c ****     USBx->DIEPTXF[i] = 0U;
 287:Drivers/STM32H7xx_HAL_Driver/Src/stm32h7xx_ll_usb.c ****   }
 288:Drivers/STM32H7xx_HAL_Driver/Src/stm32h7xx_ll_usb.c **** 
 289:Drivers/STM32H7xx_HAL_Driver/Src/stm32h7xx_ll_usb.c ****   /* VBUS Sensing setup */
 290:Drivers/STM32H7xx_HAL_Driver/Src/stm32h7xx_ll_usb.c ****   if (cfg.vbus_sensing_enable == 0U)
 291:Drivers/STM32H7xx_HAL_Driver/Src/stm32h7xx_ll_usb.c ****   {
 292:Drivers/STM32H7xx_HAL_Driver/Src/stm32h7xx_ll_usb.c ****     /* Deactivate VBUS Sensing B */
 293:Drivers/STM32H7xx_HAL_Driver/Src/stm32h7xx_ll_usb.c ****     USBx->GCCFG &= ~USB_OTG_GCCFG_VBDEN;
 294:Drivers/STM32H7xx_HAL_Driver/Src/stm32h7xx_ll_usb.c **** 
 295:Drivers/STM32H7xx_HAL_Driver/Src/stm32h7xx_ll_usb.c ****     /* B-peripheral session valid override enable */
 296:Drivers/STM32H7xx_HAL_Driver/Src/stm32h7xx_ll_usb.c ****     USBx->GOTGCTL |= USB_OTG_GOTGCTL_BVALOEN;
 297:Drivers/STM32H7xx_HAL_Driver/Src/stm32h7xx_ll_usb.c ****     USBx->GOTGCTL |= USB_OTG_GOTGCTL_BVALOVAL;
 298:Drivers/STM32H7xx_HAL_Driver/Src/stm32h7xx_ll_usb.c ****   }
 299:Drivers/STM32H7xx_HAL_Driver/Src/stm32h7xx_ll_usb.c ****   else
 300:Drivers/STM32H7xx_HAL_Driver/Src/stm32h7xx_ll_usb.c ****   {
 301:Drivers/STM32H7xx_HAL_Driver/Src/stm32h7xx_ll_usb.c ****     /* Enable HW VBUS sensing */
 302:Drivers/STM32H7xx_HAL_Driver/Src/stm32h7xx_ll_usb.c ****     USBx->GCCFG |= USB_OTG_GCCFG_VBDEN;
 303:Drivers/STM32H7xx_HAL_Driver/Src/stm32h7xx_ll_usb.c ****   }
 304:Drivers/STM32H7xx_HAL_Driver/Src/stm32h7xx_ll_usb.c **** 
 305:Drivers/STM32H7xx_HAL_Driver/Src/stm32h7xx_ll_usb.c ****   /* Restart the Phy Clock */
 306:Drivers/STM32H7xx_HAL_Driver/Src/stm32h7xx_ll_usb.c ****   USBx_PCGCCTL = 0U;
 307:Drivers/STM32H7xx_HAL_Driver/Src/stm32h7xx_ll_usb.c **** 
 308:Drivers/STM32H7xx_HAL_Driver/Src/stm32h7xx_ll_usb.c ****   /* Device mode configuration */
 309:Drivers/STM32H7xx_HAL_Driver/Src/stm32h7xx_ll_usb.c ****   USBx_DEVICE->DCFG |= DCFG_FRAME_INTERVAL_80;
 310:Drivers/STM32H7xx_HAL_Driver/Src/stm32h7xx_ll_usb.c **** 
 311:Drivers/STM32H7xx_HAL_Driver/Src/stm32h7xx_ll_usb.c ****   if (cfg.phy_itface == USB_OTG_ULPI_PHY)
 312:Drivers/STM32H7xx_HAL_Driver/Src/stm32h7xx_ll_usb.c ****   {
 313:Drivers/STM32H7xx_HAL_Driver/Src/stm32h7xx_ll_usb.c ****     if (cfg.speed == USBD_HS_SPEED)
 314:Drivers/STM32H7xx_HAL_Driver/Src/stm32h7xx_ll_usb.c ****     {
 315:Drivers/STM32H7xx_HAL_Driver/Src/stm32h7xx_ll_usb.c ****       /* Set Core speed to High speed mode */
 316:Drivers/STM32H7xx_HAL_Driver/Src/stm32h7xx_ll_usb.c ****       (void)USB_SetDevSpeed(USBx, USB_OTG_SPEED_HIGH);
ARM GAS  /tmp/cc0TWTOC.s 			page 7


 317:Drivers/STM32H7xx_HAL_Driver/Src/stm32h7xx_ll_usb.c ****     }
 318:Drivers/STM32H7xx_HAL_Driver/Src/stm32h7xx_ll_usb.c ****     else
 319:Drivers/STM32H7xx_HAL_Driver/Src/stm32h7xx_ll_usb.c ****     {
 320:Drivers/STM32H7xx_HAL_Driver/Src/stm32h7xx_ll_usb.c ****       /* Set Core speed to Full speed mode */
 321:Drivers/STM32H7xx_HAL_Driver/Src/stm32h7xx_ll_usb.c ****       (void)USB_SetDevSpeed(USBx, USB_OTG_SPEED_HIGH_IN_FULL);
 322:Drivers/STM32H7xx_HAL_Driver/Src/stm32h7xx_ll_usb.c ****     }
 323:Drivers/STM32H7xx_HAL_Driver/Src/stm32h7xx_ll_usb.c ****   }
 324:Drivers/STM32H7xx_HAL_Driver/Src/stm32h7xx_ll_usb.c ****   else
 325:Drivers/STM32H7xx_HAL_Driver/Src/stm32h7xx_ll_usb.c ****   {
 326:Drivers/STM32H7xx_HAL_Driver/Src/stm32h7xx_ll_usb.c ****     /* Set Core speed to Full speed mode */
 327:Drivers/STM32H7xx_HAL_Driver/Src/stm32h7xx_ll_usb.c ****     (void)USB_SetDevSpeed(USBx, USB_OTG_SPEED_FULL);
 328:Drivers/STM32H7xx_HAL_Driver/Src/stm32h7xx_ll_usb.c ****   }
 329:Drivers/STM32H7xx_HAL_Driver/Src/stm32h7xx_ll_usb.c **** 
 330:Drivers/STM32H7xx_HAL_Driver/Src/stm32h7xx_ll_usb.c ****   /* Flush the FIFOs */
 331:Drivers/STM32H7xx_HAL_Driver/Src/stm32h7xx_ll_usb.c ****   if (USB_FlushTxFifo(USBx, 0x10U) != HAL_OK) /* all Tx FIFOs */
 332:Drivers/STM32H7xx_HAL_Driver/Src/stm32h7xx_ll_usb.c ****   {
 333:Drivers/STM32H7xx_HAL_Driver/Src/stm32h7xx_ll_usb.c ****     ret = HAL_ERROR;
 334:Drivers/STM32H7xx_HAL_Driver/Src/stm32h7xx_ll_usb.c ****   }
 335:Drivers/STM32H7xx_HAL_Driver/Src/stm32h7xx_ll_usb.c **** 
 336:Drivers/STM32H7xx_HAL_Driver/Src/stm32h7xx_ll_usb.c ****   if (USB_FlushRxFifo(USBx) != HAL_OK)
 337:Drivers/STM32H7xx_HAL_Driver/Src/stm32h7xx_ll_usb.c ****   {
 338:Drivers/STM32H7xx_HAL_Driver/Src/stm32h7xx_ll_usb.c ****     ret = HAL_ERROR;
 339:Drivers/STM32H7xx_HAL_Driver/Src/stm32h7xx_ll_usb.c ****   }
 340:Drivers/STM32H7xx_HAL_Driver/Src/stm32h7xx_ll_usb.c **** 
 341:Drivers/STM32H7xx_HAL_Driver/Src/stm32h7xx_ll_usb.c ****   /* Clear all pending Device Interrupts */
 342:Drivers/STM32H7xx_HAL_Driver/Src/stm32h7xx_ll_usb.c ****   USBx_DEVICE->DIEPMSK = 0U;
 343:Drivers/STM32H7xx_HAL_Driver/Src/stm32h7xx_ll_usb.c ****   USBx_DEVICE->DOEPMSK = 0U;
 344:Drivers/STM32H7xx_HAL_Driver/Src/stm32h7xx_ll_usb.c ****   USBx_DEVICE->DAINTMSK = 0U;
 345:Drivers/STM32H7xx_HAL_Driver/Src/stm32h7xx_ll_usb.c **** 
 346:Drivers/STM32H7xx_HAL_Driver/Src/stm32h7xx_ll_usb.c ****   for (i = 0U; i < cfg.dev_endpoints; i++)
 347:Drivers/STM32H7xx_HAL_Driver/Src/stm32h7xx_ll_usb.c ****   {
 348:Drivers/STM32H7xx_HAL_Driver/Src/stm32h7xx_ll_usb.c ****     if ((USBx_INEP(i)->DIEPCTL & USB_OTG_DIEPCTL_EPENA) == USB_OTG_DIEPCTL_EPENA)
 349:Drivers/STM32H7xx_HAL_Driver/Src/stm32h7xx_ll_usb.c ****     {
 350:Drivers/STM32H7xx_HAL_Driver/Src/stm32h7xx_ll_usb.c ****       if (i == 0U)
 351:Drivers/STM32H7xx_HAL_Driver/Src/stm32h7xx_ll_usb.c ****       {
 352:Drivers/STM32H7xx_HAL_Driver/Src/stm32h7xx_ll_usb.c ****         USBx_INEP(i)->DIEPCTL = USB_OTG_DIEPCTL_SNAK;
 353:Drivers/STM32H7xx_HAL_Driver/Src/stm32h7xx_ll_usb.c ****       }
 354:Drivers/STM32H7xx_HAL_Driver/Src/stm32h7xx_ll_usb.c ****       else
 355:Drivers/STM32H7xx_HAL_Driver/Src/stm32h7xx_ll_usb.c ****       {
 356:Drivers/STM32H7xx_HAL_Driver/Src/stm32h7xx_ll_usb.c ****         USBx_INEP(i)->DIEPCTL = USB_OTG_DIEPCTL_EPDIS | USB_OTG_DIEPCTL_SNAK;
 357:Drivers/STM32H7xx_HAL_Driver/Src/stm32h7xx_ll_usb.c ****       }
 358:Drivers/STM32H7xx_HAL_Driver/Src/stm32h7xx_ll_usb.c ****     }
 359:Drivers/STM32H7xx_HAL_Driver/Src/stm32h7xx_ll_usb.c ****     else
 360:Drivers/STM32H7xx_HAL_Driver/Src/stm32h7xx_ll_usb.c ****     {
 361:Drivers/STM32H7xx_HAL_Driver/Src/stm32h7xx_ll_usb.c ****       USBx_INEP(i)->DIEPCTL = 0U;
 362:Drivers/STM32H7xx_HAL_Driver/Src/stm32h7xx_ll_usb.c ****     }
 363:Drivers/STM32H7xx_HAL_Driver/Src/stm32h7xx_ll_usb.c **** 
 364:Drivers/STM32H7xx_HAL_Driver/Src/stm32h7xx_ll_usb.c ****     USBx_INEP(i)->DIEPTSIZ = 0U;
 365:Drivers/STM32H7xx_HAL_Driver/Src/stm32h7xx_ll_usb.c ****     USBx_INEP(i)->DIEPINT  = 0xFB7FU;
 366:Drivers/STM32H7xx_HAL_Driver/Src/stm32h7xx_ll_usb.c ****   }
 367:Drivers/STM32H7xx_HAL_Driver/Src/stm32h7xx_ll_usb.c **** 
 368:Drivers/STM32H7xx_HAL_Driver/Src/stm32h7xx_ll_usb.c ****   for (i = 0U; i < cfg.dev_endpoints; i++)
 369:Drivers/STM32H7xx_HAL_Driver/Src/stm32h7xx_ll_usb.c ****   {
 370:Drivers/STM32H7xx_HAL_Driver/Src/stm32h7xx_ll_usb.c ****     if ((USBx_OUTEP(i)->DOEPCTL & USB_OTG_DOEPCTL_EPENA) == USB_OTG_DOEPCTL_EPENA)
 371:Drivers/STM32H7xx_HAL_Driver/Src/stm32h7xx_ll_usb.c ****     {
 372:Drivers/STM32H7xx_HAL_Driver/Src/stm32h7xx_ll_usb.c ****       if (i == 0U)
 373:Drivers/STM32H7xx_HAL_Driver/Src/stm32h7xx_ll_usb.c ****       {
ARM GAS  /tmp/cc0TWTOC.s 			page 8


 374:Drivers/STM32H7xx_HAL_Driver/Src/stm32h7xx_ll_usb.c ****         USBx_OUTEP(i)->DOEPCTL = USB_OTG_DOEPCTL_SNAK;
 375:Drivers/STM32H7xx_HAL_Driver/Src/stm32h7xx_ll_usb.c ****       }
 376:Drivers/STM32H7xx_HAL_Driver/Src/stm32h7xx_ll_usb.c ****       else
 377:Drivers/STM32H7xx_HAL_Driver/Src/stm32h7xx_ll_usb.c ****       {
 378:Drivers/STM32H7xx_HAL_Driver/Src/stm32h7xx_ll_usb.c ****         USBx_OUTEP(i)->DOEPCTL = USB_OTG_DOEPCTL_EPDIS | USB_OTG_DOEPCTL_SNAK;
 379:Drivers/STM32H7xx_HAL_Driver/Src/stm32h7xx_ll_usb.c ****       }
 380:Drivers/STM32H7xx_HAL_Driver/Src/stm32h7xx_ll_usb.c ****     }
 381:Drivers/STM32H7xx_HAL_Driver/Src/stm32h7xx_ll_usb.c ****     else
 382:Drivers/STM32H7xx_HAL_Driver/Src/stm32h7xx_ll_usb.c ****     {
 383:Drivers/STM32H7xx_HAL_Driver/Src/stm32h7xx_ll_usb.c ****       USBx_OUTEP(i)->DOEPCTL = 0U;
 384:Drivers/STM32H7xx_HAL_Driver/Src/stm32h7xx_ll_usb.c ****     }
 385:Drivers/STM32H7xx_HAL_Driver/Src/stm32h7xx_ll_usb.c **** 
 386:Drivers/STM32H7xx_HAL_Driver/Src/stm32h7xx_ll_usb.c ****     USBx_OUTEP(i)->DOEPTSIZ = 0U;
 387:Drivers/STM32H7xx_HAL_Driver/Src/stm32h7xx_ll_usb.c ****     USBx_OUTEP(i)->DOEPINT  = 0xFB7FU;
 388:Drivers/STM32H7xx_HAL_Driver/Src/stm32h7xx_ll_usb.c ****   }
 389:Drivers/STM32H7xx_HAL_Driver/Src/stm32h7xx_ll_usb.c **** 
 390:Drivers/STM32H7xx_HAL_Driver/Src/stm32h7xx_ll_usb.c ****   USBx_DEVICE->DIEPMSK &= ~(USB_OTG_DIEPMSK_TXFURM);
 391:Drivers/STM32H7xx_HAL_Driver/Src/stm32h7xx_ll_usb.c **** 
 392:Drivers/STM32H7xx_HAL_Driver/Src/stm32h7xx_ll_usb.c ****   if (cfg.dma_enable == 1U)
 393:Drivers/STM32H7xx_HAL_Driver/Src/stm32h7xx_ll_usb.c ****   {
 394:Drivers/STM32H7xx_HAL_Driver/Src/stm32h7xx_ll_usb.c ****     /*Set threshold parameters */
 395:Drivers/STM32H7xx_HAL_Driver/Src/stm32h7xx_ll_usb.c ****     USBx_DEVICE->DTHRCTL = USB_OTG_DTHRCTL_TXTHRLEN_6 |
 396:Drivers/STM32H7xx_HAL_Driver/Src/stm32h7xx_ll_usb.c ****                            USB_OTG_DTHRCTL_RXTHRLEN_6;
 397:Drivers/STM32H7xx_HAL_Driver/Src/stm32h7xx_ll_usb.c **** 
 398:Drivers/STM32H7xx_HAL_Driver/Src/stm32h7xx_ll_usb.c ****     USBx_DEVICE->DTHRCTL |= USB_OTG_DTHRCTL_RXTHREN |
 399:Drivers/STM32H7xx_HAL_Driver/Src/stm32h7xx_ll_usb.c ****                             USB_OTG_DTHRCTL_ISOTHREN |
 400:Drivers/STM32H7xx_HAL_Driver/Src/stm32h7xx_ll_usb.c ****                             USB_OTG_DTHRCTL_NONISOTHREN;
 401:Drivers/STM32H7xx_HAL_Driver/Src/stm32h7xx_ll_usb.c ****   }
 402:Drivers/STM32H7xx_HAL_Driver/Src/stm32h7xx_ll_usb.c **** 
 403:Drivers/STM32H7xx_HAL_Driver/Src/stm32h7xx_ll_usb.c ****   /* Disable all interrupts. */
 404:Drivers/STM32H7xx_HAL_Driver/Src/stm32h7xx_ll_usb.c ****   USBx->GINTMSK = 0U;
 405:Drivers/STM32H7xx_HAL_Driver/Src/stm32h7xx_ll_usb.c **** 
 406:Drivers/STM32H7xx_HAL_Driver/Src/stm32h7xx_ll_usb.c ****   /* Clear any pending interrupts */
 407:Drivers/STM32H7xx_HAL_Driver/Src/stm32h7xx_ll_usb.c ****   USBx->GINTSTS = 0xBFFFFFFFU;
 408:Drivers/STM32H7xx_HAL_Driver/Src/stm32h7xx_ll_usb.c **** 
 409:Drivers/STM32H7xx_HAL_Driver/Src/stm32h7xx_ll_usb.c ****   /* Enable the common interrupts */
 410:Drivers/STM32H7xx_HAL_Driver/Src/stm32h7xx_ll_usb.c ****   if (cfg.dma_enable == 0U)
 411:Drivers/STM32H7xx_HAL_Driver/Src/stm32h7xx_ll_usb.c ****   {
 412:Drivers/STM32H7xx_HAL_Driver/Src/stm32h7xx_ll_usb.c ****     USBx->GINTMSK |= USB_OTG_GINTMSK_RXFLVLM;
 413:Drivers/STM32H7xx_HAL_Driver/Src/stm32h7xx_ll_usb.c ****   }
 414:Drivers/STM32H7xx_HAL_Driver/Src/stm32h7xx_ll_usb.c **** 
 415:Drivers/STM32H7xx_HAL_Driver/Src/stm32h7xx_ll_usb.c ****   /* Enable interrupts matching to the Device mode ONLY */
 416:Drivers/STM32H7xx_HAL_Driver/Src/stm32h7xx_ll_usb.c ****   USBx->GINTMSK |= USB_OTG_GINTMSK_USBSUSPM | USB_OTG_GINTMSK_USBRST |
 417:Drivers/STM32H7xx_HAL_Driver/Src/stm32h7xx_ll_usb.c ****                    USB_OTG_GINTMSK_ENUMDNEM | USB_OTG_GINTMSK_IEPINT |
 418:Drivers/STM32H7xx_HAL_Driver/Src/stm32h7xx_ll_usb.c ****                    USB_OTG_GINTMSK_OEPINT   | USB_OTG_GINTMSK_IISOIXFRM |
 419:Drivers/STM32H7xx_HAL_Driver/Src/stm32h7xx_ll_usb.c ****                    USB_OTG_GINTMSK_PXFRM_IISOOXFRM | USB_OTG_GINTMSK_WUIM;
 420:Drivers/STM32H7xx_HAL_Driver/Src/stm32h7xx_ll_usb.c **** 
 421:Drivers/STM32H7xx_HAL_Driver/Src/stm32h7xx_ll_usb.c ****   if (cfg.Sof_enable != 0U)
 422:Drivers/STM32H7xx_HAL_Driver/Src/stm32h7xx_ll_usb.c ****   {
 423:Drivers/STM32H7xx_HAL_Driver/Src/stm32h7xx_ll_usb.c ****     USBx->GINTMSK |= USB_OTG_GINTMSK_SOFM;
 424:Drivers/STM32H7xx_HAL_Driver/Src/stm32h7xx_ll_usb.c ****   }
 425:Drivers/STM32H7xx_HAL_Driver/Src/stm32h7xx_ll_usb.c **** 
 426:Drivers/STM32H7xx_HAL_Driver/Src/stm32h7xx_ll_usb.c ****   if (cfg.vbus_sensing_enable == 1U)
 427:Drivers/STM32H7xx_HAL_Driver/Src/stm32h7xx_ll_usb.c ****   {
 428:Drivers/STM32H7xx_HAL_Driver/Src/stm32h7xx_ll_usb.c ****     USBx->GINTMSK |= (USB_OTG_GINTMSK_SRQIM | USB_OTG_GINTMSK_OTGINT);
 429:Drivers/STM32H7xx_HAL_Driver/Src/stm32h7xx_ll_usb.c ****   }
 430:Drivers/STM32H7xx_HAL_Driver/Src/stm32h7xx_ll_usb.c **** 
ARM GAS  /tmp/cc0TWTOC.s 			page 9


 431:Drivers/STM32H7xx_HAL_Driver/Src/stm32h7xx_ll_usb.c ****   return ret;
 432:Drivers/STM32H7xx_HAL_Driver/Src/stm32h7xx_ll_usb.c **** }
 433:Drivers/STM32H7xx_HAL_Driver/Src/stm32h7xx_ll_usb.c **** 
 434:Drivers/STM32H7xx_HAL_Driver/Src/stm32h7xx_ll_usb.c **** /**
 435:Drivers/STM32H7xx_HAL_Driver/Src/stm32h7xx_ll_usb.c ****   * @brief  USB_OTG_FlushTxFifo : Flush a Tx FIFO
 436:Drivers/STM32H7xx_HAL_Driver/Src/stm32h7xx_ll_usb.c ****   * @param  USBx  Selected device
 437:Drivers/STM32H7xx_HAL_Driver/Src/stm32h7xx_ll_usb.c ****   * @param  num  FIFO number
 438:Drivers/STM32H7xx_HAL_Driver/Src/stm32h7xx_ll_usb.c ****   *         This parameter can be a value from 1 to 15
 439:Drivers/STM32H7xx_HAL_Driver/Src/stm32h7xx_ll_usb.c ****             15 means Flush all Tx FIFOs
 440:Drivers/STM32H7xx_HAL_Driver/Src/stm32h7xx_ll_usb.c ****   * @retval HAL status
 441:Drivers/STM32H7xx_HAL_Driver/Src/stm32h7xx_ll_usb.c ****   */
 442:Drivers/STM32H7xx_HAL_Driver/Src/stm32h7xx_ll_usb.c **** HAL_StatusTypeDef USB_FlushTxFifo(USB_OTG_GlobalTypeDef *USBx, uint32_t num)
 443:Drivers/STM32H7xx_HAL_Driver/Src/stm32h7xx_ll_usb.c **** {
 444:Drivers/STM32H7xx_HAL_Driver/Src/stm32h7xx_ll_usb.c ****   uint32_t count = 0U;
 445:Drivers/STM32H7xx_HAL_Driver/Src/stm32h7xx_ll_usb.c **** 
 446:Drivers/STM32H7xx_HAL_Driver/Src/stm32h7xx_ll_usb.c ****   USBx->GRSTCTL = (USB_OTG_GRSTCTL_TXFFLSH | (num << 6));
 447:Drivers/STM32H7xx_HAL_Driver/Src/stm32h7xx_ll_usb.c **** 
 448:Drivers/STM32H7xx_HAL_Driver/Src/stm32h7xx_ll_usb.c ****   do
 449:Drivers/STM32H7xx_HAL_Driver/Src/stm32h7xx_ll_usb.c ****   {
 450:Drivers/STM32H7xx_HAL_Driver/Src/stm32h7xx_ll_usb.c ****     if (++count > 200000U)
 451:Drivers/STM32H7xx_HAL_Driver/Src/stm32h7xx_ll_usb.c ****     {
 452:Drivers/STM32H7xx_HAL_Driver/Src/stm32h7xx_ll_usb.c ****       return HAL_TIMEOUT;
 453:Drivers/STM32H7xx_HAL_Driver/Src/stm32h7xx_ll_usb.c ****     }
 454:Drivers/STM32H7xx_HAL_Driver/Src/stm32h7xx_ll_usb.c ****   }
 455:Drivers/STM32H7xx_HAL_Driver/Src/stm32h7xx_ll_usb.c ****   while ((USBx->GRSTCTL & USB_OTG_GRSTCTL_TXFFLSH) == USB_OTG_GRSTCTL_TXFFLSH);
 456:Drivers/STM32H7xx_HAL_Driver/Src/stm32h7xx_ll_usb.c **** 
 457:Drivers/STM32H7xx_HAL_Driver/Src/stm32h7xx_ll_usb.c ****   return HAL_OK;
 458:Drivers/STM32H7xx_HAL_Driver/Src/stm32h7xx_ll_usb.c **** }
 459:Drivers/STM32H7xx_HAL_Driver/Src/stm32h7xx_ll_usb.c **** 
 460:Drivers/STM32H7xx_HAL_Driver/Src/stm32h7xx_ll_usb.c **** /**
 461:Drivers/STM32H7xx_HAL_Driver/Src/stm32h7xx_ll_usb.c ****   * @brief  USB_FlushRxFifo : Flush Rx FIFO
 462:Drivers/STM32H7xx_HAL_Driver/Src/stm32h7xx_ll_usb.c ****   * @param  USBx  Selected device
 463:Drivers/STM32H7xx_HAL_Driver/Src/stm32h7xx_ll_usb.c ****   * @retval HAL status
 464:Drivers/STM32H7xx_HAL_Driver/Src/stm32h7xx_ll_usb.c ****   */
 465:Drivers/STM32H7xx_HAL_Driver/Src/stm32h7xx_ll_usb.c **** HAL_StatusTypeDef USB_FlushRxFifo(USB_OTG_GlobalTypeDef *USBx)
 466:Drivers/STM32H7xx_HAL_Driver/Src/stm32h7xx_ll_usb.c **** {
 467:Drivers/STM32H7xx_HAL_Driver/Src/stm32h7xx_ll_usb.c ****   uint32_t count = 0;
 468:Drivers/STM32H7xx_HAL_Driver/Src/stm32h7xx_ll_usb.c **** 
 469:Drivers/STM32H7xx_HAL_Driver/Src/stm32h7xx_ll_usb.c ****   USBx->GRSTCTL = USB_OTG_GRSTCTL_RXFFLSH;
 470:Drivers/STM32H7xx_HAL_Driver/Src/stm32h7xx_ll_usb.c **** 
 471:Drivers/STM32H7xx_HAL_Driver/Src/stm32h7xx_ll_usb.c ****   do
 472:Drivers/STM32H7xx_HAL_Driver/Src/stm32h7xx_ll_usb.c ****   {
 473:Drivers/STM32H7xx_HAL_Driver/Src/stm32h7xx_ll_usb.c ****     if (++count > 200000U)
 474:Drivers/STM32H7xx_HAL_Driver/Src/stm32h7xx_ll_usb.c ****     {
 475:Drivers/STM32H7xx_HAL_Driver/Src/stm32h7xx_ll_usb.c ****       return HAL_TIMEOUT;
 476:Drivers/STM32H7xx_HAL_Driver/Src/stm32h7xx_ll_usb.c ****     }
 477:Drivers/STM32H7xx_HAL_Driver/Src/stm32h7xx_ll_usb.c ****   }
 478:Drivers/STM32H7xx_HAL_Driver/Src/stm32h7xx_ll_usb.c ****   while ((USBx->GRSTCTL & USB_OTG_GRSTCTL_RXFFLSH) == USB_OTG_GRSTCTL_RXFFLSH);
 479:Drivers/STM32H7xx_HAL_Driver/Src/stm32h7xx_ll_usb.c **** 
 480:Drivers/STM32H7xx_HAL_Driver/Src/stm32h7xx_ll_usb.c ****   return HAL_OK;
 481:Drivers/STM32H7xx_HAL_Driver/Src/stm32h7xx_ll_usb.c **** }
 482:Drivers/STM32H7xx_HAL_Driver/Src/stm32h7xx_ll_usb.c **** 
 483:Drivers/STM32H7xx_HAL_Driver/Src/stm32h7xx_ll_usb.c **** /**
 484:Drivers/STM32H7xx_HAL_Driver/Src/stm32h7xx_ll_usb.c ****   * @brief  USB_SetDevSpeed  Initializes the DevSpd field of DCFG register
 485:Drivers/STM32H7xx_HAL_Driver/Src/stm32h7xx_ll_usb.c ****   *         depending the PHY type and the enumeration speed of the device.
 486:Drivers/STM32H7xx_HAL_Driver/Src/stm32h7xx_ll_usb.c ****   * @param  USBx  Selected device
 487:Drivers/STM32H7xx_HAL_Driver/Src/stm32h7xx_ll_usb.c ****   * @param  speed  device speed
ARM GAS  /tmp/cc0TWTOC.s 			page 10


 488:Drivers/STM32H7xx_HAL_Driver/Src/stm32h7xx_ll_usb.c ****   *          This parameter can be one of these values:
 489:Drivers/STM32H7xx_HAL_Driver/Src/stm32h7xx_ll_usb.c ****   *            @arg USB_OTG_SPEED_HIGH: High speed mode
 490:Drivers/STM32H7xx_HAL_Driver/Src/stm32h7xx_ll_usb.c ****   *            @arg USB_OTG_SPEED_HIGH_IN_FULL: High speed core in Full Speed mode
 491:Drivers/STM32H7xx_HAL_Driver/Src/stm32h7xx_ll_usb.c ****   *            @arg USB_OTG_SPEED_FULL: Full speed mode
 492:Drivers/STM32H7xx_HAL_Driver/Src/stm32h7xx_ll_usb.c ****   * @retval  Hal status
 493:Drivers/STM32H7xx_HAL_Driver/Src/stm32h7xx_ll_usb.c ****   */
 494:Drivers/STM32H7xx_HAL_Driver/Src/stm32h7xx_ll_usb.c **** HAL_StatusTypeDef USB_SetDevSpeed(USB_OTG_GlobalTypeDef *USBx, uint8_t speed)
 495:Drivers/STM32H7xx_HAL_Driver/Src/stm32h7xx_ll_usb.c **** {
 496:Drivers/STM32H7xx_HAL_Driver/Src/stm32h7xx_ll_usb.c ****   uint32_t USBx_BASE = (uint32_t)USBx;
 497:Drivers/STM32H7xx_HAL_Driver/Src/stm32h7xx_ll_usb.c **** 
 498:Drivers/STM32H7xx_HAL_Driver/Src/stm32h7xx_ll_usb.c ****   USBx_DEVICE->DCFG |= speed;
 499:Drivers/STM32H7xx_HAL_Driver/Src/stm32h7xx_ll_usb.c ****   return HAL_OK;
 500:Drivers/STM32H7xx_HAL_Driver/Src/stm32h7xx_ll_usb.c **** }
 501:Drivers/STM32H7xx_HAL_Driver/Src/stm32h7xx_ll_usb.c **** 
 502:Drivers/STM32H7xx_HAL_Driver/Src/stm32h7xx_ll_usb.c **** /**
 503:Drivers/STM32H7xx_HAL_Driver/Src/stm32h7xx_ll_usb.c ****   * @brief  USB_GetDevSpeed  Return the Dev Speed
 504:Drivers/STM32H7xx_HAL_Driver/Src/stm32h7xx_ll_usb.c ****   * @param  USBx  Selected device
 505:Drivers/STM32H7xx_HAL_Driver/Src/stm32h7xx_ll_usb.c ****   * @retval speed  device speed
 506:Drivers/STM32H7xx_HAL_Driver/Src/stm32h7xx_ll_usb.c ****   *          This parameter can be one of these values:
 507:Drivers/STM32H7xx_HAL_Driver/Src/stm32h7xx_ll_usb.c ****   *            @arg PCD_SPEED_HIGH: High speed mode
 508:Drivers/STM32H7xx_HAL_Driver/Src/stm32h7xx_ll_usb.c ****   *            @arg PCD_SPEED_FULL: Full speed mode
 509:Drivers/STM32H7xx_HAL_Driver/Src/stm32h7xx_ll_usb.c ****   */
 510:Drivers/STM32H7xx_HAL_Driver/Src/stm32h7xx_ll_usb.c **** uint8_t USB_GetDevSpeed(USB_OTG_GlobalTypeDef *USBx)
 511:Drivers/STM32H7xx_HAL_Driver/Src/stm32h7xx_ll_usb.c **** {
 512:Drivers/STM32H7xx_HAL_Driver/Src/stm32h7xx_ll_usb.c ****   uint32_t USBx_BASE = (uint32_t)USBx;
 513:Drivers/STM32H7xx_HAL_Driver/Src/stm32h7xx_ll_usb.c ****   uint8_t speed;
 514:Drivers/STM32H7xx_HAL_Driver/Src/stm32h7xx_ll_usb.c ****   uint32_t DevEnumSpeed = USBx_DEVICE->DSTS & USB_OTG_DSTS_ENUMSPD;
 515:Drivers/STM32H7xx_HAL_Driver/Src/stm32h7xx_ll_usb.c **** 
 516:Drivers/STM32H7xx_HAL_Driver/Src/stm32h7xx_ll_usb.c ****   if (DevEnumSpeed == DSTS_ENUMSPD_HS_PHY_30MHZ_OR_60MHZ)
 517:Drivers/STM32H7xx_HAL_Driver/Src/stm32h7xx_ll_usb.c ****   {
 518:Drivers/STM32H7xx_HAL_Driver/Src/stm32h7xx_ll_usb.c ****     speed = USBD_HS_SPEED;
 519:Drivers/STM32H7xx_HAL_Driver/Src/stm32h7xx_ll_usb.c ****   }
 520:Drivers/STM32H7xx_HAL_Driver/Src/stm32h7xx_ll_usb.c ****   else if ((DevEnumSpeed == DSTS_ENUMSPD_FS_PHY_30MHZ_OR_60MHZ) ||
 521:Drivers/STM32H7xx_HAL_Driver/Src/stm32h7xx_ll_usb.c ****            (DevEnumSpeed == DSTS_ENUMSPD_FS_PHY_48MHZ))
 522:Drivers/STM32H7xx_HAL_Driver/Src/stm32h7xx_ll_usb.c ****   {
 523:Drivers/STM32H7xx_HAL_Driver/Src/stm32h7xx_ll_usb.c ****     speed = USBD_FS_SPEED;
 524:Drivers/STM32H7xx_HAL_Driver/Src/stm32h7xx_ll_usb.c ****   }
 525:Drivers/STM32H7xx_HAL_Driver/Src/stm32h7xx_ll_usb.c ****   else
 526:Drivers/STM32H7xx_HAL_Driver/Src/stm32h7xx_ll_usb.c ****   {
 527:Drivers/STM32H7xx_HAL_Driver/Src/stm32h7xx_ll_usb.c ****     speed = 0xFU;
 528:Drivers/STM32H7xx_HAL_Driver/Src/stm32h7xx_ll_usb.c ****   }
 529:Drivers/STM32H7xx_HAL_Driver/Src/stm32h7xx_ll_usb.c **** 
 530:Drivers/STM32H7xx_HAL_Driver/Src/stm32h7xx_ll_usb.c ****   return speed;
 531:Drivers/STM32H7xx_HAL_Driver/Src/stm32h7xx_ll_usb.c **** }
 532:Drivers/STM32H7xx_HAL_Driver/Src/stm32h7xx_ll_usb.c **** 
 533:Drivers/STM32H7xx_HAL_Driver/Src/stm32h7xx_ll_usb.c **** /**
 534:Drivers/STM32H7xx_HAL_Driver/Src/stm32h7xx_ll_usb.c ****   * @brief  Activate and configure an endpoint
 535:Drivers/STM32H7xx_HAL_Driver/Src/stm32h7xx_ll_usb.c ****   * @param  USBx  Selected device
 536:Drivers/STM32H7xx_HAL_Driver/Src/stm32h7xx_ll_usb.c ****   * @param  ep pointer to endpoint structure
 537:Drivers/STM32H7xx_HAL_Driver/Src/stm32h7xx_ll_usb.c ****   * @retval HAL status
 538:Drivers/STM32H7xx_HAL_Driver/Src/stm32h7xx_ll_usb.c ****   */
 539:Drivers/STM32H7xx_HAL_Driver/Src/stm32h7xx_ll_usb.c **** HAL_StatusTypeDef USB_ActivateEndpoint(USB_OTG_GlobalTypeDef *USBx, USB_OTG_EPTypeDef *ep)
 540:Drivers/STM32H7xx_HAL_Driver/Src/stm32h7xx_ll_usb.c **** {
 541:Drivers/STM32H7xx_HAL_Driver/Src/stm32h7xx_ll_usb.c ****   uint32_t USBx_BASE = (uint32_t)USBx;
 542:Drivers/STM32H7xx_HAL_Driver/Src/stm32h7xx_ll_usb.c ****   uint32_t epnum = (uint32_t)ep->num;
 543:Drivers/STM32H7xx_HAL_Driver/Src/stm32h7xx_ll_usb.c **** 
 544:Drivers/STM32H7xx_HAL_Driver/Src/stm32h7xx_ll_usb.c ****   if (ep->is_in == 1U)
ARM GAS  /tmp/cc0TWTOC.s 			page 11


 545:Drivers/STM32H7xx_HAL_Driver/Src/stm32h7xx_ll_usb.c ****   {
 546:Drivers/STM32H7xx_HAL_Driver/Src/stm32h7xx_ll_usb.c ****     USBx_DEVICE->DAINTMSK |= USB_OTG_DAINTMSK_IEPM & (uint32_t)(1UL << (ep->num & EP_ADDR_MSK));
 547:Drivers/STM32H7xx_HAL_Driver/Src/stm32h7xx_ll_usb.c **** 
 548:Drivers/STM32H7xx_HAL_Driver/Src/stm32h7xx_ll_usb.c ****     if ((USBx_INEP(epnum)->DIEPCTL & USB_OTG_DIEPCTL_USBAEP) == 0U)
 549:Drivers/STM32H7xx_HAL_Driver/Src/stm32h7xx_ll_usb.c ****     {
 550:Drivers/STM32H7xx_HAL_Driver/Src/stm32h7xx_ll_usb.c ****       USBx_INEP(epnum)->DIEPCTL |= (ep->maxpacket & USB_OTG_DIEPCTL_MPSIZ) |
 551:Drivers/STM32H7xx_HAL_Driver/Src/stm32h7xx_ll_usb.c ****                                    ((uint32_t)ep->type << 18) | (epnum << 22) |
 552:Drivers/STM32H7xx_HAL_Driver/Src/stm32h7xx_ll_usb.c ****                                    USB_OTG_DIEPCTL_SD0PID_SEVNFRM |
 553:Drivers/STM32H7xx_HAL_Driver/Src/stm32h7xx_ll_usb.c ****                                    USB_OTG_DIEPCTL_USBAEP;
 554:Drivers/STM32H7xx_HAL_Driver/Src/stm32h7xx_ll_usb.c ****     }
 555:Drivers/STM32H7xx_HAL_Driver/Src/stm32h7xx_ll_usb.c ****   }
 556:Drivers/STM32H7xx_HAL_Driver/Src/stm32h7xx_ll_usb.c ****   else
 557:Drivers/STM32H7xx_HAL_Driver/Src/stm32h7xx_ll_usb.c ****   {
 558:Drivers/STM32H7xx_HAL_Driver/Src/stm32h7xx_ll_usb.c ****     USBx_DEVICE->DAINTMSK |= USB_OTG_DAINTMSK_OEPM & ((uint32_t)(1UL << (ep->num & EP_ADDR_MSK)) <<
 559:Drivers/STM32H7xx_HAL_Driver/Src/stm32h7xx_ll_usb.c **** 
 560:Drivers/STM32H7xx_HAL_Driver/Src/stm32h7xx_ll_usb.c ****     if (((USBx_OUTEP(epnum)->DOEPCTL) & USB_OTG_DOEPCTL_USBAEP) == 0U)
 561:Drivers/STM32H7xx_HAL_Driver/Src/stm32h7xx_ll_usb.c ****     {
 562:Drivers/STM32H7xx_HAL_Driver/Src/stm32h7xx_ll_usb.c ****       USBx_OUTEP(epnum)->DOEPCTL |= (ep->maxpacket & USB_OTG_DOEPCTL_MPSIZ) |
 563:Drivers/STM32H7xx_HAL_Driver/Src/stm32h7xx_ll_usb.c ****                                     ((uint32_t)ep->type << 18) |
 564:Drivers/STM32H7xx_HAL_Driver/Src/stm32h7xx_ll_usb.c ****                                     USB_OTG_DIEPCTL_SD0PID_SEVNFRM |
 565:Drivers/STM32H7xx_HAL_Driver/Src/stm32h7xx_ll_usb.c ****                                     USB_OTG_DOEPCTL_USBAEP;
 566:Drivers/STM32H7xx_HAL_Driver/Src/stm32h7xx_ll_usb.c ****     }
 567:Drivers/STM32H7xx_HAL_Driver/Src/stm32h7xx_ll_usb.c ****   }
 568:Drivers/STM32H7xx_HAL_Driver/Src/stm32h7xx_ll_usb.c ****   return HAL_OK;
 569:Drivers/STM32H7xx_HAL_Driver/Src/stm32h7xx_ll_usb.c **** }
 570:Drivers/STM32H7xx_HAL_Driver/Src/stm32h7xx_ll_usb.c **** 
 571:Drivers/STM32H7xx_HAL_Driver/Src/stm32h7xx_ll_usb.c **** /**
 572:Drivers/STM32H7xx_HAL_Driver/Src/stm32h7xx_ll_usb.c ****   * @brief  Activate and configure a dedicated endpoint
 573:Drivers/STM32H7xx_HAL_Driver/Src/stm32h7xx_ll_usb.c ****   * @param  USBx  Selected device
 574:Drivers/STM32H7xx_HAL_Driver/Src/stm32h7xx_ll_usb.c ****   * @param  ep pointer to endpoint structure
 575:Drivers/STM32H7xx_HAL_Driver/Src/stm32h7xx_ll_usb.c ****   * @retval HAL status
 576:Drivers/STM32H7xx_HAL_Driver/Src/stm32h7xx_ll_usb.c ****   */
 577:Drivers/STM32H7xx_HAL_Driver/Src/stm32h7xx_ll_usb.c **** HAL_StatusTypeDef USB_ActivateDedicatedEndpoint(USB_OTG_GlobalTypeDef *USBx, USB_OTG_EPTypeDef *ep)
 578:Drivers/STM32H7xx_HAL_Driver/Src/stm32h7xx_ll_usb.c **** {
 579:Drivers/STM32H7xx_HAL_Driver/Src/stm32h7xx_ll_usb.c ****   uint32_t USBx_BASE = (uint32_t)USBx;
 580:Drivers/STM32H7xx_HAL_Driver/Src/stm32h7xx_ll_usb.c ****   uint32_t epnum = (uint32_t)ep->num;
 581:Drivers/STM32H7xx_HAL_Driver/Src/stm32h7xx_ll_usb.c **** 
 582:Drivers/STM32H7xx_HAL_Driver/Src/stm32h7xx_ll_usb.c ****   /* Read DEPCTLn register */
 583:Drivers/STM32H7xx_HAL_Driver/Src/stm32h7xx_ll_usb.c ****   if (ep->is_in == 1U)
 584:Drivers/STM32H7xx_HAL_Driver/Src/stm32h7xx_ll_usb.c ****   {
 585:Drivers/STM32H7xx_HAL_Driver/Src/stm32h7xx_ll_usb.c ****     if (((USBx_INEP(epnum)->DIEPCTL) & USB_OTG_DIEPCTL_USBAEP) == 0U)
 586:Drivers/STM32H7xx_HAL_Driver/Src/stm32h7xx_ll_usb.c ****     {
 587:Drivers/STM32H7xx_HAL_Driver/Src/stm32h7xx_ll_usb.c ****       USBx_INEP(epnum)->DIEPCTL |= (ep->maxpacket & USB_OTG_DIEPCTL_MPSIZ) |
 588:Drivers/STM32H7xx_HAL_Driver/Src/stm32h7xx_ll_usb.c ****                                    ((uint32_t)ep->type << 18) | (epnum << 22) |
 589:Drivers/STM32H7xx_HAL_Driver/Src/stm32h7xx_ll_usb.c ****                                    USB_OTG_DIEPCTL_SD0PID_SEVNFRM |
 590:Drivers/STM32H7xx_HAL_Driver/Src/stm32h7xx_ll_usb.c ****                                    USB_OTG_DIEPCTL_USBAEP;
 591:Drivers/STM32H7xx_HAL_Driver/Src/stm32h7xx_ll_usb.c ****     }
 592:Drivers/STM32H7xx_HAL_Driver/Src/stm32h7xx_ll_usb.c **** 
 593:Drivers/STM32H7xx_HAL_Driver/Src/stm32h7xx_ll_usb.c ****     USBx_DEVICE->DEACHMSK |= USB_OTG_DAINTMSK_IEPM & (uint32_t)(1UL << (ep->num & EP_ADDR_MSK));
 594:Drivers/STM32H7xx_HAL_Driver/Src/stm32h7xx_ll_usb.c ****   }
 595:Drivers/STM32H7xx_HAL_Driver/Src/stm32h7xx_ll_usb.c ****   else
 596:Drivers/STM32H7xx_HAL_Driver/Src/stm32h7xx_ll_usb.c ****   {
 597:Drivers/STM32H7xx_HAL_Driver/Src/stm32h7xx_ll_usb.c ****     if (((USBx_OUTEP(epnum)->DOEPCTL) & USB_OTG_DOEPCTL_USBAEP) == 0U)
 598:Drivers/STM32H7xx_HAL_Driver/Src/stm32h7xx_ll_usb.c ****     {
 599:Drivers/STM32H7xx_HAL_Driver/Src/stm32h7xx_ll_usb.c ****       USBx_OUTEP(epnum)->DOEPCTL |= (ep->maxpacket & USB_OTG_DOEPCTL_MPSIZ) |
 600:Drivers/STM32H7xx_HAL_Driver/Src/stm32h7xx_ll_usb.c ****                                     ((uint32_t)ep->type << 18) | (epnum << 22) |
 601:Drivers/STM32H7xx_HAL_Driver/Src/stm32h7xx_ll_usb.c ****                                     USB_OTG_DOEPCTL_USBAEP;
ARM GAS  /tmp/cc0TWTOC.s 			page 12


 602:Drivers/STM32H7xx_HAL_Driver/Src/stm32h7xx_ll_usb.c ****     }
 603:Drivers/STM32H7xx_HAL_Driver/Src/stm32h7xx_ll_usb.c **** 
 604:Drivers/STM32H7xx_HAL_Driver/Src/stm32h7xx_ll_usb.c ****     USBx_DEVICE->DEACHMSK |= USB_OTG_DAINTMSK_OEPM & ((uint32_t)(1UL << (ep->num & EP_ADDR_MSK)) <<
 605:Drivers/STM32H7xx_HAL_Driver/Src/stm32h7xx_ll_usb.c ****   }
 606:Drivers/STM32H7xx_HAL_Driver/Src/stm32h7xx_ll_usb.c **** 
 607:Drivers/STM32H7xx_HAL_Driver/Src/stm32h7xx_ll_usb.c ****   return HAL_OK;
 608:Drivers/STM32H7xx_HAL_Driver/Src/stm32h7xx_ll_usb.c **** }
 609:Drivers/STM32H7xx_HAL_Driver/Src/stm32h7xx_ll_usb.c **** 
 610:Drivers/STM32H7xx_HAL_Driver/Src/stm32h7xx_ll_usb.c **** /**
 611:Drivers/STM32H7xx_HAL_Driver/Src/stm32h7xx_ll_usb.c ****   * @brief  De-activate and de-initialize an endpoint
 612:Drivers/STM32H7xx_HAL_Driver/Src/stm32h7xx_ll_usb.c ****   * @param  USBx  Selected device
 613:Drivers/STM32H7xx_HAL_Driver/Src/stm32h7xx_ll_usb.c ****   * @param  ep pointer to endpoint structure
 614:Drivers/STM32H7xx_HAL_Driver/Src/stm32h7xx_ll_usb.c ****   * @retval HAL status
 615:Drivers/STM32H7xx_HAL_Driver/Src/stm32h7xx_ll_usb.c ****   */
 616:Drivers/STM32H7xx_HAL_Driver/Src/stm32h7xx_ll_usb.c **** HAL_StatusTypeDef USB_DeactivateEndpoint(USB_OTG_GlobalTypeDef *USBx, USB_OTG_EPTypeDef *ep)
 617:Drivers/STM32H7xx_HAL_Driver/Src/stm32h7xx_ll_usb.c **** {
 618:Drivers/STM32H7xx_HAL_Driver/Src/stm32h7xx_ll_usb.c ****   uint32_t USBx_BASE = (uint32_t)USBx;
 619:Drivers/STM32H7xx_HAL_Driver/Src/stm32h7xx_ll_usb.c ****   uint32_t epnum = (uint32_t)ep->num;
 620:Drivers/STM32H7xx_HAL_Driver/Src/stm32h7xx_ll_usb.c **** 
 621:Drivers/STM32H7xx_HAL_Driver/Src/stm32h7xx_ll_usb.c ****   /* Read DEPCTLn register */
 622:Drivers/STM32H7xx_HAL_Driver/Src/stm32h7xx_ll_usb.c ****   if (ep->is_in == 1U)
 623:Drivers/STM32H7xx_HAL_Driver/Src/stm32h7xx_ll_usb.c ****   {
 624:Drivers/STM32H7xx_HAL_Driver/Src/stm32h7xx_ll_usb.c ****     USBx_DEVICE->DEACHMSK &= ~(USB_OTG_DAINTMSK_IEPM & (uint32_t)(1UL << (ep->num & EP_ADDR_MSK)));
 625:Drivers/STM32H7xx_HAL_Driver/Src/stm32h7xx_ll_usb.c ****     USBx_DEVICE->DAINTMSK &= ~(USB_OTG_DAINTMSK_IEPM & (uint32_t)(1UL << (ep->num & EP_ADDR_MSK)));
 626:Drivers/STM32H7xx_HAL_Driver/Src/stm32h7xx_ll_usb.c ****     USBx_INEP(epnum)->DIEPCTL &= ~(USB_OTG_DIEPCTL_USBAEP |
 627:Drivers/STM32H7xx_HAL_Driver/Src/stm32h7xx_ll_usb.c ****                                    USB_OTG_DIEPCTL_MPSIZ |
 628:Drivers/STM32H7xx_HAL_Driver/Src/stm32h7xx_ll_usb.c ****                                    USB_OTG_DIEPCTL_TXFNUM |
 629:Drivers/STM32H7xx_HAL_Driver/Src/stm32h7xx_ll_usb.c ****                                    USB_OTG_DIEPCTL_SD0PID_SEVNFRM |
 630:Drivers/STM32H7xx_HAL_Driver/Src/stm32h7xx_ll_usb.c ****                                    USB_OTG_DIEPCTL_EPTYP);
 631:Drivers/STM32H7xx_HAL_Driver/Src/stm32h7xx_ll_usb.c ****   }
 632:Drivers/STM32H7xx_HAL_Driver/Src/stm32h7xx_ll_usb.c ****   else
 633:Drivers/STM32H7xx_HAL_Driver/Src/stm32h7xx_ll_usb.c ****   {
 634:Drivers/STM32H7xx_HAL_Driver/Src/stm32h7xx_ll_usb.c ****     USBx_DEVICE->DEACHMSK &= ~(USB_OTG_DAINTMSK_OEPM & ((uint32_t)(1UL << (ep->num & EP_ADDR_MSK)) 
 635:Drivers/STM32H7xx_HAL_Driver/Src/stm32h7xx_ll_usb.c ****     USBx_DEVICE->DAINTMSK &= ~(USB_OTG_DAINTMSK_OEPM & ((uint32_t)(1UL << (ep->num & EP_ADDR_MSK)) 
 636:Drivers/STM32H7xx_HAL_Driver/Src/stm32h7xx_ll_usb.c ****     USBx_OUTEP(epnum)->DOEPCTL &= ~(USB_OTG_DOEPCTL_USBAEP |
 637:Drivers/STM32H7xx_HAL_Driver/Src/stm32h7xx_ll_usb.c ****                                     USB_OTG_DOEPCTL_MPSIZ |
 638:Drivers/STM32H7xx_HAL_Driver/Src/stm32h7xx_ll_usb.c ****                                     USB_OTG_DOEPCTL_SD0PID_SEVNFRM |
 639:Drivers/STM32H7xx_HAL_Driver/Src/stm32h7xx_ll_usb.c ****                                     USB_OTG_DOEPCTL_EPTYP);
 640:Drivers/STM32H7xx_HAL_Driver/Src/stm32h7xx_ll_usb.c ****   }
 641:Drivers/STM32H7xx_HAL_Driver/Src/stm32h7xx_ll_usb.c **** 
 642:Drivers/STM32H7xx_HAL_Driver/Src/stm32h7xx_ll_usb.c ****   return HAL_OK;
 643:Drivers/STM32H7xx_HAL_Driver/Src/stm32h7xx_ll_usb.c **** }
 644:Drivers/STM32H7xx_HAL_Driver/Src/stm32h7xx_ll_usb.c **** 
 645:Drivers/STM32H7xx_HAL_Driver/Src/stm32h7xx_ll_usb.c **** /**
 646:Drivers/STM32H7xx_HAL_Driver/Src/stm32h7xx_ll_usb.c ****   * @brief  De-activate and de-initialize a dedicated endpoint
 647:Drivers/STM32H7xx_HAL_Driver/Src/stm32h7xx_ll_usb.c ****   * @param  USBx  Selected device
 648:Drivers/STM32H7xx_HAL_Driver/Src/stm32h7xx_ll_usb.c ****   * @param  ep pointer to endpoint structure
 649:Drivers/STM32H7xx_HAL_Driver/Src/stm32h7xx_ll_usb.c ****   * @retval HAL status
 650:Drivers/STM32H7xx_HAL_Driver/Src/stm32h7xx_ll_usb.c ****   */
 651:Drivers/STM32H7xx_HAL_Driver/Src/stm32h7xx_ll_usb.c **** HAL_StatusTypeDef USB_DeactivateDedicatedEndpoint(USB_OTG_GlobalTypeDef *USBx, USB_OTG_EPTypeDef *e
 652:Drivers/STM32H7xx_HAL_Driver/Src/stm32h7xx_ll_usb.c **** {
 653:Drivers/STM32H7xx_HAL_Driver/Src/stm32h7xx_ll_usb.c ****   uint32_t USBx_BASE = (uint32_t)USBx;
 654:Drivers/STM32H7xx_HAL_Driver/Src/stm32h7xx_ll_usb.c ****   uint32_t epnum = (uint32_t)ep->num;
 655:Drivers/STM32H7xx_HAL_Driver/Src/stm32h7xx_ll_usb.c **** 
 656:Drivers/STM32H7xx_HAL_Driver/Src/stm32h7xx_ll_usb.c ****   /* Read DEPCTLn register */
 657:Drivers/STM32H7xx_HAL_Driver/Src/stm32h7xx_ll_usb.c ****   if (ep->is_in == 1U)
 658:Drivers/STM32H7xx_HAL_Driver/Src/stm32h7xx_ll_usb.c ****   {
ARM GAS  /tmp/cc0TWTOC.s 			page 13


 659:Drivers/STM32H7xx_HAL_Driver/Src/stm32h7xx_ll_usb.c ****     USBx_INEP(epnum)->DIEPCTL &= ~ USB_OTG_DIEPCTL_USBAEP;
 660:Drivers/STM32H7xx_HAL_Driver/Src/stm32h7xx_ll_usb.c ****     USBx_DEVICE->DAINTMSK &= ~(USB_OTG_DAINTMSK_IEPM & (uint32_t)(1UL << (ep->num & EP_ADDR_MSK)));
 661:Drivers/STM32H7xx_HAL_Driver/Src/stm32h7xx_ll_usb.c ****   }
 662:Drivers/STM32H7xx_HAL_Driver/Src/stm32h7xx_ll_usb.c ****   else
 663:Drivers/STM32H7xx_HAL_Driver/Src/stm32h7xx_ll_usb.c ****   {
 664:Drivers/STM32H7xx_HAL_Driver/Src/stm32h7xx_ll_usb.c ****     USBx_OUTEP(epnum)->DOEPCTL &= ~USB_OTG_DOEPCTL_USBAEP;
 665:Drivers/STM32H7xx_HAL_Driver/Src/stm32h7xx_ll_usb.c ****     USBx_DEVICE->DAINTMSK &= ~(USB_OTG_DAINTMSK_OEPM & ((uint32_t)(1UL << (ep->num & EP_ADDR_MSK)) 
 666:Drivers/STM32H7xx_HAL_Driver/Src/stm32h7xx_ll_usb.c ****   }
 667:Drivers/STM32H7xx_HAL_Driver/Src/stm32h7xx_ll_usb.c **** 
 668:Drivers/STM32H7xx_HAL_Driver/Src/stm32h7xx_ll_usb.c ****   return HAL_OK;
 669:Drivers/STM32H7xx_HAL_Driver/Src/stm32h7xx_ll_usb.c **** }
 670:Drivers/STM32H7xx_HAL_Driver/Src/stm32h7xx_ll_usb.c **** 
 671:Drivers/STM32H7xx_HAL_Driver/Src/stm32h7xx_ll_usb.c **** /**
 672:Drivers/STM32H7xx_HAL_Driver/Src/stm32h7xx_ll_usb.c ****   * @brief  USB_EPStartXfer : setup and starts a transfer over an EP
 673:Drivers/STM32H7xx_HAL_Driver/Src/stm32h7xx_ll_usb.c ****   * @param  USBx  Selected device
 674:Drivers/STM32H7xx_HAL_Driver/Src/stm32h7xx_ll_usb.c ****   * @param  ep pointer to endpoint structure
 675:Drivers/STM32H7xx_HAL_Driver/Src/stm32h7xx_ll_usb.c ****   * @param  dma USB dma enabled or disabled
 676:Drivers/STM32H7xx_HAL_Driver/Src/stm32h7xx_ll_usb.c ****   *          This parameter can be one of these values:
 677:Drivers/STM32H7xx_HAL_Driver/Src/stm32h7xx_ll_usb.c ****   *           0 : DMA feature not used
 678:Drivers/STM32H7xx_HAL_Driver/Src/stm32h7xx_ll_usb.c ****   *           1 : DMA feature used
 679:Drivers/STM32H7xx_HAL_Driver/Src/stm32h7xx_ll_usb.c ****   * @retval HAL status
 680:Drivers/STM32H7xx_HAL_Driver/Src/stm32h7xx_ll_usb.c ****   */
 681:Drivers/STM32H7xx_HAL_Driver/Src/stm32h7xx_ll_usb.c **** HAL_StatusTypeDef USB_EPStartXfer(USB_OTG_GlobalTypeDef *USBx, USB_OTG_EPTypeDef *ep, uint8_t dma)
 682:Drivers/STM32H7xx_HAL_Driver/Src/stm32h7xx_ll_usb.c **** {
 683:Drivers/STM32H7xx_HAL_Driver/Src/stm32h7xx_ll_usb.c ****   uint32_t USBx_BASE = (uint32_t)USBx;
 684:Drivers/STM32H7xx_HAL_Driver/Src/stm32h7xx_ll_usb.c ****   uint32_t epnum = (uint32_t)ep->num;
 685:Drivers/STM32H7xx_HAL_Driver/Src/stm32h7xx_ll_usb.c ****   uint16_t pktcnt;
 686:Drivers/STM32H7xx_HAL_Driver/Src/stm32h7xx_ll_usb.c **** 
 687:Drivers/STM32H7xx_HAL_Driver/Src/stm32h7xx_ll_usb.c ****   /* IN endpoint */
 688:Drivers/STM32H7xx_HAL_Driver/Src/stm32h7xx_ll_usb.c ****   if (ep->is_in == 1U)
 689:Drivers/STM32H7xx_HAL_Driver/Src/stm32h7xx_ll_usb.c ****   {
 690:Drivers/STM32H7xx_HAL_Driver/Src/stm32h7xx_ll_usb.c ****     /* Zero Length Packet? */
 691:Drivers/STM32H7xx_HAL_Driver/Src/stm32h7xx_ll_usb.c ****     if (ep->xfer_len == 0U)
 692:Drivers/STM32H7xx_HAL_Driver/Src/stm32h7xx_ll_usb.c ****     {
 693:Drivers/STM32H7xx_HAL_Driver/Src/stm32h7xx_ll_usb.c ****       USBx_INEP(epnum)->DIEPTSIZ &= ~(USB_OTG_DIEPTSIZ_PKTCNT);
 694:Drivers/STM32H7xx_HAL_Driver/Src/stm32h7xx_ll_usb.c ****       USBx_INEP(epnum)->DIEPTSIZ |= (USB_OTG_DIEPTSIZ_PKTCNT & (1U << 19));
 695:Drivers/STM32H7xx_HAL_Driver/Src/stm32h7xx_ll_usb.c ****       USBx_INEP(epnum)->DIEPTSIZ &= ~(USB_OTG_DIEPTSIZ_XFRSIZ);
 696:Drivers/STM32H7xx_HAL_Driver/Src/stm32h7xx_ll_usb.c ****     }
 697:Drivers/STM32H7xx_HAL_Driver/Src/stm32h7xx_ll_usb.c ****     else
 698:Drivers/STM32H7xx_HAL_Driver/Src/stm32h7xx_ll_usb.c ****     {
 699:Drivers/STM32H7xx_HAL_Driver/Src/stm32h7xx_ll_usb.c ****       /* Program the transfer size and packet count
 700:Drivers/STM32H7xx_HAL_Driver/Src/stm32h7xx_ll_usb.c ****       * as follows: xfersize = N * maxpacket +
 701:Drivers/STM32H7xx_HAL_Driver/Src/stm32h7xx_ll_usb.c ****       * short_packet pktcnt = N + (short_packet
 702:Drivers/STM32H7xx_HAL_Driver/Src/stm32h7xx_ll_usb.c ****       * exist ? 1 : 0)
 703:Drivers/STM32H7xx_HAL_Driver/Src/stm32h7xx_ll_usb.c ****       */
 704:Drivers/STM32H7xx_HAL_Driver/Src/stm32h7xx_ll_usb.c ****       USBx_INEP(epnum)->DIEPTSIZ &= ~(USB_OTG_DIEPTSIZ_XFRSIZ);
 705:Drivers/STM32H7xx_HAL_Driver/Src/stm32h7xx_ll_usb.c ****       USBx_INEP(epnum)->DIEPTSIZ &= ~(USB_OTG_DIEPTSIZ_PKTCNT);
 706:Drivers/STM32H7xx_HAL_Driver/Src/stm32h7xx_ll_usb.c ****       USBx_INEP(epnum)->DIEPTSIZ |= (USB_OTG_DIEPTSIZ_PKTCNT & (((ep->xfer_len + ep->maxpacket - 1U
 707:Drivers/STM32H7xx_HAL_Driver/Src/stm32h7xx_ll_usb.c ****       USBx_INEP(epnum)->DIEPTSIZ |= (USB_OTG_DIEPTSIZ_XFRSIZ & ep->xfer_len);
 708:Drivers/STM32H7xx_HAL_Driver/Src/stm32h7xx_ll_usb.c **** 
 709:Drivers/STM32H7xx_HAL_Driver/Src/stm32h7xx_ll_usb.c ****       if (ep->type == EP_TYPE_ISOC)
 710:Drivers/STM32H7xx_HAL_Driver/Src/stm32h7xx_ll_usb.c ****       {
 711:Drivers/STM32H7xx_HAL_Driver/Src/stm32h7xx_ll_usb.c ****         USBx_INEP(epnum)->DIEPTSIZ &= ~(USB_OTG_DIEPTSIZ_MULCNT);
 712:Drivers/STM32H7xx_HAL_Driver/Src/stm32h7xx_ll_usb.c ****         USBx_INEP(epnum)->DIEPTSIZ |= (USB_OTG_DIEPTSIZ_MULCNT & (1U << 29));
 713:Drivers/STM32H7xx_HAL_Driver/Src/stm32h7xx_ll_usb.c ****       }
 714:Drivers/STM32H7xx_HAL_Driver/Src/stm32h7xx_ll_usb.c ****     }
 715:Drivers/STM32H7xx_HAL_Driver/Src/stm32h7xx_ll_usb.c **** 
ARM GAS  /tmp/cc0TWTOC.s 			page 14


 716:Drivers/STM32H7xx_HAL_Driver/Src/stm32h7xx_ll_usb.c ****     if (dma == 1U)
 717:Drivers/STM32H7xx_HAL_Driver/Src/stm32h7xx_ll_usb.c ****     {
 718:Drivers/STM32H7xx_HAL_Driver/Src/stm32h7xx_ll_usb.c ****       if ((uint32_t)ep->dma_addr != 0U)
 719:Drivers/STM32H7xx_HAL_Driver/Src/stm32h7xx_ll_usb.c ****       {
 720:Drivers/STM32H7xx_HAL_Driver/Src/stm32h7xx_ll_usb.c ****         USBx_INEP(epnum)->DIEPDMA = (uint32_t)(ep->dma_addr);
 721:Drivers/STM32H7xx_HAL_Driver/Src/stm32h7xx_ll_usb.c ****       }
 722:Drivers/STM32H7xx_HAL_Driver/Src/stm32h7xx_ll_usb.c **** 
 723:Drivers/STM32H7xx_HAL_Driver/Src/stm32h7xx_ll_usb.c ****       if (ep->type == EP_TYPE_ISOC)
 724:Drivers/STM32H7xx_HAL_Driver/Src/stm32h7xx_ll_usb.c ****       {
 725:Drivers/STM32H7xx_HAL_Driver/Src/stm32h7xx_ll_usb.c ****         if ((USBx_DEVICE->DSTS & (1U << 8)) == 0U)
 726:Drivers/STM32H7xx_HAL_Driver/Src/stm32h7xx_ll_usb.c ****         {
 727:Drivers/STM32H7xx_HAL_Driver/Src/stm32h7xx_ll_usb.c ****           USBx_INEP(epnum)->DIEPCTL |= USB_OTG_DIEPCTL_SODDFRM;
 728:Drivers/STM32H7xx_HAL_Driver/Src/stm32h7xx_ll_usb.c ****         }
 729:Drivers/STM32H7xx_HAL_Driver/Src/stm32h7xx_ll_usb.c ****         else
 730:Drivers/STM32H7xx_HAL_Driver/Src/stm32h7xx_ll_usb.c ****         {
 731:Drivers/STM32H7xx_HAL_Driver/Src/stm32h7xx_ll_usb.c ****           USBx_INEP(epnum)->DIEPCTL |= USB_OTG_DIEPCTL_SD0PID_SEVNFRM;
 732:Drivers/STM32H7xx_HAL_Driver/Src/stm32h7xx_ll_usb.c ****         }
 733:Drivers/STM32H7xx_HAL_Driver/Src/stm32h7xx_ll_usb.c ****       }
 734:Drivers/STM32H7xx_HAL_Driver/Src/stm32h7xx_ll_usb.c **** 
 735:Drivers/STM32H7xx_HAL_Driver/Src/stm32h7xx_ll_usb.c ****       /* EP enable, IN data in FIFO */
 736:Drivers/STM32H7xx_HAL_Driver/Src/stm32h7xx_ll_usb.c ****       USBx_INEP(epnum)->DIEPCTL |= (USB_OTG_DIEPCTL_CNAK | USB_OTG_DIEPCTL_EPENA);
 737:Drivers/STM32H7xx_HAL_Driver/Src/stm32h7xx_ll_usb.c ****     }
 738:Drivers/STM32H7xx_HAL_Driver/Src/stm32h7xx_ll_usb.c ****     else
 739:Drivers/STM32H7xx_HAL_Driver/Src/stm32h7xx_ll_usb.c ****     {
 740:Drivers/STM32H7xx_HAL_Driver/Src/stm32h7xx_ll_usb.c ****       /* EP enable, IN data in FIFO */
 741:Drivers/STM32H7xx_HAL_Driver/Src/stm32h7xx_ll_usb.c ****       USBx_INEP(epnum)->DIEPCTL |= (USB_OTG_DIEPCTL_CNAK | USB_OTG_DIEPCTL_EPENA);
 742:Drivers/STM32H7xx_HAL_Driver/Src/stm32h7xx_ll_usb.c **** 
 743:Drivers/STM32H7xx_HAL_Driver/Src/stm32h7xx_ll_usb.c ****       if (ep->type != EP_TYPE_ISOC)
 744:Drivers/STM32H7xx_HAL_Driver/Src/stm32h7xx_ll_usb.c ****       {
 745:Drivers/STM32H7xx_HAL_Driver/Src/stm32h7xx_ll_usb.c ****         /* Enable the Tx FIFO Empty Interrupt for this EP */
 746:Drivers/STM32H7xx_HAL_Driver/Src/stm32h7xx_ll_usb.c ****         if (ep->xfer_len > 0U)
 747:Drivers/STM32H7xx_HAL_Driver/Src/stm32h7xx_ll_usb.c ****         {
 748:Drivers/STM32H7xx_HAL_Driver/Src/stm32h7xx_ll_usb.c ****           USBx_DEVICE->DIEPEMPMSK |= 1UL << (ep->num & EP_ADDR_MSK);
 749:Drivers/STM32H7xx_HAL_Driver/Src/stm32h7xx_ll_usb.c ****         }
 750:Drivers/STM32H7xx_HAL_Driver/Src/stm32h7xx_ll_usb.c ****       }
 751:Drivers/STM32H7xx_HAL_Driver/Src/stm32h7xx_ll_usb.c ****       else
 752:Drivers/STM32H7xx_HAL_Driver/Src/stm32h7xx_ll_usb.c ****       {
 753:Drivers/STM32H7xx_HAL_Driver/Src/stm32h7xx_ll_usb.c ****         if ((USBx_DEVICE->DSTS & (1U << 8)) == 0U)
 754:Drivers/STM32H7xx_HAL_Driver/Src/stm32h7xx_ll_usb.c ****         {
 755:Drivers/STM32H7xx_HAL_Driver/Src/stm32h7xx_ll_usb.c ****           USBx_INEP(epnum)->DIEPCTL |= USB_OTG_DIEPCTL_SODDFRM;
 756:Drivers/STM32H7xx_HAL_Driver/Src/stm32h7xx_ll_usb.c ****         }
 757:Drivers/STM32H7xx_HAL_Driver/Src/stm32h7xx_ll_usb.c ****         else
 758:Drivers/STM32H7xx_HAL_Driver/Src/stm32h7xx_ll_usb.c ****         {
 759:Drivers/STM32H7xx_HAL_Driver/Src/stm32h7xx_ll_usb.c ****           USBx_INEP(epnum)->DIEPCTL |= USB_OTG_DIEPCTL_SD0PID_SEVNFRM;
 760:Drivers/STM32H7xx_HAL_Driver/Src/stm32h7xx_ll_usb.c ****         }
 761:Drivers/STM32H7xx_HAL_Driver/Src/stm32h7xx_ll_usb.c **** 
 762:Drivers/STM32H7xx_HAL_Driver/Src/stm32h7xx_ll_usb.c ****         (void)USB_WritePacket(USBx, ep->xfer_buff, ep->num, (uint16_t)ep->xfer_len, dma);
 763:Drivers/STM32H7xx_HAL_Driver/Src/stm32h7xx_ll_usb.c ****       }
 764:Drivers/STM32H7xx_HAL_Driver/Src/stm32h7xx_ll_usb.c ****     }
 765:Drivers/STM32H7xx_HAL_Driver/Src/stm32h7xx_ll_usb.c ****   }
 766:Drivers/STM32H7xx_HAL_Driver/Src/stm32h7xx_ll_usb.c ****   else /* OUT endpoint */
 767:Drivers/STM32H7xx_HAL_Driver/Src/stm32h7xx_ll_usb.c ****   {
 768:Drivers/STM32H7xx_HAL_Driver/Src/stm32h7xx_ll_usb.c ****     /* Program the transfer size and packet count as follows:
 769:Drivers/STM32H7xx_HAL_Driver/Src/stm32h7xx_ll_usb.c ****     * pktcnt = N
 770:Drivers/STM32H7xx_HAL_Driver/Src/stm32h7xx_ll_usb.c ****     * xfersize = N * maxpacket
 771:Drivers/STM32H7xx_HAL_Driver/Src/stm32h7xx_ll_usb.c ****     */
 772:Drivers/STM32H7xx_HAL_Driver/Src/stm32h7xx_ll_usb.c ****     USBx_OUTEP(epnum)->DOEPTSIZ &= ~(USB_OTG_DOEPTSIZ_XFRSIZ);
ARM GAS  /tmp/cc0TWTOC.s 			page 15


 773:Drivers/STM32H7xx_HAL_Driver/Src/stm32h7xx_ll_usb.c ****     USBx_OUTEP(epnum)->DOEPTSIZ &= ~(USB_OTG_DOEPTSIZ_PKTCNT);
 774:Drivers/STM32H7xx_HAL_Driver/Src/stm32h7xx_ll_usb.c **** 
 775:Drivers/STM32H7xx_HAL_Driver/Src/stm32h7xx_ll_usb.c ****     if (ep->xfer_len == 0U)
 776:Drivers/STM32H7xx_HAL_Driver/Src/stm32h7xx_ll_usb.c ****     {
 777:Drivers/STM32H7xx_HAL_Driver/Src/stm32h7xx_ll_usb.c ****       USBx_OUTEP(epnum)->DOEPTSIZ |= (USB_OTG_DOEPTSIZ_XFRSIZ & ep->maxpacket);
 778:Drivers/STM32H7xx_HAL_Driver/Src/stm32h7xx_ll_usb.c ****       USBx_OUTEP(epnum)->DOEPTSIZ |= (USB_OTG_DOEPTSIZ_PKTCNT & (1U << 19));
 779:Drivers/STM32H7xx_HAL_Driver/Src/stm32h7xx_ll_usb.c ****     }
 780:Drivers/STM32H7xx_HAL_Driver/Src/stm32h7xx_ll_usb.c ****     else
 781:Drivers/STM32H7xx_HAL_Driver/Src/stm32h7xx_ll_usb.c ****     {
 782:Drivers/STM32H7xx_HAL_Driver/Src/stm32h7xx_ll_usb.c ****       pktcnt = (uint16_t)((ep->xfer_len + ep->maxpacket - 1U) / ep->maxpacket);
 783:Drivers/STM32H7xx_HAL_Driver/Src/stm32h7xx_ll_usb.c ****       USBx_OUTEP(epnum)->DOEPTSIZ |= USB_OTG_DOEPTSIZ_PKTCNT & ((uint32_t)pktcnt << 19);
 784:Drivers/STM32H7xx_HAL_Driver/Src/stm32h7xx_ll_usb.c ****       USBx_OUTEP(epnum)->DOEPTSIZ |= USB_OTG_DOEPTSIZ_XFRSIZ & (ep->maxpacket * pktcnt);
 785:Drivers/STM32H7xx_HAL_Driver/Src/stm32h7xx_ll_usb.c ****     }
 786:Drivers/STM32H7xx_HAL_Driver/Src/stm32h7xx_ll_usb.c **** 
 787:Drivers/STM32H7xx_HAL_Driver/Src/stm32h7xx_ll_usb.c ****     if (dma == 1U)
 788:Drivers/STM32H7xx_HAL_Driver/Src/stm32h7xx_ll_usb.c ****     {
 789:Drivers/STM32H7xx_HAL_Driver/Src/stm32h7xx_ll_usb.c ****       if ((uint32_t)ep->xfer_buff != 0U)
 790:Drivers/STM32H7xx_HAL_Driver/Src/stm32h7xx_ll_usb.c ****       {
 791:Drivers/STM32H7xx_HAL_Driver/Src/stm32h7xx_ll_usb.c ****         USBx_OUTEP(epnum)->DOEPDMA = (uint32_t)(ep->xfer_buff);
 792:Drivers/STM32H7xx_HAL_Driver/Src/stm32h7xx_ll_usb.c ****       }
 793:Drivers/STM32H7xx_HAL_Driver/Src/stm32h7xx_ll_usb.c ****     }
 794:Drivers/STM32H7xx_HAL_Driver/Src/stm32h7xx_ll_usb.c **** 
 795:Drivers/STM32H7xx_HAL_Driver/Src/stm32h7xx_ll_usb.c ****     if (ep->type == EP_TYPE_ISOC)
 796:Drivers/STM32H7xx_HAL_Driver/Src/stm32h7xx_ll_usb.c ****     {
 797:Drivers/STM32H7xx_HAL_Driver/Src/stm32h7xx_ll_usb.c ****       if ((USBx_DEVICE->DSTS & (1U << 8)) == 0U)
 798:Drivers/STM32H7xx_HAL_Driver/Src/stm32h7xx_ll_usb.c ****       {
 799:Drivers/STM32H7xx_HAL_Driver/Src/stm32h7xx_ll_usb.c ****         USBx_OUTEP(epnum)->DOEPCTL |= USB_OTG_DOEPCTL_SODDFRM;
 800:Drivers/STM32H7xx_HAL_Driver/Src/stm32h7xx_ll_usb.c ****       }
 801:Drivers/STM32H7xx_HAL_Driver/Src/stm32h7xx_ll_usb.c ****       else
 802:Drivers/STM32H7xx_HAL_Driver/Src/stm32h7xx_ll_usb.c ****       {
 803:Drivers/STM32H7xx_HAL_Driver/Src/stm32h7xx_ll_usb.c ****         USBx_OUTEP(epnum)->DOEPCTL |= USB_OTG_DOEPCTL_SD0PID_SEVNFRM;
 804:Drivers/STM32H7xx_HAL_Driver/Src/stm32h7xx_ll_usb.c ****       }
 805:Drivers/STM32H7xx_HAL_Driver/Src/stm32h7xx_ll_usb.c ****     }
 806:Drivers/STM32H7xx_HAL_Driver/Src/stm32h7xx_ll_usb.c ****     /* EP enable */
 807:Drivers/STM32H7xx_HAL_Driver/Src/stm32h7xx_ll_usb.c ****     USBx_OUTEP(epnum)->DOEPCTL |= (USB_OTG_DOEPCTL_CNAK | USB_OTG_DOEPCTL_EPENA);
 808:Drivers/STM32H7xx_HAL_Driver/Src/stm32h7xx_ll_usb.c ****   }
 809:Drivers/STM32H7xx_HAL_Driver/Src/stm32h7xx_ll_usb.c **** 
 810:Drivers/STM32H7xx_HAL_Driver/Src/stm32h7xx_ll_usb.c ****   return HAL_OK;
 811:Drivers/STM32H7xx_HAL_Driver/Src/stm32h7xx_ll_usb.c **** }
 812:Drivers/STM32H7xx_HAL_Driver/Src/stm32h7xx_ll_usb.c **** 
 813:Drivers/STM32H7xx_HAL_Driver/Src/stm32h7xx_ll_usb.c **** /**
 814:Drivers/STM32H7xx_HAL_Driver/Src/stm32h7xx_ll_usb.c ****   * @brief  USB_EP0StartXfer : setup and starts a transfer over the EP  0
 815:Drivers/STM32H7xx_HAL_Driver/Src/stm32h7xx_ll_usb.c ****   * @param  USBx  Selected device
 816:Drivers/STM32H7xx_HAL_Driver/Src/stm32h7xx_ll_usb.c ****   * @param  ep pointer to endpoint structure
 817:Drivers/STM32H7xx_HAL_Driver/Src/stm32h7xx_ll_usb.c ****   * @param  dma USB dma enabled or disabled
 818:Drivers/STM32H7xx_HAL_Driver/Src/stm32h7xx_ll_usb.c ****   *          This parameter can be one of these values:
 819:Drivers/STM32H7xx_HAL_Driver/Src/stm32h7xx_ll_usb.c ****   *           0 : DMA feature not used
 820:Drivers/STM32H7xx_HAL_Driver/Src/stm32h7xx_ll_usb.c ****   *           1 : DMA feature used
 821:Drivers/STM32H7xx_HAL_Driver/Src/stm32h7xx_ll_usb.c ****   * @retval HAL status
 822:Drivers/STM32H7xx_HAL_Driver/Src/stm32h7xx_ll_usb.c ****   */
 823:Drivers/STM32H7xx_HAL_Driver/Src/stm32h7xx_ll_usb.c **** HAL_StatusTypeDef USB_EP0StartXfer(USB_OTG_GlobalTypeDef *USBx, USB_OTG_EPTypeDef *ep, uint8_t dma)
 824:Drivers/STM32H7xx_HAL_Driver/Src/stm32h7xx_ll_usb.c **** {
 825:Drivers/STM32H7xx_HAL_Driver/Src/stm32h7xx_ll_usb.c ****   uint32_t USBx_BASE = (uint32_t)USBx;
 826:Drivers/STM32H7xx_HAL_Driver/Src/stm32h7xx_ll_usb.c ****   uint32_t epnum = (uint32_t)ep->num;
 827:Drivers/STM32H7xx_HAL_Driver/Src/stm32h7xx_ll_usb.c **** 
 828:Drivers/STM32H7xx_HAL_Driver/Src/stm32h7xx_ll_usb.c ****   /* IN endpoint */
 829:Drivers/STM32H7xx_HAL_Driver/Src/stm32h7xx_ll_usb.c ****   if (ep->is_in == 1U)
ARM GAS  /tmp/cc0TWTOC.s 			page 16


 830:Drivers/STM32H7xx_HAL_Driver/Src/stm32h7xx_ll_usb.c ****   {
 831:Drivers/STM32H7xx_HAL_Driver/Src/stm32h7xx_ll_usb.c ****     /* Zero Length Packet? */
 832:Drivers/STM32H7xx_HAL_Driver/Src/stm32h7xx_ll_usb.c ****     if (ep->xfer_len == 0U)
 833:Drivers/STM32H7xx_HAL_Driver/Src/stm32h7xx_ll_usb.c ****     {
 834:Drivers/STM32H7xx_HAL_Driver/Src/stm32h7xx_ll_usb.c ****       USBx_INEP(epnum)->DIEPTSIZ &= ~(USB_OTG_DIEPTSIZ_PKTCNT);
 835:Drivers/STM32H7xx_HAL_Driver/Src/stm32h7xx_ll_usb.c ****       USBx_INEP(epnum)->DIEPTSIZ |= (USB_OTG_DIEPTSIZ_PKTCNT & (1U << 19));
 836:Drivers/STM32H7xx_HAL_Driver/Src/stm32h7xx_ll_usb.c ****       USBx_INEP(epnum)->DIEPTSIZ &= ~(USB_OTG_DIEPTSIZ_XFRSIZ);
 837:Drivers/STM32H7xx_HAL_Driver/Src/stm32h7xx_ll_usb.c ****     }
 838:Drivers/STM32H7xx_HAL_Driver/Src/stm32h7xx_ll_usb.c ****     else
 839:Drivers/STM32H7xx_HAL_Driver/Src/stm32h7xx_ll_usb.c ****     {
 840:Drivers/STM32H7xx_HAL_Driver/Src/stm32h7xx_ll_usb.c ****       /* Program the transfer size and packet count
 841:Drivers/STM32H7xx_HAL_Driver/Src/stm32h7xx_ll_usb.c ****       * as follows: xfersize = N * maxpacket +
 842:Drivers/STM32H7xx_HAL_Driver/Src/stm32h7xx_ll_usb.c ****       * short_packet pktcnt = N + (short_packet
 843:Drivers/STM32H7xx_HAL_Driver/Src/stm32h7xx_ll_usb.c ****       * exist ? 1 : 0)
 844:Drivers/STM32H7xx_HAL_Driver/Src/stm32h7xx_ll_usb.c ****       */
 845:Drivers/STM32H7xx_HAL_Driver/Src/stm32h7xx_ll_usb.c ****       USBx_INEP(epnum)->DIEPTSIZ &= ~(USB_OTG_DIEPTSIZ_XFRSIZ);
 846:Drivers/STM32H7xx_HAL_Driver/Src/stm32h7xx_ll_usb.c ****       USBx_INEP(epnum)->DIEPTSIZ &= ~(USB_OTG_DIEPTSIZ_PKTCNT);
 847:Drivers/STM32H7xx_HAL_Driver/Src/stm32h7xx_ll_usb.c **** 
 848:Drivers/STM32H7xx_HAL_Driver/Src/stm32h7xx_ll_usb.c ****       if (ep->xfer_len > ep->maxpacket)
 849:Drivers/STM32H7xx_HAL_Driver/Src/stm32h7xx_ll_usb.c ****       {
 850:Drivers/STM32H7xx_HAL_Driver/Src/stm32h7xx_ll_usb.c ****         ep->xfer_len = ep->maxpacket;
 851:Drivers/STM32H7xx_HAL_Driver/Src/stm32h7xx_ll_usb.c ****       }
 852:Drivers/STM32H7xx_HAL_Driver/Src/stm32h7xx_ll_usb.c ****       USBx_INEP(epnum)->DIEPTSIZ |= (USB_OTG_DIEPTSIZ_PKTCNT & (1U << 19));
 853:Drivers/STM32H7xx_HAL_Driver/Src/stm32h7xx_ll_usb.c ****       USBx_INEP(epnum)->DIEPTSIZ |= (USB_OTG_DIEPTSIZ_XFRSIZ & ep->xfer_len);
 854:Drivers/STM32H7xx_HAL_Driver/Src/stm32h7xx_ll_usb.c ****     }
 855:Drivers/STM32H7xx_HAL_Driver/Src/stm32h7xx_ll_usb.c **** 
 856:Drivers/STM32H7xx_HAL_Driver/Src/stm32h7xx_ll_usb.c ****     if (dma == 1U)
 857:Drivers/STM32H7xx_HAL_Driver/Src/stm32h7xx_ll_usb.c ****     {
 858:Drivers/STM32H7xx_HAL_Driver/Src/stm32h7xx_ll_usb.c ****       if ((uint32_t)ep->dma_addr != 0U)
 859:Drivers/STM32H7xx_HAL_Driver/Src/stm32h7xx_ll_usb.c ****       {
 860:Drivers/STM32H7xx_HAL_Driver/Src/stm32h7xx_ll_usb.c ****         USBx_INEP(epnum)->DIEPDMA = (uint32_t)(ep->dma_addr);
 861:Drivers/STM32H7xx_HAL_Driver/Src/stm32h7xx_ll_usb.c ****       }
 862:Drivers/STM32H7xx_HAL_Driver/Src/stm32h7xx_ll_usb.c **** 
 863:Drivers/STM32H7xx_HAL_Driver/Src/stm32h7xx_ll_usb.c ****       /* EP enable, IN data in FIFO */
 864:Drivers/STM32H7xx_HAL_Driver/Src/stm32h7xx_ll_usb.c ****       USBx_INEP(epnum)->DIEPCTL |= (USB_OTG_DIEPCTL_CNAK | USB_OTG_DIEPCTL_EPENA);
 865:Drivers/STM32H7xx_HAL_Driver/Src/stm32h7xx_ll_usb.c ****     }
 866:Drivers/STM32H7xx_HAL_Driver/Src/stm32h7xx_ll_usb.c ****     else
 867:Drivers/STM32H7xx_HAL_Driver/Src/stm32h7xx_ll_usb.c ****     {
 868:Drivers/STM32H7xx_HAL_Driver/Src/stm32h7xx_ll_usb.c ****       /* EP enable, IN data in FIFO */
 869:Drivers/STM32H7xx_HAL_Driver/Src/stm32h7xx_ll_usb.c ****       USBx_INEP(epnum)->DIEPCTL |= (USB_OTG_DIEPCTL_CNAK | USB_OTG_DIEPCTL_EPENA);
 870:Drivers/STM32H7xx_HAL_Driver/Src/stm32h7xx_ll_usb.c **** 
 871:Drivers/STM32H7xx_HAL_Driver/Src/stm32h7xx_ll_usb.c ****       /* Enable the Tx FIFO Empty Interrupt for this EP */
 872:Drivers/STM32H7xx_HAL_Driver/Src/stm32h7xx_ll_usb.c ****       if (ep->xfer_len > 0U)
 873:Drivers/STM32H7xx_HAL_Driver/Src/stm32h7xx_ll_usb.c ****       {
 874:Drivers/STM32H7xx_HAL_Driver/Src/stm32h7xx_ll_usb.c ****         USBx_DEVICE->DIEPEMPMSK |= 1UL << (ep->num & EP_ADDR_MSK);
 875:Drivers/STM32H7xx_HAL_Driver/Src/stm32h7xx_ll_usb.c ****       }
 876:Drivers/STM32H7xx_HAL_Driver/Src/stm32h7xx_ll_usb.c ****     }
 877:Drivers/STM32H7xx_HAL_Driver/Src/stm32h7xx_ll_usb.c ****   }
 878:Drivers/STM32H7xx_HAL_Driver/Src/stm32h7xx_ll_usb.c ****   else /* OUT endpoint */
 879:Drivers/STM32H7xx_HAL_Driver/Src/stm32h7xx_ll_usb.c ****   {
 880:Drivers/STM32H7xx_HAL_Driver/Src/stm32h7xx_ll_usb.c ****     /* Program the transfer size and packet count as follows:
 881:Drivers/STM32H7xx_HAL_Driver/Src/stm32h7xx_ll_usb.c ****     * pktcnt = N
 882:Drivers/STM32H7xx_HAL_Driver/Src/stm32h7xx_ll_usb.c ****     * xfersize = N * maxpacket
 883:Drivers/STM32H7xx_HAL_Driver/Src/stm32h7xx_ll_usb.c ****     */
 884:Drivers/STM32H7xx_HAL_Driver/Src/stm32h7xx_ll_usb.c ****     USBx_OUTEP(epnum)->DOEPTSIZ &= ~(USB_OTG_DOEPTSIZ_XFRSIZ);
 885:Drivers/STM32H7xx_HAL_Driver/Src/stm32h7xx_ll_usb.c ****     USBx_OUTEP(epnum)->DOEPTSIZ &= ~(USB_OTG_DOEPTSIZ_PKTCNT);
 886:Drivers/STM32H7xx_HAL_Driver/Src/stm32h7xx_ll_usb.c **** 
ARM GAS  /tmp/cc0TWTOC.s 			page 17


 887:Drivers/STM32H7xx_HAL_Driver/Src/stm32h7xx_ll_usb.c ****     if (ep->xfer_len > 0U)
 888:Drivers/STM32H7xx_HAL_Driver/Src/stm32h7xx_ll_usb.c ****     {
 889:Drivers/STM32H7xx_HAL_Driver/Src/stm32h7xx_ll_usb.c ****       ep->xfer_len = ep->maxpacket;
 890:Drivers/STM32H7xx_HAL_Driver/Src/stm32h7xx_ll_usb.c ****     }
 891:Drivers/STM32H7xx_HAL_Driver/Src/stm32h7xx_ll_usb.c **** 
 892:Drivers/STM32H7xx_HAL_Driver/Src/stm32h7xx_ll_usb.c ****     USBx_OUTEP(epnum)->DOEPTSIZ |= (USB_OTG_DOEPTSIZ_PKTCNT & (1U << 19));
 893:Drivers/STM32H7xx_HAL_Driver/Src/stm32h7xx_ll_usb.c ****     USBx_OUTEP(epnum)->DOEPTSIZ |= (USB_OTG_DOEPTSIZ_XFRSIZ & (ep->maxpacket));
 894:Drivers/STM32H7xx_HAL_Driver/Src/stm32h7xx_ll_usb.c **** 
 895:Drivers/STM32H7xx_HAL_Driver/Src/stm32h7xx_ll_usb.c ****     if (dma == 1U)
 896:Drivers/STM32H7xx_HAL_Driver/Src/stm32h7xx_ll_usb.c ****     {
 897:Drivers/STM32H7xx_HAL_Driver/Src/stm32h7xx_ll_usb.c ****       if ((uint32_t)ep->xfer_buff != 0U)
 898:Drivers/STM32H7xx_HAL_Driver/Src/stm32h7xx_ll_usb.c ****       {
 899:Drivers/STM32H7xx_HAL_Driver/Src/stm32h7xx_ll_usb.c ****         USBx_OUTEP(epnum)->DOEPDMA = (uint32_t)(ep->xfer_buff);
 900:Drivers/STM32H7xx_HAL_Driver/Src/stm32h7xx_ll_usb.c ****       }
 901:Drivers/STM32H7xx_HAL_Driver/Src/stm32h7xx_ll_usb.c ****     }
 902:Drivers/STM32H7xx_HAL_Driver/Src/stm32h7xx_ll_usb.c **** 
 903:Drivers/STM32H7xx_HAL_Driver/Src/stm32h7xx_ll_usb.c ****     /* EP enable */
 904:Drivers/STM32H7xx_HAL_Driver/Src/stm32h7xx_ll_usb.c ****     USBx_OUTEP(epnum)->DOEPCTL |= (USB_OTG_DOEPCTL_CNAK | USB_OTG_DOEPCTL_EPENA);
 905:Drivers/STM32H7xx_HAL_Driver/Src/stm32h7xx_ll_usb.c ****   }
 906:Drivers/STM32H7xx_HAL_Driver/Src/stm32h7xx_ll_usb.c **** 
 907:Drivers/STM32H7xx_HAL_Driver/Src/stm32h7xx_ll_usb.c ****   return HAL_OK;
 908:Drivers/STM32H7xx_HAL_Driver/Src/stm32h7xx_ll_usb.c **** }
 909:Drivers/STM32H7xx_HAL_Driver/Src/stm32h7xx_ll_usb.c **** 
 910:Drivers/STM32H7xx_HAL_Driver/Src/stm32h7xx_ll_usb.c **** /**
 911:Drivers/STM32H7xx_HAL_Driver/Src/stm32h7xx_ll_usb.c ****   * @brief  USB_WritePacket : Writes a packet into the Tx FIFO associated
 912:Drivers/STM32H7xx_HAL_Driver/Src/stm32h7xx_ll_usb.c ****   *         with the EP/channel
 913:Drivers/STM32H7xx_HAL_Driver/Src/stm32h7xx_ll_usb.c ****   * @param  USBx  Selected device
 914:Drivers/STM32H7xx_HAL_Driver/Src/stm32h7xx_ll_usb.c ****   * @param  src   pointer to source buffer
 915:Drivers/STM32H7xx_HAL_Driver/Src/stm32h7xx_ll_usb.c ****   * @param  ch_ep_num  endpoint or host channel number
 916:Drivers/STM32H7xx_HAL_Driver/Src/stm32h7xx_ll_usb.c ****   * @param  len  Number of bytes to write
 917:Drivers/STM32H7xx_HAL_Driver/Src/stm32h7xx_ll_usb.c ****   * @param  dma USB dma enabled or disabled
 918:Drivers/STM32H7xx_HAL_Driver/Src/stm32h7xx_ll_usb.c ****   *          This parameter can be one of these values:
 919:Drivers/STM32H7xx_HAL_Driver/Src/stm32h7xx_ll_usb.c ****   *           0 : DMA feature not used
 920:Drivers/STM32H7xx_HAL_Driver/Src/stm32h7xx_ll_usb.c ****   *           1 : DMA feature used
 921:Drivers/STM32H7xx_HAL_Driver/Src/stm32h7xx_ll_usb.c ****   * @retval HAL status
 922:Drivers/STM32H7xx_HAL_Driver/Src/stm32h7xx_ll_usb.c ****   */
 923:Drivers/STM32H7xx_HAL_Driver/Src/stm32h7xx_ll_usb.c **** HAL_StatusTypeDef USB_WritePacket(USB_OTG_GlobalTypeDef *USBx, uint8_t *src, uint8_t ch_ep_num, uin
 924:Drivers/STM32H7xx_HAL_Driver/Src/stm32h7xx_ll_usb.c **** {
 925:Drivers/STM32H7xx_HAL_Driver/Src/stm32h7xx_ll_usb.c ****   uint32_t USBx_BASE = (uint32_t)USBx;
 926:Drivers/STM32H7xx_HAL_Driver/Src/stm32h7xx_ll_usb.c ****   uint32_t *pSrc = (uint32_t *)src;
 927:Drivers/STM32H7xx_HAL_Driver/Src/stm32h7xx_ll_usb.c ****   uint32_t count32b, i;
 928:Drivers/STM32H7xx_HAL_Driver/Src/stm32h7xx_ll_usb.c **** 
 929:Drivers/STM32H7xx_HAL_Driver/Src/stm32h7xx_ll_usb.c ****   if (dma == 0U)
 930:Drivers/STM32H7xx_HAL_Driver/Src/stm32h7xx_ll_usb.c ****   {
 931:Drivers/STM32H7xx_HAL_Driver/Src/stm32h7xx_ll_usb.c ****     count32b = ((uint32_t)len + 3U) / 4U;
 932:Drivers/STM32H7xx_HAL_Driver/Src/stm32h7xx_ll_usb.c ****     for (i = 0U; i < count32b; i++)
 933:Drivers/STM32H7xx_HAL_Driver/Src/stm32h7xx_ll_usb.c ****     {
 934:Drivers/STM32H7xx_HAL_Driver/Src/stm32h7xx_ll_usb.c ****       USBx_DFIFO((uint32_t)ch_ep_num) = __UNALIGNED_UINT32_READ(pSrc);
 935:Drivers/STM32H7xx_HAL_Driver/Src/stm32h7xx_ll_usb.c ****       pSrc++;
 936:Drivers/STM32H7xx_HAL_Driver/Src/stm32h7xx_ll_usb.c ****     }
 937:Drivers/STM32H7xx_HAL_Driver/Src/stm32h7xx_ll_usb.c ****   }
 938:Drivers/STM32H7xx_HAL_Driver/Src/stm32h7xx_ll_usb.c **** 
 939:Drivers/STM32H7xx_HAL_Driver/Src/stm32h7xx_ll_usb.c ****   return HAL_OK;
 940:Drivers/STM32H7xx_HAL_Driver/Src/stm32h7xx_ll_usb.c **** }
 941:Drivers/STM32H7xx_HAL_Driver/Src/stm32h7xx_ll_usb.c **** 
 942:Drivers/STM32H7xx_HAL_Driver/Src/stm32h7xx_ll_usb.c **** /**
 943:Drivers/STM32H7xx_HAL_Driver/Src/stm32h7xx_ll_usb.c ****   * @brief  USB_ReadPacket : read a packet from the RX FIFO
ARM GAS  /tmp/cc0TWTOC.s 			page 18


 944:Drivers/STM32H7xx_HAL_Driver/Src/stm32h7xx_ll_usb.c ****   * @param  USBx  Selected device
 945:Drivers/STM32H7xx_HAL_Driver/Src/stm32h7xx_ll_usb.c ****   * @param  dest  source pointer
 946:Drivers/STM32H7xx_HAL_Driver/Src/stm32h7xx_ll_usb.c ****   * @param  len  Number of bytes to read
 947:Drivers/STM32H7xx_HAL_Driver/Src/stm32h7xx_ll_usb.c ****   * @retval pointer to destination buffer
 948:Drivers/STM32H7xx_HAL_Driver/Src/stm32h7xx_ll_usb.c ****   */
 949:Drivers/STM32H7xx_HAL_Driver/Src/stm32h7xx_ll_usb.c **** void *USB_ReadPacket(USB_OTG_GlobalTypeDef *USBx, uint8_t *dest, uint16_t len)
 950:Drivers/STM32H7xx_HAL_Driver/Src/stm32h7xx_ll_usb.c **** {
 951:Drivers/STM32H7xx_HAL_Driver/Src/stm32h7xx_ll_usb.c ****   uint32_t USBx_BASE = (uint32_t)USBx;
 952:Drivers/STM32H7xx_HAL_Driver/Src/stm32h7xx_ll_usb.c ****   uint32_t *pDest = (uint32_t *)dest;
 953:Drivers/STM32H7xx_HAL_Driver/Src/stm32h7xx_ll_usb.c ****   uint32_t i;
 954:Drivers/STM32H7xx_HAL_Driver/Src/stm32h7xx_ll_usb.c ****   uint32_t count32b = ((uint32_t)len + 3U) / 4U;
 955:Drivers/STM32H7xx_HAL_Driver/Src/stm32h7xx_ll_usb.c **** 
 956:Drivers/STM32H7xx_HAL_Driver/Src/stm32h7xx_ll_usb.c ****   for (i = 0U; i < count32b; i++)
 957:Drivers/STM32H7xx_HAL_Driver/Src/stm32h7xx_ll_usb.c ****   {
 958:Drivers/STM32H7xx_HAL_Driver/Src/stm32h7xx_ll_usb.c ****     __UNALIGNED_UINT32_WRITE(pDest, USBx_DFIFO(0U));
 959:Drivers/STM32H7xx_HAL_Driver/Src/stm32h7xx_ll_usb.c ****     pDest++;
 960:Drivers/STM32H7xx_HAL_Driver/Src/stm32h7xx_ll_usb.c ****   }
 961:Drivers/STM32H7xx_HAL_Driver/Src/stm32h7xx_ll_usb.c **** 
 962:Drivers/STM32H7xx_HAL_Driver/Src/stm32h7xx_ll_usb.c ****   return ((void *)pDest);
 963:Drivers/STM32H7xx_HAL_Driver/Src/stm32h7xx_ll_usb.c **** }
 964:Drivers/STM32H7xx_HAL_Driver/Src/stm32h7xx_ll_usb.c **** 
 965:Drivers/STM32H7xx_HAL_Driver/Src/stm32h7xx_ll_usb.c **** /**
 966:Drivers/STM32H7xx_HAL_Driver/Src/stm32h7xx_ll_usb.c ****   * @brief  USB_EPSetStall : set a stall condition over an EP
 967:Drivers/STM32H7xx_HAL_Driver/Src/stm32h7xx_ll_usb.c ****   * @param  USBx  Selected device
 968:Drivers/STM32H7xx_HAL_Driver/Src/stm32h7xx_ll_usb.c ****   * @param  ep pointer to endpoint structure
 969:Drivers/STM32H7xx_HAL_Driver/Src/stm32h7xx_ll_usb.c ****   * @retval HAL status
 970:Drivers/STM32H7xx_HAL_Driver/Src/stm32h7xx_ll_usb.c ****   */
 971:Drivers/STM32H7xx_HAL_Driver/Src/stm32h7xx_ll_usb.c **** HAL_StatusTypeDef USB_EPSetStall(USB_OTG_GlobalTypeDef *USBx, USB_OTG_EPTypeDef *ep)
 972:Drivers/STM32H7xx_HAL_Driver/Src/stm32h7xx_ll_usb.c **** {
 973:Drivers/STM32H7xx_HAL_Driver/Src/stm32h7xx_ll_usb.c ****   uint32_t USBx_BASE = (uint32_t)USBx;
 974:Drivers/STM32H7xx_HAL_Driver/Src/stm32h7xx_ll_usb.c ****   uint32_t epnum = (uint32_t)ep->num;
 975:Drivers/STM32H7xx_HAL_Driver/Src/stm32h7xx_ll_usb.c **** 
 976:Drivers/STM32H7xx_HAL_Driver/Src/stm32h7xx_ll_usb.c ****   if (ep->is_in == 1U)
 977:Drivers/STM32H7xx_HAL_Driver/Src/stm32h7xx_ll_usb.c ****   {
 978:Drivers/STM32H7xx_HAL_Driver/Src/stm32h7xx_ll_usb.c ****     if (((USBx_INEP(epnum)->DIEPCTL & USB_OTG_DIEPCTL_EPENA) == 0U) && (epnum != 0U))
 979:Drivers/STM32H7xx_HAL_Driver/Src/stm32h7xx_ll_usb.c ****     {
 980:Drivers/STM32H7xx_HAL_Driver/Src/stm32h7xx_ll_usb.c ****       USBx_INEP(epnum)->DIEPCTL &= ~(USB_OTG_DIEPCTL_EPDIS);
 981:Drivers/STM32H7xx_HAL_Driver/Src/stm32h7xx_ll_usb.c ****     }
 982:Drivers/STM32H7xx_HAL_Driver/Src/stm32h7xx_ll_usb.c ****     USBx_INEP(epnum)->DIEPCTL |= USB_OTG_DIEPCTL_STALL;
 983:Drivers/STM32H7xx_HAL_Driver/Src/stm32h7xx_ll_usb.c ****   }
 984:Drivers/STM32H7xx_HAL_Driver/Src/stm32h7xx_ll_usb.c ****   else
 985:Drivers/STM32H7xx_HAL_Driver/Src/stm32h7xx_ll_usb.c ****   {
 986:Drivers/STM32H7xx_HAL_Driver/Src/stm32h7xx_ll_usb.c ****     if (((USBx_OUTEP(epnum)->DOEPCTL & USB_OTG_DOEPCTL_EPENA) == 0U) && (epnum != 0U))
 987:Drivers/STM32H7xx_HAL_Driver/Src/stm32h7xx_ll_usb.c ****     {
 988:Drivers/STM32H7xx_HAL_Driver/Src/stm32h7xx_ll_usb.c ****       USBx_OUTEP(epnum)->DOEPCTL &= ~(USB_OTG_DOEPCTL_EPDIS);
 989:Drivers/STM32H7xx_HAL_Driver/Src/stm32h7xx_ll_usb.c ****     }
 990:Drivers/STM32H7xx_HAL_Driver/Src/stm32h7xx_ll_usb.c ****     USBx_OUTEP(epnum)->DOEPCTL |= USB_OTG_DOEPCTL_STALL;
 991:Drivers/STM32H7xx_HAL_Driver/Src/stm32h7xx_ll_usb.c ****   }
 992:Drivers/STM32H7xx_HAL_Driver/Src/stm32h7xx_ll_usb.c **** 
 993:Drivers/STM32H7xx_HAL_Driver/Src/stm32h7xx_ll_usb.c ****   return HAL_OK;
 994:Drivers/STM32H7xx_HAL_Driver/Src/stm32h7xx_ll_usb.c **** }
 995:Drivers/STM32H7xx_HAL_Driver/Src/stm32h7xx_ll_usb.c **** 
 996:Drivers/STM32H7xx_HAL_Driver/Src/stm32h7xx_ll_usb.c **** /**
 997:Drivers/STM32H7xx_HAL_Driver/Src/stm32h7xx_ll_usb.c ****   * @brief  USB_EPClearStall : Clear a stall condition over an EP
 998:Drivers/STM32H7xx_HAL_Driver/Src/stm32h7xx_ll_usb.c ****   * @param  USBx  Selected device
 999:Drivers/STM32H7xx_HAL_Driver/Src/stm32h7xx_ll_usb.c ****   * @param  ep pointer to endpoint structure
1000:Drivers/STM32H7xx_HAL_Driver/Src/stm32h7xx_ll_usb.c ****   * @retval HAL status
ARM GAS  /tmp/cc0TWTOC.s 			page 19


1001:Drivers/STM32H7xx_HAL_Driver/Src/stm32h7xx_ll_usb.c ****   */
1002:Drivers/STM32H7xx_HAL_Driver/Src/stm32h7xx_ll_usb.c **** HAL_StatusTypeDef USB_EPClearStall(USB_OTG_GlobalTypeDef *USBx, USB_OTG_EPTypeDef *ep)
1003:Drivers/STM32H7xx_HAL_Driver/Src/stm32h7xx_ll_usb.c **** {
1004:Drivers/STM32H7xx_HAL_Driver/Src/stm32h7xx_ll_usb.c ****   uint32_t USBx_BASE = (uint32_t)USBx;
1005:Drivers/STM32H7xx_HAL_Driver/Src/stm32h7xx_ll_usb.c ****   uint32_t epnum = (uint32_t)ep->num;
1006:Drivers/STM32H7xx_HAL_Driver/Src/stm32h7xx_ll_usb.c **** 
1007:Drivers/STM32H7xx_HAL_Driver/Src/stm32h7xx_ll_usb.c ****   if (ep->is_in == 1U)
1008:Drivers/STM32H7xx_HAL_Driver/Src/stm32h7xx_ll_usb.c ****   {
1009:Drivers/STM32H7xx_HAL_Driver/Src/stm32h7xx_ll_usb.c ****     USBx_INEP(epnum)->DIEPCTL &= ~USB_OTG_DIEPCTL_STALL;
1010:Drivers/STM32H7xx_HAL_Driver/Src/stm32h7xx_ll_usb.c ****     if ((ep->type == EP_TYPE_INTR) || (ep->type == EP_TYPE_BULK))
1011:Drivers/STM32H7xx_HAL_Driver/Src/stm32h7xx_ll_usb.c ****     {
1012:Drivers/STM32H7xx_HAL_Driver/Src/stm32h7xx_ll_usb.c ****       USBx_INEP(epnum)->DIEPCTL |= USB_OTG_DIEPCTL_SD0PID_SEVNFRM; /* DATA0 */
1013:Drivers/STM32H7xx_HAL_Driver/Src/stm32h7xx_ll_usb.c ****     }
1014:Drivers/STM32H7xx_HAL_Driver/Src/stm32h7xx_ll_usb.c ****   }
1015:Drivers/STM32H7xx_HAL_Driver/Src/stm32h7xx_ll_usb.c ****   else
1016:Drivers/STM32H7xx_HAL_Driver/Src/stm32h7xx_ll_usb.c ****   {
1017:Drivers/STM32H7xx_HAL_Driver/Src/stm32h7xx_ll_usb.c ****     USBx_OUTEP(epnum)->DOEPCTL &= ~USB_OTG_DOEPCTL_STALL;
1018:Drivers/STM32H7xx_HAL_Driver/Src/stm32h7xx_ll_usb.c ****     if ((ep->type == EP_TYPE_INTR) || (ep->type == EP_TYPE_BULK))
1019:Drivers/STM32H7xx_HAL_Driver/Src/stm32h7xx_ll_usb.c ****     {
1020:Drivers/STM32H7xx_HAL_Driver/Src/stm32h7xx_ll_usb.c ****       USBx_OUTEP(epnum)->DOEPCTL |= USB_OTG_DOEPCTL_SD0PID_SEVNFRM; /* DATA0 */
1021:Drivers/STM32H7xx_HAL_Driver/Src/stm32h7xx_ll_usb.c ****     }
1022:Drivers/STM32H7xx_HAL_Driver/Src/stm32h7xx_ll_usb.c ****   }
1023:Drivers/STM32H7xx_HAL_Driver/Src/stm32h7xx_ll_usb.c ****   return HAL_OK;
1024:Drivers/STM32H7xx_HAL_Driver/Src/stm32h7xx_ll_usb.c **** }
1025:Drivers/STM32H7xx_HAL_Driver/Src/stm32h7xx_ll_usb.c **** 
1026:Drivers/STM32H7xx_HAL_Driver/Src/stm32h7xx_ll_usb.c **** /**
1027:Drivers/STM32H7xx_HAL_Driver/Src/stm32h7xx_ll_usb.c ****   * @brief  USB_StopDevice : Stop the usb device mode
1028:Drivers/STM32H7xx_HAL_Driver/Src/stm32h7xx_ll_usb.c ****   * @param  USBx  Selected device
1029:Drivers/STM32H7xx_HAL_Driver/Src/stm32h7xx_ll_usb.c ****   * @retval HAL status
1030:Drivers/STM32H7xx_HAL_Driver/Src/stm32h7xx_ll_usb.c ****   */
1031:Drivers/STM32H7xx_HAL_Driver/Src/stm32h7xx_ll_usb.c **** HAL_StatusTypeDef USB_StopDevice(USB_OTG_GlobalTypeDef *USBx)
1032:Drivers/STM32H7xx_HAL_Driver/Src/stm32h7xx_ll_usb.c **** {
1033:Drivers/STM32H7xx_HAL_Driver/Src/stm32h7xx_ll_usb.c ****   HAL_StatusTypeDef ret;
1034:Drivers/STM32H7xx_HAL_Driver/Src/stm32h7xx_ll_usb.c ****   uint32_t USBx_BASE = (uint32_t)USBx;
1035:Drivers/STM32H7xx_HAL_Driver/Src/stm32h7xx_ll_usb.c ****   uint32_t i;
1036:Drivers/STM32H7xx_HAL_Driver/Src/stm32h7xx_ll_usb.c **** 
1037:Drivers/STM32H7xx_HAL_Driver/Src/stm32h7xx_ll_usb.c ****   /* Clear Pending interrupt */
1038:Drivers/STM32H7xx_HAL_Driver/Src/stm32h7xx_ll_usb.c ****   for (i = 0U; i < 15U; i++)
1039:Drivers/STM32H7xx_HAL_Driver/Src/stm32h7xx_ll_usb.c ****   {
1040:Drivers/STM32H7xx_HAL_Driver/Src/stm32h7xx_ll_usb.c ****     USBx_INEP(i)->DIEPINT = 0xFB7FU;
1041:Drivers/STM32H7xx_HAL_Driver/Src/stm32h7xx_ll_usb.c ****     USBx_OUTEP(i)->DOEPINT = 0xFB7FU;
1042:Drivers/STM32H7xx_HAL_Driver/Src/stm32h7xx_ll_usb.c ****   }
1043:Drivers/STM32H7xx_HAL_Driver/Src/stm32h7xx_ll_usb.c **** 
1044:Drivers/STM32H7xx_HAL_Driver/Src/stm32h7xx_ll_usb.c ****   /* Clear interrupt masks */
1045:Drivers/STM32H7xx_HAL_Driver/Src/stm32h7xx_ll_usb.c ****   USBx_DEVICE->DIEPMSK  = 0U;
1046:Drivers/STM32H7xx_HAL_Driver/Src/stm32h7xx_ll_usb.c ****   USBx_DEVICE->DOEPMSK  = 0U;
1047:Drivers/STM32H7xx_HAL_Driver/Src/stm32h7xx_ll_usb.c ****   USBx_DEVICE->DAINTMSK = 0U;
1048:Drivers/STM32H7xx_HAL_Driver/Src/stm32h7xx_ll_usb.c **** 
1049:Drivers/STM32H7xx_HAL_Driver/Src/stm32h7xx_ll_usb.c ****   /* Flush the FIFO */
1050:Drivers/STM32H7xx_HAL_Driver/Src/stm32h7xx_ll_usb.c ****   ret = USB_FlushRxFifo(USBx);
1051:Drivers/STM32H7xx_HAL_Driver/Src/stm32h7xx_ll_usb.c ****   if (ret != HAL_OK)
1052:Drivers/STM32H7xx_HAL_Driver/Src/stm32h7xx_ll_usb.c ****   {
1053:Drivers/STM32H7xx_HAL_Driver/Src/stm32h7xx_ll_usb.c ****     return ret;
1054:Drivers/STM32H7xx_HAL_Driver/Src/stm32h7xx_ll_usb.c ****   }
1055:Drivers/STM32H7xx_HAL_Driver/Src/stm32h7xx_ll_usb.c **** 
1056:Drivers/STM32H7xx_HAL_Driver/Src/stm32h7xx_ll_usb.c ****   ret = USB_FlushTxFifo(USBx,  0x10U);
1057:Drivers/STM32H7xx_HAL_Driver/Src/stm32h7xx_ll_usb.c ****   if (ret != HAL_OK)
ARM GAS  /tmp/cc0TWTOC.s 			page 20


1058:Drivers/STM32H7xx_HAL_Driver/Src/stm32h7xx_ll_usb.c ****   {
1059:Drivers/STM32H7xx_HAL_Driver/Src/stm32h7xx_ll_usb.c ****     return ret;
1060:Drivers/STM32H7xx_HAL_Driver/Src/stm32h7xx_ll_usb.c ****   }
1061:Drivers/STM32H7xx_HAL_Driver/Src/stm32h7xx_ll_usb.c **** 
1062:Drivers/STM32H7xx_HAL_Driver/Src/stm32h7xx_ll_usb.c ****   return ret;
1063:Drivers/STM32H7xx_HAL_Driver/Src/stm32h7xx_ll_usb.c **** }
1064:Drivers/STM32H7xx_HAL_Driver/Src/stm32h7xx_ll_usb.c **** 
1065:Drivers/STM32H7xx_HAL_Driver/Src/stm32h7xx_ll_usb.c **** /**
1066:Drivers/STM32H7xx_HAL_Driver/Src/stm32h7xx_ll_usb.c ****   * @brief  USB_SetDevAddress : Stop the usb device mode
1067:Drivers/STM32H7xx_HAL_Driver/Src/stm32h7xx_ll_usb.c ****   * @param  USBx  Selected device
1068:Drivers/STM32H7xx_HAL_Driver/Src/stm32h7xx_ll_usb.c ****   * @param  address  new device address to be assigned
1069:Drivers/STM32H7xx_HAL_Driver/Src/stm32h7xx_ll_usb.c ****   *          This parameter can be a value from 0 to 255
1070:Drivers/STM32H7xx_HAL_Driver/Src/stm32h7xx_ll_usb.c ****   * @retval HAL status
1071:Drivers/STM32H7xx_HAL_Driver/Src/stm32h7xx_ll_usb.c ****   */
1072:Drivers/STM32H7xx_HAL_Driver/Src/stm32h7xx_ll_usb.c **** HAL_StatusTypeDef  USB_SetDevAddress(USB_OTG_GlobalTypeDef *USBx, uint8_t address)
1073:Drivers/STM32H7xx_HAL_Driver/Src/stm32h7xx_ll_usb.c **** {
1074:Drivers/STM32H7xx_HAL_Driver/Src/stm32h7xx_ll_usb.c ****   uint32_t USBx_BASE = (uint32_t)USBx;
1075:Drivers/STM32H7xx_HAL_Driver/Src/stm32h7xx_ll_usb.c **** 
1076:Drivers/STM32H7xx_HAL_Driver/Src/stm32h7xx_ll_usb.c ****   USBx_DEVICE->DCFG &= ~(USB_OTG_DCFG_DAD);
1077:Drivers/STM32H7xx_HAL_Driver/Src/stm32h7xx_ll_usb.c ****   USBx_DEVICE->DCFG |= ((uint32_t)address << 4) & USB_OTG_DCFG_DAD;
1078:Drivers/STM32H7xx_HAL_Driver/Src/stm32h7xx_ll_usb.c **** 
1079:Drivers/STM32H7xx_HAL_Driver/Src/stm32h7xx_ll_usb.c ****   return HAL_OK;
1080:Drivers/STM32H7xx_HAL_Driver/Src/stm32h7xx_ll_usb.c **** }
1081:Drivers/STM32H7xx_HAL_Driver/Src/stm32h7xx_ll_usb.c **** 
1082:Drivers/STM32H7xx_HAL_Driver/Src/stm32h7xx_ll_usb.c **** /**
1083:Drivers/STM32H7xx_HAL_Driver/Src/stm32h7xx_ll_usb.c ****   * @brief  USB_DevConnect : Connect the USB device by enabling the pull-up/pull-down
1084:Drivers/STM32H7xx_HAL_Driver/Src/stm32h7xx_ll_usb.c ****   * @param  USBx  Selected device
1085:Drivers/STM32H7xx_HAL_Driver/Src/stm32h7xx_ll_usb.c ****   * @retval HAL status
1086:Drivers/STM32H7xx_HAL_Driver/Src/stm32h7xx_ll_usb.c ****   */
1087:Drivers/STM32H7xx_HAL_Driver/Src/stm32h7xx_ll_usb.c **** HAL_StatusTypeDef  USB_DevConnect(USB_OTG_GlobalTypeDef *USBx)
1088:Drivers/STM32H7xx_HAL_Driver/Src/stm32h7xx_ll_usb.c **** {
1089:Drivers/STM32H7xx_HAL_Driver/Src/stm32h7xx_ll_usb.c ****   uint32_t USBx_BASE = (uint32_t)USBx;
1090:Drivers/STM32H7xx_HAL_Driver/Src/stm32h7xx_ll_usb.c **** 
1091:Drivers/STM32H7xx_HAL_Driver/Src/stm32h7xx_ll_usb.c ****   USBx_DEVICE->DCTL &= ~USB_OTG_DCTL_SDIS;
1092:Drivers/STM32H7xx_HAL_Driver/Src/stm32h7xx_ll_usb.c ****   HAL_Delay(3U);
1093:Drivers/STM32H7xx_HAL_Driver/Src/stm32h7xx_ll_usb.c **** 
1094:Drivers/STM32H7xx_HAL_Driver/Src/stm32h7xx_ll_usb.c ****   return HAL_OK;
1095:Drivers/STM32H7xx_HAL_Driver/Src/stm32h7xx_ll_usb.c **** }
1096:Drivers/STM32H7xx_HAL_Driver/Src/stm32h7xx_ll_usb.c **** 
1097:Drivers/STM32H7xx_HAL_Driver/Src/stm32h7xx_ll_usb.c **** /**
1098:Drivers/STM32H7xx_HAL_Driver/Src/stm32h7xx_ll_usb.c ****   * @brief  USB_DevDisconnect : Disconnect the USB device by disabling the pull-up/pull-down
1099:Drivers/STM32H7xx_HAL_Driver/Src/stm32h7xx_ll_usb.c ****   * @param  USBx  Selected device
1100:Drivers/STM32H7xx_HAL_Driver/Src/stm32h7xx_ll_usb.c ****   * @retval HAL status
1101:Drivers/STM32H7xx_HAL_Driver/Src/stm32h7xx_ll_usb.c ****   */
1102:Drivers/STM32H7xx_HAL_Driver/Src/stm32h7xx_ll_usb.c **** HAL_StatusTypeDef  USB_DevDisconnect(USB_OTG_GlobalTypeDef *USBx)
1103:Drivers/STM32H7xx_HAL_Driver/Src/stm32h7xx_ll_usb.c **** {
1104:Drivers/STM32H7xx_HAL_Driver/Src/stm32h7xx_ll_usb.c ****   uint32_t USBx_BASE = (uint32_t)USBx;
1105:Drivers/STM32H7xx_HAL_Driver/Src/stm32h7xx_ll_usb.c **** 
1106:Drivers/STM32H7xx_HAL_Driver/Src/stm32h7xx_ll_usb.c ****   USBx_DEVICE->DCTL |= USB_OTG_DCTL_SDIS;
1107:Drivers/STM32H7xx_HAL_Driver/Src/stm32h7xx_ll_usb.c ****   HAL_Delay(3U);
1108:Drivers/STM32H7xx_HAL_Driver/Src/stm32h7xx_ll_usb.c **** 
1109:Drivers/STM32H7xx_HAL_Driver/Src/stm32h7xx_ll_usb.c ****   return HAL_OK;
1110:Drivers/STM32H7xx_HAL_Driver/Src/stm32h7xx_ll_usb.c **** }
1111:Drivers/STM32H7xx_HAL_Driver/Src/stm32h7xx_ll_usb.c **** 
1112:Drivers/STM32H7xx_HAL_Driver/Src/stm32h7xx_ll_usb.c **** /**
1113:Drivers/STM32H7xx_HAL_Driver/Src/stm32h7xx_ll_usb.c ****   * @brief  USB_ReadInterrupts: return the global USB interrupt status
1114:Drivers/STM32H7xx_HAL_Driver/Src/stm32h7xx_ll_usb.c ****   * @param  USBx  Selected device
ARM GAS  /tmp/cc0TWTOC.s 			page 21


1115:Drivers/STM32H7xx_HAL_Driver/Src/stm32h7xx_ll_usb.c ****   * @retval HAL status
1116:Drivers/STM32H7xx_HAL_Driver/Src/stm32h7xx_ll_usb.c ****   */
1117:Drivers/STM32H7xx_HAL_Driver/Src/stm32h7xx_ll_usb.c **** uint32_t  USB_ReadInterrupts(USB_OTG_GlobalTypeDef *USBx)
1118:Drivers/STM32H7xx_HAL_Driver/Src/stm32h7xx_ll_usb.c **** {
1119:Drivers/STM32H7xx_HAL_Driver/Src/stm32h7xx_ll_usb.c ****   uint32_t tmpreg;
1120:Drivers/STM32H7xx_HAL_Driver/Src/stm32h7xx_ll_usb.c **** 
1121:Drivers/STM32H7xx_HAL_Driver/Src/stm32h7xx_ll_usb.c ****   tmpreg = USBx->GINTSTS;
1122:Drivers/STM32H7xx_HAL_Driver/Src/stm32h7xx_ll_usb.c ****   tmpreg &= USBx->GINTMSK;
1123:Drivers/STM32H7xx_HAL_Driver/Src/stm32h7xx_ll_usb.c **** 
1124:Drivers/STM32H7xx_HAL_Driver/Src/stm32h7xx_ll_usb.c ****   return tmpreg;
1125:Drivers/STM32H7xx_HAL_Driver/Src/stm32h7xx_ll_usb.c **** }
1126:Drivers/STM32H7xx_HAL_Driver/Src/stm32h7xx_ll_usb.c **** 
1127:Drivers/STM32H7xx_HAL_Driver/Src/stm32h7xx_ll_usb.c **** /**
1128:Drivers/STM32H7xx_HAL_Driver/Src/stm32h7xx_ll_usb.c ****   * @brief  USB_ReadDevAllOutEpInterrupt: return the USB device OUT endpoints interrupt status
1129:Drivers/STM32H7xx_HAL_Driver/Src/stm32h7xx_ll_usb.c ****   * @param  USBx  Selected device
1130:Drivers/STM32H7xx_HAL_Driver/Src/stm32h7xx_ll_usb.c ****   * @retval HAL status
1131:Drivers/STM32H7xx_HAL_Driver/Src/stm32h7xx_ll_usb.c ****   */
1132:Drivers/STM32H7xx_HAL_Driver/Src/stm32h7xx_ll_usb.c **** uint32_t USB_ReadDevAllOutEpInterrupt(USB_OTG_GlobalTypeDef *USBx)
1133:Drivers/STM32H7xx_HAL_Driver/Src/stm32h7xx_ll_usb.c **** {
1134:Drivers/STM32H7xx_HAL_Driver/Src/stm32h7xx_ll_usb.c ****   uint32_t USBx_BASE = (uint32_t)USBx;
1135:Drivers/STM32H7xx_HAL_Driver/Src/stm32h7xx_ll_usb.c ****   uint32_t tmpreg;
1136:Drivers/STM32H7xx_HAL_Driver/Src/stm32h7xx_ll_usb.c **** 
1137:Drivers/STM32H7xx_HAL_Driver/Src/stm32h7xx_ll_usb.c ****   tmpreg  = USBx_DEVICE->DAINT;
1138:Drivers/STM32H7xx_HAL_Driver/Src/stm32h7xx_ll_usb.c ****   tmpreg &= USBx_DEVICE->DAINTMSK;
1139:Drivers/STM32H7xx_HAL_Driver/Src/stm32h7xx_ll_usb.c **** 
1140:Drivers/STM32H7xx_HAL_Driver/Src/stm32h7xx_ll_usb.c ****   return ((tmpreg & 0xffff0000U) >> 16);
1141:Drivers/STM32H7xx_HAL_Driver/Src/stm32h7xx_ll_usb.c **** }
1142:Drivers/STM32H7xx_HAL_Driver/Src/stm32h7xx_ll_usb.c **** 
1143:Drivers/STM32H7xx_HAL_Driver/Src/stm32h7xx_ll_usb.c **** /**
1144:Drivers/STM32H7xx_HAL_Driver/Src/stm32h7xx_ll_usb.c ****   * @brief  USB_ReadDevAllInEpInterrupt: return the USB device IN endpoints interrupt status
1145:Drivers/STM32H7xx_HAL_Driver/Src/stm32h7xx_ll_usb.c ****   * @param  USBx  Selected device
1146:Drivers/STM32H7xx_HAL_Driver/Src/stm32h7xx_ll_usb.c ****   * @retval HAL status
1147:Drivers/STM32H7xx_HAL_Driver/Src/stm32h7xx_ll_usb.c ****   */
1148:Drivers/STM32H7xx_HAL_Driver/Src/stm32h7xx_ll_usb.c **** uint32_t USB_ReadDevAllInEpInterrupt(USB_OTG_GlobalTypeDef *USBx)
1149:Drivers/STM32H7xx_HAL_Driver/Src/stm32h7xx_ll_usb.c **** {
1150:Drivers/STM32H7xx_HAL_Driver/Src/stm32h7xx_ll_usb.c ****   uint32_t USBx_BASE = (uint32_t)USBx;
1151:Drivers/STM32H7xx_HAL_Driver/Src/stm32h7xx_ll_usb.c ****   uint32_t tmpreg;
1152:Drivers/STM32H7xx_HAL_Driver/Src/stm32h7xx_ll_usb.c **** 
1153:Drivers/STM32H7xx_HAL_Driver/Src/stm32h7xx_ll_usb.c ****   tmpreg  = USBx_DEVICE->DAINT;
1154:Drivers/STM32H7xx_HAL_Driver/Src/stm32h7xx_ll_usb.c ****   tmpreg &= USBx_DEVICE->DAINTMSK;
1155:Drivers/STM32H7xx_HAL_Driver/Src/stm32h7xx_ll_usb.c **** 
1156:Drivers/STM32H7xx_HAL_Driver/Src/stm32h7xx_ll_usb.c ****   return ((tmpreg & 0xFFFFU));
1157:Drivers/STM32H7xx_HAL_Driver/Src/stm32h7xx_ll_usb.c **** }
1158:Drivers/STM32H7xx_HAL_Driver/Src/stm32h7xx_ll_usb.c **** 
1159:Drivers/STM32H7xx_HAL_Driver/Src/stm32h7xx_ll_usb.c **** /**
1160:Drivers/STM32H7xx_HAL_Driver/Src/stm32h7xx_ll_usb.c ****   * @brief  Returns Device OUT EP Interrupt register
1161:Drivers/STM32H7xx_HAL_Driver/Src/stm32h7xx_ll_usb.c ****   * @param  USBx  Selected device
1162:Drivers/STM32H7xx_HAL_Driver/Src/stm32h7xx_ll_usb.c ****   * @param  epnum  endpoint number
1163:Drivers/STM32H7xx_HAL_Driver/Src/stm32h7xx_ll_usb.c ****   *          This parameter can be a value from 0 to 15
1164:Drivers/STM32H7xx_HAL_Driver/Src/stm32h7xx_ll_usb.c ****   * @retval Device OUT EP Interrupt register
1165:Drivers/STM32H7xx_HAL_Driver/Src/stm32h7xx_ll_usb.c ****   */
1166:Drivers/STM32H7xx_HAL_Driver/Src/stm32h7xx_ll_usb.c **** uint32_t USB_ReadDevOutEPInterrupt(USB_OTG_GlobalTypeDef *USBx, uint8_t epnum)
1167:Drivers/STM32H7xx_HAL_Driver/Src/stm32h7xx_ll_usb.c **** {
1168:Drivers/STM32H7xx_HAL_Driver/Src/stm32h7xx_ll_usb.c ****   uint32_t USBx_BASE = (uint32_t)USBx;
1169:Drivers/STM32H7xx_HAL_Driver/Src/stm32h7xx_ll_usb.c ****   uint32_t tmpreg;
1170:Drivers/STM32H7xx_HAL_Driver/Src/stm32h7xx_ll_usb.c **** 
1171:Drivers/STM32H7xx_HAL_Driver/Src/stm32h7xx_ll_usb.c ****   tmpreg  = USBx_OUTEP((uint32_t)epnum)->DOEPINT;
ARM GAS  /tmp/cc0TWTOC.s 			page 22


1172:Drivers/STM32H7xx_HAL_Driver/Src/stm32h7xx_ll_usb.c ****   tmpreg &= USBx_DEVICE->DOEPMSK;
1173:Drivers/STM32H7xx_HAL_Driver/Src/stm32h7xx_ll_usb.c **** 
1174:Drivers/STM32H7xx_HAL_Driver/Src/stm32h7xx_ll_usb.c ****   return tmpreg;
1175:Drivers/STM32H7xx_HAL_Driver/Src/stm32h7xx_ll_usb.c **** }
1176:Drivers/STM32H7xx_HAL_Driver/Src/stm32h7xx_ll_usb.c **** 
1177:Drivers/STM32H7xx_HAL_Driver/Src/stm32h7xx_ll_usb.c **** /**
1178:Drivers/STM32H7xx_HAL_Driver/Src/stm32h7xx_ll_usb.c ****   * @brief  Returns Device IN EP Interrupt register
1179:Drivers/STM32H7xx_HAL_Driver/Src/stm32h7xx_ll_usb.c ****   * @param  USBx  Selected device
1180:Drivers/STM32H7xx_HAL_Driver/Src/stm32h7xx_ll_usb.c ****   * @param  epnum  endpoint number
1181:Drivers/STM32H7xx_HAL_Driver/Src/stm32h7xx_ll_usb.c ****   *          This parameter can be a value from 0 to 15
1182:Drivers/STM32H7xx_HAL_Driver/Src/stm32h7xx_ll_usb.c ****   * @retval Device IN EP Interrupt register
1183:Drivers/STM32H7xx_HAL_Driver/Src/stm32h7xx_ll_usb.c ****   */
1184:Drivers/STM32H7xx_HAL_Driver/Src/stm32h7xx_ll_usb.c **** uint32_t USB_ReadDevInEPInterrupt(USB_OTG_GlobalTypeDef *USBx, uint8_t epnum)
1185:Drivers/STM32H7xx_HAL_Driver/Src/stm32h7xx_ll_usb.c **** {
1186:Drivers/STM32H7xx_HAL_Driver/Src/stm32h7xx_ll_usb.c ****   uint32_t USBx_BASE = (uint32_t)USBx;
1187:Drivers/STM32H7xx_HAL_Driver/Src/stm32h7xx_ll_usb.c ****   uint32_t tmpreg, msk, emp;
1188:Drivers/STM32H7xx_HAL_Driver/Src/stm32h7xx_ll_usb.c **** 
1189:Drivers/STM32H7xx_HAL_Driver/Src/stm32h7xx_ll_usb.c ****   msk = USBx_DEVICE->DIEPMSK;
1190:Drivers/STM32H7xx_HAL_Driver/Src/stm32h7xx_ll_usb.c ****   emp = USBx_DEVICE->DIEPEMPMSK;
1191:Drivers/STM32H7xx_HAL_Driver/Src/stm32h7xx_ll_usb.c ****   msk |= ((emp >> (epnum & EP_ADDR_MSK)) & 0x1U) << 7;
1192:Drivers/STM32H7xx_HAL_Driver/Src/stm32h7xx_ll_usb.c ****   tmpreg = USBx_INEP((uint32_t)epnum)->DIEPINT & msk;
1193:Drivers/STM32H7xx_HAL_Driver/Src/stm32h7xx_ll_usb.c **** 
1194:Drivers/STM32H7xx_HAL_Driver/Src/stm32h7xx_ll_usb.c ****   return tmpreg;
1195:Drivers/STM32H7xx_HAL_Driver/Src/stm32h7xx_ll_usb.c **** }
1196:Drivers/STM32H7xx_HAL_Driver/Src/stm32h7xx_ll_usb.c **** 
1197:Drivers/STM32H7xx_HAL_Driver/Src/stm32h7xx_ll_usb.c **** /**
1198:Drivers/STM32H7xx_HAL_Driver/Src/stm32h7xx_ll_usb.c ****   * @brief  USB_ClearInterrupts: clear a USB interrupt
1199:Drivers/STM32H7xx_HAL_Driver/Src/stm32h7xx_ll_usb.c ****   * @param  USBx  Selected device
1200:Drivers/STM32H7xx_HAL_Driver/Src/stm32h7xx_ll_usb.c ****   * @param  interrupt  interrupt flag
1201:Drivers/STM32H7xx_HAL_Driver/Src/stm32h7xx_ll_usb.c ****   * @retval None
1202:Drivers/STM32H7xx_HAL_Driver/Src/stm32h7xx_ll_usb.c ****   */
1203:Drivers/STM32H7xx_HAL_Driver/Src/stm32h7xx_ll_usb.c **** void  USB_ClearInterrupts(USB_OTG_GlobalTypeDef *USBx, uint32_t interrupt)
1204:Drivers/STM32H7xx_HAL_Driver/Src/stm32h7xx_ll_usb.c **** {
1205:Drivers/STM32H7xx_HAL_Driver/Src/stm32h7xx_ll_usb.c ****   USBx->GINTSTS |= interrupt;
1206:Drivers/STM32H7xx_HAL_Driver/Src/stm32h7xx_ll_usb.c **** }
1207:Drivers/STM32H7xx_HAL_Driver/Src/stm32h7xx_ll_usb.c **** 
1208:Drivers/STM32H7xx_HAL_Driver/Src/stm32h7xx_ll_usb.c **** /**
1209:Drivers/STM32H7xx_HAL_Driver/Src/stm32h7xx_ll_usb.c ****   * @brief  Returns USB core mode
1210:Drivers/STM32H7xx_HAL_Driver/Src/stm32h7xx_ll_usb.c ****   * @param  USBx  Selected device
1211:Drivers/STM32H7xx_HAL_Driver/Src/stm32h7xx_ll_usb.c ****   * @retval return core mode : Host or Device
1212:Drivers/STM32H7xx_HAL_Driver/Src/stm32h7xx_ll_usb.c ****   *          This parameter can be one of these values:
1213:Drivers/STM32H7xx_HAL_Driver/Src/stm32h7xx_ll_usb.c ****   *           0 : Host
1214:Drivers/STM32H7xx_HAL_Driver/Src/stm32h7xx_ll_usb.c ****   *           1 : Device
1215:Drivers/STM32H7xx_HAL_Driver/Src/stm32h7xx_ll_usb.c ****   */
1216:Drivers/STM32H7xx_HAL_Driver/Src/stm32h7xx_ll_usb.c **** uint32_t USB_GetMode(USB_OTG_GlobalTypeDef *USBx)
1217:Drivers/STM32H7xx_HAL_Driver/Src/stm32h7xx_ll_usb.c **** {
1218:Drivers/STM32H7xx_HAL_Driver/Src/stm32h7xx_ll_usb.c ****   return ((USBx->GINTSTS) & 0x1U);
1219:Drivers/STM32H7xx_HAL_Driver/Src/stm32h7xx_ll_usb.c **** }
1220:Drivers/STM32H7xx_HAL_Driver/Src/stm32h7xx_ll_usb.c **** 
1221:Drivers/STM32H7xx_HAL_Driver/Src/stm32h7xx_ll_usb.c **** /**
1222:Drivers/STM32H7xx_HAL_Driver/Src/stm32h7xx_ll_usb.c ****   * @brief  Activate EP0 for Setup transactions
1223:Drivers/STM32H7xx_HAL_Driver/Src/stm32h7xx_ll_usb.c ****   * @param  USBx  Selected device
1224:Drivers/STM32H7xx_HAL_Driver/Src/stm32h7xx_ll_usb.c ****   * @retval HAL status
1225:Drivers/STM32H7xx_HAL_Driver/Src/stm32h7xx_ll_usb.c ****   */
1226:Drivers/STM32H7xx_HAL_Driver/Src/stm32h7xx_ll_usb.c **** HAL_StatusTypeDef  USB_ActivateSetup(USB_OTG_GlobalTypeDef *USBx)
1227:Drivers/STM32H7xx_HAL_Driver/Src/stm32h7xx_ll_usb.c **** {
1228:Drivers/STM32H7xx_HAL_Driver/Src/stm32h7xx_ll_usb.c ****   uint32_t USBx_BASE = (uint32_t)USBx;
ARM GAS  /tmp/cc0TWTOC.s 			page 23


1229:Drivers/STM32H7xx_HAL_Driver/Src/stm32h7xx_ll_usb.c **** 
1230:Drivers/STM32H7xx_HAL_Driver/Src/stm32h7xx_ll_usb.c ****   /* Set the MPS of the IN EP based on the enumeration speed */
1231:Drivers/STM32H7xx_HAL_Driver/Src/stm32h7xx_ll_usb.c ****   USBx_INEP(0U)->DIEPCTL &= ~USB_OTG_DIEPCTL_MPSIZ;
1232:Drivers/STM32H7xx_HAL_Driver/Src/stm32h7xx_ll_usb.c **** 
1233:Drivers/STM32H7xx_HAL_Driver/Src/stm32h7xx_ll_usb.c ****   if ((USBx_DEVICE->DSTS & USB_OTG_DSTS_ENUMSPD) == DSTS_ENUMSPD_LS_PHY_6MHZ)
1234:Drivers/STM32H7xx_HAL_Driver/Src/stm32h7xx_ll_usb.c ****   {
1235:Drivers/STM32H7xx_HAL_Driver/Src/stm32h7xx_ll_usb.c ****     USBx_INEP(0U)->DIEPCTL |= 3U;
1236:Drivers/STM32H7xx_HAL_Driver/Src/stm32h7xx_ll_usb.c ****   }
1237:Drivers/STM32H7xx_HAL_Driver/Src/stm32h7xx_ll_usb.c ****   USBx_DEVICE->DCTL |= USB_OTG_DCTL_CGINAK;
1238:Drivers/STM32H7xx_HAL_Driver/Src/stm32h7xx_ll_usb.c **** 
1239:Drivers/STM32H7xx_HAL_Driver/Src/stm32h7xx_ll_usb.c ****   return HAL_OK;
1240:Drivers/STM32H7xx_HAL_Driver/Src/stm32h7xx_ll_usb.c **** }
1241:Drivers/STM32H7xx_HAL_Driver/Src/stm32h7xx_ll_usb.c **** 
1242:Drivers/STM32H7xx_HAL_Driver/Src/stm32h7xx_ll_usb.c **** /**
1243:Drivers/STM32H7xx_HAL_Driver/Src/stm32h7xx_ll_usb.c ****   * @brief  Prepare the EP0 to start the first control setup
1244:Drivers/STM32H7xx_HAL_Driver/Src/stm32h7xx_ll_usb.c ****   * @param  USBx  Selected device
1245:Drivers/STM32H7xx_HAL_Driver/Src/stm32h7xx_ll_usb.c ****   * @param  dma USB dma enabled or disabled
1246:Drivers/STM32H7xx_HAL_Driver/Src/stm32h7xx_ll_usb.c ****   *          This parameter can be one of these values:
1247:Drivers/STM32H7xx_HAL_Driver/Src/stm32h7xx_ll_usb.c ****   *           0 : DMA feature not used
1248:Drivers/STM32H7xx_HAL_Driver/Src/stm32h7xx_ll_usb.c ****   *           1 : DMA feature used
1249:Drivers/STM32H7xx_HAL_Driver/Src/stm32h7xx_ll_usb.c ****   * @param  psetup  pointer to setup packet
1250:Drivers/STM32H7xx_HAL_Driver/Src/stm32h7xx_ll_usb.c ****   * @retval HAL status
1251:Drivers/STM32H7xx_HAL_Driver/Src/stm32h7xx_ll_usb.c ****   */
1252:Drivers/STM32H7xx_HAL_Driver/Src/stm32h7xx_ll_usb.c **** HAL_StatusTypeDef USB_EP0_OutStart(USB_OTG_GlobalTypeDef *USBx, uint8_t dma, uint8_t *psetup)
1253:Drivers/STM32H7xx_HAL_Driver/Src/stm32h7xx_ll_usb.c **** {
1254:Drivers/STM32H7xx_HAL_Driver/Src/stm32h7xx_ll_usb.c ****   uint32_t USBx_BASE = (uint32_t)USBx;
1255:Drivers/STM32H7xx_HAL_Driver/Src/stm32h7xx_ll_usb.c ****   uint32_t gSNPSiD = *(__IO uint32_t *)(&USBx->CID + 0x1U);
1256:Drivers/STM32H7xx_HAL_Driver/Src/stm32h7xx_ll_usb.c **** 
1257:Drivers/STM32H7xx_HAL_Driver/Src/stm32h7xx_ll_usb.c ****   if (gSNPSiD > USB_OTG_CORE_ID_300A)
1258:Drivers/STM32H7xx_HAL_Driver/Src/stm32h7xx_ll_usb.c ****   {
1259:Drivers/STM32H7xx_HAL_Driver/Src/stm32h7xx_ll_usb.c ****     if ((USBx_OUTEP(0U)->DOEPCTL & USB_OTG_DOEPCTL_EPENA) == USB_OTG_DOEPCTL_EPENA)
1260:Drivers/STM32H7xx_HAL_Driver/Src/stm32h7xx_ll_usb.c ****     {
1261:Drivers/STM32H7xx_HAL_Driver/Src/stm32h7xx_ll_usb.c ****       return HAL_OK;
1262:Drivers/STM32H7xx_HAL_Driver/Src/stm32h7xx_ll_usb.c ****     }
1263:Drivers/STM32H7xx_HAL_Driver/Src/stm32h7xx_ll_usb.c ****   }
1264:Drivers/STM32H7xx_HAL_Driver/Src/stm32h7xx_ll_usb.c **** 
1265:Drivers/STM32H7xx_HAL_Driver/Src/stm32h7xx_ll_usb.c ****   USBx_OUTEP(0U)->DOEPTSIZ = 0U;
1266:Drivers/STM32H7xx_HAL_Driver/Src/stm32h7xx_ll_usb.c ****   USBx_OUTEP(0U)->DOEPTSIZ |= (USB_OTG_DOEPTSIZ_PKTCNT & (1U << 19));
1267:Drivers/STM32H7xx_HAL_Driver/Src/stm32h7xx_ll_usb.c ****   USBx_OUTEP(0U)->DOEPTSIZ |= (3U * 8U);
1268:Drivers/STM32H7xx_HAL_Driver/Src/stm32h7xx_ll_usb.c ****   USBx_OUTEP(0U)->DOEPTSIZ |=  USB_OTG_DOEPTSIZ_STUPCNT;
1269:Drivers/STM32H7xx_HAL_Driver/Src/stm32h7xx_ll_usb.c **** 
1270:Drivers/STM32H7xx_HAL_Driver/Src/stm32h7xx_ll_usb.c ****   if (dma == 1U)
1271:Drivers/STM32H7xx_HAL_Driver/Src/stm32h7xx_ll_usb.c ****   {
1272:Drivers/STM32H7xx_HAL_Driver/Src/stm32h7xx_ll_usb.c ****     USBx_OUTEP(0U)->DOEPDMA = (uint32_t)psetup;
1273:Drivers/STM32H7xx_HAL_Driver/Src/stm32h7xx_ll_usb.c ****     /* EP enable */
1274:Drivers/STM32H7xx_HAL_Driver/Src/stm32h7xx_ll_usb.c ****     USBx_OUTEP(0U)->DOEPCTL |= USB_OTG_DOEPCTL_EPENA | USB_OTG_DOEPCTL_USBAEP;
1275:Drivers/STM32H7xx_HAL_Driver/Src/stm32h7xx_ll_usb.c ****   }
1276:Drivers/STM32H7xx_HAL_Driver/Src/stm32h7xx_ll_usb.c **** 
1277:Drivers/STM32H7xx_HAL_Driver/Src/stm32h7xx_ll_usb.c ****   return HAL_OK;
1278:Drivers/STM32H7xx_HAL_Driver/Src/stm32h7xx_ll_usb.c **** }
1279:Drivers/STM32H7xx_HAL_Driver/Src/stm32h7xx_ll_usb.c **** 
1280:Drivers/STM32H7xx_HAL_Driver/Src/stm32h7xx_ll_usb.c **** /**
1281:Drivers/STM32H7xx_HAL_Driver/Src/stm32h7xx_ll_usb.c ****   * @brief  Reset the USB Core (needed after USB clock settings change)
1282:Drivers/STM32H7xx_HAL_Driver/Src/stm32h7xx_ll_usb.c ****   * @param  USBx  Selected device
1283:Drivers/STM32H7xx_HAL_Driver/Src/stm32h7xx_ll_usb.c ****   * @retval HAL status
1284:Drivers/STM32H7xx_HAL_Driver/Src/stm32h7xx_ll_usb.c ****   */
1285:Drivers/STM32H7xx_HAL_Driver/Src/stm32h7xx_ll_usb.c **** static HAL_StatusTypeDef USB_CoreReset(USB_OTG_GlobalTypeDef *USBx)
ARM GAS  /tmp/cc0TWTOC.s 			page 24


1286:Drivers/STM32H7xx_HAL_Driver/Src/stm32h7xx_ll_usb.c **** {
  28              		.loc 1 1286 1 view -0
  29              		.cfi_startproc
  30              		@ args = 0, pretend = 0, frame = 0
  31              		@ frame_needed = 0, uses_anonymous_args = 0
  32              		@ link register save eliminated.
1287:Drivers/STM32H7xx_HAL_Driver/Src/stm32h7xx_ll_usb.c ****   uint32_t count = 0U;
  33              		.loc 1 1287 3 view .LVU1
  34              		.loc 1 1287 12 is_stmt 0 view .LVU2
  35 0000 0023     		movs	r3, #0
  36              	.LVL1:
  37              	.L3:
1288:Drivers/STM32H7xx_HAL_Driver/Src/stm32h7xx_ll_usb.c **** 
1289:Drivers/STM32H7xx_HAL_Driver/Src/stm32h7xx_ll_usb.c ****   /* Wait for AHB master IDLE state. */
1290:Drivers/STM32H7xx_HAL_Driver/Src/stm32h7xx_ll_usb.c ****   do
  38              		.loc 1 1290 3 is_stmt 1 view .LVU3
1291:Drivers/STM32H7xx_HAL_Driver/Src/stm32h7xx_ll_usb.c ****   {
1292:Drivers/STM32H7xx_HAL_Driver/Src/stm32h7xx_ll_usb.c ****     if (++count > 200000U)
  39              		.loc 1 1292 5 view .LVU4
  40              		.loc 1 1292 8 is_stmt 0 view .LVU5
  41 0002 0133     		adds	r3, r3, #1
  42              	.LVL2:
  43              		.loc 1 1292 8 view .LVU6
  44 0004 0C4A     		ldr	r2, .L7
  45 0006 9342     		cmp	r3, r2
  46 0008 11D8     		bhi	.L5
1293:Drivers/STM32H7xx_HAL_Driver/Src/stm32h7xx_ll_usb.c ****     {
1294:Drivers/STM32H7xx_HAL_Driver/Src/stm32h7xx_ll_usb.c ****       return HAL_TIMEOUT;
1295:Drivers/STM32H7xx_HAL_Driver/Src/stm32h7xx_ll_usb.c ****     }
1296:Drivers/STM32H7xx_HAL_Driver/Src/stm32h7xx_ll_usb.c ****   }
1297:Drivers/STM32H7xx_HAL_Driver/Src/stm32h7xx_ll_usb.c ****   while ((USBx->GRSTCTL & USB_OTG_GRSTCTL_AHBIDL) == 0U);
  47              		.loc 1 1297 15 view .LVU7
  48 000a 0269     		ldr	r2, [r0, #16]
  49              		.loc 1 1297 3 view .LVU8
  50 000c 002A     		cmp	r2, #0
  51 000e F8DA     		bge	.L3
1298:Drivers/STM32H7xx_HAL_Driver/Src/stm32h7xx_ll_usb.c **** 
1299:Drivers/STM32H7xx_HAL_Driver/Src/stm32h7xx_ll_usb.c ****   /* Core Soft Reset */
1300:Drivers/STM32H7xx_HAL_Driver/Src/stm32h7xx_ll_usb.c ****   count = 0U;
  52              		.loc 1 1300 3 is_stmt 1 view .LVU9
  53              	.LVL3:
1301:Drivers/STM32H7xx_HAL_Driver/Src/stm32h7xx_ll_usb.c ****   USBx->GRSTCTL |= USB_OTG_GRSTCTL_CSRST;
  54              		.loc 1 1301 3 view .LVU10
  55              		.loc 1 1301 17 is_stmt 0 view .LVU11
  56 0010 0369     		ldr	r3, [r0, #16]
  57 0012 43F00103 		orr	r3, r3, #1
  58 0016 0361     		str	r3, [r0, #16]
1300:Drivers/STM32H7xx_HAL_Driver/Src/stm32h7xx_ll_usb.c ****   USBx->GRSTCTL |= USB_OTG_GRSTCTL_CSRST;
  59              		.loc 1 1300 9 view .LVU12
  60 0018 0023     		movs	r3, #0
  61              	.LVL4:
  62              	.L4:
1302:Drivers/STM32H7xx_HAL_Driver/Src/stm32h7xx_ll_usb.c **** 
1303:Drivers/STM32H7xx_HAL_Driver/Src/stm32h7xx_ll_usb.c ****   do
  63              		.loc 1 1303 3 is_stmt 1 view .LVU13
1304:Drivers/STM32H7xx_HAL_Driver/Src/stm32h7xx_ll_usb.c ****   {
1305:Drivers/STM32H7xx_HAL_Driver/Src/stm32h7xx_ll_usb.c ****     if (++count > 200000U)
ARM GAS  /tmp/cc0TWTOC.s 			page 25


  64              		.loc 1 1305 5 view .LVU14
  65              		.loc 1 1305 8 is_stmt 0 view .LVU15
  66 001a 0133     		adds	r3, r3, #1
  67              	.LVL5:
  68              		.loc 1 1305 8 view .LVU16
  69 001c 064A     		ldr	r2, .L7
  70 001e 9342     		cmp	r3, r2
  71 0020 07D8     		bhi	.L6
1306:Drivers/STM32H7xx_HAL_Driver/Src/stm32h7xx_ll_usb.c ****     {
1307:Drivers/STM32H7xx_HAL_Driver/Src/stm32h7xx_ll_usb.c ****       return HAL_TIMEOUT;
1308:Drivers/STM32H7xx_HAL_Driver/Src/stm32h7xx_ll_usb.c ****     }
1309:Drivers/STM32H7xx_HAL_Driver/Src/stm32h7xx_ll_usb.c ****   }
1310:Drivers/STM32H7xx_HAL_Driver/Src/stm32h7xx_ll_usb.c ****   while ((USBx->GRSTCTL & USB_OTG_GRSTCTL_CSRST) == USB_OTG_GRSTCTL_CSRST);
  72              		.loc 1 1310 15 view .LVU17
  73 0022 0269     		ldr	r2, [r0, #16]
  74              		.loc 1 1310 3 view .LVU18
  75 0024 12F0010F 		tst	r2, #1
  76 0028 F7D1     		bne	.L4
1311:Drivers/STM32H7xx_HAL_Driver/Src/stm32h7xx_ll_usb.c **** 
1312:Drivers/STM32H7xx_HAL_Driver/Src/stm32h7xx_ll_usb.c ****   return HAL_OK;
  77              		.loc 1 1312 10 view .LVU19
  78 002a 0020     		movs	r0, #0
  79              	.LVL6:
  80              		.loc 1 1312 10 view .LVU20
  81 002c 7047     		bx	lr
  82              	.LVL7:
  83              	.L5:
1294:Drivers/STM32H7xx_HAL_Driver/Src/stm32h7xx_ll_usb.c ****     }
  84              		.loc 1 1294 14 view .LVU21
  85 002e 0320     		movs	r0, #3
  86              	.LVL8:
1294:Drivers/STM32H7xx_HAL_Driver/Src/stm32h7xx_ll_usb.c ****     }
  87              		.loc 1 1294 14 view .LVU22
  88 0030 7047     		bx	lr
  89              	.LVL9:
  90              	.L6:
1307:Drivers/STM32H7xx_HAL_Driver/Src/stm32h7xx_ll_usb.c ****     }
  91              		.loc 1 1307 14 view .LVU23
  92 0032 0320     		movs	r0, #3
  93              	.LVL10:
1313:Drivers/STM32H7xx_HAL_Driver/Src/stm32h7xx_ll_usb.c **** }
  94              		.loc 1 1313 1 view .LVU24
  95 0034 7047     		bx	lr
  96              	.L8:
  97 0036 00BF     		.align	2
  98              	.L7:
  99 0038 400D0300 		.word	200000
 100              		.cfi_endproc
 101              	.LFE174:
 103              		.section	.text.USB_CoreInit,"ax",%progbits
 104              		.align	1
 105              		.global	USB_CoreInit
 106              		.syntax unified
 107              		.thumb
 108              		.thumb_func
 109              		.fpu fpv5-d16
 111              	USB_CoreInit:
ARM GAS  /tmp/cc0TWTOC.s 			page 26


 112              	.LVL11:
 113              	.LFB141:
  83:Drivers/STM32H7xx_HAL_Driver/Src/stm32h7xx_ll_usb.c ****   HAL_StatusTypeDef ret;
 114              		.loc 1 83 1 is_stmt 1 view -0
 115              		.cfi_startproc
 116              		@ args = 56, pretend = 16, frame = 0
 117              		@ frame_needed = 0, uses_anonymous_args = 0
  83:Drivers/STM32H7xx_HAL_Driver/Src/stm32h7xx_ll_usb.c ****   HAL_StatusTypeDef ret;
 118              		.loc 1 83 1 is_stmt 0 view .LVU26
 119 0000 84B0     		sub	sp, sp, #16
 120              	.LCFI0:
 121              		.cfi_def_cfa_offset 16
 122 0002 10B5     		push	{r4, lr}
 123              	.LCFI1:
 124              		.cfi_def_cfa_offset 24
 125              		.cfi_offset 4, -24
 126              		.cfi_offset 14, -20
 127 0004 0446     		mov	r4, r0
 128 0006 03A8     		add	r0, sp, #12
 129              	.LVL12:
  83:Drivers/STM32H7xx_HAL_Driver/Src/stm32h7xx_ll_usb.c ****   HAL_StatusTypeDef ret;
 130              		.loc 1 83 1 view .LVU27
 131 0008 80E80E00 		stm	r0, {r1, r2, r3}
  84:Drivers/STM32H7xx_HAL_Driver/Src/stm32h7xx_ll_usb.c **** 
 132              		.loc 1 84 3 is_stmt 1 view .LVU28
  86:Drivers/STM32H7xx_HAL_Driver/Src/stm32h7xx_ll_usb.c ****   {
 133              		.loc 1 86 3 view .LVU29
  86:Drivers/STM32H7xx_HAL_Driver/Src/stm32h7xx_ll_usb.c ****   {
 134              		.loc 1 86 10 is_stmt 0 view .LVU30
 135 000c 089B     		ldr	r3, [sp, #32]
  86:Drivers/STM32H7xx_HAL_Driver/Src/stm32h7xx_ll_usb.c ****   {
 136              		.loc 1 86 6 view .LVU31
 137 000e 012B     		cmp	r3, #1
 138 0010 1DD1     		bne	.L10
  88:Drivers/STM32H7xx_HAL_Driver/Src/stm32h7xx_ll_usb.c **** 
 139              		.loc 1 88 5 is_stmt 1 view .LVU32
  88:Drivers/STM32H7xx_HAL_Driver/Src/stm32h7xx_ll_usb.c **** 
 140              		.loc 1 88 17 is_stmt 0 view .LVU33
 141 0012 A36B     		ldr	r3, [r4, #56]
 142 0014 23F48033 		bic	r3, r3, #65536
 143 0018 A363     		str	r3, [r4, #56]
  91:Drivers/STM32H7xx_HAL_Driver/Src/stm32h7xx_ll_usb.c **** 
 144              		.loc 1 91 5 is_stmt 1 view .LVU34
  91:Drivers/STM32H7xx_HAL_Driver/Src/stm32h7xx_ll_usb.c **** 
 145              		.loc 1 91 19 is_stmt 0 view .LVU35
 146 001a E268     		ldr	r2, [r4, #12]
 147 001c 1A4B     		ldr	r3, .L18
 148 001e 1340     		ands	r3, r3, r2
 149 0020 E360     		str	r3, [r4, #12]
  94:Drivers/STM32H7xx_HAL_Driver/Src/stm32h7xx_ll_usb.c ****     if (cfg.use_external_vbus == 1U)
 150              		.loc 1 94 5 is_stmt 1 view .LVU36
  94:Drivers/STM32H7xx_HAL_Driver/Src/stm32h7xx_ll_usb.c ****     if (cfg.use_external_vbus == 1U)
 151              		.loc 1 94 19 is_stmt 0 view .LVU37
 152 0022 E368     		ldr	r3, [r4, #12]
 153 0024 23F44013 		bic	r3, r3, #3145728
 154 0028 E360     		str	r3, [r4, #12]
  95:Drivers/STM32H7xx_HAL_Driver/Src/stm32h7xx_ll_usb.c ****     {
ARM GAS  /tmp/cc0TWTOC.s 			page 27


 155              		.loc 1 95 5 is_stmt 1 view .LVU38
  95:Drivers/STM32H7xx_HAL_Driver/Src/stm32h7xx_ll_usb.c ****     {
 156              		.loc 1 95 12 is_stmt 0 view .LVU39
 157 002a 0F9B     		ldr	r3, [sp, #60]
  95:Drivers/STM32H7xx_HAL_Driver/Src/stm32h7xx_ll_usb.c ****     {
 158              		.loc 1 95 8 view .LVU40
 159 002c 012B     		cmp	r3, #1
 160 002e 09D0     		beq	.L16
 161              	.L11:
 100:Drivers/STM32H7xx_HAL_Driver/Src/stm32h7xx_ll_usb.c ****   }
 162              		.loc 1 100 5 is_stmt 1 view .LVU41
 100:Drivers/STM32H7xx_HAL_Driver/Src/stm32h7xx_ll_usb.c ****   }
 163              		.loc 1 100 11 is_stmt 0 view .LVU42
 164 0030 2046     		mov	r0, r4
 165 0032 FFF7FEFF 		bl	USB_CoreReset
 166              	.LVL13:
 167              	.L12:
 122:Drivers/STM32H7xx_HAL_Driver/Src/stm32h7xx_ll_usb.c ****   {
 168              		.loc 1 122 3 is_stmt 1 view .LVU43
 122:Drivers/STM32H7xx_HAL_Driver/Src/stm32h7xx_ll_usb.c ****   {
 169              		.loc 1 122 10 is_stmt 0 view .LVU44
 170 0036 069B     		ldr	r3, [sp, #24]
 122:Drivers/STM32H7xx_HAL_Driver/Src/stm32h7xx_ll_usb.c ****   {
 171              		.loc 1 122 6 view .LVU45
 172 0038 012B     		cmp	r3, #1
 173 003a 1BD0     		beq	.L17
 174              	.L14:
 128:Drivers/STM32H7xx_HAL_Driver/Src/stm32h7xx_ll_usb.c **** }
 175              		.loc 1 128 3 is_stmt 1 view .LVU46
 129:Drivers/STM32H7xx_HAL_Driver/Src/stm32h7xx_ll_usb.c **** 
 176              		.loc 1 129 1 is_stmt 0 view .LVU47
 177 003c BDE81040 		pop	{r4, lr}
 178              	.LCFI2:
 179              		.cfi_remember_state
 180              		.cfi_restore 14
 181              		.cfi_restore 4
 182              		.cfi_def_cfa_offset 16
 183              	.LVL14:
 129:Drivers/STM32H7xx_HAL_Driver/Src/stm32h7xx_ll_usb.c **** 
 184              		.loc 1 129 1 view .LVU48
 185 0040 04B0     		add	sp, sp, #16
 186              	.LCFI3:
 187              		.cfi_def_cfa_offset 0
 188 0042 7047     		bx	lr
 189              	.LVL15:
 190              	.L16:
 191              	.LCFI4:
 192              		.cfi_restore_state
  97:Drivers/STM32H7xx_HAL_Driver/Src/stm32h7xx_ll_usb.c ****     }
 193              		.loc 1 97 7 is_stmt 1 view .LVU49
  97:Drivers/STM32H7xx_HAL_Driver/Src/stm32h7xx_ll_usb.c ****     }
 194              		.loc 1 97 21 is_stmt 0 view .LVU50
 195 0044 E368     		ldr	r3, [r4, #12]
 196 0046 43F48013 		orr	r3, r3, #1048576
 197 004a E360     		str	r3, [r4, #12]
 198 004c F0E7     		b	.L11
 199              	.L10:
ARM GAS  /tmp/cc0TWTOC.s 			page 28


 105:Drivers/STM32H7xx_HAL_Driver/Src/stm32h7xx_ll_usb.c **** 
 200              		.loc 1 105 5 is_stmt 1 view .LVU51
 105:Drivers/STM32H7xx_HAL_Driver/Src/stm32h7xx_ll_usb.c **** 
 201              		.loc 1 105 19 is_stmt 0 view .LVU52
 202 004e E368     		ldr	r3, [r4, #12]
 203 0050 43F04003 		orr	r3, r3, #64
 204 0054 E360     		str	r3, [r4, #12]
 108:Drivers/STM32H7xx_HAL_Driver/Src/stm32h7xx_ll_usb.c **** 
 205              		.loc 1 108 5 is_stmt 1 view .LVU53
 108:Drivers/STM32H7xx_HAL_Driver/Src/stm32h7xx_ll_usb.c **** 
 206              		.loc 1 108 11 is_stmt 0 view .LVU54
 207 0056 2046     		mov	r0, r4
 208 0058 FFF7FEFF 		bl	USB_CoreReset
 209              	.LVL16:
 110:Drivers/STM32H7xx_HAL_Driver/Src/stm32h7xx_ll_usb.c ****     {
 210              		.loc 1 110 5 is_stmt 1 view .LVU55
 110:Drivers/STM32H7xx_HAL_Driver/Src/stm32h7xx_ll_usb.c ****     {
 211              		.loc 1 110 12 is_stmt 0 view .LVU56
 212 005c 0C9B     		ldr	r3, [sp, #48]
 110:Drivers/STM32H7xx_HAL_Driver/Src/stm32h7xx_ll_usb.c ****     {
 213              		.loc 1 110 8 view .LVU57
 214 005e 23B9     		cbnz	r3, .L13
 113:Drivers/STM32H7xx_HAL_Driver/Src/stm32h7xx_ll_usb.c ****     }
 215              		.loc 1 113 7 is_stmt 1 view .LVU58
 113:Drivers/STM32H7xx_HAL_Driver/Src/stm32h7xx_ll_usb.c ****     }
 216              		.loc 1 113 19 is_stmt 0 view .LVU59
 217 0060 A36B     		ldr	r3, [r4, #56]
 218 0062 43F48033 		orr	r3, r3, #65536
 219 0066 A363     		str	r3, [r4, #56]
 220 0068 E5E7     		b	.L12
 221              	.L13:
 118:Drivers/STM32H7xx_HAL_Driver/Src/stm32h7xx_ll_usb.c ****     }
 222              		.loc 1 118 7 is_stmt 1 view .LVU60
 118:Drivers/STM32H7xx_HAL_Driver/Src/stm32h7xx_ll_usb.c ****     }
 223              		.loc 1 118 19 is_stmt 0 view .LVU61
 224 006a A36B     		ldr	r3, [r4, #56]
 225 006c 23F48033 		bic	r3, r3, #65536
 226 0070 A363     		str	r3, [r4, #56]
 227 0072 E0E7     		b	.L12
 228              	.L17:
 124:Drivers/STM32H7xx_HAL_Driver/Src/stm32h7xx_ll_usb.c ****     USBx->GAHBCFG |= USB_OTG_GAHBCFG_DMAEN;
 229              		.loc 1 124 5 is_stmt 1 view .LVU62
 124:Drivers/STM32H7xx_HAL_Driver/Src/stm32h7xx_ll_usb.c ****     USBx->GAHBCFG |= USB_OTG_GAHBCFG_DMAEN;
 230              		.loc 1 124 19 is_stmt 0 view .LVU63
 231 0074 A368     		ldr	r3, [r4, #8]
 232 0076 43F00803 		orr	r3, r3, #8
 233 007a A360     		str	r3, [r4, #8]
 125:Drivers/STM32H7xx_HAL_Driver/Src/stm32h7xx_ll_usb.c ****   }
 234              		.loc 1 125 5 is_stmt 1 view .LVU64
 125:Drivers/STM32H7xx_HAL_Driver/Src/stm32h7xx_ll_usb.c ****   }
 235              		.loc 1 125 19 is_stmt 0 view .LVU65
 236 007c A368     		ldr	r3, [r4, #8]
 237 007e 43F02003 		orr	r3, r3, #32
 238 0082 A360     		str	r3, [r4, #8]
 239 0084 DAE7     		b	.L14
 240              	.L19:
 241 0086 00BF     		.align	2
ARM GAS  /tmp/cc0TWTOC.s 			page 29


 242              	.L18:
 243 0088 BFFFBDFF 		.word	-4325441
 244              		.cfi_endproc
 245              	.LFE141:
 247              		.section	.text.USB_SetTurnaroundTime,"ax",%progbits
 248              		.align	1
 249              		.global	USB_SetTurnaroundTime
 250              		.syntax unified
 251              		.thumb
 252              		.thumb_func
 253              		.fpu fpv5-d16
 255              	USB_SetTurnaroundTime:
 256              	.LVL17:
 257              	.LFB142:
 140:Drivers/STM32H7xx_HAL_Driver/Src/stm32h7xx_ll_usb.c ****   uint32_t UsbTrd;
 258              		.loc 1 140 1 is_stmt 1 view -0
 259              		.cfi_startproc
 260              		@ args = 0, pretend = 0, frame = 0
 261              		@ frame_needed = 0, uses_anonymous_args = 0
 262              		@ link register save eliminated.
 141:Drivers/STM32H7xx_HAL_Driver/Src/stm32h7xx_ll_usb.c **** 
 263              		.loc 1 141 3 view .LVU67
 147:Drivers/STM32H7xx_HAL_Driver/Src/stm32h7xx_ll_usb.c ****   {
 264              		.loc 1 147 3 view .LVU68
 147:Drivers/STM32H7xx_HAL_Driver/Src/stm32h7xx_ll_usb.c ****   {
 265              		.loc 1 147 6 is_stmt 0 view .LVU69
 266 0000 022A     		cmp	r2, #2
 267 0002 0AD0     		beq	.L32
 202:Drivers/STM32H7xx_HAL_Driver/Src/stm32h7xx_ll_usb.c ****   }
 268              		.loc 1 202 12 view .LVU70
 269 0004 0921     		movs	r1, #9
 270              	.LVL18:
 271              	.L21:
 209:Drivers/STM32H7xx_HAL_Driver/Src/stm32h7xx_ll_usb.c ****   USBx->GUSBCFG |= (uint32_t)((UsbTrd << 10) & USB_OTG_GUSBCFG_TRDT);
 272              		.loc 1 209 3 is_stmt 1 view .LVU71
 209:Drivers/STM32H7xx_HAL_Driver/Src/stm32h7xx_ll_usb.c ****   USBx->GUSBCFG |= (uint32_t)((UsbTrd << 10) & USB_OTG_GUSBCFG_TRDT);
 273              		.loc 1 209 17 is_stmt 0 view .LVU72
 274 0006 C268     		ldr	r2, [r0, #12]
 275 0008 22F47052 		bic	r2, r2, #15360
 276 000c C260     		str	r2, [r0, #12]
 210:Drivers/STM32H7xx_HAL_Driver/Src/stm32h7xx_ll_usb.c **** 
 277              		.loc 1 210 3 is_stmt 1 view .LVU73
 210:Drivers/STM32H7xx_HAL_Driver/Src/stm32h7xx_ll_usb.c **** 
 278              		.loc 1 210 17 is_stmt 0 view .LVU74
 279 000e C368     		ldr	r3, [r0, #12]
 280 0010 43EA8123 		orr	r3, r3, r1, lsl #10
 281 0014 C360     		str	r3, [r0, #12]
 212:Drivers/STM32H7xx_HAL_Driver/Src/stm32h7xx_ll_usb.c **** }
 282              		.loc 1 212 3 is_stmt 1 view .LVU75
 213:Drivers/STM32H7xx_HAL_Driver/Src/stm32h7xx_ll_usb.c **** 
 283              		.loc 1 213 1 is_stmt 0 view .LVU76
 284 0016 0020     		movs	r0, #0
 285              	.LVL19:
 213:Drivers/STM32H7xx_HAL_Driver/Src/stm32h7xx_ll_usb.c **** 
 286              		.loc 1 213 1 view .LVU77
 287 0018 7047     		bx	lr
 288              	.LVL20:
ARM GAS  /tmp/cc0TWTOC.s 			page 30


 289              	.L32:
 149:Drivers/STM32H7xx_HAL_Driver/Src/stm32h7xx_ll_usb.c ****     {
 290              		.loc 1 149 5 is_stmt 1 view .LVU78
 149:Drivers/STM32H7xx_HAL_Driver/Src/stm32h7xx_ll_usb.c ****     {
 291              		.loc 1 149 29 is_stmt 0 view .LVU79
 292 001a 204B     		ldr	r3, .L33
 293 001c 0B44     		add	r3, r3, r1
 149:Drivers/STM32H7xx_HAL_Driver/Src/stm32h7xx_ll_usb.c ****     {
 294              		.loc 1 149 8 view .LVU80
 295 001e 204A     		ldr	r2, .L33+4
 296              	.LVL21:
 149:Drivers/STM32H7xx_HAL_Driver/Src/stm32h7xx_ll_usb.c ****     {
 297              		.loc 1 149 8 view .LVU81
 298 0020 9342     		cmp	r3, r2
 299 0022 29D9     		bls	.L23
 154:Drivers/STM32H7xx_HAL_Driver/Src/stm32h7xx_ll_usb.c ****     {
 300              		.loc 1 154 10 is_stmt 1 view .LVU82
 154:Drivers/STM32H7xx_HAL_Driver/Src/stm32h7xx_ll_usb.c ****     {
 301              		.loc 1 154 34 is_stmt 0 view .LVU83
 302 0024 1F4B     		ldr	r3, .L33+8
 303 0026 0B44     		add	r3, r3, r1
 154:Drivers/STM32H7xx_HAL_Driver/Src/stm32h7xx_ll_usb.c ****     {
 304              		.loc 1 154 13 view .LVU84
 305 0028 1F4A     		ldr	r2, .L33+12
 306 002a 9342     		cmp	r3, r2
 307 002c 26D9     		bls	.L24
 159:Drivers/STM32H7xx_HAL_Driver/Src/stm32h7xx_ll_usb.c ****     {
 308              		.loc 1 159 10 is_stmt 1 view .LVU85
 159:Drivers/STM32H7xx_HAL_Driver/Src/stm32h7xx_ll_usb.c ****     {
 309              		.loc 1 159 34 is_stmt 0 view .LVU86
 310 002e 1F4B     		ldr	r3, .L33+16
 311 0030 0B44     		add	r3, r3, r1
 159:Drivers/STM32H7xx_HAL_Driver/Src/stm32h7xx_ll_usb.c ****     {
 312              		.loc 1 159 13 view .LVU87
 313 0032 1F4A     		ldr	r2, .L33+20
 314 0034 9342     		cmp	r3, r2
 315 0036 23D9     		bls	.L25
 164:Drivers/STM32H7xx_HAL_Driver/Src/stm32h7xx_ll_usb.c ****     {
 316              		.loc 1 164 10 is_stmt 1 view .LVU88
 164:Drivers/STM32H7xx_HAL_Driver/Src/stm32h7xx_ll_usb.c ****     {
 317              		.loc 1 164 34 is_stmt 0 view .LVU89
 318 0038 1E4B     		ldr	r3, .L33+24
 319 003a 0B44     		add	r3, r3, r1
 164:Drivers/STM32H7xx_HAL_Driver/Src/stm32h7xx_ll_usb.c ****     {
 320              		.loc 1 164 13 view .LVU90
 321 003c 1E4A     		ldr	r2, .L33+28
 322 003e 9342     		cmp	r3, r2
 323 0040 20D3     		bcc	.L26
 169:Drivers/STM32H7xx_HAL_Driver/Src/stm32h7xx_ll_usb.c ****     {
 324              		.loc 1 169 10 is_stmt 1 view .LVU91
 169:Drivers/STM32H7xx_HAL_Driver/Src/stm32h7xx_ll_usb.c ****     {
 325              		.loc 1 169 34 is_stmt 0 view .LVU92
 326 0042 1E4B     		ldr	r3, .L33+32
 327 0044 0B44     		add	r3, r3, r1
 169:Drivers/STM32H7xx_HAL_Driver/Src/stm32h7xx_ll_usb.c ****     {
 328              		.loc 1 169 13 view .LVU93
 329 0046 1E4A     		ldr	r2, .L33+36
ARM GAS  /tmp/cc0TWTOC.s 			page 31


 330 0048 9342     		cmp	r3, r2
 331 004a 1DD9     		bls	.L27
 174:Drivers/STM32H7xx_HAL_Driver/Src/stm32h7xx_ll_usb.c ****     {
 332              		.loc 1 174 10 is_stmt 1 view .LVU94
 174:Drivers/STM32H7xx_HAL_Driver/Src/stm32h7xx_ll_usb.c ****     {
 333              		.loc 1 174 34 is_stmt 0 view .LVU95
 334 004c 1D4B     		ldr	r3, .L33+40
 335 004e 0B44     		add	r3, r3, r1
 174:Drivers/STM32H7xx_HAL_Driver/Src/stm32h7xx_ll_usb.c ****     {
 336              		.loc 1 174 13 view .LVU96
 337 0050 1D4A     		ldr	r2, .L33+44
 338 0052 9342     		cmp	r3, r2
 339 0054 1AD3     		bcc	.L28
 179:Drivers/STM32H7xx_HAL_Driver/Src/stm32h7xx_ll_usb.c ****     {
 340              		.loc 1 179 10 is_stmt 1 view .LVU97
 179:Drivers/STM32H7xx_HAL_Driver/Src/stm32h7xx_ll_usb.c ****     {
 341              		.loc 1 179 34 is_stmt 0 view .LVU98
 342 0056 1D4B     		ldr	r3, .L33+48
 343 0058 0B44     		add	r3, r3, r1
 179:Drivers/STM32H7xx_HAL_Driver/Src/stm32h7xx_ll_usb.c ****     {
 344              		.loc 1 179 13 view .LVU99
 345 005a 1D4A     		ldr	r2, .L33+52
 346 005c 9342     		cmp	r3, r2
 347 005e 17D3     		bcc	.L29
 184:Drivers/STM32H7xx_HAL_Driver/Src/stm32h7xx_ll_usb.c ****     {
 348              		.loc 1 184 10 is_stmt 1 view .LVU100
 184:Drivers/STM32H7xx_HAL_Driver/Src/stm32h7xx_ll_usb.c ****     {
 349              		.loc 1 184 34 is_stmt 0 view .LVU101
 350 0060 1C4B     		ldr	r3, .L33+56
 351 0062 0B44     		add	r3, r3, r1
 184:Drivers/STM32H7xx_HAL_Driver/Src/stm32h7xx_ll_usb.c ****     {
 352              		.loc 1 184 13 view .LVU102
 353 0064 1C4A     		ldr	r2, .L33+60
 354 0066 9342     		cmp	r3, r2
 355 0068 14D3     		bcc	.L30
 189:Drivers/STM32H7xx_HAL_Driver/Src/stm32h7xx_ll_usb.c ****     {
 356              		.loc 1 189 10 is_stmt 1 view .LVU103
 189:Drivers/STM32H7xx_HAL_Driver/Src/stm32h7xx_ll_usb.c ****     {
 357              		.loc 1 189 34 is_stmt 0 view .LVU104
 358 006a 1C4B     		ldr	r3, .L33+64
 359 006c 0B44     		add	r3, r3, r1
 189:Drivers/STM32H7xx_HAL_Driver/Src/stm32h7xx_ll_usb.c ****     {
 360              		.loc 1 189 13 view .LVU105
 361 006e 1C4A     		ldr	r2, .L33+68
 362 0070 9342     		cmp	r3, r2
 363 0072 11D2     		bcs	.L31
 192:Drivers/STM32H7xx_HAL_Driver/Src/stm32h7xx_ll_usb.c ****     }
 364              		.loc 1 192 14 view .LVU106
 365 0074 0721     		movs	r1, #7
 366              	.LVL22:
 192:Drivers/STM32H7xx_HAL_Driver/Src/stm32h7xx_ll_usb.c ****     }
 367              		.loc 1 192 14 view .LVU107
 368 0076 C6E7     		b	.L21
 369              	.LVL23:
 370              	.L23:
 152:Drivers/STM32H7xx_HAL_Driver/Src/stm32h7xx_ll_usb.c ****     }
 371              		.loc 1 152 14 view .LVU108
ARM GAS  /tmp/cc0TWTOC.s 			page 32


 372 0078 0F21     		movs	r1, #15
 373              	.LVL24:
 152:Drivers/STM32H7xx_HAL_Driver/Src/stm32h7xx_ll_usb.c ****     }
 374              		.loc 1 152 14 view .LVU109
 375 007a C4E7     		b	.L21
 376              	.LVL25:
 377              	.L24:
 157:Drivers/STM32H7xx_HAL_Driver/Src/stm32h7xx_ll_usb.c ****     }
 378              		.loc 1 157 14 view .LVU110
 379 007c 0E21     		movs	r1, #14
 380              	.LVL26:
 157:Drivers/STM32H7xx_HAL_Driver/Src/stm32h7xx_ll_usb.c ****     }
 381              		.loc 1 157 14 view .LVU111
 382 007e C2E7     		b	.L21
 383              	.LVL27:
 384              	.L25:
 162:Drivers/STM32H7xx_HAL_Driver/Src/stm32h7xx_ll_usb.c ****     }
 385              		.loc 1 162 14 view .LVU112
 386 0080 0D21     		movs	r1, #13
 387              	.LVL28:
 162:Drivers/STM32H7xx_HAL_Driver/Src/stm32h7xx_ll_usb.c ****     }
 388              		.loc 1 162 14 view .LVU113
 389 0082 C0E7     		b	.L21
 390              	.LVL29:
 391              	.L26:
 167:Drivers/STM32H7xx_HAL_Driver/Src/stm32h7xx_ll_usb.c ****     }
 392              		.loc 1 167 14 view .LVU114
 393 0084 0C21     		movs	r1, #12
 394              	.LVL30:
 167:Drivers/STM32H7xx_HAL_Driver/Src/stm32h7xx_ll_usb.c ****     }
 395              		.loc 1 167 14 view .LVU115
 396 0086 BEE7     		b	.L21
 397              	.LVL31:
 398              	.L27:
 172:Drivers/STM32H7xx_HAL_Driver/Src/stm32h7xx_ll_usb.c ****     }
 399              		.loc 1 172 14 view .LVU116
 400 0088 0B21     		movs	r1, #11
 401              	.LVL32:
 172:Drivers/STM32H7xx_HAL_Driver/Src/stm32h7xx_ll_usb.c ****     }
 402              		.loc 1 172 14 view .LVU117
 403 008a BCE7     		b	.L21
 404              	.LVL33:
 405              	.L28:
 177:Drivers/STM32H7xx_HAL_Driver/Src/stm32h7xx_ll_usb.c ****     }
 406              		.loc 1 177 14 view .LVU118
 407 008c 0A21     		movs	r1, #10
 408              	.LVL34:
 177:Drivers/STM32H7xx_HAL_Driver/Src/stm32h7xx_ll_usb.c ****     }
 409              		.loc 1 177 14 view .LVU119
 410 008e BAE7     		b	.L21
 411              	.LVL35:
 412              	.L29:
 182:Drivers/STM32H7xx_HAL_Driver/Src/stm32h7xx_ll_usb.c ****     }
 413              		.loc 1 182 14 view .LVU120
 414 0090 0921     		movs	r1, #9
 415              	.LVL36:
 182:Drivers/STM32H7xx_HAL_Driver/Src/stm32h7xx_ll_usb.c ****     }
ARM GAS  /tmp/cc0TWTOC.s 			page 33


 416              		.loc 1 182 14 view .LVU121
 417 0092 B8E7     		b	.L21
 418              	.LVL37:
 419              	.L30:
 187:Drivers/STM32H7xx_HAL_Driver/Src/stm32h7xx_ll_usb.c ****     }
 420              		.loc 1 187 14 view .LVU122
 421 0094 0821     		movs	r1, #8
 422              	.LVL38:
 187:Drivers/STM32H7xx_HAL_Driver/Src/stm32h7xx_ll_usb.c ****     }
 423              		.loc 1 187 14 view .LVU123
 424 0096 B6E7     		b	.L21
 425              	.LVL39:
 426              	.L31:
 197:Drivers/STM32H7xx_HAL_Driver/Src/stm32h7xx_ll_usb.c ****     }
 427              		.loc 1 197 14 view .LVU124
 428 0098 0621     		movs	r1, #6
 429              	.LVL40:
 197:Drivers/STM32H7xx_HAL_Driver/Src/stm32h7xx_ll_usb.c ****     }
 430              		.loc 1 197 14 view .LVU125
 431 009a B4E7     		b	.L21
 432              	.L34:
 433              		.align	2
 434              	.L33:
 435 009c 405327FF 		.word	-14200000
 436 00a0 FF340C00 		.word	799999
 437 00a4 401E1BFF 		.word	-15000000
 438 00a8 3F420F00 		.word	999999
 439 00ac 00DC0BFF 		.word	-16000000
 440 00b0 7F4F1200 		.word	1199999
 441 00b4 808CF9FE 		.word	-17200000
 442 00b8 20D61300 		.word	1300000
 443 00bc 60B6E5FE 		.word	-18500000
 444 00c0 5FE31600 		.word	1499999
 445 00c4 00D3CEFE 		.word	-20000000
 446 00c8 40771B00 		.word	1800000
 447 00cc C05BB3FE 		.word	-21800000
 448 00d0 C0912100 		.word	2200000
 449 00d4 00CA91FE 		.word	-24000000
 450 00d8 20753800 		.word	3700000
 451 00dc E05459FE 		.word	-27700000
 452 00e0 E09C4100 		.word	4300000
 453              		.cfi_endproc
 454              	.LFE142:
 456              		.section	.text.USB_EnableGlobalInt,"ax",%progbits
 457              		.align	1
 458              		.global	USB_EnableGlobalInt
 459              		.syntax unified
 460              		.thumb
 461              		.thumb_func
 462              		.fpu fpv5-d16
 464              	USB_EnableGlobalInt:
 465              	.LVL41:
 466              	.LFB143:
 222:Drivers/STM32H7xx_HAL_Driver/Src/stm32h7xx_ll_usb.c ****   USBx->GAHBCFG |= USB_OTG_GAHBCFG_GINT;
 467              		.loc 1 222 1 is_stmt 1 view -0
 468              		.cfi_startproc
 469              		@ args = 0, pretend = 0, frame = 0
ARM GAS  /tmp/cc0TWTOC.s 			page 34


 470              		@ frame_needed = 0, uses_anonymous_args = 0
 471              		@ link register save eliminated.
 223:Drivers/STM32H7xx_HAL_Driver/Src/stm32h7xx_ll_usb.c ****   return HAL_OK;
 472              		.loc 1 223 3 view .LVU127
 223:Drivers/STM32H7xx_HAL_Driver/Src/stm32h7xx_ll_usb.c ****   return HAL_OK;
 473              		.loc 1 223 17 is_stmt 0 view .LVU128
 474 0000 8368     		ldr	r3, [r0, #8]
 475 0002 43F00103 		orr	r3, r3, #1
 476 0006 8360     		str	r3, [r0, #8]
 224:Drivers/STM32H7xx_HAL_Driver/Src/stm32h7xx_ll_usb.c **** }
 477              		.loc 1 224 3 is_stmt 1 view .LVU129
 225:Drivers/STM32H7xx_HAL_Driver/Src/stm32h7xx_ll_usb.c **** 
 478              		.loc 1 225 1 is_stmt 0 view .LVU130
 479 0008 0020     		movs	r0, #0
 480              	.LVL42:
 225:Drivers/STM32H7xx_HAL_Driver/Src/stm32h7xx_ll_usb.c **** 
 481              		.loc 1 225 1 view .LVU131
 482 000a 7047     		bx	lr
 483              		.cfi_endproc
 484              	.LFE143:
 486              		.section	.text.USB_DisableGlobalInt,"ax",%progbits
 487              		.align	1
 488              		.global	USB_DisableGlobalInt
 489              		.syntax unified
 490              		.thumb
 491              		.thumb_func
 492              		.fpu fpv5-d16
 494              	USB_DisableGlobalInt:
 495              	.LVL43:
 496              	.LFB144:
 234:Drivers/STM32H7xx_HAL_Driver/Src/stm32h7xx_ll_usb.c ****   USBx->GAHBCFG &= ~USB_OTG_GAHBCFG_GINT;
 497              		.loc 1 234 1 is_stmt 1 view -0
 498              		.cfi_startproc
 499              		@ args = 0, pretend = 0, frame = 0
 500              		@ frame_needed = 0, uses_anonymous_args = 0
 501              		@ link register save eliminated.
 235:Drivers/STM32H7xx_HAL_Driver/Src/stm32h7xx_ll_usb.c ****   return HAL_OK;
 502              		.loc 1 235 3 view .LVU133
 235:Drivers/STM32H7xx_HAL_Driver/Src/stm32h7xx_ll_usb.c ****   return HAL_OK;
 503              		.loc 1 235 17 is_stmt 0 view .LVU134
 504 0000 8368     		ldr	r3, [r0, #8]
 505 0002 23F00103 		bic	r3, r3, #1
 506 0006 8360     		str	r3, [r0, #8]
 236:Drivers/STM32H7xx_HAL_Driver/Src/stm32h7xx_ll_usb.c **** }
 507              		.loc 1 236 3 is_stmt 1 view .LVU135
 237:Drivers/STM32H7xx_HAL_Driver/Src/stm32h7xx_ll_usb.c **** 
 508              		.loc 1 237 1 is_stmt 0 view .LVU136
 509 0008 0020     		movs	r0, #0
 510              	.LVL44:
 237:Drivers/STM32H7xx_HAL_Driver/Src/stm32h7xx_ll_usb.c **** 
 511              		.loc 1 237 1 view .LVU137
 512 000a 7047     		bx	lr
 513              		.cfi_endproc
 514              	.LFE144:
 516              		.section	.text.USB_SetCurrentMode,"ax",%progbits
 517              		.align	1
 518              		.global	USB_SetCurrentMode
ARM GAS  /tmp/cc0TWTOC.s 			page 35


 519              		.syntax unified
 520              		.thumb
 521              		.thumb_func
 522              		.fpu fpv5-d16
 524              	USB_SetCurrentMode:
 525              	.LVL45:
 526              	.LFB145:
 250:Drivers/STM32H7xx_HAL_Driver/Src/stm32h7xx_ll_usb.c ****   USBx->GUSBCFG &= ~(USB_OTG_GUSBCFG_FHMOD | USB_OTG_GUSBCFG_FDMOD);
 527              		.loc 1 250 1 is_stmt 1 view -0
 528              		.cfi_startproc
 529              		@ args = 0, pretend = 0, frame = 0
 530              		@ frame_needed = 0, uses_anonymous_args = 0
 250:Drivers/STM32H7xx_HAL_Driver/Src/stm32h7xx_ll_usb.c ****   USBx->GUSBCFG &= ~(USB_OTG_GUSBCFG_FHMOD | USB_OTG_GUSBCFG_FDMOD);
 531              		.loc 1 250 1 is_stmt 0 view .LVU139
 532 0000 08B5     		push	{r3, lr}
 533              	.LCFI5:
 534              		.cfi_def_cfa_offset 8
 535              		.cfi_offset 3, -8
 536              		.cfi_offset 14, -4
 251:Drivers/STM32H7xx_HAL_Driver/Src/stm32h7xx_ll_usb.c **** 
 537              		.loc 1 251 3 is_stmt 1 view .LVU140
 251:Drivers/STM32H7xx_HAL_Driver/Src/stm32h7xx_ll_usb.c **** 
 538              		.loc 1 251 17 is_stmt 0 view .LVU141
 539 0002 C368     		ldr	r3, [r0, #12]
 540 0004 23F0C043 		bic	r3, r3, #1610612736
 541 0008 C360     		str	r3, [r0, #12]
 253:Drivers/STM32H7xx_HAL_Driver/Src/stm32h7xx_ll_usb.c ****   {
 542              		.loc 1 253 3 is_stmt 1 view .LVU142
 253:Drivers/STM32H7xx_HAL_Driver/Src/stm32h7xx_ll_usb.c ****   {
 543              		.loc 1 253 6 is_stmt 0 view .LVU143
 544 000a 0129     		cmp	r1, #1
 545 000c 09D0     		beq	.L43
 257:Drivers/STM32H7xx_HAL_Driver/Src/stm32h7xx_ll_usb.c ****   {
 546              		.loc 1 257 8 is_stmt 1 view .LVU144
 257:Drivers/STM32H7xx_HAL_Driver/Src/stm32h7xx_ll_usb.c ****   {
 547              		.loc 1 257 11 is_stmt 0 view .LVU145
 548 000e 69B9     		cbnz	r1, .L41
 259:Drivers/STM32H7xx_HAL_Driver/Src/stm32h7xx_ll_usb.c ****   }
 549              		.loc 1 259 5 is_stmt 1 view .LVU146
 259:Drivers/STM32H7xx_HAL_Driver/Src/stm32h7xx_ll_usb.c ****   }
 550              		.loc 1 259 19 is_stmt 0 view .LVU147
 551 0010 C368     		ldr	r3, [r0, #12]
 552 0012 43F08043 		orr	r3, r3, #1073741824
 553 0016 C360     		str	r3, [r0, #12]
 554              	.L39:
 265:Drivers/STM32H7xx_HAL_Driver/Src/stm32h7xx_ll_usb.c **** 
 555              		.loc 1 265 3 is_stmt 1 view .LVU148
 556 0018 3220     		movs	r0, #50
 557              	.LVL46:
 265:Drivers/STM32H7xx_HAL_Driver/Src/stm32h7xx_ll_usb.c **** 
 558              		.loc 1 265 3 is_stmt 0 view .LVU149
 559 001a FFF7FEFF 		bl	HAL_Delay
 560              	.LVL47:
 267:Drivers/STM32H7xx_HAL_Driver/Src/stm32h7xx_ll_usb.c **** }
 561              		.loc 1 267 3 is_stmt 1 view .LVU150
 267:Drivers/STM32H7xx_HAL_Driver/Src/stm32h7xx_ll_usb.c **** }
 562              		.loc 1 267 10 is_stmt 0 view .LVU151
ARM GAS  /tmp/cc0TWTOC.s 			page 36


 563 001e 0020     		movs	r0, #0
 564              	.L40:
 268:Drivers/STM32H7xx_HAL_Driver/Src/stm32h7xx_ll_usb.c **** 
 565              		.loc 1 268 1 view .LVU152
 566 0020 08BD     		pop	{r3, pc}
 567              	.LVL48:
 568              	.L43:
 255:Drivers/STM32H7xx_HAL_Driver/Src/stm32h7xx_ll_usb.c ****   }
 569              		.loc 1 255 5 is_stmt 1 view .LVU153
 255:Drivers/STM32H7xx_HAL_Driver/Src/stm32h7xx_ll_usb.c ****   }
 570              		.loc 1 255 19 is_stmt 0 view .LVU154
 571 0022 C368     		ldr	r3, [r0, #12]
 572 0024 43F00053 		orr	r3, r3, #536870912
 573 0028 C360     		str	r3, [r0, #12]
 574 002a F5E7     		b	.L39
 575              	.L41:
 263:Drivers/STM32H7xx_HAL_Driver/Src/stm32h7xx_ll_usb.c ****   }
 576              		.loc 1 263 12 view .LVU155
 577 002c 0120     		movs	r0, #1
 578              	.LVL49:
 263:Drivers/STM32H7xx_HAL_Driver/Src/stm32h7xx_ll_usb.c ****   }
 579              		.loc 1 263 12 view .LVU156
 580 002e F7E7     		b	.L40
 581              		.cfi_endproc
 582              	.LFE145:
 584              		.section	.text.USB_FlushTxFifo,"ax",%progbits
 585              		.align	1
 586              		.global	USB_FlushTxFifo
 587              		.syntax unified
 588              		.thumb
 589              		.thumb_func
 590              		.fpu fpv5-d16
 592              	USB_FlushTxFifo:
 593              	.LVL50:
 594              	.LFB147:
 443:Drivers/STM32H7xx_HAL_Driver/Src/stm32h7xx_ll_usb.c ****   uint32_t count = 0U;
 595              		.loc 1 443 1 is_stmt 1 view -0
 596              		.cfi_startproc
 597              		@ args = 0, pretend = 0, frame = 0
 598              		@ frame_needed = 0, uses_anonymous_args = 0
 599              		@ link register save eliminated.
 444:Drivers/STM32H7xx_HAL_Driver/Src/stm32h7xx_ll_usb.c **** 
 600              		.loc 1 444 3 view .LVU158
 446:Drivers/STM32H7xx_HAL_Driver/Src/stm32h7xx_ll_usb.c **** 
 601              		.loc 1 446 3 view .LVU159
 446:Drivers/STM32H7xx_HAL_Driver/Src/stm32h7xx_ll_usb.c **** 
 602              		.loc 1 446 51 is_stmt 0 view .LVU160
 603 0000 8901     		lsls	r1, r1, #6
 604              	.LVL51:
 446:Drivers/STM32H7xx_HAL_Driver/Src/stm32h7xx_ll_usb.c **** 
 605              		.loc 1 446 44 view .LVU161
 606 0002 41F02001 		orr	r1, r1, #32
 446:Drivers/STM32H7xx_HAL_Driver/Src/stm32h7xx_ll_usb.c **** 
 607              		.loc 1 446 17 view .LVU162
 608 0006 0161     		str	r1, [r0, #16]
 444:Drivers/STM32H7xx_HAL_Driver/Src/stm32h7xx_ll_usb.c **** 
 609              		.loc 1 444 12 view .LVU163
ARM GAS  /tmp/cc0TWTOC.s 			page 37


 610 0008 0023     		movs	r3, #0
 611              	.LVL52:
 612              	.L46:
 448:Drivers/STM32H7xx_HAL_Driver/Src/stm32h7xx_ll_usb.c ****   {
 613              		.loc 1 448 3 is_stmt 1 view .LVU164
 450:Drivers/STM32H7xx_HAL_Driver/Src/stm32h7xx_ll_usb.c ****     {
 614              		.loc 1 450 5 view .LVU165
 450:Drivers/STM32H7xx_HAL_Driver/Src/stm32h7xx_ll_usb.c ****     {
 615              		.loc 1 450 8 is_stmt 0 view .LVU166
 616 000a 0133     		adds	r3, r3, #1
 617              	.LVL53:
 450:Drivers/STM32H7xx_HAL_Driver/Src/stm32h7xx_ll_usb.c ****     {
 618              		.loc 1 450 8 view .LVU167
 619 000c 054A     		ldr	r2, .L48
 620 000e 9342     		cmp	r3, r2
 621 0010 05D8     		bhi	.L47
 455:Drivers/STM32H7xx_HAL_Driver/Src/stm32h7xx_ll_usb.c **** 
 622              		.loc 1 455 15 view .LVU168
 623 0012 0269     		ldr	r2, [r0, #16]
 455:Drivers/STM32H7xx_HAL_Driver/Src/stm32h7xx_ll_usb.c **** 
 624              		.loc 1 455 3 view .LVU169
 625 0014 12F0200F 		tst	r2, #32
 626 0018 F7D1     		bne	.L46
 457:Drivers/STM32H7xx_HAL_Driver/Src/stm32h7xx_ll_usb.c **** }
 627              		.loc 1 457 10 view .LVU170
 628 001a 0020     		movs	r0, #0
 629              	.LVL54:
 457:Drivers/STM32H7xx_HAL_Driver/Src/stm32h7xx_ll_usb.c **** }
 630              		.loc 1 457 10 view .LVU171
 631 001c 7047     		bx	lr
 632              	.LVL55:
 633              	.L47:
 452:Drivers/STM32H7xx_HAL_Driver/Src/stm32h7xx_ll_usb.c ****     }
 634              		.loc 1 452 14 view .LVU172
 635 001e 0320     		movs	r0, #3
 636              	.LVL56:
 458:Drivers/STM32H7xx_HAL_Driver/Src/stm32h7xx_ll_usb.c **** 
 637              		.loc 1 458 1 view .LVU173
 638 0020 7047     		bx	lr
 639              	.L49:
 640 0022 00BF     		.align	2
 641              	.L48:
 642 0024 400D0300 		.word	200000
 643              		.cfi_endproc
 644              	.LFE147:
 646              		.section	.text.USB_FlushRxFifo,"ax",%progbits
 647              		.align	1
 648              		.global	USB_FlushRxFifo
 649              		.syntax unified
 650              		.thumb
 651              		.thumb_func
 652              		.fpu fpv5-d16
 654              	USB_FlushRxFifo:
 655              	.LVL57:
 656              	.LFB148:
 466:Drivers/STM32H7xx_HAL_Driver/Src/stm32h7xx_ll_usb.c ****   uint32_t count = 0;
 657              		.loc 1 466 1 is_stmt 1 view -0
ARM GAS  /tmp/cc0TWTOC.s 			page 38


 658              		.cfi_startproc
 659              		@ args = 0, pretend = 0, frame = 0
 660              		@ frame_needed = 0, uses_anonymous_args = 0
 661              		@ link register save eliminated.
 467:Drivers/STM32H7xx_HAL_Driver/Src/stm32h7xx_ll_usb.c **** 
 662              		.loc 1 467 3 view .LVU175
 469:Drivers/STM32H7xx_HAL_Driver/Src/stm32h7xx_ll_usb.c **** 
 663              		.loc 1 469 3 view .LVU176
 469:Drivers/STM32H7xx_HAL_Driver/Src/stm32h7xx_ll_usb.c **** 
 664              		.loc 1 469 17 is_stmt 0 view .LVU177
 665 0000 1023     		movs	r3, #16
 666 0002 0361     		str	r3, [r0, #16]
 467:Drivers/STM32H7xx_HAL_Driver/Src/stm32h7xx_ll_usb.c **** 
 667              		.loc 1 467 12 view .LVU178
 668 0004 0023     		movs	r3, #0
 669              	.LVL58:
 670              	.L52:
 471:Drivers/STM32H7xx_HAL_Driver/Src/stm32h7xx_ll_usb.c ****   {
 671              		.loc 1 471 3 is_stmt 1 view .LVU179
 473:Drivers/STM32H7xx_HAL_Driver/Src/stm32h7xx_ll_usb.c ****     {
 672              		.loc 1 473 5 view .LVU180
 473:Drivers/STM32H7xx_HAL_Driver/Src/stm32h7xx_ll_usb.c ****     {
 673              		.loc 1 473 8 is_stmt 0 view .LVU181
 674 0006 0133     		adds	r3, r3, #1
 675              	.LVL59:
 473:Drivers/STM32H7xx_HAL_Driver/Src/stm32h7xx_ll_usb.c ****     {
 676              		.loc 1 473 8 view .LVU182
 677 0008 054A     		ldr	r2, .L54
 678 000a 9342     		cmp	r3, r2
 679 000c 05D8     		bhi	.L53
 478:Drivers/STM32H7xx_HAL_Driver/Src/stm32h7xx_ll_usb.c **** 
 680              		.loc 1 478 15 view .LVU183
 681 000e 0269     		ldr	r2, [r0, #16]
 478:Drivers/STM32H7xx_HAL_Driver/Src/stm32h7xx_ll_usb.c **** 
 682              		.loc 1 478 3 view .LVU184
 683 0010 12F0100F 		tst	r2, #16
 684 0014 F7D1     		bne	.L52
 480:Drivers/STM32H7xx_HAL_Driver/Src/stm32h7xx_ll_usb.c **** }
 685              		.loc 1 480 10 view .LVU185
 686 0016 0020     		movs	r0, #0
 687              	.LVL60:
 480:Drivers/STM32H7xx_HAL_Driver/Src/stm32h7xx_ll_usb.c **** }
 688              		.loc 1 480 10 view .LVU186
 689 0018 7047     		bx	lr
 690              	.LVL61:
 691              	.L53:
 475:Drivers/STM32H7xx_HAL_Driver/Src/stm32h7xx_ll_usb.c ****     }
 692              		.loc 1 475 14 view .LVU187
 693 001a 0320     		movs	r0, #3
 694              	.LVL62:
 481:Drivers/STM32H7xx_HAL_Driver/Src/stm32h7xx_ll_usb.c **** 
 695              		.loc 1 481 1 view .LVU188
 696 001c 7047     		bx	lr
 697              	.L55:
 698 001e 00BF     		.align	2
 699              	.L54:
 700 0020 400D0300 		.word	200000
ARM GAS  /tmp/cc0TWTOC.s 			page 39


 701              		.cfi_endproc
 702              	.LFE148:
 704              		.section	.text.USB_SetDevSpeed,"ax",%progbits
 705              		.align	1
 706              		.global	USB_SetDevSpeed
 707              		.syntax unified
 708              		.thumb
 709              		.thumb_func
 710              		.fpu fpv5-d16
 712              	USB_SetDevSpeed:
 713              	.LVL63:
 714              	.LFB149:
 495:Drivers/STM32H7xx_HAL_Driver/Src/stm32h7xx_ll_usb.c ****   uint32_t USBx_BASE = (uint32_t)USBx;
 715              		.loc 1 495 1 is_stmt 1 view -0
 716              		.cfi_startproc
 717              		@ args = 0, pretend = 0, frame = 0
 718              		@ frame_needed = 0, uses_anonymous_args = 0
 719              		@ link register save eliminated.
 496:Drivers/STM32H7xx_HAL_Driver/Src/stm32h7xx_ll_usb.c **** 
 720              		.loc 1 496 3 view .LVU190
 498:Drivers/STM32H7xx_HAL_Driver/Src/stm32h7xx_ll_usb.c ****   return HAL_OK;
 721              		.loc 1 498 3 view .LVU191
 498:Drivers/STM32H7xx_HAL_Driver/Src/stm32h7xx_ll_usb.c ****   return HAL_OK;
 722              		.loc 1 498 21 is_stmt 0 view .LVU192
 723 0000 D0F80038 		ldr	r3, [r0, #2048]
 724 0004 1943     		orrs	r1, r1, r3
 725              	.LVL64:
 498:Drivers/STM32H7xx_HAL_Driver/Src/stm32h7xx_ll_usb.c ****   return HAL_OK;
 726              		.loc 1 498 21 view .LVU193
 727 0006 C0F80018 		str	r1, [r0, #2048]
 499:Drivers/STM32H7xx_HAL_Driver/Src/stm32h7xx_ll_usb.c **** }
 728              		.loc 1 499 3 is_stmt 1 view .LVU194
 500:Drivers/STM32H7xx_HAL_Driver/Src/stm32h7xx_ll_usb.c **** 
 729              		.loc 1 500 1 is_stmt 0 view .LVU195
 730 000a 0020     		movs	r0, #0
 731              	.LVL65:
 500:Drivers/STM32H7xx_HAL_Driver/Src/stm32h7xx_ll_usb.c **** 
 732              		.loc 1 500 1 view .LVU196
 733 000c 7047     		bx	lr
 734              		.cfi_endproc
 735              	.LFE149:
 737              		.section	.text.USB_DevInit,"ax",%progbits
 738              		.align	1
 739              		.global	USB_DevInit
 740              		.syntax unified
 741              		.thumb
 742              		.thumb_func
 743              		.fpu fpv5-d16
 745              	USB_DevInit:
 746              	.LVL66:
 747              	.LFB146:
 279:Drivers/STM32H7xx_HAL_Driver/Src/stm32h7xx_ll_usb.c ****   HAL_StatusTypeDef ret = HAL_OK;
 748              		.loc 1 279 1 is_stmt 1 view -0
 749              		.cfi_startproc
 750              		@ args = 56, pretend = 16, frame = 0
 751              		@ frame_needed = 0, uses_anonymous_args = 0
 279:Drivers/STM32H7xx_HAL_Driver/Src/stm32h7xx_ll_usb.c ****   HAL_StatusTypeDef ret = HAL_OK;
ARM GAS  /tmp/cc0TWTOC.s 			page 40


 752              		.loc 1 279 1 is_stmt 0 view .LVU198
 753 0000 84B0     		sub	sp, sp, #16
 754              	.LCFI6:
 755              		.cfi_def_cfa_offset 16
 756 0002 F8B5     		push	{r3, r4, r5, r6, r7, lr}
 757              	.LCFI7:
 758              		.cfi_def_cfa_offset 40
 759              		.cfi_offset 3, -40
 760              		.cfi_offset 4, -36
 761              		.cfi_offset 5, -32
 762              		.cfi_offset 6, -28
 763              		.cfi_offset 7, -24
 764              		.cfi_offset 14, -20
 765 0004 0446     		mov	r4, r0
 766 0006 07A8     		add	r0, sp, #28
 767              	.LVL67:
 279:Drivers/STM32H7xx_HAL_Driver/Src/stm32h7xx_ll_usb.c ****   HAL_StatusTypeDef ret = HAL_OK;
 768              		.loc 1 279 1 view .LVU199
 769 0008 80E80E00 		stm	r0, {r1, r2, r3}
 280:Drivers/STM32H7xx_HAL_Driver/Src/stm32h7xx_ll_usb.c ****   uint32_t USBx_BASE = (uint32_t)USBx;
 770              		.loc 1 280 3 is_stmt 1 view .LVU200
 771              	.LVL68:
 281:Drivers/STM32H7xx_HAL_Driver/Src/stm32h7xx_ll_usb.c ****   uint32_t i;
 772              		.loc 1 281 3 view .LVU201
 281:Drivers/STM32H7xx_HAL_Driver/Src/stm32h7xx_ll_usb.c ****   uint32_t i;
 773              		.loc 1 281 12 is_stmt 0 view .LVU202
 774 000c 2546     		mov	r5, r4
 775              	.LVL69:
 282:Drivers/STM32H7xx_HAL_Driver/Src/stm32h7xx_ll_usb.c **** 
 776              		.loc 1 282 3 is_stmt 1 view .LVU203
 284:Drivers/STM32H7xx_HAL_Driver/Src/stm32h7xx_ll_usb.c ****   {
 777              		.loc 1 284 3 view .LVU204
 284:Drivers/STM32H7xx_HAL_Driver/Src/stm32h7xx_ll_usb.c ****   {
 778              		.loc 1 284 10 is_stmt 0 view .LVU205
 779 000e 0023     		movs	r3, #0
 284:Drivers/STM32H7xx_HAL_Driver/Src/stm32h7xx_ll_usb.c ****   {
 780              		.loc 1 284 3 view .LVU206
 781 0010 06E0     		b	.L58
 782              	.LVL70:
 783              	.L59:
 286:Drivers/STM32H7xx_HAL_Driver/Src/stm32h7xx_ll_usb.c ****   }
 784              		.loc 1 286 5 is_stmt 1 discriminator 3 view .LVU207
 286:Drivers/STM32H7xx_HAL_Driver/Src/stm32h7xx_ll_usb.c ****   }
 785              		.loc 1 286 22 is_stmt 0 discriminator 3 view .LVU208
 786 0012 03F14002 		add	r2, r3, #64
 787 0016 04EB8202 		add	r2, r4, r2, lsl #2
 788 001a 0021     		movs	r1, #0
 789 001c 5160     		str	r1, [r2, #4]
 284:Drivers/STM32H7xx_HAL_Driver/Src/stm32h7xx_ll_usb.c ****   {
 790              		.loc 1 284 26 discriminator 3 view .LVU209
 791 001e 0133     		adds	r3, r3, #1
 792              	.LVL71:
 793              	.L58:
 284:Drivers/STM32H7xx_HAL_Driver/Src/stm32h7xx_ll_usb.c ****   {
 794              		.loc 1 284 3 discriminator 1 view .LVU210
 795 0020 0E2B     		cmp	r3, #14
 796 0022 F6D9     		bls	.L59
ARM GAS  /tmp/cc0TWTOC.s 			page 41


 290:Drivers/STM32H7xx_HAL_Driver/Src/stm32h7xx_ll_usb.c ****   {
 797              		.loc 1 290 3 is_stmt 1 view .LVU211
 290:Drivers/STM32H7xx_HAL_Driver/Src/stm32h7xx_ll_usb.c ****   {
 798              		.loc 1 290 10 is_stmt 0 view .LVU212
 799 0024 119B     		ldr	r3, [sp, #68]
 800              	.LVL72:
 290:Drivers/STM32H7xx_HAL_Driver/Src/stm32h7xx_ll_usb.c ****   {
 801              		.loc 1 290 6 view .LVU213
 802 0026 F3B9     		cbnz	r3, .L60
 293:Drivers/STM32H7xx_HAL_Driver/Src/stm32h7xx_ll_usb.c **** 
 803              		.loc 1 293 5 is_stmt 1 view .LVU214
 293:Drivers/STM32H7xx_HAL_Driver/Src/stm32h7xx_ll_usb.c **** 
 804              		.loc 1 293 17 is_stmt 0 view .LVU215
 805 0028 A36B     		ldr	r3, [r4, #56]
 806 002a 23F40013 		bic	r3, r3, #2097152
 807 002e A363     		str	r3, [r4, #56]
 296:Drivers/STM32H7xx_HAL_Driver/Src/stm32h7xx_ll_usb.c ****     USBx->GOTGCTL |= USB_OTG_GOTGCTL_BVALOVAL;
 808              		.loc 1 296 5 is_stmt 1 view .LVU216
 296:Drivers/STM32H7xx_HAL_Driver/Src/stm32h7xx_ll_usb.c ****     USBx->GOTGCTL |= USB_OTG_GOTGCTL_BVALOVAL;
 809              		.loc 1 296 19 is_stmt 0 view .LVU217
 810 0030 2368     		ldr	r3, [r4]
 811 0032 43F04003 		orr	r3, r3, #64
 812 0036 2360     		str	r3, [r4]
 297:Drivers/STM32H7xx_HAL_Driver/Src/stm32h7xx_ll_usb.c ****   }
 813              		.loc 1 297 5 is_stmt 1 view .LVU218
 297:Drivers/STM32H7xx_HAL_Driver/Src/stm32h7xx_ll_usb.c ****   }
 814              		.loc 1 297 19 is_stmt 0 view .LVU219
 815 0038 2368     		ldr	r3, [r4]
 816 003a 43F08003 		orr	r3, r3, #128
 817 003e 2360     		str	r3, [r4]
 818              	.L61:
 306:Drivers/STM32H7xx_HAL_Driver/Src/stm32h7xx_ll_usb.c **** 
 819              		.loc 1 306 3 is_stmt 1 view .LVU220
 306:Drivers/STM32H7xx_HAL_Driver/Src/stm32h7xx_ll_usb.c **** 
 820              		.loc 1 306 16 is_stmt 0 view .LVU221
 821 0040 0023     		movs	r3, #0
 822 0042 C4F8003E 		str	r3, [r4, #3584]
 309:Drivers/STM32H7xx_HAL_Driver/Src/stm32h7xx_ll_usb.c **** 
 823              		.loc 1 309 3 is_stmt 1 view .LVU222
 309:Drivers/STM32H7xx_HAL_Driver/Src/stm32h7xx_ll_usb.c **** 
 824              		.loc 1 309 21 is_stmt 0 view .LVU223
 825 0046 04F50066 		add	r6, r4, #2048
 826 004a D4F80038 		ldr	r3, [r4, #2048]
 827 004e C4F80038 		str	r3, [r4, #2048]
 311:Drivers/STM32H7xx_HAL_Driver/Src/stm32h7xx_ll_usb.c ****   {
 828              		.loc 1 311 3 is_stmt 1 view .LVU224
 311:Drivers/STM32H7xx_HAL_Driver/Src/stm32h7xx_ll_usb.c ****   {
 829              		.loc 1 311 10 is_stmt 0 view .LVU225
 830 0052 0C9B     		ldr	r3, [sp, #48]
 311:Drivers/STM32H7xx_HAL_Driver/Src/stm32h7xx_ll_usb.c ****   {
 831              		.loc 1 311 6 view .LVU226
 832 0054 012B     		cmp	r3, #1
 833 0056 10D1     		bne	.L62
 313:Drivers/STM32H7xx_HAL_Driver/Src/stm32h7xx_ll_usb.c ****     {
 834              		.loc 1 313 5 is_stmt 1 view .LVU227
 313:Drivers/STM32H7xx_HAL_Driver/Src/stm32h7xx_ll_usb.c ****     {
 835              		.loc 1 313 12 is_stmt 0 view .LVU228
ARM GAS  /tmp/cc0TWTOC.s 			page 42


 836 0058 099B     		ldr	r3, [sp, #36]
 313:Drivers/STM32H7xx_HAL_Driver/Src/stm32h7xx_ll_usb.c ****     {
 837              		.loc 1 313 8 view .LVU229
 838 005a 4BB9     		cbnz	r3, .L63
 316:Drivers/STM32H7xx_HAL_Driver/Src/stm32h7xx_ll_usb.c ****     }
 839              		.loc 1 316 7 is_stmt 1 view .LVU230
 316:Drivers/STM32H7xx_HAL_Driver/Src/stm32h7xx_ll_usb.c ****     }
 840              		.loc 1 316 13 is_stmt 0 view .LVU231
 841 005c 0021     		movs	r1, #0
 842 005e 2046     		mov	r0, r4
 843 0060 FFF7FEFF 		bl	USB_SetDevSpeed
 844              	.LVL73:
 845 0064 0DE0     		b	.L64
 846              	.L60:
 302:Drivers/STM32H7xx_HAL_Driver/Src/stm32h7xx_ll_usb.c ****   }
 847              		.loc 1 302 5 is_stmt 1 view .LVU232
 302:Drivers/STM32H7xx_HAL_Driver/Src/stm32h7xx_ll_usb.c ****   }
 848              		.loc 1 302 17 is_stmt 0 view .LVU233
 849 0066 A36B     		ldr	r3, [r4, #56]
 850 0068 43F40013 		orr	r3, r3, #2097152
 851 006c A363     		str	r3, [r4, #56]
 852 006e E7E7     		b	.L61
 853              	.L63:
 321:Drivers/STM32H7xx_HAL_Driver/Src/stm32h7xx_ll_usb.c ****     }
 854              		.loc 1 321 7 is_stmt 1 view .LVU234
 321:Drivers/STM32H7xx_HAL_Driver/Src/stm32h7xx_ll_usb.c ****     }
 855              		.loc 1 321 13 is_stmt 0 view .LVU235
 856 0070 0121     		movs	r1, #1
 857 0072 2046     		mov	r0, r4
 858 0074 FFF7FEFF 		bl	USB_SetDevSpeed
 859              	.LVL74:
 860 0078 03E0     		b	.L64
 861              	.L62:
 327:Drivers/STM32H7xx_HAL_Driver/Src/stm32h7xx_ll_usb.c ****   }
 862              		.loc 1 327 5 is_stmt 1 view .LVU236
 327:Drivers/STM32H7xx_HAL_Driver/Src/stm32h7xx_ll_usb.c ****   }
 863              		.loc 1 327 11 is_stmt 0 view .LVU237
 864 007a 0321     		movs	r1, #3
 865 007c 2046     		mov	r0, r4
 866 007e FFF7FEFF 		bl	USB_SetDevSpeed
 867              	.LVL75:
 868              	.L64:
 331:Drivers/STM32H7xx_HAL_Driver/Src/stm32h7xx_ll_usb.c ****   {
 869              		.loc 1 331 3 is_stmt 1 view .LVU238
 331:Drivers/STM32H7xx_HAL_Driver/Src/stm32h7xx_ll_usb.c ****   {
 870              		.loc 1 331 7 is_stmt 0 view .LVU239
 871 0082 1021     		movs	r1, #16
 872 0084 2046     		mov	r0, r4
 873 0086 FFF7FEFF 		bl	USB_FlushTxFifo
 874              	.LVL76:
 331:Drivers/STM32H7xx_HAL_Driver/Src/stm32h7xx_ll_usb.c ****   {
 875              		.loc 1 331 6 view .LVU240
 876 008a 0746     		mov	r7, r0
 877 008c 00B1     		cbz	r0, .L65
 333:Drivers/STM32H7xx_HAL_Driver/Src/stm32h7xx_ll_usb.c ****   }
 878              		.loc 1 333 9 view .LVU241
 879 008e 0127     		movs	r7, #1
ARM GAS  /tmp/cc0TWTOC.s 			page 43


 880              	.L65:
 881              	.LVL77:
 336:Drivers/STM32H7xx_HAL_Driver/Src/stm32h7xx_ll_usb.c ****   {
 882              		.loc 1 336 3 is_stmt 1 view .LVU242
 336:Drivers/STM32H7xx_HAL_Driver/Src/stm32h7xx_ll_usb.c ****   {
 883              		.loc 1 336 7 is_stmt 0 view .LVU243
 884 0090 2046     		mov	r0, r4
 885 0092 FFF7FEFF 		bl	USB_FlushRxFifo
 886              	.LVL78:
 336:Drivers/STM32H7xx_HAL_Driver/Src/stm32h7xx_ll_usb.c ****   {
 887              		.loc 1 336 6 view .LVU244
 888 0096 00B1     		cbz	r0, .L66
 338:Drivers/STM32H7xx_HAL_Driver/Src/stm32h7xx_ll_usb.c ****   }
 889              		.loc 1 338 9 view .LVU245
 890 0098 0127     		movs	r7, #1
 891              	.LVL79:
 892              	.L66:
 342:Drivers/STM32H7xx_HAL_Driver/Src/stm32h7xx_ll_usb.c ****   USBx_DEVICE->DOEPMSK = 0U;
 893              		.loc 1 342 3 is_stmt 1 view .LVU246
 342:Drivers/STM32H7xx_HAL_Driver/Src/stm32h7xx_ll_usb.c ****   USBx_DEVICE->DOEPMSK = 0U;
 894              		.loc 1 342 24 is_stmt 0 view .LVU247
 895 009a 0023     		movs	r3, #0
 896 009c 3361     		str	r3, [r6, #16]
 343:Drivers/STM32H7xx_HAL_Driver/Src/stm32h7xx_ll_usb.c ****   USBx_DEVICE->DAINTMSK = 0U;
 897              		.loc 1 343 3 is_stmt 1 view .LVU248
 343:Drivers/STM32H7xx_HAL_Driver/Src/stm32h7xx_ll_usb.c ****   USBx_DEVICE->DAINTMSK = 0U;
 898              		.loc 1 343 24 is_stmt 0 view .LVU249
 899 009e 7361     		str	r3, [r6, #20]
 344:Drivers/STM32H7xx_HAL_Driver/Src/stm32h7xx_ll_usb.c **** 
 900              		.loc 1 344 3 is_stmt 1 view .LVU250
 344:Drivers/STM32H7xx_HAL_Driver/Src/stm32h7xx_ll_usb.c **** 
 901              		.loc 1 344 25 is_stmt 0 view .LVU251
 902 00a0 F361     		str	r3, [r6, #28]
 346:Drivers/STM32H7xx_HAL_Driver/Src/stm32h7xx_ll_usb.c ****   {
 903              		.loc 1 346 3 is_stmt 1 view .LVU252
 904              	.LVL80:
 346:Drivers/STM32H7xx_HAL_Driver/Src/stm32h7xx_ll_usb.c ****   {
 905              		.loc 1 346 3 is_stmt 0 view .LVU253
 906 00a2 0AE0     		b	.L67
 907              	.LVL81:
 908              	.L85:
 350:Drivers/STM32H7xx_HAL_Driver/Src/stm32h7xx_ll_usb.c ****       {
 909              		.loc 1 350 7 is_stmt 1 view .LVU254
 350:Drivers/STM32H7xx_HAL_Driver/Src/stm32h7xx_ll_usb.c ****       {
 910              		.loc 1 350 10 is_stmt 0 view .LVU255
 911 00a4 C3B9     		cbnz	r3, .L69
 352:Drivers/STM32H7xx_HAL_Driver/Src/stm32h7xx_ll_usb.c ****       }
 912              		.loc 1 352 9 is_stmt 1 view .LVU256
 352:Drivers/STM32H7xx_HAL_Driver/Src/stm32h7xx_ll_usb.c ****       }
 913              		.loc 1 352 31 is_stmt 0 view .LVU257
 914 00a6 4FF00060 		mov	r0, #134217728
 915 00aa C2F80009 		str	r0, [r2, #2304]
 916              	.L70:
 364:Drivers/STM32H7xx_HAL_Driver/Src/stm32h7xx_ll_usb.c ****     USBx_INEP(i)->DIEPINT  = 0xFB7FU;
 917              		.loc 1 364 5 is_stmt 1 discriminator 2 view .LVU258
 364:Drivers/STM32H7xx_HAL_Driver/Src/stm32h7xx_ll_usb.c ****     USBx_INEP(i)->DIEPINT  = 0xFB7FU;
 918              		.loc 1 364 28 is_stmt 0 discriminator 2 view .LVU259
ARM GAS  /tmp/cc0TWTOC.s 			page 44


 919 00ae 0022     		movs	r2, #0
 920 00b0 0A61     		str	r2, [r1, #16]
 365:Drivers/STM32H7xx_HAL_Driver/Src/stm32h7xx_ll_usb.c ****   }
 921              		.loc 1 365 5 is_stmt 1 discriminator 2 view .LVU260
 365:Drivers/STM32H7xx_HAL_Driver/Src/stm32h7xx_ll_usb.c ****   }
 922              		.loc 1 365 28 is_stmt 0 discriminator 2 view .LVU261
 923 00b2 4FF67F32 		movw	r2, #64383
 924 00b6 8A60     		str	r2, [r1, #8]
 346:Drivers/STM32H7xx_HAL_Driver/Src/stm32h7xx_ll_usb.c ****   {
 925              		.loc 1 346 40 discriminator 2 view .LVU262
 926 00b8 0133     		adds	r3, r3, #1
 927              	.LVL82:
 928              	.L67:
 346:Drivers/STM32H7xx_HAL_Driver/Src/stm32h7xx_ll_usb.c ****   {
 929              		.loc 1 346 23 discriminator 1 view .LVU263
 930 00ba 079A     		ldr	r2, [sp, #28]
 346:Drivers/STM32H7xx_HAL_Driver/Src/stm32h7xx_ll_usb.c ****   {
 931              		.loc 1 346 3 discriminator 1 view .LVU264
 932 00bc 9A42     		cmp	r2, r3
 933 00be 10D9     		bls	.L84
 348:Drivers/STM32H7xx_HAL_Driver/Src/stm32h7xx_ll_usb.c ****     {
 934              		.loc 1 348 5 is_stmt 1 view .LVU265
 348:Drivers/STM32H7xx_HAL_Driver/Src/stm32h7xx_ll_usb.c ****     {
 935              		.loc 1 348 10 is_stmt 0 view .LVU266
 936 00c0 05EB4312 		add	r2, r5, r3, lsl #5
 937 00c4 02F51061 		add	r1, r2, #2304
 348:Drivers/STM32H7xx_HAL_Driver/Src/stm32h7xx_ll_usb.c ****     {
 938              		.loc 1 348 22 view .LVU267
 939 00c8 D2F80009 		ldr	r0, [r2, #2304]
 348:Drivers/STM32H7xx_HAL_Driver/Src/stm32h7xx_ll_usb.c ****     {
 940              		.loc 1 348 8 view .LVU268
 941 00cc 0028     		cmp	r0, #0
 942 00ce E9DB     		blt	.L85
 361:Drivers/STM32H7xx_HAL_Driver/Src/stm32h7xx_ll_usb.c ****     }
 943              		.loc 1 361 7 is_stmt 1 view .LVU269
 361:Drivers/STM32H7xx_HAL_Driver/Src/stm32h7xx_ll_usb.c ****     }
 944              		.loc 1 361 29 is_stmt 0 view .LVU270
 945 00d0 0020     		movs	r0, #0
 946 00d2 C2F80009 		str	r0, [r2, #2304]
 947 00d6 EAE7     		b	.L70
 948              	.L69:
 356:Drivers/STM32H7xx_HAL_Driver/Src/stm32h7xx_ll_usb.c ****       }
 949              		.loc 1 356 9 is_stmt 1 view .LVU271
 356:Drivers/STM32H7xx_HAL_Driver/Src/stm32h7xx_ll_usb.c ****       }
 950              		.loc 1 356 31 is_stmt 0 view .LVU272
 951 00d8 4FF09040 		mov	r0, #1207959552
 952 00dc C2F80009 		str	r0, [r2, #2304]
 953 00e0 E5E7     		b	.L70
 954              	.L84:
 368:Drivers/STM32H7xx_HAL_Driver/Src/stm32h7xx_ll_usb.c ****   {
 955              		.loc 1 368 10 view .LVU273
 956 00e2 0023     		movs	r3, #0
 957              	.LVL83:
 368:Drivers/STM32H7xx_HAL_Driver/Src/stm32h7xx_ll_usb.c ****   {
 958              		.loc 1 368 10 view .LVU274
 959 00e4 0AE0     		b	.L72
 960              	.LVL84:
ARM GAS  /tmp/cc0TWTOC.s 			page 45


 961              	.L87:
 372:Drivers/STM32H7xx_HAL_Driver/Src/stm32h7xx_ll_usb.c ****       {
 962              		.loc 1 372 7 is_stmt 1 view .LVU275
 372:Drivers/STM32H7xx_HAL_Driver/Src/stm32h7xx_ll_usb.c ****       {
 963              		.loc 1 372 10 is_stmt 0 view .LVU276
 964 00e6 C3B9     		cbnz	r3, .L74
 374:Drivers/STM32H7xx_HAL_Driver/Src/stm32h7xx_ll_usb.c ****       }
 965              		.loc 1 374 9 is_stmt 1 view .LVU277
 374:Drivers/STM32H7xx_HAL_Driver/Src/stm32h7xx_ll_usb.c ****       }
 966              		.loc 1 374 32 is_stmt 0 view .LVU278
 967 00e8 4FF00060 		mov	r0, #134217728
 968 00ec C2F8000B 		str	r0, [r2, #2816]
 969              	.L75:
 386:Drivers/STM32H7xx_HAL_Driver/Src/stm32h7xx_ll_usb.c ****     USBx_OUTEP(i)->DOEPINT  = 0xFB7FU;
 970              		.loc 1 386 5 is_stmt 1 discriminator 2 view .LVU279
 386:Drivers/STM32H7xx_HAL_Driver/Src/stm32h7xx_ll_usb.c ****     USBx_OUTEP(i)->DOEPINT  = 0xFB7FU;
 971              		.loc 1 386 29 is_stmt 0 discriminator 2 view .LVU280
 972 00f0 0022     		movs	r2, #0
 973 00f2 0A61     		str	r2, [r1, #16]
 387:Drivers/STM32H7xx_HAL_Driver/Src/stm32h7xx_ll_usb.c ****   }
 974              		.loc 1 387 5 is_stmt 1 discriminator 2 view .LVU281
 387:Drivers/STM32H7xx_HAL_Driver/Src/stm32h7xx_ll_usb.c ****   }
 975              		.loc 1 387 29 is_stmt 0 discriminator 2 view .LVU282
 976 00f4 4FF67F32 		movw	r2, #64383
 977 00f8 8A60     		str	r2, [r1, #8]
 368:Drivers/STM32H7xx_HAL_Driver/Src/stm32h7xx_ll_usb.c ****   {
 978              		.loc 1 368 40 discriminator 2 view .LVU283
 979 00fa 0133     		adds	r3, r3, #1
 980              	.LVL85:
 981              	.L72:
 368:Drivers/STM32H7xx_HAL_Driver/Src/stm32h7xx_ll_usb.c ****   {
 982              		.loc 1 368 23 discriminator 1 view .LVU284
 983 00fc 079A     		ldr	r2, [sp, #28]
 368:Drivers/STM32H7xx_HAL_Driver/Src/stm32h7xx_ll_usb.c ****   {
 984              		.loc 1 368 3 discriminator 1 view .LVU285
 985 00fe 9A42     		cmp	r2, r3
 986 0100 10D9     		bls	.L86
 370:Drivers/STM32H7xx_HAL_Driver/Src/stm32h7xx_ll_usb.c ****     {
 987              		.loc 1 370 5 is_stmt 1 view .LVU286
 370:Drivers/STM32H7xx_HAL_Driver/Src/stm32h7xx_ll_usb.c ****     {
 988              		.loc 1 370 10 is_stmt 0 view .LVU287
 989 0102 05EB4312 		add	r2, r5, r3, lsl #5
 990 0106 02F53061 		add	r1, r2, #2816
 370:Drivers/STM32H7xx_HAL_Driver/Src/stm32h7xx_ll_usb.c ****     {
 991              		.loc 1 370 23 view .LVU288
 992 010a D2F8000B 		ldr	r0, [r2, #2816]
 370:Drivers/STM32H7xx_HAL_Driver/Src/stm32h7xx_ll_usb.c ****     {
 993              		.loc 1 370 8 view .LVU289
 994 010e 0028     		cmp	r0, #0
 995 0110 E9DB     		blt	.L87
 383:Drivers/STM32H7xx_HAL_Driver/Src/stm32h7xx_ll_usb.c ****     }
 996              		.loc 1 383 7 is_stmt 1 view .LVU290
 383:Drivers/STM32H7xx_HAL_Driver/Src/stm32h7xx_ll_usb.c ****     }
 997              		.loc 1 383 30 is_stmt 0 view .LVU291
 998 0112 0020     		movs	r0, #0
 999 0114 C2F8000B 		str	r0, [r2, #2816]
 1000 0118 EAE7     		b	.L75
ARM GAS  /tmp/cc0TWTOC.s 			page 46


 1001              	.L74:
 378:Drivers/STM32H7xx_HAL_Driver/Src/stm32h7xx_ll_usb.c ****       }
 1002              		.loc 1 378 9 is_stmt 1 view .LVU292
 378:Drivers/STM32H7xx_HAL_Driver/Src/stm32h7xx_ll_usb.c ****       }
 1003              		.loc 1 378 32 is_stmt 0 view .LVU293
 1004 011a 4FF09040 		mov	r0, #1207959552
 1005 011e C2F8000B 		str	r0, [r2, #2816]
 1006 0122 E5E7     		b	.L75
 1007              	.L86:
 390:Drivers/STM32H7xx_HAL_Driver/Src/stm32h7xx_ll_usb.c **** 
 1008              		.loc 1 390 3 is_stmt 1 view .LVU294
 390:Drivers/STM32H7xx_HAL_Driver/Src/stm32h7xx_ll_usb.c **** 
 1009              		.loc 1 390 24 is_stmt 0 view .LVU295
 1010 0124 3369     		ldr	r3, [r6, #16]
 1011              	.LVL86:
 390:Drivers/STM32H7xx_HAL_Driver/Src/stm32h7xx_ll_usb.c **** 
 1012              		.loc 1 390 24 view .LVU296
 1013 0126 23F48073 		bic	r3, r3, #256
 1014 012a 3361     		str	r3, [r6, #16]
 392:Drivers/STM32H7xx_HAL_Driver/Src/stm32h7xx_ll_usb.c ****   {
 1015              		.loc 1 392 3 is_stmt 1 view .LVU297
 392:Drivers/STM32H7xx_HAL_Driver/Src/stm32h7xx_ll_usb.c ****   {
 1016              		.loc 1 392 10 is_stmt 0 view .LVU298
 1017 012c 0A9B     		ldr	r3, [sp, #40]
 392:Drivers/STM32H7xx_HAL_Driver/Src/stm32h7xx_ll_usb.c ****   {
 1018              		.loc 1 392 6 view .LVU299
 1019 012e 012B     		cmp	r3, #1
 1020 0130 1BD0     		beq	.L88
 1021              	.L77:
 404:Drivers/STM32H7xx_HAL_Driver/Src/stm32h7xx_ll_usb.c **** 
 1022              		.loc 1 404 3 is_stmt 1 view .LVU300
 404:Drivers/STM32H7xx_HAL_Driver/Src/stm32h7xx_ll_usb.c **** 
 1023              		.loc 1 404 17 is_stmt 0 view .LVU301
 1024 0132 0022     		movs	r2, #0
 1025 0134 A261     		str	r2, [r4, #24]
 407:Drivers/STM32H7xx_HAL_Driver/Src/stm32h7xx_ll_usb.c **** 
 1026              		.loc 1 407 3 is_stmt 1 view .LVU302
 407:Drivers/STM32H7xx_HAL_Driver/Src/stm32h7xx_ll_usb.c **** 
 1027              		.loc 1 407 17 is_stmt 0 view .LVU303
 1028 0136 6FF08042 		mvn	r2, #1073741824
 1029 013a 6261     		str	r2, [r4, #20]
 410:Drivers/STM32H7xx_HAL_Driver/Src/stm32h7xx_ll_usb.c ****   {
 1030              		.loc 1 410 3 is_stmt 1 view .LVU304
 410:Drivers/STM32H7xx_HAL_Driver/Src/stm32h7xx_ll_usb.c ****   {
 1031              		.loc 1 410 6 is_stmt 0 view .LVU305
 1032 013c 1BB9     		cbnz	r3, .L78
 412:Drivers/STM32H7xx_HAL_Driver/Src/stm32h7xx_ll_usb.c ****   }
 1033              		.loc 1 412 5 is_stmt 1 view .LVU306
 412:Drivers/STM32H7xx_HAL_Driver/Src/stm32h7xx_ll_usb.c ****   }
 1034              		.loc 1 412 19 is_stmt 0 view .LVU307
 1035 013e A369     		ldr	r3, [r4, #24]
 1036 0140 43F01003 		orr	r3, r3, #16
 1037 0144 A361     		str	r3, [r4, #24]
 1038              	.L78:
 416:Drivers/STM32H7xx_HAL_Driver/Src/stm32h7xx_ll_usb.c ****                    USB_OTG_GINTMSK_ENUMDNEM | USB_OTG_GINTMSK_IEPINT |
 1039              		.loc 1 416 3 is_stmt 1 view .LVU308
 416:Drivers/STM32H7xx_HAL_Driver/Src/stm32h7xx_ll_usb.c ****                    USB_OTG_GINTMSK_ENUMDNEM | USB_OTG_GINTMSK_IEPINT |
ARM GAS  /tmp/cc0TWTOC.s 			page 47


 1040              		.loc 1 416 17 is_stmt 0 view .LVU309
 1041 0146 A269     		ldr	r2, [r4, #24]
 1042 0148 0E4B     		ldr	r3, .L90
 1043 014a 1343     		orrs	r3, r3, r2
 1044 014c A361     		str	r3, [r4, #24]
 421:Drivers/STM32H7xx_HAL_Driver/Src/stm32h7xx_ll_usb.c ****   {
 1045              		.loc 1 421 3 is_stmt 1 view .LVU310
 421:Drivers/STM32H7xx_HAL_Driver/Src/stm32h7xx_ll_usb.c ****   {
 1046              		.loc 1 421 10 is_stmt 0 view .LVU311
 1047 014e 0D9B     		ldr	r3, [sp, #52]
 421:Drivers/STM32H7xx_HAL_Driver/Src/stm32h7xx_ll_usb.c ****   {
 1048              		.loc 1 421 6 view .LVU312
 1049 0150 1BB1     		cbz	r3, .L79
 423:Drivers/STM32H7xx_HAL_Driver/Src/stm32h7xx_ll_usb.c ****   }
 1050              		.loc 1 423 5 is_stmt 1 view .LVU313
 423:Drivers/STM32H7xx_HAL_Driver/Src/stm32h7xx_ll_usb.c ****   }
 1051              		.loc 1 423 19 is_stmt 0 view .LVU314
 1052 0152 A369     		ldr	r3, [r4, #24]
 1053 0154 43F00803 		orr	r3, r3, #8
 1054 0158 A361     		str	r3, [r4, #24]
 1055              	.L79:
 426:Drivers/STM32H7xx_HAL_Driver/Src/stm32h7xx_ll_usb.c ****   {
 1056              		.loc 1 426 3 is_stmt 1 view .LVU315
 426:Drivers/STM32H7xx_HAL_Driver/Src/stm32h7xx_ll_usb.c ****   {
 1057              		.loc 1 426 10 is_stmt 0 view .LVU316
 1058 015a 119B     		ldr	r3, [sp, #68]
 426:Drivers/STM32H7xx_HAL_Driver/Src/stm32h7xx_ll_usb.c ****   {
 1059              		.loc 1 426 6 view .LVU317
 1060 015c 012B     		cmp	r3, #1
 1061 015e 0BD0     		beq	.L89
 1062              	.L80:
 431:Drivers/STM32H7xx_HAL_Driver/Src/stm32h7xx_ll_usb.c **** }
 1063              		.loc 1 431 3 is_stmt 1 view .LVU318
 432:Drivers/STM32H7xx_HAL_Driver/Src/stm32h7xx_ll_usb.c **** 
 1064              		.loc 1 432 1 is_stmt 0 view .LVU319
 1065 0160 3846     		mov	r0, r7
 1066 0162 BDE8F840 		pop	{r3, r4, r5, r6, r7, lr}
 1067              	.LCFI8:
 1068              		.cfi_remember_state
 1069              		.cfi_restore 14
 1070              		.cfi_restore 7
 1071              		.cfi_restore 6
 1072              		.cfi_restore 5
 1073              		.cfi_restore 4
 1074              		.cfi_restore 3
 1075              		.cfi_def_cfa_offset 16
 1076              	.LVL87:
 432:Drivers/STM32H7xx_HAL_Driver/Src/stm32h7xx_ll_usb.c **** 
 1077              		.loc 1 432 1 view .LVU320
 1078 0166 04B0     		add	sp, sp, #16
 1079              	.LCFI9:
 1080              		.cfi_def_cfa_offset 0
 1081 0168 7047     		bx	lr
 1082              	.LVL88:
 1083              	.L88:
 1084              	.LCFI10:
 1085              		.cfi_restore_state
ARM GAS  /tmp/cc0TWTOC.s 			page 48


 395:Drivers/STM32H7xx_HAL_Driver/Src/stm32h7xx_ll_usb.c ****                            USB_OTG_DTHRCTL_RXTHRLEN_6;
 1086              		.loc 1 395 5 is_stmt 1 view .LVU321
 395:Drivers/STM32H7xx_HAL_Driver/Src/stm32h7xx_ll_usb.c ****                            USB_OTG_DTHRCTL_RXTHRLEN_6;
 1087              		.loc 1 395 26 is_stmt 0 view .LVU322
 1088 016a 074A     		ldr	r2, .L90+4
 1089 016c 3263     		str	r2, [r6, #48]
 398:Drivers/STM32H7xx_HAL_Driver/Src/stm32h7xx_ll_usb.c ****                             USB_OTG_DTHRCTL_ISOTHREN |
 1090              		.loc 1 398 5 is_stmt 1 view .LVU323
 398:Drivers/STM32H7xx_HAL_Driver/Src/stm32h7xx_ll_usb.c ****                             USB_OTG_DTHRCTL_ISOTHREN |
 1091              		.loc 1 398 26 is_stmt 0 view .LVU324
 1092 016e 316B     		ldr	r1, [r6, #48]
 1093 0170 064A     		ldr	r2, .L90+8
 1094 0172 0A43     		orrs	r2, r2, r1
 1095 0174 3263     		str	r2, [r6, #48]
 1096 0176 DCE7     		b	.L77
 1097              	.L89:
 428:Drivers/STM32H7xx_HAL_Driver/Src/stm32h7xx_ll_usb.c ****   }
 1098              		.loc 1 428 5 is_stmt 1 view .LVU325
 428:Drivers/STM32H7xx_HAL_Driver/Src/stm32h7xx_ll_usb.c ****   }
 1099              		.loc 1 428 19 is_stmt 0 view .LVU326
 1100 0178 A269     		ldr	r2, [r4, #24]
 1101 017a 054B     		ldr	r3, .L90+12
 1102 017c 1343     		orrs	r3, r3, r2
 1103 017e A361     		str	r3, [r4, #24]
 1104 0180 EEE7     		b	.L80
 1105              	.L91:
 1106 0182 00BF     		.align	2
 1107              	.L90:
 1108 0184 00383C80 		.word	-2143537152
 1109 0188 00018000 		.word	8388864
 1110 018c 03000100 		.word	65539
 1111 0190 04000040 		.word	1073741828
 1112              		.cfi_endproc
 1113              	.LFE146:
 1115              		.section	.text.USB_GetDevSpeed,"ax",%progbits
 1116              		.align	1
 1117              		.global	USB_GetDevSpeed
 1118              		.syntax unified
 1119              		.thumb
 1120              		.thumb_func
 1121              		.fpu fpv5-d16
 1123              	USB_GetDevSpeed:
 1124              	.LVL89:
 1125              	.LFB150:
 511:Drivers/STM32H7xx_HAL_Driver/Src/stm32h7xx_ll_usb.c ****   uint32_t USBx_BASE = (uint32_t)USBx;
 1126              		.loc 1 511 1 is_stmt 1 view -0
 1127              		.cfi_startproc
 1128              		@ args = 0, pretend = 0, frame = 0
 1129              		@ frame_needed = 0, uses_anonymous_args = 0
 1130              		@ link register save eliminated.
 512:Drivers/STM32H7xx_HAL_Driver/Src/stm32h7xx_ll_usb.c ****   uint8_t speed;
 1131              		.loc 1 512 3 view .LVU328
 513:Drivers/STM32H7xx_HAL_Driver/Src/stm32h7xx_ll_usb.c ****   uint32_t DevEnumSpeed = USBx_DEVICE->DSTS & USB_OTG_DSTS_ENUMSPD;
 1132              		.loc 1 513 3 view .LVU329
 514:Drivers/STM32H7xx_HAL_Driver/Src/stm32h7xx_ll_usb.c **** 
 1133              		.loc 1 514 3 view .LVU330
 514:Drivers/STM32H7xx_HAL_Driver/Src/stm32h7xx_ll_usb.c **** 
ARM GAS  /tmp/cc0TWTOC.s 			page 49


 1134              		.loc 1 514 38 is_stmt 0 view .LVU331
 1135 0000 D0F80838 		ldr	r3, [r0, #2056]
 1136              	.LVL90:
 516:Drivers/STM32H7xx_HAL_Driver/Src/stm32h7xx_ll_usb.c ****   {
 1137              		.loc 1 516 3 is_stmt 1 view .LVU332
 516:Drivers/STM32H7xx_HAL_Driver/Src/stm32h7xx_ll_usb.c ****   {
 1138              		.loc 1 516 6 is_stmt 0 view .LVU333
 1139 0004 13F00603 		ands	r3, r3, #6
 1140              	.LVL91:
 516:Drivers/STM32H7xx_HAL_Driver/Src/stm32h7xx_ll_usb.c ****   {
 1141              		.loc 1 516 6 view .LVU334
 1142 0008 05D0     		beq	.L94
 520:Drivers/STM32H7xx_HAL_Driver/Src/stm32h7xx_ll_usb.c ****            (DevEnumSpeed == DSTS_ENUMSPD_FS_PHY_48MHZ))
 1143              		.loc 1 520 8 is_stmt 1 view .LVU335
 520:Drivers/STM32H7xx_HAL_Driver/Src/stm32h7xx_ll_usb.c ****            (DevEnumSpeed == DSTS_ENUMSPD_FS_PHY_48MHZ))
 1144              		.loc 1 520 11 is_stmt 0 view .LVU336
 1145 000a 062B     		cmp	r3, #6
 1146 000c 18BF     		it	ne
 1147 000e 022B     		cmpne	r3, #2
 1148 0010 03D1     		bne	.L95
 523:Drivers/STM32H7xx_HAL_Driver/Src/stm32h7xx_ll_usb.c ****   }
 1149              		.loc 1 523 11 view .LVU337
 1150 0012 0220     		movs	r0, #2
 1151              	.LVL92:
 523:Drivers/STM32H7xx_HAL_Driver/Src/stm32h7xx_ll_usb.c ****   }
 1152              		.loc 1 523 11 view .LVU338
 1153 0014 7047     		bx	lr
 1154              	.LVL93:
 1155              	.L94:
 518:Drivers/STM32H7xx_HAL_Driver/Src/stm32h7xx_ll_usb.c ****   }
 1156              		.loc 1 518 11 view .LVU339
 1157 0016 0020     		movs	r0, #0
 1158              	.LVL94:
 518:Drivers/STM32H7xx_HAL_Driver/Src/stm32h7xx_ll_usb.c ****   }
 1159              		.loc 1 518 11 view .LVU340
 1160 0018 7047     		bx	lr
 1161              	.LVL95:
 1162              	.L95:
 527:Drivers/STM32H7xx_HAL_Driver/Src/stm32h7xx_ll_usb.c ****   }
 1163              		.loc 1 527 11 view .LVU341
 1164 001a 0F20     		movs	r0, #15
 1165              	.LVL96:
 530:Drivers/STM32H7xx_HAL_Driver/Src/stm32h7xx_ll_usb.c **** }
 1166              		.loc 1 530 3 is_stmt 1 view .LVU342
 531:Drivers/STM32H7xx_HAL_Driver/Src/stm32h7xx_ll_usb.c **** 
 1167              		.loc 1 531 1 is_stmt 0 view .LVU343
 1168 001c 7047     		bx	lr
 1169              		.cfi_endproc
 1170              	.LFE150:
 1172              		.section	.text.USB_ActivateEndpoint,"ax",%progbits
 1173              		.align	1
 1174              		.global	USB_ActivateEndpoint
 1175              		.syntax unified
 1176              		.thumb
 1177              		.thumb_func
 1178              		.fpu fpv5-d16
 1180              	USB_ActivateEndpoint:
ARM GAS  /tmp/cc0TWTOC.s 			page 50


 1181              	.LVL97:
 1182              	.LFB151:
 540:Drivers/STM32H7xx_HAL_Driver/Src/stm32h7xx_ll_usb.c ****   uint32_t USBx_BASE = (uint32_t)USBx;
 1183              		.loc 1 540 1 is_stmt 1 view -0
 1184              		.cfi_startproc
 1185              		@ args = 0, pretend = 0, frame = 0
 1186              		@ frame_needed = 0, uses_anonymous_args = 0
 1187              		@ link register save eliminated.
 540:Drivers/STM32H7xx_HAL_Driver/Src/stm32h7xx_ll_usb.c ****   uint32_t USBx_BASE = (uint32_t)USBx;
 1188              		.loc 1 540 1 is_stmt 0 view .LVU345
 1189 0000 70B4     		push	{r4, r5, r6}
 1190              	.LCFI11:
 1191              		.cfi_def_cfa_offset 12
 1192              		.cfi_offset 4, -12
 1193              		.cfi_offset 5, -8
 1194              		.cfi_offset 6, -4
 541:Drivers/STM32H7xx_HAL_Driver/Src/stm32h7xx_ll_usb.c ****   uint32_t epnum = (uint32_t)ep->num;
 1195              		.loc 1 541 3 is_stmt 1 view .LVU346
 1196              	.LVL98:
 542:Drivers/STM32H7xx_HAL_Driver/Src/stm32h7xx_ll_usb.c **** 
 1197              		.loc 1 542 3 view .LVU347
 542:Drivers/STM32H7xx_HAL_Driver/Src/stm32h7xx_ll_usb.c **** 
 1198              		.loc 1 542 32 is_stmt 0 view .LVU348
 1199 0002 0C78     		ldrb	r4, [r1]	@ zero_extendqisi2
 1200              	.LVL99:
 544:Drivers/STM32H7xx_HAL_Driver/Src/stm32h7xx_ll_usb.c ****   {
 1201              		.loc 1 544 3 is_stmt 1 view .LVU349
 544:Drivers/STM32H7xx_HAL_Driver/Src/stm32h7xx_ll_usb.c ****   {
 1202              		.loc 1 544 9 is_stmt 0 view .LVU350
 1203 0004 4B78     		ldrb	r3, [r1, #1]	@ zero_extendqisi2
 544:Drivers/STM32H7xx_HAL_Driver/Src/stm32h7xx_ll_usb.c ****   {
 1204              		.loc 1 544 6 view .LVU351
 1205 0006 012B     		cmp	r3, #1
 1206 0008 20D0     		beq	.L100
 558:Drivers/STM32H7xx_HAL_Driver/Src/stm32h7xx_ll_usb.c **** 
 1207              		.loc 1 558 5 is_stmt 1 view .LVU352
 558:Drivers/STM32H7xx_HAL_Driver/Src/stm32h7xx_ll_usb.c **** 
 1208              		.loc 1 558 27 is_stmt 0 view .LVU353
 1209 000a D0F81C38 		ldr	r3, [r0, #2076]
 558:Drivers/STM32H7xx_HAL_Driver/Src/stm32h7xx_ll_usb.c **** 
 1210              		.loc 1 558 82 view .LVU354
 1211 000e 04F00F06 		and	r6, r4, #15
 558:Drivers/STM32H7xx_HAL_Driver/Src/stm32h7xx_ll_usb.c **** 
 1212              		.loc 1 558 55 view .LVU355
 1213 0012 0122     		movs	r2, #1
 1214 0014 B240     		lsls	r2, r2, r6
 558:Drivers/STM32H7xx_HAL_Driver/Src/stm32h7xx_ll_usb.c **** 
 1215              		.loc 1 558 27 view .LVU356
 1216 0016 43EA0243 		orr	r3, r3, r2, lsl #16
 1217 001a C0F81C38 		str	r3, [r0, #2076]
 560:Drivers/STM32H7xx_HAL_Driver/Src/stm32h7xx_ll_usb.c ****     {
 1218              		.loc 1 560 5 is_stmt 1 view .LVU357
 560:Drivers/STM32H7xx_HAL_Driver/Src/stm32h7xx_ll_usb.c ****     {
 1219              		.loc 1 560 11 is_stmt 0 view .LVU358
 1220 001e 00EB4410 		add	r0, r0, r4, lsl #5
 1221              	.LVL100:
 560:Drivers/STM32H7xx_HAL_Driver/Src/stm32h7xx_ll_usb.c ****     {
ARM GAS  /tmp/cc0TWTOC.s 			page 51


 1222              		.loc 1 560 28 view .LVU359
 1223 0022 D0F8003B 		ldr	r3, [r0, #2816]
 560:Drivers/STM32H7xx_HAL_Driver/Src/stm32h7xx_ll_usb.c ****     {
 1224              		.loc 1 560 8 view .LVU360
 1225 0026 13F4004F 		tst	r3, #32768
 1226 002a 0CD1     		bne	.L98
 562:Drivers/STM32H7xx_HAL_Driver/Src/stm32h7xx_ll_usb.c ****                                     ((uint32_t)ep->type << 18) |
 1227              		.loc 1 562 7 is_stmt 1 view .LVU361
 562:Drivers/STM32H7xx_HAL_Driver/Src/stm32h7xx_ll_usb.c ****                                     ((uint32_t)ep->type << 18) |
 1228              		.loc 1 562 34 is_stmt 0 view .LVU362
 1229 002c D0F8002B 		ldr	r2, [r0, #2816]
 562:Drivers/STM32H7xx_HAL_Driver/Src/stm32h7xx_ll_usb.c ****                                     ((uint32_t)ep->type << 18) |
 1230              		.loc 1 562 40 view .LVU363
 1231 0030 8B68     		ldr	r3, [r1, #8]
 562:Drivers/STM32H7xx_HAL_Driver/Src/stm32h7xx_ll_usb.c ****                                     ((uint32_t)ep->type << 18) |
 1232              		.loc 1 562 52 view .LVU364
 1233 0032 C3F30A03 		ubfx	r3, r3, #0, #11
 563:Drivers/STM32H7xx_HAL_Driver/Src/stm32h7xx_ll_usb.c ****                                     USB_OTG_DIEPCTL_SD0PID_SEVNFRM |
 1234              		.loc 1 563 50 view .LVU365
 1235 0036 C978     		ldrb	r1, [r1, #3]	@ zero_extendqisi2
 1236              	.LVL101:
 562:Drivers/STM32H7xx_HAL_Driver/Src/stm32h7xx_ll_usb.c ****                                     ((uint32_t)ep->type << 18) |
 1237              		.loc 1 562 77 view .LVU366
 1238 0038 43EA8143 		orr	r3, r3, r1, lsl #18
 562:Drivers/STM32H7xx_HAL_Driver/Src/stm32h7xx_ll_usb.c ****                                     ((uint32_t)ep->type << 18) |
 1239              		.loc 1 562 34 view .LVU367
 1240 003c 1343     		orrs	r3, r3, r2
 1241 003e 134A     		ldr	r2, .L101
 1242 0040 1A43     		orrs	r2, r2, r3
 1243 0042 C0F8002B 		str	r2, [r0, #2816]
 1244              	.LVL102:
 1245              	.L98:
 568:Drivers/STM32H7xx_HAL_Driver/Src/stm32h7xx_ll_usb.c **** }
 1246              		.loc 1 568 3 is_stmt 1 view .LVU368
 569:Drivers/STM32H7xx_HAL_Driver/Src/stm32h7xx_ll_usb.c **** 
 1247              		.loc 1 569 1 is_stmt 0 view .LVU369
 1248 0046 0020     		movs	r0, #0
 1249 0048 70BC     		pop	{r4, r5, r6}
 1250              	.LCFI12:
 1251              		.cfi_remember_state
 1252              		.cfi_restore 6
 1253              		.cfi_restore 5
 1254              		.cfi_restore 4
 1255              		.cfi_def_cfa_offset 0
 1256 004a 7047     		bx	lr
 1257              	.LVL103:
 1258              	.L100:
 1259              	.LCFI13:
 1260              		.cfi_restore_state
 546:Drivers/STM32H7xx_HAL_Driver/Src/stm32h7xx_ll_usb.c **** 
 1261              		.loc 1 546 5 is_stmt 1 view .LVU370
 546:Drivers/STM32H7xx_HAL_Driver/Src/stm32h7xx_ll_usb.c **** 
 1262              		.loc 1 546 27 is_stmt 0 view .LVU371
 1263 004c D0F81C28 		ldr	r2, [r0, #2076]
 546:Drivers/STM32H7xx_HAL_Driver/Src/stm32h7xx_ll_usb.c **** 
 1264              		.loc 1 546 81 view .LVU372
 1265 0050 04F00F06 		and	r6, r4, #15
ARM GAS  /tmp/cc0TWTOC.s 			page 52


 546:Drivers/STM32H7xx_HAL_Driver/Src/stm32h7xx_ll_usb.c **** 
 1266              		.loc 1 546 54 view .LVU373
 1267 0054 B340     		lsls	r3, r3, r6
 546:Drivers/STM32H7xx_HAL_Driver/Src/stm32h7xx_ll_usb.c **** 
 1268              		.loc 1 546 52 view .LVU374
 1269 0056 9BB2     		uxth	r3, r3
 546:Drivers/STM32H7xx_HAL_Driver/Src/stm32h7xx_ll_usb.c **** 
 1270              		.loc 1 546 27 view .LVU375
 1271 0058 1343     		orrs	r3, r3, r2
 1272 005a C0F81C38 		str	r3, [r0, #2076]
 548:Drivers/STM32H7xx_HAL_Driver/Src/stm32h7xx_ll_usb.c ****     {
 1273              		.loc 1 548 5 is_stmt 1 view .LVU376
 548:Drivers/STM32H7xx_HAL_Driver/Src/stm32h7xx_ll_usb.c ****     {
 1274              		.loc 1 548 10 is_stmt 0 view .LVU377
 1275 005e 00EB4410 		add	r0, r0, r4, lsl #5
 1276              	.LVL104:
 548:Drivers/STM32H7xx_HAL_Driver/Src/stm32h7xx_ll_usb.c ****     {
 1277              		.loc 1 548 26 view .LVU378
 1278 0062 D0F80039 		ldr	r3, [r0, #2304]
 548:Drivers/STM32H7xx_HAL_Driver/Src/stm32h7xx_ll_usb.c ****     {
 1279              		.loc 1 548 8 view .LVU379
 1280 0066 13F4004F 		tst	r3, #32768
 1281 006a ECD1     		bne	.L98
 550:Drivers/STM32H7xx_HAL_Driver/Src/stm32h7xx_ll_usb.c ****                                    ((uint32_t)ep->type << 18) | (epnum << 22) |
 1282              		.loc 1 550 7 is_stmt 1 view .LVU380
 550:Drivers/STM32H7xx_HAL_Driver/Src/stm32h7xx_ll_usb.c ****                                    ((uint32_t)ep->type << 18) | (epnum << 22) |
 1283              		.loc 1 550 33 is_stmt 0 view .LVU381
 1284 006c D0F80029 		ldr	r2, [r0, #2304]
 550:Drivers/STM32H7xx_HAL_Driver/Src/stm32h7xx_ll_usb.c ****                                    ((uint32_t)ep->type << 18) | (epnum << 22) |
 1285              		.loc 1 550 39 view .LVU382
 1286 0070 8B68     		ldr	r3, [r1, #8]
 550:Drivers/STM32H7xx_HAL_Driver/Src/stm32h7xx_ll_usb.c ****                                    ((uint32_t)ep->type << 18) | (epnum << 22) |
 1287              		.loc 1 550 51 view .LVU383
 1288 0072 C3F30A03 		ubfx	r3, r3, #0, #11
 551:Drivers/STM32H7xx_HAL_Driver/Src/stm32h7xx_ll_usb.c ****                                    USB_OTG_DIEPCTL_SD0PID_SEVNFRM |
 1289              		.loc 1 551 49 view .LVU384
 1290 0076 C978     		ldrb	r1, [r1, #3]	@ zero_extendqisi2
 1291              	.LVL105:
 550:Drivers/STM32H7xx_HAL_Driver/Src/stm32h7xx_ll_usb.c ****                                    ((uint32_t)ep->type << 18) | (epnum << 22) |
 1292              		.loc 1 550 76 view .LVU385
 1293 0078 43EA8143 		orr	r3, r3, r1, lsl #18
 551:Drivers/STM32H7xx_HAL_Driver/Src/stm32h7xx_ll_usb.c ****                                    USB_OTG_DIEPCTL_SD0PID_SEVNFRM |
 1294              		.loc 1 551 63 view .LVU386
 1295 007c 43EA8454 		orr	r4, r3, r4, lsl #22
 1296              	.LVL106:
 550:Drivers/STM32H7xx_HAL_Driver/Src/stm32h7xx_ll_usb.c ****                                    ((uint32_t)ep->type << 18) | (epnum << 22) |
 1297              		.loc 1 550 33 view .LVU387
 1298 0080 1443     		orrs	r4, r4, r2
 1299 0082 024B     		ldr	r3, .L101
 1300 0084 2343     		orrs	r3, r3, r4
 1301 0086 C0F80039 		str	r3, [r0, #2304]
 1302 008a DCE7     		b	.L98
 1303              	.L102:
 1304              		.align	2
 1305              	.L101:
 1306 008c 00800010 		.word	268468224
 1307              		.cfi_endproc
ARM GAS  /tmp/cc0TWTOC.s 			page 53


 1308              	.LFE151:
 1310              		.section	.text.USB_ActivateDedicatedEndpoint,"ax",%progbits
 1311              		.align	1
 1312              		.global	USB_ActivateDedicatedEndpoint
 1313              		.syntax unified
 1314              		.thumb
 1315              		.thumb_func
 1316              		.fpu fpv5-d16
 1318              	USB_ActivateDedicatedEndpoint:
 1319              	.LVL107:
 1320              	.LFB152:
 578:Drivers/STM32H7xx_HAL_Driver/Src/stm32h7xx_ll_usb.c ****   uint32_t USBx_BASE = (uint32_t)USBx;
 1321              		.loc 1 578 1 is_stmt 1 view -0
 1322              		.cfi_startproc
 1323              		@ args = 0, pretend = 0, frame = 0
 1324              		@ frame_needed = 0, uses_anonymous_args = 0
 1325              		@ link register save eliminated.
 578:Drivers/STM32H7xx_HAL_Driver/Src/stm32h7xx_ll_usb.c ****   uint32_t USBx_BASE = (uint32_t)USBx;
 1326              		.loc 1 578 1 is_stmt 0 view .LVU389
 1327 0000 70B4     		push	{r4, r5, r6}
 1328              	.LCFI14:
 1329              		.cfi_def_cfa_offset 12
 1330              		.cfi_offset 4, -12
 1331              		.cfi_offset 5, -8
 1332              		.cfi_offset 6, -4
 579:Drivers/STM32H7xx_HAL_Driver/Src/stm32h7xx_ll_usb.c ****   uint32_t epnum = (uint32_t)ep->num;
 1333              		.loc 1 579 3 is_stmt 1 view .LVU390
 1334              	.LVL108:
 580:Drivers/STM32H7xx_HAL_Driver/Src/stm32h7xx_ll_usb.c **** 
 1335              		.loc 1 580 3 view .LVU391
 580:Drivers/STM32H7xx_HAL_Driver/Src/stm32h7xx_ll_usb.c **** 
 1336              		.loc 1 580 32 is_stmt 0 view .LVU392
 1337 0002 0A78     		ldrb	r2, [r1]	@ zero_extendqisi2
 1338              	.LVL109:
 583:Drivers/STM32H7xx_HAL_Driver/Src/stm32h7xx_ll_usb.c ****   {
 1339              		.loc 1 583 3 is_stmt 1 view .LVU393
 583:Drivers/STM32H7xx_HAL_Driver/Src/stm32h7xx_ll_usb.c ****   {
 1340              		.loc 1 583 9 is_stmt 0 view .LVU394
 1341 0004 4B78     		ldrb	r3, [r1, #1]	@ zero_extendqisi2
 583:Drivers/STM32H7xx_HAL_Driver/Src/stm32h7xx_ll_usb.c ****   {
 1342              		.loc 1 583 6 view .LVU395
 1343 0006 012B     		cmp	r3, #1
 1344 0008 23D0     		beq	.L109
 597:Drivers/STM32H7xx_HAL_Driver/Src/stm32h7xx_ll_usb.c ****     {
 1345              		.loc 1 597 5 is_stmt 1 view .LVU396
 597:Drivers/STM32H7xx_HAL_Driver/Src/stm32h7xx_ll_usb.c ****     {
 1346              		.loc 1 597 11 is_stmt 0 view .LVU397
 1347 000a 00EB4214 		add	r4, r0, r2, lsl #5
 597:Drivers/STM32H7xx_HAL_Driver/Src/stm32h7xx_ll_usb.c ****     {
 1348              		.loc 1 597 28 view .LVU398
 1349 000e D4F8003B 		ldr	r3, [r4, #2816]
 597:Drivers/STM32H7xx_HAL_Driver/Src/stm32h7xx_ll_usb.c ****     {
 1350              		.loc 1 597 8 view .LVU399
 1351 0012 13F4004F 		tst	r3, #32768
 1352 0016 0ED1     		bne	.L107
 599:Drivers/STM32H7xx_HAL_Driver/Src/stm32h7xx_ll_usb.c ****                                     ((uint32_t)ep->type << 18) | (epnum << 22) |
 1353              		.loc 1 599 7 is_stmt 1 view .LVU400
ARM GAS  /tmp/cc0TWTOC.s 			page 54


 599:Drivers/STM32H7xx_HAL_Driver/Src/stm32h7xx_ll_usb.c ****                                     ((uint32_t)ep->type << 18) | (epnum << 22) |
 1354              		.loc 1 599 34 is_stmt 0 view .LVU401
 1355 0018 D4F8005B 		ldr	r5, [r4, #2816]
 599:Drivers/STM32H7xx_HAL_Driver/Src/stm32h7xx_ll_usb.c ****                                     ((uint32_t)ep->type << 18) | (epnum << 22) |
 1356              		.loc 1 599 40 view .LVU402
 1357 001c 8B68     		ldr	r3, [r1, #8]
 599:Drivers/STM32H7xx_HAL_Driver/Src/stm32h7xx_ll_usb.c ****                                     ((uint32_t)ep->type << 18) | (epnum << 22) |
 1358              		.loc 1 599 52 view .LVU403
 1359 001e C3F30A03 		ubfx	r3, r3, #0, #11
 600:Drivers/STM32H7xx_HAL_Driver/Src/stm32h7xx_ll_usb.c ****                                     USB_OTG_DOEPCTL_USBAEP;
 1360              		.loc 1 600 50 view .LVU404
 1361 0022 CE78     		ldrb	r6, [r1, #3]	@ zero_extendqisi2
 599:Drivers/STM32H7xx_HAL_Driver/Src/stm32h7xx_ll_usb.c ****                                     ((uint32_t)ep->type << 18) | (epnum << 22) |
 1362              		.loc 1 599 77 view .LVU405
 1363 0024 43EA8643 		orr	r3, r3, r6, lsl #18
 600:Drivers/STM32H7xx_HAL_Driver/Src/stm32h7xx_ll_usb.c ****                                     USB_OTG_DOEPCTL_USBAEP;
 1364              		.loc 1 600 64 view .LVU406
 1365 0028 43EA8253 		orr	r3, r3, r2, lsl #22
 599:Drivers/STM32H7xx_HAL_Driver/Src/stm32h7xx_ll_usb.c ****                                     ((uint32_t)ep->type << 18) | (epnum << 22) |
 1366              		.loc 1 599 34 view .LVU407
 1367 002c 2B43     		orrs	r3, r3, r5
 1368 002e 43F40043 		orr	r3, r3, #32768
 1369 0032 C4F8003B 		str	r3, [r4, #2816]
 1370              	.L107:
 604:Drivers/STM32H7xx_HAL_Driver/Src/stm32h7xx_ll_usb.c ****   }
 1371              		.loc 1 604 5 is_stmt 1 view .LVU408
 604:Drivers/STM32H7xx_HAL_Driver/Src/stm32h7xx_ll_usb.c ****   }
 1372              		.loc 1 604 27 is_stmt 0 view .LVU409
 1373 0036 D0F83C38 		ldr	r3, [r0, #2108]
 604:Drivers/STM32H7xx_HAL_Driver/Src/stm32h7xx_ll_usb.c ****   }
 1374              		.loc 1 604 76 view .LVU410
 1375 003a 0A78     		ldrb	r2, [r1]	@ zero_extendqisi2
 1376              	.LVL110:
 604:Drivers/STM32H7xx_HAL_Driver/Src/stm32h7xx_ll_usb.c ****   }
 1377              		.loc 1 604 82 view .LVU411
 1378 003c 02F00F01 		and	r1, r2, #15
 1379              	.LVL111:
 604:Drivers/STM32H7xx_HAL_Driver/Src/stm32h7xx_ll_usb.c ****   }
 1380              		.loc 1 604 55 view .LVU412
 1381 0040 0122     		movs	r2, #1
 1382 0042 8A40     		lsls	r2, r2, r1
 604:Drivers/STM32H7xx_HAL_Driver/Src/stm32h7xx_ll_usb.c ****   }
 1383              		.loc 1 604 27 view .LVU413
 1384 0044 43EA0243 		orr	r3, r3, r2, lsl #16
 1385 0048 C0F83C38 		str	r3, [r0, #2108]
 1386              	.L106:
 607:Drivers/STM32H7xx_HAL_Driver/Src/stm32h7xx_ll_usb.c **** }
 1387              		.loc 1 607 3 is_stmt 1 view .LVU414
 608:Drivers/STM32H7xx_HAL_Driver/Src/stm32h7xx_ll_usb.c **** 
 1388              		.loc 1 608 1 is_stmt 0 view .LVU415
 1389 004c 0020     		movs	r0, #0
 1390              	.LVL112:
 608:Drivers/STM32H7xx_HAL_Driver/Src/stm32h7xx_ll_usb.c **** 
 1391              		.loc 1 608 1 view .LVU416
 1392 004e 70BC     		pop	{r4, r5, r6}
 1393              	.LCFI15:
 1394              		.cfi_remember_state
ARM GAS  /tmp/cc0TWTOC.s 			page 55


 1395              		.cfi_restore 6
 1396              		.cfi_restore 5
 1397              		.cfi_restore 4
 1398              		.cfi_def_cfa_offset 0
 1399 0050 7047     		bx	lr
 1400              	.LVL113:
 1401              	.L109:
 1402              	.LCFI16:
 1403              		.cfi_restore_state
 585:Drivers/STM32H7xx_HAL_Driver/Src/stm32h7xx_ll_usb.c ****     {
 1404              		.loc 1 585 5 is_stmt 1 view .LVU417
 585:Drivers/STM32H7xx_HAL_Driver/Src/stm32h7xx_ll_usb.c ****     {
 1405              		.loc 1 585 11 is_stmt 0 view .LVU418
 1406 0052 00EB4215 		add	r5, r0, r2, lsl #5
 585:Drivers/STM32H7xx_HAL_Driver/Src/stm32h7xx_ll_usb.c ****     {
 1407              		.loc 1 585 27 view .LVU419
 1408 0056 D5F80039 		ldr	r3, [r5, #2304]
 585:Drivers/STM32H7xx_HAL_Driver/Src/stm32h7xx_ll_usb.c ****     {
 1409              		.loc 1 585 8 view .LVU420
 1410 005a 13F4004F 		tst	r3, #32768
 1411 005e 0ED1     		bne	.L105
 587:Drivers/STM32H7xx_HAL_Driver/Src/stm32h7xx_ll_usb.c ****                                    ((uint32_t)ep->type << 18) | (epnum << 22) |
 1412              		.loc 1 587 7 is_stmt 1 view .LVU421
 587:Drivers/STM32H7xx_HAL_Driver/Src/stm32h7xx_ll_usb.c ****                                    ((uint32_t)ep->type << 18) | (epnum << 22) |
 1413              		.loc 1 587 33 is_stmt 0 view .LVU422
 1414 0060 D5F80069 		ldr	r6, [r5, #2304]
 587:Drivers/STM32H7xx_HAL_Driver/Src/stm32h7xx_ll_usb.c ****                                    ((uint32_t)ep->type << 18) | (epnum << 22) |
 1415              		.loc 1 587 39 view .LVU423
 1416 0064 8C68     		ldr	r4, [r1, #8]
 587:Drivers/STM32H7xx_HAL_Driver/Src/stm32h7xx_ll_usb.c ****                                    ((uint32_t)ep->type << 18) | (epnum << 22) |
 1417              		.loc 1 587 51 view .LVU424
 1418 0066 C4F30A03 		ubfx	r3, r4, #0, #11
 588:Drivers/STM32H7xx_HAL_Driver/Src/stm32h7xx_ll_usb.c ****                                    USB_OTG_DIEPCTL_SD0PID_SEVNFRM |
 1419              		.loc 1 588 49 view .LVU425
 1420 006a CC78     		ldrb	r4, [r1, #3]	@ zero_extendqisi2
 587:Drivers/STM32H7xx_HAL_Driver/Src/stm32h7xx_ll_usb.c ****                                    ((uint32_t)ep->type << 18) | (epnum << 22) |
 1421              		.loc 1 587 76 view .LVU426
 1422 006c 43EA8443 		orr	r3, r3, r4, lsl #18
 588:Drivers/STM32H7xx_HAL_Driver/Src/stm32h7xx_ll_usb.c ****                                    USB_OTG_DIEPCTL_SD0PID_SEVNFRM |
 1423              		.loc 1 588 63 view .LVU427
 1424 0070 43EA8253 		orr	r3, r3, r2, lsl #22
 587:Drivers/STM32H7xx_HAL_Driver/Src/stm32h7xx_ll_usb.c ****                                    ((uint32_t)ep->type << 18) | (epnum << 22) |
 1425              		.loc 1 587 33 view .LVU428
 1426 0074 3343     		orrs	r3, r3, r6
 1427 0076 084C     		ldr	r4, .L110
 1428 0078 1C43     		orrs	r4, r4, r3
 1429 007a C5F80049 		str	r4, [r5, #2304]
 1430              	.L105:
 593:Drivers/STM32H7xx_HAL_Driver/Src/stm32h7xx_ll_usb.c ****   }
 1431              		.loc 1 593 5 is_stmt 1 view .LVU429
 593:Drivers/STM32H7xx_HAL_Driver/Src/stm32h7xx_ll_usb.c ****   }
 1432              		.loc 1 593 27 is_stmt 0 view .LVU430
 1433 007e D0F83C28 		ldr	r2, [r0, #2108]
 1434              	.LVL114:
 593:Drivers/STM32H7xx_HAL_Driver/Src/stm32h7xx_ll_usb.c ****   }
 1435              		.loc 1 593 75 view .LVU431
 1436 0082 0B78     		ldrb	r3, [r1]	@ zero_extendqisi2
ARM GAS  /tmp/cc0TWTOC.s 			page 56


 593:Drivers/STM32H7xx_HAL_Driver/Src/stm32h7xx_ll_usb.c ****   }
 1437              		.loc 1 593 81 view .LVU432
 1438 0084 03F00F01 		and	r1, r3, #15
 1439              	.LVL115:
 593:Drivers/STM32H7xx_HAL_Driver/Src/stm32h7xx_ll_usb.c ****   }
 1440              		.loc 1 593 54 view .LVU433
 1441 0088 0123     		movs	r3, #1
 1442 008a 8B40     		lsls	r3, r3, r1
 593:Drivers/STM32H7xx_HAL_Driver/Src/stm32h7xx_ll_usb.c ****   }
 1443              		.loc 1 593 52 view .LVU434
 1444 008c 9BB2     		uxth	r3, r3
 593:Drivers/STM32H7xx_HAL_Driver/Src/stm32h7xx_ll_usb.c ****   }
 1445              		.loc 1 593 27 view .LVU435
 1446 008e 1343     		orrs	r3, r3, r2
 1447 0090 C0F83C38 		str	r3, [r0, #2108]
 1448 0094 DAE7     		b	.L106
 1449              	.L111:
 1450 0096 00BF     		.align	2
 1451              	.L110:
 1452 0098 00800010 		.word	268468224
 1453              		.cfi_endproc
 1454              	.LFE152:
 1456              		.section	.text.USB_DeactivateEndpoint,"ax",%progbits
 1457              		.align	1
 1458              		.global	USB_DeactivateEndpoint
 1459              		.syntax unified
 1460              		.thumb
 1461              		.thumb_func
 1462              		.fpu fpv5-d16
 1464              	USB_DeactivateEndpoint:
 1465              	.LVL116:
 1466              	.LFB153:
 617:Drivers/STM32H7xx_HAL_Driver/Src/stm32h7xx_ll_usb.c ****   uint32_t USBx_BASE = (uint32_t)USBx;
 1467              		.loc 1 617 1 is_stmt 1 view -0
 1468              		.cfi_startproc
 1469              		@ args = 0, pretend = 0, frame = 0
 1470              		@ frame_needed = 0, uses_anonymous_args = 0
 1471              		@ link register save eliminated.
 617:Drivers/STM32H7xx_HAL_Driver/Src/stm32h7xx_ll_usb.c ****   uint32_t USBx_BASE = (uint32_t)USBx;
 1472              		.loc 1 617 1 is_stmt 0 view .LVU437
 1473 0000 70B4     		push	{r4, r5, r6}
 1474              	.LCFI17:
 1475              		.cfi_def_cfa_offset 12
 1476              		.cfi_offset 4, -12
 1477              		.cfi_offset 5, -8
 1478              		.cfi_offset 6, -4
 618:Drivers/STM32H7xx_HAL_Driver/Src/stm32h7xx_ll_usb.c ****   uint32_t epnum = (uint32_t)ep->num;
 1479              		.loc 1 618 3 is_stmt 1 view .LVU438
 1480              	.LVL117:
 619:Drivers/STM32H7xx_HAL_Driver/Src/stm32h7xx_ll_usb.c **** 
 1481              		.loc 1 619 3 view .LVU439
 619:Drivers/STM32H7xx_HAL_Driver/Src/stm32h7xx_ll_usb.c **** 
 1482              		.loc 1 619 32 is_stmt 0 view .LVU440
 1483 0002 0B78     		ldrb	r3, [r1]	@ zero_extendqisi2
 1484              	.LVL118:
 622:Drivers/STM32H7xx_HAL_Driver/Src/stm32h7xx_ll_usb.c ****   {
 1485              		.loc 1 622 3 is_stmt 1 view .LVU441
ARM GAS  /tmp/cc0TWTOC.s 			page 57


 622:Drivers/STM32H7xx_HAL_Driver/Src/stm32h7xx_ll_usb.c ****   {
 1486              		.loc 1 622 9 is_stmt 0 view .LVU442
 1487 0004 4A78     		ldrb	r2, [r1, #1]	@ zero_extendqisi2
 622:Drivers/STM32H7xx_HAL_Driver/Src/stm32h7xx_ll_usb.c ****   {
 1488              		.loc 1 622 6 view .LVU443
 1489 0006 012A     		cmp	r2, #1
 1490 0008 1FD0     		beq	.L116
 634:Drivers/STM32H7xx_HAL_Driver/Src/stm32h7xx_ll_usb.c ****     USBx_DEVICE->DAINTMSK &= ~(USB_OTG_DAINTMSK_OEPM & ((uint32_t)(1UL << (ep->num & EP_ADDR_MSK)) 
 1491              		.loc 1 634 5 is_stmt 1 view .LVU444
 634:Drivers/STM32H7xx_HAL_Driver/Src/stm32h7xx_ll_usb.c ****     USBx_DEVICE->DAINTMSK &= ~(USB_OTG_DAINTMSK_OEPM & ((uint32_t)(1UL << (ep->num & EP_ADDR_MSK)) 
 1492              		.loc 1 634 27 is_stmt 0 view .LVU445
 1493 000a D0F83C58 		ldr	r5, [r0, #2108]
 634:Drivers/STM32H7xx_HAL_Driver/Src/stm32h7xx_ll_usb.c ****     USBx_DEVICE->DAINTMSK &= ~(USB_OTG_DAINTMSK_OEPM & ((uint32_t)(1UL << (ep->num & EP_ADDR_MSK)) 
 1494              		.loc 1 634 84 view .LVU446
 1495 000e 03F00F06 		and	r6, r3, #15
 634:Drivers/STM32H7xx_HAL_Driver/Src/stm32h7xx_ll_usb.c ****     USBx_DEVICE->DAINTMSK &= ~(USB_OTG_DAINTMSK_OEPM & ((uint32_t)(1UL << (ep->num & EP_ADDR_MSK)) 
 1496              		.loc 1 634 57 view .LVU447
 1497 0012 0124     		movs	r4, #1
 1498 0014 04FA06F6 		lsl	r6, r4, r6
 634:Drivers/STM32H7xx_HAL_Driver/Src/stm32h7xx_ll_usb.c ****     USBx_DEVICE->DAINTMSK &= ~(USB_OTG_DAINTMSK_OEPM & ((uint32_t)(1UL << (ep->num & EP_ADDR_MSK)) 
 1499              		.loc 1 634 27 view .LVU448
 1500 0018 25EA0645 		bic	r5, r5, r6, lsl #16
 1501 001c C0F83C58 		str	r5, [r0, #2108]
 635:Drivers/STM32H7xx_HAL_Driver/Src/stm32h7xx_ll_usb.c ****     USBx_OUTEP(epnum)->DOEPCTL &= ~(USB_OTG_DOEPCTL_USBAEP |
 1502              		.loc 1 635 5 is_stmt 1 view .LVU449
 635:Drivers/STM32H7xx_HAL_Driver/Src/stm32h7xx_ll_usb.c ****     USBx_OUTEP(epnum)->DOEPCTL &= ~(USB_OTG_DOEPCTL_USBAEP |
 1503              		.loc 1 635 27 is_stmt 0 view .LVU450
 1504 0020 D0F81C58 		ldr	r5, [r0, #2076]
 635:Drivers/STM32H7xx_HAL_Driver/Src/stm32h7xx_ll_usb.c ****     USBx_OUTEP(epnum)->DOEPCTL &= ~(USB_OTG_DOEPCTL_USBAEP |
 1505              		.loc 1 635 78 view .LVU451
 1506 0024 0978     		ldrb	r1, [r1]	@ zero_extendqisi2
 1507              	.LVL119:
 635:Drivers/STM32H7xx_HAL_Driver/Src/stm32h7xx_ll_usb.c ****     USBx_OUTEP(epnum)->DOEPCTL &= ~(USB_OTG_DOEPCTL_USBAEP |
 1508              		.loc 1 635 84 view .LVU452
 1509 0026 01F00F01 		and	r1, r1, #15
 635:Drivers/STM32H7xx_HAL_Driver/Src/stm32h7xx_ll_usb.c ****     USBx_OUTEP(epnum)->DOEPCTL &= ~(USB_OTG_DOEPCTL_USBAEP |
 1510              		.loc 1 635 57 view .LVU453
 1511 002a 8C40     		lsls	r4, r4, r1
 635:Drivers/STM32H7xx_HAL_Driver/Src/stm32h7xx_ll_usb.c ****     USBx_OUTEP(epnum)->DOEPCTL &= ~(USB_OTG_DOEPCTL_USBAEP |
 1512              		.loc 1 635 27 view .LVU454
 1513 002c 25EA0444 		bic	r4, r5, r4, lsl #16
 1514 0030 C0F81C48 		str	r4, [r0, #2076]
 636:Drivers/STM32H7xx_HAL_Driver/Src/stm32h7xx_ll_usb.c ****                                     USB_OTG_DOEPCTL_MPSIZ |
 1515              		.loc 1 636 5 is_stmt 1 view .LVU455
 636:Drivers/STM32H7xx_HAL_Driver/Src/stm32h7xx_ll_usb.c ****                                     USB_OTG_DOEPCTL_MPSIZ |
 1516              		.loc 1 636 32 is_stmt 0 view .LVU456
 1517 0034 00EB4310 		add	r0, r0, r3, lsl #5
 1518              	.LVL120:
 636:Drivers/STM32H7xx_HAL_Driver/Src/stm32h7xx_ll_usb.c ****                                     USB_OTG_DOEPCTL_MPSIZ |
 1519              		.loc 1 636 32 view .LVU457
 1520 0038 D0F8002B 		ldr	r2, [r0, #2816]
 1521 003c 124B     		ldr	r3, .L117
 1522              	.LVL121:
 636:Drivers/STM32H7xx_HAL_Driver/Src/stm32h7xx_ll_usb.c ****                                     USB_OTG_DOEPCTL_MPSIZ |
 1523              		.loc 1 636 32 view .LVU458
 1524 003e 1340     		ands	r3, r3, r2
 1525 0040 C0F8003B 		str	r3, [r0, #2816]
ARM GAS  /tmp/cc0TWTOC.s 			page 58


 1526              	.L114:
 642:Drivers/STM32H7xx_HAL_Driver/Src/stm32h7xx_ll_usb.c **** }
 1527              		.loc 1 642 3 is_stmt 1 view .LVU459
 643:Drivers/STM32H7xx_HAL_Driver/Src/stm32h7xx_ll_usb.c **** 
 1528              		.loc 1 643 1 is_stmt 0 view .LVU460
 1529 0044 0020     		movs	r0, #0
 1530 0046 70BC     		pop	{r4, r5, r6}
 1531              	.LCFI18:
 1532              		.cfi_remember_state
 1533              		.cfi_restore 6
 1534              		.cfi_restore 5
 1535              		.cfi_restore 4
 1536              		.cfi_def_cfa_offset 0
 1537 0048 7047     		bx	lr
 1538              	.LVL122:
 1539              	.L116:
 1540              	.LCFI19:
 1541              		.cfi_restore_state
 624:Drivers/STM32H7xx_HAL_Driver/Src/stm32h7xx_ll_usb.c ****     USBx_DEVICE->DAINTMSK &= ~(USB_OTG_DAINTMSK_IEPM & (uint32_t)(1UL << (ep->num & EP_ADDR_MSK)));
 1542              		.loc 1 624 5 is_stmt 1 view .LVU461
 624:Drivers/STM32H7xx_HAL_Driver/Src/stm32h7xx_ll_usb.c ****     USBx_DEVICE->DAINTMSK &= ~(USB_OTG_DAINTMSK_IEPM & (uint32_t)(1UL << (ep->num & EP_ADDR_MSK)));
 1543              		.loc 1 624 27 is_stmt 0 view .LVU462
 1544 004a D0F83C68 		ldr	r6, [r0, #2108]
 624:Drivers/STM32H7xx_HAL_Driver/Src/stm32h7xx_ll_usb.c ****     USBx_DEVICE->DAINTMSK &= ~(USB_OTG_DAINTMSK_IEPM & (uint32_t)(1UL << (ep->num & EP_ADDR_MSK)));
 1545              		.loc 1 624 83 view .LVU463
 1546 004e 03F00F04 		and	r4, r3, #15
 624:Drivers/STM32H7xx_HAL_Driver/Src/stm32h7xx_ll_usb.c ****     USBx_DEVICE->DAINTMSK &= ~(USB_OTG_DAINTMSK_IEPM & (uint32_t)(1UL << (ep->num & EP_ADDR_MSK)));
 1547              		.loc 1 624 56 view .LVU464
 1548 0052 02FA04F4 		lsl	r4, r2, r4
 624:Drivers/STM32H7xx_HAL_Driver/Src/stm32h7xx_ll_usb.c ****     USBx_DEVICE->DAINTMSK &= ~(USB_OTG_DAINTMSK_IEPM & (uint32_t)(1UL << (ep->num & EP_ADDR_MSK)));
 1549              		.loc 1 624 54 view .LVU465
 1550 0056 A4B2     		uxth	r4, r4
 624:Drivers/STM32H7xx_HAL_Driver/Src/stm32h7xx_ll_usb.c ****     USBx_DEVICE->DAINTMSK &= ~(USB_OTG_DAINTMSK_IEPM & (uint32_t)(1UL << (ep->num & EP_ADDR_MSK)));
 1551              		.loc 1 624 27 view .LVU466
 1552 0058 26EA0404 		bic	r4, r6, r4
 1553 005c C0F83C48 		str	r4, [r0, #2108]
 625:Drivers/STM32H7xx_HAL_Driver/Src/stm32h7xx_ll_usb.c ****     USBx_INEP(epnum)->DIEPCTL &= ~(USB_OTG_DIEPCTL_USBAEP |
 1554              		.loc 1 625 5 is_stmt 1 view .LVU467
 625:Drivers/STM32H7xx_HAL_Driver/Src/stm32h7xx_ll_usb.c ****     USBx_INEP(epnum)->DIEPCTL &= ~(USB_OTG_DIEPCTL_USBAEP |
 1555              		.loc 1 625 27 is_stmt 0 view .LVU468
 1556 0060 D0F81C48 		ldr	r4, [r0, #2076]
 625:Drivers/STM32H7xx_HAL_Driver/Src/stm32h7xx_ll_usb.c ****     USBx_INEP(epnum)->DIEPCTL &= ~(USB_OTG_DIEPCTL_USBAEP |
 1557              		.loc 1 625 77 view .LVU469
 1558 0064 0978     		ldrb	r1, [r1]	@ zero_extendqisi2
 1559              	.LVL123:
 625:Drivers/STM32H7xx_HAL_Driver/Src/stm32h7xx_ll_usb.c ****     USBx_INEP(epnum)->DIEPCTL &= ~(USB_OTG_DIEPCTL_USBAEP |
 1560              		.loc 1 625 83 view .LVU470
 1561 0066 01F00F01 		and	r1, r1, #15
 625:Drivers/STM32H7xx_HAL_Driver/Src/stm32h7xx_ll_usb.c ****     USBx_INEP(epnum)->DIEPCTL &= ~(USB_OTG_DIEPCTL_USBAEP |
 1562              		.loc 1 625 56 view .LVU471
 1563 006a 8A40     		lsls	r2, r2, r1
 625:Drivers/STM32H7xx_HAL_Driver/Src/stm32h7xx_ll_usb.c ****     USBx_INEP(epnum)->DIEPCTL &= ~(USB_OTG_DIEPCTL_USBAEP |
 1564              		.loc 1 625 54 view .LVU472
 1565 006c 92B2     		uxth	r2, r2
 625:Drivers/STM32H7xx_HAL_Driver/Src/stm32h7xx_ll_usb.c ****     USBx_INEP(epnum)->DIEPCTL &= ~(USB_OTG_DIEPCTL_USBAEP |
 1566              		.loc 1 625 27 view .LVU473
 1567 006e 24EA0202 		bic	r2, r4, r2
ARM GAS  /tmp/cc0TWTOC.s 			page 59


 1568 0072 C0F81C28 		str	r2, [r0, #2076]
 626:Drivers/STM32H7xx_HAL_Driver/Src/stm32h7xx_ll_usb.c ****                                    USB_OTG_DIEPCTL_MPSIZ |
 1569              		.loc 1 626 5 is_stmt 1 view .LVU474
 626:Drivers/STM32H7xx_HAL_Driver/Src/stm32h7xx_ll_usb.c ****                                    USB_OTG_DIEPCTL_MPSIZ |
 1570              		.loc 1 626 31 is_stmt 0 view .LVU475
 1571 0076 00EB4310 		add	r0, r0, r3, lsl #5
 1572              	.LVL124:
 626:Drivers/STM32H7xx_HAL_Driver/Src/stm32h7xx_ll_usb.c ****                                    USB_OTG_DIEPCTL_MPSIZ |
 1573              		.loc 1 626 31 view .LVU476
 1574 007a D0F80039 		ldr	r3, [r0, #2304]
 1575              	.LVL125:
 626:Drivers/STM32H7xx_HAL_Driver/Src/stm32h7xx_ll_usb.c ****                                    USB_OTG_DIEPCTL_MPSIZ |
 1576              		.loc 1 626 31 view .LVU477
 1577 007e 034A     		ldr	r2, .L117+4
 1578 0080 1A40     		ands	r2, r2, r3
 1579 0082 C0F80029 		str	r2, [r0, #2304]
 1580 0086 DDE7     		b	.L114
 1581              	.L118:
 1582              		.align	2
 1583              	.L117:
 1584 0088 0078F3EF 		.word	-269256704
 1585 008c 007833EC 		.word	-332171264
 1586              		.cfi_endproc
 1587              	.LFE153:
 1589              		.section	.text.USB_DeactivateDedicatedEndpoint,"ax",%progbits
 1590              		.align	1
 1591              		.global	USB_DeactivateDedicatedEndpoint
 1592              		.syntax unified
 1593              		.thumb
 1594              		.thumb_func
 1595              		.fpu fpv5-d16
 1597              	USB_DeactivateDedicatedEndpoint:
 1598              	.LVL126:
 1599              	.LFB154:
 652:Drivers/STM32H7xx_HAL_Driver/Src/stm32h7xx_ll_usb.c ****   uint32_t USBx_BASE = (uint32_t)USBx;
 1600              		.loc 1 652 1 is_stmt 1 view -0
 1601              		.cfi_startproc
 1602              		@ args = 0, pretend = 0, frame = 0
 1603              		@ frame_needed = 0, uses_anonymous_args = 0
 1604              		@ link register save eliminated.
 653:Drivers/STM32H7xx_HAL_Driver/Src/stm32h7xx_ll_usb.c ****   uint32_t epnum = (uint32_t)ep->num;
 1605              		.loc 1 653 3 view .LVU479
 654:Drivers/STM32H7xx_HAL_Driver/Src/stm32h7xx_ll_usb.c **** 
 1606              		.loc 1 654 3 view .LVU480
 654:Drivers/STM32H7xx_HAL_Driver/Src/stm32h7xx_ll_usb.c **** 
 1607              		.loc 1 654 32 is_stmt 0 view .LVU481
 1608 0000 0B78     		ldrb	r3, [r1]	@ zero_extendqisi2
 1609              	.LVL127:
 657:Drivers/STM32H7xx_HAL_Driver/Src/stm32h7xx_ll_usb.c ****   {
 1610              		.loc 1 657 3 is_stmt 1 view .LVU482
 657:Drivers/STM32H7xx_HAL_Driver/Src/stm32h7xx_ll_usb.c ****   {
 1611              		.loc 1 657 9 is_stmt 0 view .LVU483
 1612 0002 4A78     		ldrb	r2, [r1, #1]	@ zero_extendqisi2
 657:Drivers/STM32H7xx_HAL_Driver/Src/stm32h7xx_ll_usb.c ****   {
 1613              		.loc 1 657 6 view .LVU484
 1614 0004 012A     		cmp	r2, #1
 1615 0006 14D0     		beq	.L122
ARM GAS  /tmp/cc0TWTOC.s 			page 60


 664:Drivers/STM32H7xx_HAL_Driver/Src/stm32h7xx_ll_usb.c ****     USBx_DEVICE->DAINTMSK &= ~(USB_OTG_DAINTMSK_OEPM & ((uint32_t)(1UL << (ep->num & EP_ADDR_MSK)) 
 1616              		.loc 1 664 5 is_stmt 1 view .LVU485
 664:Drivers/STM32H7xx_HAL_Driver/Src/stm32h7xx_ll_usb.c ****     USBx_DEVICE->DAINTMSK &= ~(USB_OTG_DAINTMSK_OEPM & ((uint32_t)(1UL << (ep->num & EP_ADDR_MSK)) 
 1617              		.loc 1 664 32 is_stmt 0 view .LVU486
 1618 0008 00EB4313 		add	r3, r0, r3, lsl #5
 1619              	.LVL128:
 664:Drivers/STM32H7xx_HAL_Driver/Src/stm32h7xx_ll_usb.c ****     USBx_DEVICE->DAINTMSK &= ~(USB_OTG_DAINTMSK_OEPM & ((uint32_t)(1UL << (ep->num & EP_ADDR_MSK)) 
 1620              		.loc 1 664 32 view .LVU487
 1621 000c D3F8002B 		ldr	r2, [r3, #2816]
 1622 0010 22F40042 		bic	r2, r2, #32768
 1623 0014 C3F8002B 		str	r2, [r3, #2816]
 1624              	.LVL129:
 665:Drivers/STM32H7xx_HAL_Driver/Src/stm32h7xx_ll_usb.c ****   }
 1625              		.loc 1 665 5 is_stmt 1 view .LVU488
 665:Drivers/STM32H7xx_HAL_Driver/Src/stm32h7xx_ll_usb.c ****   }
 1626              		.loc 1 665 27 is_stmt 0 view .LVU489
 1627 0018 D0F81C38 		ldr	r3, [r0, #2076]
 665:Drivers/STM32H7xx_HAL_Driver/Src/stm32h7xx_ll_usb.c ****   }
 1628              		.loc 1 665 78 view .LVU490
 1629 001c 0A78     		ldrb	r2, [r1]	@ zero_extendqisi2
 665:Drivers/STM32H7xx_HAL_Driver/Src/stm32h7xx_ll_usb.c ****   }
 1630              		.loc 1 665 84 view .LVU491
 1631 001e 02F00F01 		and	r1, r2, #15
 1632              	.LVL130:
 665:Drivers/STM32H7xx_HAL_Driver/Src/stm32h7xx_ll_usb.c ****   }
 1633              		.loc 1 665 57 view .LVU492
 1634 0022 0122     		movs	r2, #1
 1635 0024 8A40     		lsls	r2, r2, r1
 665:Drivers/STM32H7xx_HAL_Driver/Src/stm32h7xx_ll_usb.c ****   }
 1636              		.loc 1 665 27 view .LVU493
 1637 0026 23EA0243 		bic	r3, r3, r2, lsl #16
 1638 002a C0F81C38 		str	r3, [r0, #2076]
 1639              	.L121:
 668:Drivers/STM32H7xx_HAL_Driver/Src/stm32h7xx_ll_usb.c **** }
 1640              		.loc 1 668 3 is_stmt 1 view .LVU494
 669:Drivers/STM32H7xx_HAL_Driver/Src/stm32h7xx_ll_usb.c **** 
 1641              		.loc 1 669 1 is_stmt 0 view .LVU495
 1642 002e 0020     		movs	r0, #0
 1643              	.LVL131:
 669:Drivers/STM32H7xx_HAL_Driver/Src/stm32h7xx_ll_usb.c **** 
 1644              		.loc 1 669 1 view .LVU496
 1645 0030 7047     		bx	lr
 1646              	.LVL132:
 1647              	.L122:
 659:Drivers/STM32H7xx_HAL_Driver/Src/stm32h7xx_ll_usb.c ****     USBx_DEVICE->DAINTMSK &= ~(USB_OTG_DAINTMSK_IEPM & (uint32_t)(1UL << (ep->num & EP_ADDR_MSK)));
 1648              		.loc 1 659 5 is_stmt 1 view .LVU497
 659:Drivers/STM32H7xx_HAL_Driver/Src/stm32h7xx_ll_usb.c ****     USBx_DEVICE->DAINTMSK &= ~(USB_OTG_DAINTMSK_IEPM & (uint32_t)(1UL << (ep->num & EP_ADDR_MSK)));
 1649              		.loc 1 659 31 is_stmt 0 view .LVU498
 1650 0032 00EB4313 		add	r3, r0, r3, lsl #5
 1651              	.LVL133:
 659:Drivers/STM32H7xx_HAL_Driver/Src/stm32h7xx_ll_usb.c ****     USBx_DEVICE->DAINTMSK &= ~(USB_OTG_DAINTMSK_IEPM & (uint32_t)(1UL << (ep->num & EP_ADDR_MSK)));
 1652              		.loc 1 659 31 view .LVU499
 1653 0036 D3F80029 		ldr	r2, [r3, #2304]
 1654 003a 22F40042 		bic	r2, r2, #32768
 1655 003e C3F80029 		str	r2, [r3, #2304]
 1656              	.LVL134:
 660:Drivers/STM32H7xx_HAL_Driver/Src/stm32h7xx_ll_usb.c ****   }
ARM GAS  /tmp/cc0TWTOC.s 			page 61


 1657              		.loc 1 660 5 is_stmt 1 view .LVU500
 660:Drivers/STM32H7xx_HAL_Driver/Src/stm32h7xx_ll_usb.c ****   }
 1658              		.loc 1 660 27 is_stmt 0 view .LVU501
 1659 0042 D0F81C28 		ldr	r2, [r0, #2076]
 660:Drivers/STM32H7xx_HAL_Driver/Src/stm32h7xx_ll_usb.c ****   }
 1660              		.loc 1 660 77 view .LVU502
 1661 0046 0B78     		ldrb	r3, [r1]	@ zero_extendqisi2
 660:Drivers/STM32H7xx_HAL_Driver/Src/stm32h7xx_ll_usb.c ****   }
 1662              		.loc 1 660 83 view .LVU503
 1663 0048 03F00F01 		and	r1, r3, #15
 1664              	.LVL135:
 660:Drivers/STM32H7xx_HAL_Driver/Src/stm32h7xx_ll_usb.c ****   }
 1665              		.loc 1 660 56 view .LVU504
 1666 004c 0123     		movs	r3, #1
 1667 004e 8B40     		lsls	r3, r3, r1
 660:Drivers/STM32H7xx_HAL_Driver/Src/stm32h7xx_ll_usb.c ****   }
 1668              		.loc 1 660 54 view .LVU505
 1669 0050 9BB2     		uxth	r3, r3
 660:Drivers/STM32H7xx_HAL_Driver/Src/stm32h7xx_ll_usb.c ****   }
 1670              		.loc 1 660 27 view .LVU506
 1671 0052 22EA0303 		bic	r3, r2, r3
 1672 0056 C0F81C38 		str	r3, [r0, #2076]
 1673 005a E8E7     		b	.L121
 1674              		.cfi_endproc
 1675              	.LFE154:
 1677              		.section	.text.USB_EP0StartXfer,"ax",%progbits
 1678              		.align	1
 1679              		.global	USB_EP0StartXfer
 1680              		.syntax unified
 1681              		.thumb
 1682              		.thumb_func
 1683              		.fpu fpv5-d16
 1685              	USB_EP0StartXfer:
 1686              	.LVL136:
 1687              	.LFB156:
 824:Drivers/STM32H7xx_HAL_Driver/Src/stm32h7xx_ll_usb.c ****   uint32_t USBx_BASE = (uint32_t)USBx;
 1688              		.loc 1 824 1 is_stmt 1 view -0
 1689              		.cfi_startproc
 1690              		@ args = 0, pretend = 0, frame = 0
 1691              		@ frame_needed = 0, uses_anonymous_args = 0
 1692              		@ link register save eliminated.
 824:Drivers/STM32H7xx_HAL_Driver/Src/stm32h7xx_ll_usb.c ****   uint32_t USBx_BASE = (uint32_t)USBx;
 1693              		.loc 1 824 1 is_stmt 0 view .LVU508
 1694 0000 70B4     		push	{r4, r5, r6}
 1695              	.LCFI20:
 1696              		.cfi_def_cfa_offset 12
 1697              		.cfi_offset 4, -12
 1698              		.cfi_offset 5, -8
 1699              		.cfi_offset 6, -4
 825:Drivers/STM32H7xx_HAL_Driver/Src/stm32h7xx_ll_usb.c ****   uint32_t epnum = (uint32_t)ep->num;
 1700              		.loc 1 825 3 is_stmt 1 view .LVU509
 1701              	.LVL137:
 826:Drivers/STM32H7xx_HAL_Driver/Src/stm32h7xx_ll_usb.c **** 
 1702              		.loc 1 826 3 view .LVU510
 826:Drivers/STM32H7xx_HAL_Driver/Src/stm32h7xx_ll_usb.c **** 
 1703              		.loc 1 826 32 is_stmt 0 view .LVU511
 1704 0002 0B78     		ldrb	r3, [r1]	@ zero_extendqisi2
ARM GAS  /tmp/cc0TWTOC.s 			page 62


 1705              	.LVL138:
 829:Drivers/STM32H7xx_HAL_Driver/Src/stm32h7xx_ll_usb.c ****   {
 1706              		.loc 1 829 3 is_stmt 1 view .LVU512
 829:Drivers/STM32H7xx_HAL_Driver/Src/stm32h7xx_ll_usb.c ****   {
 1707              		.loc 1 829 9 is_stmt 0 view .LVU513
 1708 0004 4C78     		ldrb	r4, [r1, #1]	@ zero_extendqisi2
 829:Drivers/STM32H7xx_HAL_Driver/Src/stm32h7xx_ll_usb.c ****   {
 1709              		.loc 1 829 6 view .LVU514
 1710 0006 012C     		cmp	r4, #1
 1711 0008 24D0     		beq	.L134
 884:Drivers/STM32H7xx_HAL_Driver/Src/stm32h7xx_ll_usb.c ****     USBx_OUTEP(epnum)->DOEPTSIZ &= ~(USB_OTG_DOEPTSIZ_PKTCNT);
 1712              		.loc 1 884 5 is_stmt 1 view .LVU515
 884:Drivers/STM32H7xx_HAL_Driver/Src/stm32h7xx_ll_usb.c ****     USBx_OUTEP(epnum)->DOEPTSIZ &= ~(USB_OTG_DOEPTSIZ_PKTCNT);
 1713              		.loc 1 884 33 is_stmt 0 view .LVU516
 1714 000a 00EB4310 		add	r0, r0, r3, lsl #5
 1715              	.LVL139:
 884:Drivers/STM32H7xx_HAL_Driver/Src/stm32h7xx_ll_usb.c ****     USBx_OUTEP(epnum)->DOEPTSIZ &= ~(USB_OTG_DOEPTSIZ_PKTCNT);
 1716              		.loc 1 884 33 view .LVU517
 1717 000e 00F53063 		add	r3, r0, #2816
 1718              	.LVL140:
 884:Drivers/STM32H7xx_HAL_Driver/Src/stm32h7xx_ll_usb.c ****     USBx_OUTEP(epnum)->DOEPTSIZ &= ~(USB_OTG_DOEPTSIZ_PKTCNT);
 1719              		.loc 1 884 33 view .LVU518
 1720 0012 1D69     		ldr	r5, [r3, #16]
 1721 0014 3E4C     		ldr	r4, .L137
 1722 0016 2C40     		ands	r4, r4, r5
 1723 0018 1C61     		str	r4, [r3, #16]
 1724              	.LVL141:
 885:Drivers/STM32H7xx_HAL_Driver/Src/stm32h7xx_ll_usb.c **** 
 1725              		.loc 1 885 5 is_stmt 1 view .LVU519
 885:Drivers/STM32H7xx_HAL_Driver/Src/stm32h7xx_ll_usb.c **** 
 1726              		.loc 1 885 33 is_stmt 0 view .LVU520
 1727 001a 1D69     		ldr	r5, [r3, #16]
 1728 001c 3D4C     		ldr	r4, .L137+4
 1729 001e 2C40     		ands	r4, r4, r5
 1730 0020 1C61     		str	r4, [r3, #16]
 887:Drivers/STM32H7xx_HAL_Driver/Src/stm32h7xx_ll_usb.c ****     {
 1731              		.loc 1 887 5 is_stmt 1 view .LVU521
 887:Drivers/STM32H7xx_HAL_Driver/Src/stm32h7xx_ll_usb.c ****     {
 1732              		.loc 1 887 11 is_stmt 0 view .LVU522
 1733 0022 4C69     		ldr	r4, [r1, #20]
 887:Drivers/STM32H7xx_HAL_Driver/Src/stm32h7xx_ll_usb.c ****     {
 1734              		.loc 1 887 8 view .LVU523
 1735 0024 0CB1     		cbz	r4, .L131
 889:Drivers/STM32H7xx_HAL_Driver/Src/stm32h7xx_ll_usb.c ****     }
 1736              		.loc 1 889 7 is_stmt 1 view .LVU524
 889:Drivers/STM32H7xx_HAL_Driver/Src/stm32h7xx_ll_usb.c ****     }
 1737              		.loc 1 889 24 is_stmt 0 view .LVU525
 1738 0026 8C68     		ldr	r4, [r1, #8]
 889:Drivers/STM32H7xx_HAL_Driver/Src/stm32h7xx_ll_usb.c ****     }
 1739              		.loc 1 889 20 view .LVU526
 1740 0028 4C61     		str	r4, [r1, #20]
 1741              	.L131:
 892:Drivers/STM32H7xx_HAL_Driver/Src/stm32h7xx_ll_usb.c ****     USBx_OUTEP(epnum)->DOEPTSIZ |= (USB_OTG_DOEPTSIZ_XFRSIZ & (ep->maxpacket));
 1742              		.loc 1 892 5 is_stmt 1 view .LVU527
 892:Drivers/STM32H7xx_HAL_Driver/Src/stm32h7xx_ll_usb.c ****     USBx_OUTEP(epnum)->DOEPTSIZ |= (USB_OTG_DOEPTSIZ_XFRSIZ & (ep->maxpacket));
 1743              		.loc 1 892 33 is_stmt 0 view .LVU528
 1744 002a 1C69     		ldr	r4, [r3, #16]
ARM GAS  /tmp/cc0TWTOC.s 			page 63


 1745 002c 44F40024 		orr	r4, r4, #524288
 1746 0030 1C61     		str	r4, [r3, #16]
 893:Drivers/STM32H7xx_HAL_Driver/Src/stm32h7xx_ll_usb.c **** 
 1747              		.loc 1 893 5 is_stmt 1 view .LVU529
 893:Drivers/STM32H7xx_HAL_Driver/Src/stm32h7xx_ll_usb.c **** 
 1748              		.loc 1 893 33 is_stmt 0 view .LVU530
 1749 0032 1C69     		ldr	r4, [r3, #16]
 893:Drivers/STM32H7xx_HAL_Driver/Src/stm32h7xx_ll_usb.c **** 
 1750              		.loc 1 893 66 view .LVU531
 1751 0034 8D68     		ldr	r5, [r1, #8]
 893:Drivers/STM32H7xx_HAL_Driver/Src/stm32h7xx_ll_usb.c **** 
 1752              		.loc 1 893 61 view .LVU532
 1753 0036 C5F31205 		ubfx	r5, r5, #0, #19
 893:Drivers/STM32H7xx_HAL_Driver/Src/stm32h7xx_ll_usb.c **** 
 1754              		.loc 1 893 33 view .LVU533
 1755 003a 2C43     		orrs	r4, r4, r5
 1756 003c 1C61     		str	r4, [r3, #16]
 895:Drivers/STM32H7xx_HAL_Driver/Src/stm32h7xx_ll_usb.c ****     {
 1757              		.loc 1 895 5 is_stmt 1 view .LVU534
 895:Drivers/STM32H7xx_HAL_Driver/Src/stm32h7xx_ll_usb.c ****     {
 1758              		.loc 1 895 8 is_stmt 0 view .LVU535
 1759 003e 012A     		cmp	r2, #1
 1760 0040 61D0     		beq	.L135
 1761              	.LVL142:
 1762              	.L132:
 904:Drivers/STM32H7xx_HAL_Driver/Src/stm32h7xx_ll_usb.c ****   }
 1763              		.loc 1 904 5 is_stmt 1 view .LVU536
 904:Drivers/STM32H7xx_HAL_Driver/Src/stm32h7xx_ll_usb.c ****   }
 1764              		.loc 1 904 32 is_stmt 0 view .LVU537
 1765 0042 D0F8003B 		ldr	r3, [r0, #2816]
 1766 0046 43F00443 		orr	r3, r3, #-2080374784
 1767 004a C0F8003B 		str	r3, [r0, #2816]
 1768              	.LVL143:
 1769              	.L130:
 907:Drivers/STM32H7xx_HAL_Driver/Src/stm32h7xx_ll_usb.c **** }
 1770              		.loc 1 907 3 is_stmt 1 view .LVU538
 908:Drivers/STM32H7xx_HAL_Driver/Src/stm32h7xx_ll_usb.c **** 
 1771              		.loc 1 908 1 is_stmt 0 view .LVU539
 1772 004e 0020     		movs	r0, #0
 1773 0050 70BC     		pop	{r4, r5, r6}
 1774              	.LCFI21:
 1775              		.cfi_remember_state
 1776              		.cfi_restore 6
 1777              		.cfi_restore 5
 1778              		.cfi_restore 4
 1779              		.cfi_def_cfa_offset 0
 1780 0052 7047     		bx	lr
 1781              	.LVL144:
 1782              	.L134:
 1783              	.LCFI22:
 1784              		.cfi_restore_state
 832:Drivers/STM32H7xx_HAL_Driver/Src/stm32h7xx_ll_usb.c ****     {
 1785              		.loc 1 832 5 is_stmt 1 view .LVU540
 832:Drivers/STM32H7xx_HAL_Driver/Src/stm32h7xx_ll_usb.c ****     {
 1786              		.loc 1 832 11 is_stmt 0 view .LVU541
 1787 0054 4C69     		ldr	r4, [r1, #20]
 832:Drivers/STM32H7xx_HAL_Driver/Src/stm32h7xx_ll_usb.c ****     {
ARM GAS  /tmp/cc0TWTOC.s 			page 64


 1788              		.loc 1 832 8 view .LVU542
 1789 0056 5CBB     		cbnz	r4, .L125
 834:Drivers/STM32H7xx_HAL_Driver/Src/stm32h7xx_ll_usb.c ****       USBx_INEP(epnum)->DIEPTSIZ |= (USB_OTG_DIEPTSIZ_PKTCNT & (1U << 19));
 1790              		.loc 1 834 7 is_stmt 1 view .LVU543
 834:Drivers/STM32H7xx_HAL_Driver/Src/stm32h7xx_ll_usb.c ****       USBx_INEP(epnum)->DIEPTSIZ |= (USB_OTG_DIEPTSIZ_PKTCNT & (1U << 19));
 1791              		.loc 1 834 34 is_stmt 0 view .LVU544
 1792 0058 00EB4314 		add	r4, r0, r3, lsl #5
 1793 005c D4F81069 		ldr	r6, [r4, #2320]
 1794 0060 2C4D     		ldr	r5, .L137+4
 1795 0062 3540     		ands	r5, r5, r6
 1796 0064 C4F81059 		str	r5, [r4, #2320]
 835:Drivers/STM32H7xx_HAL_Driver/Src/stm32h7xx_ll_usb.c ****       USBx_INEP(epnum)->DIEPTSIZ &= ~(USB_OTG_DIEPTSIZ_XFRSIZ);
 1797              		.loc 1 835 7 is_stmt 1 view .LVU545
 835:Drivers/STM32H7xx_HAL_Driver/Src/stm32h7xx_ll_usb.c ****       USBx_INEP(epnum)->DIEPTSIZ &= ~(USB_OTG_DIEPTSIZ_XFRSIZ);
 1798              		.loc 1 835 34 is_stmt 0 view .LVU546
 1799 0068 D4F81059 		ldr	r5, [r4, #2320]
 1800 006c 45F40025 		orr	r5, r5, #524288
 1801 0070 C4F81059 		str	r5, [r4, #2320]
 836:Drivers/STM32H7xx_HAL_Driver/Src/stm32h7xx_ll_usb.c ****     }
 1802              		.loc 1 836 7 is_stmt 1 view .LVU547
 836:Drivers/STM32H7xx_HAL_Driver/Src/stm32h7xx_ll_usb.c ****     }
 1803              		.loc 1 836 34 is_stmt 0 view .LVU548
 1804 0074 D4F81069 		ldr	r6, [r4, #2320]
 1805 0078 254D     		ldr	r5, .L137
 1806 007a 3540     		ands	r5, r5, r6
 1807 007c C4F81059 		str	r5, [r4, #2320]
 1808              	.L126:
 856:Drivers/STM32H7xx_HAL_Driver/Src/stm32h7xx_ll_usb.c ****     {
 1809              		.loc 1 856 5 is_stmt 1 view .LVU549
 856:Drivers/STM32H7xx_HAL_Driver/Src/stm32h7xx_ll_usb.c ****     {
 1810              		.loc 1 856 8 is_stmt 0 view .LVU550
 1811 0080 012A     		cmp	r2, #1
 1812 0082 31D0     		beq	.L136
 869:Drivers/STM32H7xx_HAL_Driver/Src/stm32h7xx_ll_usb.c **** 
 1813              		.loc 1 869 7 is_stmt 1 view .LVU551
 869:Drivers/STM32H7xx_HAL_Driver/Src/stm32h7xx_ll_usb.c **** 
 1814              		.loc 1 869 33 is_stmt 0 view .LVU552
 1815 0084 00EB4313 		add	r3, r0, r3, lsl #5
 1816              	.LVL145:
 869:Drivers/STM32H7xx_HAL_Driver/Src/stm32h7xx_ll_usb.c **** 
 1817              		.loc 1 869 33 view .LVU553
 1818 0088 D3F80029 		ldr	r2, [r3, #2304]
 1819              	.LVL146:
 869:Drivers/STM32H7xx_HAL_Driver/Src/stm32h7xx_ll_usb.c **** 
 1820              		.loc 1 869 33 view .LVU554
 1821 008c 42F00442 		orr	r2, r2, #-2080374784
 1822 0090 C3F80029 		str	r2, [r3, #2304]
 872:Drivers/STM32H7xx_HAL_Driver/Src/stm32h7xx_ll_usb.c ****       {
 1823              		.loc 1 872 7 is_stmt 1 view .LVU555
 872:Drivers/STM32H7xx_HAL_Driver/Src/stm32h7xx_ll_usb.c ****       {
 1824              		.loc 1 872 13 is_stmt 0 view .LVU556
 1825 0094 4B69     		ldr	r3, [r1, #20]
 872:Drivers/STM32H7xx_HAL_Driver/Src/stm32h7xx_ll_usb.c ****       {
 1826              		.loc 1 872 10 view .LVU557
 1827 0096 002B     		cmp	r3, #0
 1828 0098 D9D0     		beq	.L130
 874:Drivers/STM32H7xx_HAL_Driver/Src/stm32h7xx_ll_usb.c ****       }
ARM GAS  /tmp/cc0TWTOC.s 			page 65


 1829              		.loc 1 874 9 is_stmt 1 view .LVU558
 874:Drivers/STM32H7xx_HAL_Driver/Src/stm32h7xx_ll_usb.c ****       }
 1830              		.loc 1 874 33 is_stmt 0 view .LVU559
 1831 009a D0F83438 		ldr	r3, [r0, #2100]
 874:Drivers/STM32H7xx_HAL_Driver/Src/stm32h7xx_ll_usb.c ****       }
 1832              		.loc 1 874 46 view .LVU560
 1833 009e 0A78     		ldrb	r2, [r1]	@ zero_extendqisi2
 874:Drivers/STM32H7xx_HAL_Driver/Src/stm32h7xx_ll_usb.c ****       }
 1834              		.loc 1 874 52 view .LVU561
 1835 00a0 02F00F01 		and	r1, r2, #15
 1836              	.LVL147:
 874:Drivers/STM32H7xx_HAL_Driver/Src/stm32h7xx_ll_usb.c ****       }
 1837              		.loc 1 874 40 view .LVU562
 1838 00a4 0122     		movs	r2, #1
 1839 00a6 8A40     		lsls	r2, r2, r1
 874:Drivers/STM32H7xx_HAL_Driver/Src/stm32h7xx_ll_usb.c ****       }
 1840              		.loc 1 874 33 view .LVU563
 1841 00a8 1343     		orrs	r3, r3, r2
 1842 00aa C0F83438 		str	r3, [r0, #2100]
 1843 00ae CEE7     		b	.L130
 1844              	.LVL148:
 1845              	.L125:
 845:Drivers/STM32H7xx_HAL_Driver/Src/stm32h7xx_ll_usb.c ****       USBx_INEP(epnum)->DIEPTSIZ &= ~(USB_OTG_DIEPTSIZ_PKTCNT);
 1846              		.loc 1 845 7 is_stmt 1 view .LVU564
 845:Drivers/STM32H7xx_HAL_Driver/Src/stm32h7xx_ll_usb.c ****       USBx_INEP(epnum)->DIEPTSIZ &= ~(USB_OTG_DIEPTSIZ_PKTCNT);
 1847              		.loc 1 845 34 is_stmt 0 view .LVU565
 1848 00b0 00EB4314 		add	r4, r0, r3, lsl #5
 1849 00b4 04F51064 		add	r4, r4, #2304
 1850 00b8 2669     		ldr	r6, [r4, #16]
 1851 00ba 154D     		ldr	r5, .L137
 1852 00bc 3540     		ands	r5, r5, r6
 1853 00be 2561     		str	r5, [r4, #16]
 846:Drivers/STM32H7xx_HAL_Driver/Src/stm32h7xx_ll_usb.c **** 
 1854              		.loc 1 846 7 is_stmt 1 view .LVU566
 846:Drivers/STM32H7xx_HAL_Driver/Src/stm32h7xx_ll_usb.c **** 
 1855              		.loc 1 846 34 is_stmt 0 view .LVU567
 1856 00c0 2669     		ldr	r6, [r4, #16]
 1857 00c2 144D     		ldr	r5, .L137+4
 1858 00c4 3540     		ands	r5, r5, r6
 1859 00c6 2561     		str	r5, [r4, #16]
 848:Drivers/STM32H7xx_HAL_Driver/Src/stm32h7xx_ll_usb.c ****       {
 1860              		.loc 1 848 7 is_stmt 1 view .LVU568
 848:Drivers/STM32H7xx_HAL_Driver/Src/stm32h7xx_ll_usb.c ****       {
 1861              		.loc 1 848 13 is_stmt 0 view .LVU569
 1862 00c8 4E69     		ldr	r6, [r1, #20]
 848:Drivers/STM32H7xx_HAL_Driver/Src/stm32h7xx_ll_usb.c ****       {
 1863              		.loc 1 848 28 view .LVU570
 1864 00ca 8D68     		ldr	r5, [r1, #8]
 848:Drivers/STM32H7xx_HAL_Driver/Src/stm32h7xx_ll_usb.c ****       {
 1865              		.loc 1 848 10 view .LVU571
 1866 00cc AE42     		cmp	r6, r5
 1867 00ce 00D9     		bls	.L127
 850:Drivers/STM32H7xx_HAL_Driver/Src/stm32h7xx_ll_usb.c ****       }
 1868              		.loc 1 850 9 is_stmt 1 view .LVU572
 850:Drivers/STM32H7xx_HAL_Driver/Src/stm32h7xx_ll_usb.c ****       }
 1869              		.loc 1 850 22 is_stmt 0 view .LVU573
 1870 00d0 4D61     		str	r5, [r1, #20]
ARM GAS  /tmp/cc0TWTOC.s 			page 66


 1871              	.L127:
 852:Drivers/STM32H7xx_HAL_Driver/Src/stm32h7xx_ll_usb.c ****       USBx_INEP(epnum)->DIEPTSIZ |= (USB_OTG_DIEPTSIZ_XFRSIZ & ep->xfer_len);
 1872              		.loc 1 852 7 is_stmt 1 view .LVU574
 852:Drivers/STM32H7xx_HAL_Driver/Src/stm32h7xx_ll_usb.c ****       USBx_INEP(epnum)->DIEPTSIZ |= (USB_OTG_DIEPTSIZ_XFRSIZ & ep->xfer_len);
 1873              		.loc 1 852 34 is_stmt 0 view .LVU575
 1874 00d2 2569     		ldr	r5, [r4, #16]
 1875 00d4 45F40025 		orr	r5, r5, #524288
 1876 00d8 2561     		str	r5, [r4, #16]
 853:Drivers/STM32H7xx_HAL_Driver/Src/stm32h7xx_ll_usb.c ****     }
 1877              		.loc 1 853 7 is_stmt 1 view .LVU576
 853:Drivers/STM32H7xx_HAL_Driver/Src/stm32h7xx_ll_usb.c ****     }
 1878              		.loc 1 853 34 is_stmt 0 view .LVU577
 1879 00da 2569     		ldr	r5, [r4, #16]
 853:Drivers/STM32H7xx_HAL_Driver/Src/stm32h7xx_ll_usb.c ****     }
 1880              		.loc 1 853 66 view .LVU578
 1881 00dc 4E69     		ldr	r6, [r1, #20]
 853:Drivers/STM32H7xx_HAL_Driver/Src/stm32h7xx_ll_usb.c ****     }
 1882              		.loc 1 853 62 view .LVU579
 1883 00de C6F31206 		ubfx	r6, r6, #0, #19
 853:Drivers/STM32H7xx_HAL_Driver/Src/stm32h7xx_ll_usb.c ****     }
 1884              		.loc 1 853 34 view .LVU580
 1885 00e2 3543     		orrs	r5, r5, r6
 1886 00e4 2561     		str	r5, [r4, #16]
 1887 00e6 CBE7     		b	.L126
 1888              	.L136:
 858:Drivers/STM32H7xx_HAL_Driver/Src/stm32h7xx_ll_usb.c ****       {
 1889              		.loc 1 858 7 is_stmt 1 view .LVU581
 858:Drivers/STM32H7xx_HAL_Driver/Src/stm32h7xx_ll_usb.c ****       {
 1890              		.loc 1 858 23 is_stmt 0 view .LVU582
 1891 00e8 0A69     		ldr	r2, [r1, #16]
 1892              	.LVL149:
 858:Drivers/STM32H7xx_HAL_Driver/Src/stm32h7xx_ll_usb.c ****       {
 1893              		.loc 1 858 10 view .LVU583
 1894 00ea 1AB1     		cbz	r2, .L129
 860:Drivers/STM32H7xx_HAL_Driver/Src/stm32h7xx_ll_usb.c ****       }
 1895              		.loc 1 860 9 is_stmt 1 view .LVU584
 1896 00ec 00EB4311 		add	r1, r0, r3, lsl #5
 1897              	.LVL150:
 860:Drivers/STM32H7xx_HAL_Driver/Src/stm32h7xx_ll_usb.c ****       }
 1898              		.loc 1 860 35 is_stmt 0 view .LVU585
 1899 00f0 C1F81429 		str	r2, [r1, #2324]
 1900              	.L129:
 864:Drivers/STM32H7xx_HAL_Driver/Src/stm32h7xx_ll_usb.c ****     }
 1901              		.loc 1 864 7 is_stmt 1 view .LVU586
 864:Drivers/STM32H7xx_HAL_Driver/Src/stm32h7xx_ll_usb.c ****     }
 1902              		.loc 1 864 33 is_stmt 0 view .LVU587
 1903 00f4 00EB4310 		add	r0, r0, r3, lsl #5
 1904              	.LVL151:
 864:Drivers/STM32H7xx_HAL_Driver/Src/stm32h7xx_ll_usb.c ****     }
 1905              		.loc 1 864 33 view .LVU588
 1906 00f8 D0F80029 		ldr	r2, [r0, #2304]
 1907 00fc 42F00442 		orr	r2, r2, #-2080374784
 1908 0100 C0F80029 		str	r2, [r0, #2304]
 1909 0104 A3E7     		b	.L130
 1910              	.LVL152:
 1911              	.L135:
 897:Drivers/STM32H7xx_HAL_Driver/Src/stm32h7xx_ll_usb.c ****       {
ARM GAS  /tmp/cc0TWTOC.s 			page 67


 1912              		.loc 1 897 7 is_stmt 1 view .LVU589
 897:Drivers/STM32H7xx_HAL_Driver/Src/stm32h7xx_ll_usb.c ****       {
 1913              		.loc 1 897 23 is_stmt 0 view .LVU590
 1914 0106 CA68     		ldr	r2, [r1, #12]
 1915              	.LVL153:
 897:Drivers/STM32H7xx_HAL_Driver/Src/stm32h7xx_ll_usb.c ****       {
 1916              		.loc 1 897 10 view .LVU591
 1917 0108 002A     		cmp	r2, #0
 1918 010a 9AD0     		beq	.L132
 899:Drivers/STM32H7xx_HAL_Driver/Src/stm32h7xx_ll_usb.c ****       }
 1919              		.loc 1 899 9 is_stmt 1 view .LVU592
 899:Drivers/STM32H7xx_HAL_Driver/Src/stm32h7xx_ll_usb.c ****       }
 1920              		.loc 1 899 36 is_stmt 0 view .LVU593
 1921 010c 5A61     		str	r2, [r3, #20]
 1922 010e 98E7     		b	.L132
 1923              	.L138:
 1924              		.align	2
 1925              	.L137:
 1926 0110 0000F8FF 		.word	-524288
 1927 0114 FFFF07E0 		.word	-536346625
 1928              		.cfi_endproc
 1929              	.LFE156:
 1931              		.section	.text.USB_WritePacket,"ax",%progbits
 1932              		.align	1
 1933              		.global	USB_WritePacket
 1934              		.syntax unified
 1935              		.thumb
 1936              		.thumb_func
 1937              		.fpu fpv5-d16
 1939              	USB_WritePacket:
 1940              	.LVL154:
 1941              	.LFB157:
 924:Drivers/STM32H7xx_HAL_Driver/Src/stm32h7xx_ll_usb.c ****   uint32_t USBx_BASE = (uint32_t)USBx;
 1942              		.loc 1 924 1 is_stmt 1 view -0
 1943              		.cfi_startproc
 1944              		@ args = 4, pretend = 0, frame = 0
 1945              		@ frame_needed = 0, uses_anonymous_args = 0
 1946              		@ link register save eliminated.
 924:Drivers/STM32H7xx_HAL_Driver/Src/stm32h7xx_ll_usb.c ****   uint32_t USBx_BASE = (uint32_t)USBx;
 1947              		.loc 1 924 1 is_stmt 0 view .LVU595
 1948 0000 70B4     		push	{r4, r5, r6}
 1949              	.LCFI23:
 1950              		.cfi_def_cfa_offset 12
 1951              		.cfi_offset 4, -12
 1952              		.cfi_offset 5, -8
 1953              		.cfi_offset 6, -4
 1954 0002 9DF80C40 		ldrb	r4, [sp, #12]	@ zero_extendqisi2
 925:Drivers/STM32H7xx_HAL_Driver/Src/stm32h7xx_ll_usb.c ****   uint32_t *pSrc = (uint32_t *)src;
 1955              		.loc 1 925 3 is_stmt 1 view .LVU596
 1956              	.LVL155:
 926:Drivers/STM32H7xx_HAL_Driver/Src/stm32h7xx_ll_usb.c ****   uint32_t count32b, i;
 1957              		.loc 1 926 3 view .LVU597
 927:Drivers/STM32H7xx_HAL_Driver/Src/stm32h7xx_ll_usb.c **** 
 1958              		.loc 1 927 3 view .LVU598
 929:Drivers/STM32H7xx_HAL_Driver/Src/stm32h7xx_ll_usb.c ****   {
 1959              		.loc 1 929 3 view .LVU599
 929:Drivers/STM32H7xx_HAL_Driver/Src/stm32h7xx_ll_usb.c ****   {
ARM GAS  /tmp/cc0TWTOC.s 			page 68


 1960              		.loc 1 929 6 is_stmt 0 view .LVU600
 1961 0006 64B9     		cbnz	r4, .L140
 931:Drivers/STM32H7xx_HAL_Driver/Src/stm32h7xx_ll_usb.c ****     for (i = 0U; i < count32b; i++)
 1962              		.loc 1 931 5 is_stmt 1 view .LVU601
 931:Drivers/STM32H7xx_HAL_Driver/Src/stm32h7xx_ll_usb.c ****     for (i = 0U; i < count32b; i++)
 1963              		.loc 1 931 31 is_stmt 0 view .LVU602
 1964 0008 0333     		adds	r3, r3, #3
 1965              	.LVL156:
 931:Drivers/STM32H7xx_HAL_Driver/Src/stm32h7xx_ll_usb.c ****     for (i = 0U; i < count32b; i++)
 1966              		.loc 1 931 14 view .LVU603
 1967 000a 9D08     		lsrs	r5, r3, #2
 1968              	.LVL157:
 932:Drivers/STM32H7xx_HAL_Driver/Src/stm32h7xx_ll_usb.c ****     {
 1969              		.loc 1 932 5 is_stmt 1 view .LVU604
 1970              	.L141:
 932:Drivers/STM32H7xx_HAL_Driver/Src/stm32h7xx_ll_usb.c ****     {
 1971              		.loc 1 932 5 is_stmt 0 discriminator 1 view .LVU605
 1972 000c AC42     		cmp	r4, r5
 1973 000e 08D2     		bcs	.L140
 934:Drivers/STM32H7xx_HAL_Driver/Src/stm32h7xx_ll_usb.c ****       pSrc++;
 1974              		.loc 1 934 7 is_stmt 1 discriminator 3 view .LVU606
 1975 0010 00EB0233 		add	r3, r0, r2, lsl #12
 1976 0014 03F58053 		add	r3, r3, #4096
 934:Drivers/STM32H7xx_HAL_Driver/Src/stm32h7xx_ll_usb.c ****       pSrc++;
 1977              		.loc 1 934 41 is_stmt 0 discriminator 3 view .LVU607
 1978 0018 51F8046B 		ldr	r6, [r1], #4	@ unaligned
 1979              	.LVL158:
 934:Drivers/STM32H7xx_HAL_Driver/Src/stm32h7xx_ll_usb.c ****       pSrc++;
 1980              		.loc 1 934 39 discriminator 3 view .LVU608
 1981 001c 1E60     		str	r6, [r3]
 935:Drivers/STM32H7xx_HAL_Driver/Src/stm32h7xx_ll_usb.c ****     }
 1982              		.loc 1 935 7 is_stmt 1 discriminator 3 view .LVU609
 1983              	.LVL159:
 932:Drivers/STM32H7xx_HAL_Driver/Src/stm32h7xx_ll_usb.c ****     {
 1984              		.loc 1 932 33 is_stmt 0 discriminator 3 view .LVU610
 1985 001e 0134     		adds	r4, r4, #1
 1986              	.LVL160:
 932:Drivers/STM32H7xx_HAL_Driver/Src/stm32h7xx_ll_usb.c ****     {
 1987              		.loc 1 932 33 discriminator 3 view .LVU611
 1988 0020 F4E7     		b	.L141
 1989              	.LVL161:
 1990              	.L140:
 939:Drivers/STM32H7xx_HAL_Driver/Src/stm32h7xx_ll_usb.c **** }
 1991              		.loc 1 939 3 is_stmt 1 view .LVU612
 940:Drivers/STM32H7xx_HAL_Driver/Src/stm32h7xx_ll_usb.c **** 
 1992              		.loc 1 940 1 is_stmt 0 view .LVU613
 1993 0022 0020     		movs	r0, #0
 1994              	.LVL162:
 940:Drivers/STM32H7xx_HAL_Driver/Src/stm32h7xx_ll_usb.c **** 
 1995              		.loc 1 940 1 view .LVU614
 1996 0024 70BC     		pop	{r4, r5, r6}
 1997              	.LCFI24:
 1998              		.cfi_restore 6
 1999              		.cfi_restore 5
 2000              		.cfi_restore 4
 2001              		.cfi_def_cfa_offset 0
 2002              	.LVL163:
ARM GAS  /tmp/cc0TWTOC.s 			page 69


 940:Drivers/STM32H7xx_HAL_Driver/Src/stm32h7xx_ll_usb.c **** 
 2003              		.loc 1 940 1 view .LVU615
 2004 0026 7047     		bx	lr
 2005              		.cfi_endproc
 2006              	.LFE157:
 2008              		.section	.text.USB_EPStartXfer,"ax",%progbits
 2009              		.align	1
 2010              		.global	USB_EPStartXfer
 2011              		.syntax unified
 2012              		.thumb
 2013              		.thumb_func
 2014              		.fpu fpv5-d16
 2016              	USB_EPStartXfer:
 2017              	.LVL164:
 2018              	.LFB155:
 682:Drivers/STM32H7xx_HAL_Driver/Src/stm32h7xx_ll_usb.c ****   uint32_t USBx_BASE = (uint32_t)USBx;
 2019              		.loc 1 682 1 is_stmt 1 view -0
 2020              		.cfi_startproc
 2021              		@ args = 0, pretend = 0, frame = 0
 2022              		@ frame_needed = 0, uses_anonymous_args = 0
 682:Drivers/STM32H7xx_HAL_Driver/Src/stm32h7xx_ll_usb.c ****   uint32_t USBx_BASE = (uint32_t)USBx;
 2023              		.loc 1 682 1 is_stmt 0 view .LVU617
 2024 0000 F0B5     		push	{r4, r5, r6, r7, lr}
 2025              	.LCFI25:
 2026              		.cfi_def_cfa_offset 20
 2027              		.cfi_offset 4, -20
 2028              		.cfi_offset 5, -16
 2029              		.cfi_offset 6, -12
 2030              		.cfi_offset 7, -8
 2031              		.cfi_offset 14, -4
 2032 0002 83B0     		sub	sp, sp, #12
 2033              	.LCFI26:
 2034              		.cfi_def_cfa_offset 32
 683:Drivers/STM32H7xx_HAL_Driver/Src/stm32h7xx_ll_usb.c ****   uint32_t epnum = (uint32_t)ep->num;
 2035              		.loc 1 683 3 is_stmt 1 view .LVU618
 2036              	.LVL165:
 684:Drivers/STM32H7xx_HAL_Driver/Src/stm32h7xx_ll_usb.c ****   uint16_t pktcnt;
 2037              		.loc 1 684 3 view .LVU619
 684:Drivers/STM32H7xx_HAL_Driver/Src/stm32h7xx_ll_usb.c ****   uint16_t pktcnt;
 2038              		.loc 1 684 32 is_stmt 0 view .LVU620
 2039 0004 0B78     		ldrb	r3, [r1]	@ zero_extendqisi2
 2040              	.LVL166:
 685:Drivers/STM32H7xx_HAL_Driver/Src/stm32h7xx_ll_usb.c **** 
 2041              		.loc 1 685 3 is_stmt 1 view .LVU621
 688:Drivers/STM32H7xx_HAL_Driver/Src/stm32h7xx_ll_usb.c ****   {
 2042              		.loc 1 688 3 view .LVU622
 688:Drivers/STM32H7xx_HAL_Driver/Src/stm32h7xx_ll_usb.c ****   {
 2043              		.loc 1 688 9 is_stmt 0 view .LVU623
 2044 0006 4C78     		ldrb	r4, [r1, #1]	@ zero_extendqisi2
 688:Drivers/STM32H7xx_HAL_Driver/Src/stm32h7xx_ll_usb.c ****   {
 2045              		.loc 1 688 6 view .LVU624
 2046 0008 012C     		cmp	r4, #1
 2047 000a 29D0     		beq	.L162
 772:Drivers/STM32H7xx_HAL_Driver/Src/stm32h7xx_ll_usb.c ****     USBx_OUTEP(epnum)->DOEPTSIZ &= ~(USB_OTG_DOEPTSIZ_PKTCNT);
 2048              		.loc 1 772 5 is_stmt 1 view .LVU625
 772:Drivers/STM32H7xx_HAL_Driver/Src/stm32h7xx_ll_usb.c ****     USBx_OUTEP(epnum)->DOEPTSIZ &= ~(USB_OTG_DOEPTSIZ_PKTCNT);
 2049              		.loc 1 772 33 is_stmt 0 view .LVU626
ARM GAS  /tmp/cc0TWTOC.s 			page 70


 2050 000c 00EB4313 		add	r3, r0, r3, lsl #5
 2051              	.LVL167:
 772:Drivers/STM32H7xx_HAL_Driver/Src/stm32h7xx_ll_usb.c ****     USBx_OUTEP(epnum)->DOEPTSIZ &= ~(USB_OTG_DOEPTSIZ_PKTCNT);
 2052              		.loc 1 772 33 view .LVU627
 2053 0010 03F53064 		add	r4, r3, #2816
 2054 0014 2669     		ldr	r6, [r4, #16]
 2055 0016 7C4D     		ldr	r5, .L167
 2056 0018 3540     		ands	r5, r5, r6
 2057 001a 2561     		str	r5, [r4, #16]
 2058              	.LVL168:
 773:Drivers/STM32H7xx_HAL_Driver/Src/stm32h7xx_ll_usb.c **** 
 2059              		.loc 1 773 5 is_stmt 1 view .LVU628
 773:Drivers/STM32H7xx_HAL_Driver/Src/stm32h7xx_ll_usb.c **** 
 2060              		.loc 1 773 33 is_stmt 0 view .LVU629
 2061 001c 2669     		ldr	r6, [r4, #16]
 2062 001e 7B4D     		ldr	r5, .L167+4
 2063 0020 3540     		ands	r5, r5, r6
 2064 0022 2561     		str	r5, [r4, #16]
 775:Drivers/STM32H7xx_HAL_Driver/Src/stm32h7xx_ll_usb.c ****     {
 2065              		.loc 1 775 5 is_stmt 1 view .LVU630
 775:Drivers/STM32H7xx_HAL_Driver/Src/stm32h7xx_ll_usb.c ****     {
 2066              		.loc 1 775 11 is_stmt 0 view .LVU631
 2067 0024 4D69     		ldr	r5, [r1, #20]
 775:Drivers/STM32H7xx_HAL_Driver/Src/stm32h7xx_ll_usb.c ****     {
 2068              		.loc 1 775 8 view .LVU632
 2069 0026 002D     		cmp	r5, #0
 2070 0028 40F0BF80 		bne	.L156
 777:Drivers/STM32H7xx_HAL_Driver/Src/stm32h7xx_ll_usb.c ****       USBx_OUTEP(epnum)->DOEPTSIZ |= (USB_OTG_DOEPTSIZ_PKTCNT & (1U << 19));
 2071              		.loc 1 777 7 is_stmt 1 view .LVU633
 777:Drivers/STM32H7xx_HAL_Driver/Src/stm32h7xx_ll_usb.c ****       USBx_OUTEP(epnum)->DOEPTSIZ |= (USB_OTG_DOEPTSIZ_PKTCNT & (1U << 19));
 2072              		.loc 1 777 35 is_stmt 0 view .LVU634
 2073 002c 2569     		ldr	r5, [r4, #16]
 777:Drivers/STM32H7xx_HAL_Driver/Src/stm32h7xx_ll_usb.c ****       USBx_OUTEP(epnum)->DOEPTSIZ |= (USB_OTG_DOEPTSIZ_PKTCNT & (1U << 19));
 2074              		.loc 1 777 67 view .LVU635
 2075 002e 8E68     		ldr	r6, [r1, #8]
 777:Drivers/STM32H7xx_HAL_Driver/Src/stm32h7xx_ll_usb.c ****       USBx_OUTEP(epnum)->DOEPTSIZ |= (USB_OTG_DOEPTSIZ_PKTCNT & (1U << 19));
 2076              		.loc 1 777 63 view .LVU636
 2077 0030 C6F31206 		ubfx	r6, r6, #0, #19
 777:Drivers/STM32H7xx_HAL_Driver/Src/stm32h7xx_ll_usb.c ****       USBx_OUTEP(epnum)->DOEPTSIZ |= (USB_OTG_DOEPTSIZ_PKTCNT & (1U << 19));
 2078              		.loc 1 777 35 view .LVU637
 2079 0034 3543     		orrs	r5, r5, r6
 2080 0036 2561     		str	r5, [r4, #16]
 778:Drivers/STM32H7xx_HAL_Driver/Src/stm32h7xx_ll_usb.c ****     }
 2081              		.loc 1 778 7 is_stmt 1 view .LVU638
 778:Drivers/STM32H7xx_HAL_Driver/Src/stm32h7xx_ll_usb.c ****     }
 2082              		.loc 1 778 35 is_stmt 0 view .LVU639
 2083 0038 2569     		ldr	r5, [r4, #16]
 2084 003a 45F40025 		orr	r5, r5, #524288
 2085 003e 2561     		str	r5, [r4, #16]
 2086              	.L157:
 787:Drivers/STM32H7xx_HAL_Driver/Src/stm32h7xx_ll_usb.c ****     {
 2087              		.loc 1 787 5 is_stmt 1 view .LVU640
 787:Drivers/STM32H7xx_HAL_Driver/Src/stm32h7xx_ll_usb.c ****     {
 2088              		.loc 1 787 8 is_stmt 0 view .LVU641
 2089 0040 012A     		cmp	r2, #1
 2090 0042 00F0C780 		beq	.L163
 2091              	.LVL169:
ARM GAS  /tmp/cc0TWTOC.s 			page 71


 2092              	.L158:
 795:Drivers/STM32H7xx_HAL_Driver/Src/stm32h7xx_ll_usb.c ****     {
 2093              		.loc 1 795 5 is_stmt 1 view .LVU642
 795:Drivers/STM32H7xx_HAL_Driver/Src/stm32h7xx_ll_usb.c ****     {
 2094              		.loc 1 795 11 is_stmt 0 view .LVU643
 2095 0046 CA78     		ldrb	r2, [r1, #3]	@ zero_extendqisi2
 795:Drivers/STM32H7xx_HAL_Driver/Src/stm32h7xx_ll_usb.c ****     {
 2096              		.loc 1 795 8 view .LVU644
 2097 0048 012A     		cmp	r2, #1
 2098 004a 00F0C980 		beq	.L164
 2099              	.L159:
 807:Drivers/STM32H7xx_HAL_Driver/Src/stm32h7xx_ll_usb.c ****   }
 2100              		.loc 1 807 5 is_stmt 1 view .LVU645
 807:Drivers/STM32H7xx_HAL_Driver/Src/stm32h7xx_ll_usb.c ****   }
 2101              		.loc 1 807 32 is_stmt 0 view .LVU646
 2102 004e D3F8002B 		ldr	r2, [r3, #2816]
 2103 0052 42F00442 		orr	r2, r2, #-2080374784
 2104 0056 C3F8002B 		str	r2, [r3, #2816]
 2105              	.LVL170:
 2106              	.L152:
 810:Drivers/STM32H7xx_HAL_Driver/Src/stm32h7xx_ll_usb.c **** }
 2107              		.loc 1 810 3 is_stmt 1 view .LVU647
 811:Drivers/STM32H7xx_HAL_Driver/Src/stm32h7xx_ll_usb.c **** 
 2108              		.loc 1 811 1 is_stmt 0 view .LVU648
 2109 005a 0020     		movs	r0, #0
 2110 005c 03B0     		add	sp, sp, #12
 2111              	.LCFI27:
 2112              		.cfi_remember_state
 2113              		.cfi_def_cfa_offset 20
 2114              		@ sp needed
 2115 005e F0BD     		pop	{r4, r5, r6, r7, pc}
 2116              	.LVL171:
 2117              	.L162:
 2118              	.LCFI28:
 2119              		.cfi_restore_state
 691:Drivers/STM32H7xx_HAL_Driver/Src/stm32h7xx_ll_usb.c ****     {
 2120              		.loc 1 691 5 is_stmt 1 view .LVU649
 691:Drivers/STM32H7xx_HAL_Driver/Src/stm32h7xx_ll_usb.c ****     {
 2121              		.loc 1 691 11 is_stmt 0 view .LVU650
 2122 0060 4C69     		ldr	r4, [r1, #20]
 691:Drivers/STM32H7xx_HAL_Driver/Src/stm32h7xx_ll_usb.c ****     {
 2123              		.loc 1 691 8 view .LVU651
 2124 0062 74BB     		cbnz	r4, .L146
 693:Drivers/STM32H7xx_HAL_Driver/Src/stm32h7xx_ll_usb.c ****       USBx_INEP(epnum)->DIEPTSIZ |= (USB_OTG_DIEPTSIZ_PKTCNT & (1U << 19));
 2125              		.loc 1 693 7 is_stmt 1 view .LVU652
 693:Drivers/STM32H7xx_HAL_Driver/Src/stm32h7xx_ll_usb.c ****       USBx_INEP(epnum)->DIEPTSIZ |= (USB_OTG_DIEPTSIZ_PKTCNT & (1U << 19));
 2126              		.loc 1 693 34 is_stmt 0 view .LVU653
 2127 0064 00EB4314 		add	r4, r0, r3, lsl #5
 2128 0068 D4F81069 		ldr	r6, [r4, #2320]
 2129 006c 674D     		ldr	r5, .L167+4
 2130 006e 3540     		ands	r5, r5, r6
 2131 0070 C4F81059 		str	r5, [r4, #2320]
 694:Drivers/STM32H7xx_HAL_Driver/Src/stm32h7xx_ll_usb.c ****       USBx_INEP(epnum)->DIEPTSIZ &= ~(USB_OTG_DIEPTSIZ_XFRSIZ);
 2132              		.loc 1 694 7 is_stmt 1 view .LVU654
 694:Drivers/STM32H7xx_HAL_Driver/Src/stm32h7xx_ll_usb.c ****       USBx_INEP(epnum)->DIEPTSIZ &= ~(USB_OTG_DIEPTSIZ_XFRSIZ);
 2133              		.loc 1 694 34 is_stmt 0 view .LVU655
 2134 0074 D4F81059 		ldr	r5, [r4, #2320]
ARM GAS  /tmp/cc0TWTOC.s 			page 72


 2135 0078 45F40025 		orr	r5, r5, #524288
 2136 007c C4F81059 		str	r5, [r4, #2320]
 695:Drivers/STM32H7xx_HAL_Driver/Src/stm32h7xx_ll_usb.c ****     }
 2137              		.loc 1 695 7 is_stmt 1 view .LVU656
 695:Drivers/STM32H7xx_HAL_Driver/Src/stm32h7xx_ll_usb.c ****     }
 2138              		.loc 1 695 34 is_stmt 0 view .LVU657
 2139 0080 D4F81069 		ldr	r6, [r4, #2320]
 2140 0084 604D     		ldr	r5, .L167
 2141 0086 3540     		ands	r5, r5, r6
 2142 0088 C4F81059 		str	r5, [r4, #2320]
 2143              	.L147:
 716:Drivers/STM32H7xx_HAL_Driver/Src/stm32h7xx_ll_usb.c ****     {
 2144              		.loc 1 716 5 is_stmt 1 view .LVU658
 716:Drivers/STM32H7xx_HAL_Driver/Src/stm32h7xx_ll_usb.c ****     {
 2145              		.loc 1 716 8 is_stmt 0 view .LVU659
 2146 008c 012A     		cmp	r2, #1
 2147 008e 4AD0     		beq	.L165
 741:Drivers/STM32H7xx_HAL_Driver/Src/stm32h7xx_ll_usb.c **** 
 2148              		.loc 1 741 7 is_stmt 1 view .LVU660
 741:Drivers/STM32H7xx_HAL_Driver/Src/stm32h7xx_ll_usb.c **** 
 2149              		.loc 1 741 33 is_stmt 0 view .LVU661
 2150 0090 00EB4313 		add	r3, r0, r3, lsl #5
 2151              	.LVL172:
 741:Drivers/STM32H7xx_HAL_Driver/Src/stm32h7xx_ll_usb.c **** 
 2152              		.loc 1 741 33 view .LVU662
 2153 0094 D3F80049 		ldr	r4, [r3, #2304]
 2154 0098 44F00444 		orr	r4, r4, #-2080374784
 2155 009c C3F80049 		str	r4, [r3, #2304]
 743:Drivers/STM32H7xx_HAL_Driver/Src/stm32h7xx_ll_usb.c ****       {
 2156              		.loc 1 743 7 is_stmt 1 view .LVU663
 743:Drivers/STM32H7xx_HAL_Driver/Src/stm32h7xx_ll_usb.c ****       {
 2157              		.loc 1 743 13 is_stmt 0 view .LVU664
 2158 00a0 CC78     		ldrb	r4, [r1, #3]	@ zero_extendqisi2
 743:Drivers/STM32H7xx_HAL_Driver/Src/stm32h7xx_ll_usb.c ****       {
 2159              		.loc 1 743 10 view .LVU665
 2160 00a2 012C     		cmp	r4, #1
 2161 00a4 68D0     		beq	.L153
 746:Drivers/STM32H7xx_HAL_Driver/Src/stm32h7xx_ll_usb.c ****         {
 2162              		.loc 1 746 9 is_stmt 1 view .LVU666
 746:Drivers/STM32H7xx_HAL_Driver/Src/stm32h7xx_ll_usb.c ****         {
 2163              		.loc 1 746 15 is_stmt 0 view .LVU667
 2164 00a6 4B69     		ldr	r3, [r1, #20]
 746:Drivers/STM32H7xx_HAL_Driver/Src/stm32h7xx_ll_usb.c ****         {
 2165              		.loc 1 746 12 view .LVU668
 2166 00a8 002B     		cmp	r3, #0
 2167 00aa D6D0     		beq	.L152
 748:Drivers/STM32H7xx_HAL_Driver/Src/stm32h7xx_ll_usb.c ****         }
 2168              		.loc 1 748 11 is_stmt 1 view .LVU669
 748:Drivers/STM32H7xx_HAL_Driver/Src/stm32h7xx_ll_usb.c ****         }
 2169              		.loc 1 748 35 is_stmt 0 view .LVU670
 2170 00ac D0F83428 		ldr	r2, [r0, #2100]
 2171              	.LVL173:
 748:Drivers/STM32H7xx_HAL_Driver/Src/stm32h7xx_ll_usb.c ****         }
 2172              		.loc 1 748 48 view .LVU671
 2173 00b0 0978     		ldrb	r1, [r1]	@ zero_extendqisi2
 2174              	.LVL174:
 748:Drivers/STM32H7xx_HAL_Driver/Src/stm32h7xx_ll_usb.c ****         }
ARM GAS  /tmp/cc0TWTOC.s 			page 73


 2175              		.loc 1 748 54 view .LVU672
 2176 00b2 01F00F04 		and	r4, r1, #15
 748:Drivers/STM32H7xx_HAL_Driver/Src/stm32h7xx_ll_usb.c ****         }
 2177              		.loc 1 748 42 view .LVU673
 2178 00b6 0121     		movs	r1, #1
 2179 00b8 A140     		lsls	r1, r1, r4
 748:Drivers/STM32H7xx_HAL_Driver/Src/stm32h7xx_ll_usb.c ****         }
 2180              		.loc 1 748 35 view .LVU674
 2181 00ba 0A43     		orrs	r2, r2, r1
 2182 00bc C0F83428 		str	r2, [r0, #2100]
 2183 00c0 CBE7     		b	.L152
 2184              	.LVL175:
 2185              	.L146:
 704:Drivers/STM32H7xx_HAL_Driver/Src/stm32h7xx_ll_usb.c ****       USBx_INEP(epnum)->DIEPTSIZ &= ~(USB_OTG_DIEPTSIZ_PKTCNT);
 2186              		.loc 1 704 7 is_stmt 1 view .LVU675
 704:Drivers/STM32H7xx_HAL_Driver/Src/stm32h7xx_ll_usb.c ****       USBx_INEP(epnum)->DIEPTSIZ &= ~(USB_OTG_DIEPTSIZ_PKTCNT);
 2187              		.loc 1 704 34 is_stmt 0 view .LVU676
 2188 00c2 00EB4314 		add	r4, r0, r3, lsl #5
 2189 00c6 D4F81069 		ldr	r6, [r4, #2320]
 2190 00ca 4F4D     		ldr	r5, .L167
 2191 00cc 3540     		ands	r5, r5, r6
 2192 00ce C4F81059 		str	r5, [r4, #2320]
 705:Drivers/STM32H7xx_HAL_Driver/Src/stm32h7xx_ll_usb.c ****       USBx_INEP(epnum)->DIEPTSIZ |= (USB_OTG_DIEPTSIZ_PKTCNT & (((ep->xfer_len + ep->maxpacket - 1U
 2193              		.loc 1 705 7 is_stmt 1 view .LVU677
 705:Drivers/STM32H7xx_HAL_Driver/Src/stm32h7xx_ll_usb.c ****       USBx_INEP(epnum)->DIEPTSIZ |= (USB_OTG_DIEPTSIZ_PKTCNT & (((ep->xfer_len + ep->maxpacket - 1U
 2194              		.loc 1 705 34 is_stmt 0 view .LVU678
 2195 00d2 D4F81069 		ldr	r6, [r4, #2320]
 2196 00d6 4D4D     		ldr	r5, .L167+4
 2197 00d8 3540     		ands	r5, r5, r6
 2198 00da C4F81059 		str	r5, [r4, #2320]
 706:Drivers/STM32H7xx_HAL_Driver/Src/stm32h7xx_ll_usb.c ****       USBx_INEP(epnum)->DIEPTSIZ |= (USB_OTG_DIEPTSIZ_XFRSIZ & ep->xfer_len);
 2199              		.loc 1 706 7 is_stmt 1 view .LVU679
 706:Drivers/STM32H7xx_HAL_Driver/Src/stm32h7xx_ll_usb.c ****       USBx_INEP(epnum)->DIEPTSIZ |= (USB_OTG_DIEPTSIZ_XFRSIZ & ep->xfer_len);
 2200              		.loc 1 706 34 is_stmt 0 view .LVU680
 2201 00de D4F81069 		ldr	r6, [r4, #2320]
 706:Drivers/STM32H7xx_HAL_Driver/Src/stm32h7xx_ll_usb.c ****       USBx_INEP(epnum)->DIEPTSIZ |= (USB_OTG_DIEPTSIZ_XFRSIZ & ep->xfer_len);
 2202              		.loc 1 706 69 view .LVU681
 2203 00e2 4D69     		ldr	r5, [r1, #20]
 706:Drivers/STM32H7xx_HAL_Driver/Src/stm32h7xx_ll_usb.c ****       USBx_INEP(epnum)->DIEPTSIZ |= (USB_OTG_DIEPTSIZ_XFRSIZ & ep->xfer_len);
 2204              		.loc 1 706 84 view .LVU682
 2205 00e4 8F68     		ldr	r7, [r1, #8]
 706:Drivers/STM32H7xx_HAL_Driver/Src/stm32h7xx_ll_usb.c ****       USBx_INEP(epnum)->DIEPTSIZ |= (USB_OTG_DIEPTSIZ_XFRSIZ & ep->xfer_len);
 2206              		.loc 1 706 80 view .LVU683
 2207 00e6 3D44     		add	r5, r5, r7
 706:Drivers/STM32H7xx_HAL_Driver/Src/stm32h7xx_ll_usb.c ****       USBx_INEP(epnum)->DIEPTSIZ |= (USB_OTG_DIEPTSIZ_XFRSIZ & ep->xfer_len);
 2208              		.loc 1 706 96 view .LVU684
 2209 00e8 013D     		subs	r5, r5, #1
 706:Drivers/STM32H7xx_HAL_Driver/Src/stm32h7xx_ll_usb.c ****       USBx_INEP(epnum)->DIEPTSIZ |= (USB_OTG_DIEPTSIZ_XFRSIZ & ep->xfer_len);
 2210              		.loc 1 706 102 view .LVU685
 2211 00ea B5FBF7F5 		udiv	r5, r5, r7
 706:Drivers/STM32H7xx_HAL_Driver/Src/stm32h7xx_ll_usb.c ****       USBx_INEP(epnum)->DIEPTSIZ |= (USB_OTG_DIEPTSIZ_XFRSIZ & ep->xfer_len);
 2212              		.loc 1 706 62 view .LVU686
 2213 00ee 484F     		ldr	r7, .L167+8
 2214 00f0 07EAC545 		and	r5, r7, r5, lsl #19
 706:Drivers/STM32H7xx_HAL_Driver/Src/stm32h7xx_ll_usb.c ****       USBx_INEP(epnum)->DIEPTSIZ |= (USB_OTG_DIEPTSIZ_XFRSIZ & ep->xfer_len);
 2215              		.loc 1 706 34 view .LVU687
 2216 00f4 3543     		orrs	r5, r5, r6
ARM GAS  /tmp/cc0TWTOC.s 			page 74


 2217 00f6 C4F81059 		str	r5, [r4, #2320]
 707:Drivers/STM32H7xx_HAL_Driver/Src/stm32h7xx_ll_usb.c **** 
 2218              		.loc 1 707 7 is_stmt 1 view .LVU688
 707:Drivers/STM32H7xx_HAL_Driver/Src/stm32h7xx_ll_usb.c **** 
 2219              		.loc 1 707 34 is_stmt 0 view .LVU689
 2220 00fa D4F81059 		ldr	r5, [r4, #2320]
 707:Drivers/STM32H7xx_HAL_Driver/Src/stm32h7xx_ll_usb.c **** 
 2221              		.loc 1 707 66 view .LVU690
 2222 00fe 4E69     		ldr	r6, [r1, #20]
 707:Drivers/STM32H7xx_HAL_Driver/Src/stm32h7xx_ll_usb.c **** 
 2223              		.loc 1 707 62 view .LVU691
 2224 0100 C6F31206 		ubfx	r6, r6, #0, #19
 707:Drivers/STM32H7xx_HAL_Driver/Src/stm32h7xx_ll_usb.c **** 
 2225              		.loc 1 707 34 view .LVU692
 2226 0104 3543     		orrs	r5, r5, r6
 2227 0106 C4F81059 		str	r5, [r4, #2320]
 704:Drivers/STM32H7xx_HAL_Driver/Src/stm32h7xx_ll_usb.c ****       USBx_INEP(epnum)->DIEPTSIZ &= ~(USB_OTG_DIEPTSIZ_PKTCNT);
 2228              		.loc 1 704 34 view .LVU693
 2229 010a 04F51064 		add	r4, r4, #2304
 709:Drivers/STM32H7xx_HAL_Driver/Src/stm32h7xx_ll_usb.c ****       {
 2230              		.loc 1 709 7 is_stmt 1 view .LVU694
 709:Drivers/STM32H7xx_HAL_Driver/Src/stm32h7xx_ll_usb.c ****       {
 2231              		.loc 1 709 13 is_stmt 0 view .LVU695
 2232 010e CD78     		ldrb	r5, [r1, #3]	@ zero_extendqisi2
 709:Drivers/STM32H7xx_HAL_Driver/Src/stm32h7xx_ll_usb.c ****       {
 2233              		.loc 1 709 10 view .LVU696
 2234 0110 012D     		cmp	r5, #1
 2235 0112 BBD1     		bne	.L147
 711:Drivers/STM32H7xx_HAL_Driver/Src/stm32h7xx_ll_usb.c ****         USBx_INEP(epnum)->DIEPTSIZ |= (USB_OTG_DIEPTSIZ_MULCNT & (1U << 29));
 2236              		.loc 1 711 9 is_stmt 1 view .LVU697
 711:Drivers/STM32H7xx_HAL_Driver/Src/stm32h7xx_ll_usb.c ****         USBx_INEP(epnum)->DIEPTSIZ |= (USB_OTG_DIEPTSIZ_MULCNT & (1U << 29));
 2237              		.loc 1 711 36 is_stmt 0 view .LVU698
 2238 0114 2569     		ldr	r5, [r4, #16]
 2239 0116 25F0C045 		bic	r5, r5, #1610612736
 2240 011a 2561     		str	r5, [r4, #16]
 712:Drivers/STM32H7xx_HAL_Driver/Src/stm32h7xx_ll_usb.c ****       }
 2241              		.loc 1 712 9 is_stmt 1 view .LVU699
 712:Drivers/STM32H7xx_HAL_Driver/Src/stm32h7xx_ll_usb.c ****       }
 2242              		.loc 1 712 36 is_stmt 0 view .LVU700
 2243 011c 2569     		ldr	r5, [r4, #16]
 2244 011e 45F00055 		orr	r5, r5, #536870912
 2245 0122 2561     		str	r5, [r4, #16]
 2246 0124 B2E7     		b	.L147
 2247              	.L165:
 718:Drivers/STM32H7xx_HAL_Driver/Src/stm32h7xx_ll_usb.c ****       {
 2248              		.loc 1 718 7 is_stmt 1 view .LVU701
 718:Drivers/STM32H7xx_HAL_Driver/Src/stm32h7xx_ll_usb.c ****       {
 2249              		.loc 1 718 23 is_stmt 0 view .LVU702
 2250 0126 0A69     		ldr	r2, [r1, #16]
 2251              	.LVL176:
 718:Drivers/STM32H7xx_HAL_Driver/Src/stm32h7xx_ll_usb.c ****       {
 2252              		.loc 1 718 10 view .LVU703
 2253 0128 1AB1     		cbz	r2, .L149
 720:Drivers/STM32H7xx_HAL_Driver/Src/stm32h7xx_ll_usb.c ****       }
 2254              		.loc 1 720 9 is_stmt 1 view .LVU704
 2255 012a 00EB4314 		add	r4, r0, r3, lsl #5
 720:Drivers/STM32H7xx_HAL_Driver/Src/stm32h7xx_ll_usb.c ****       }
ARM GAS  /tmp/cc0TWTOC.s 			page 75


 2256              		.loc 1 720 35 is_stmt 0 view .LVU705
 2257 012e C4F81429 		str	r2, [r4, #2324]
 2258              	.L149:
 723:Drivers/STM32H7xx_HAL_Driver/Src/stm32h7xx_ll_usb.c ****       {
 2259              		.loc 1 723 7 is_stmt 1 view .LVU706
 723:Drivers/STM32H7xx_HAL_Driver/Src/stm32h7xx_ll_usb.c ****       {
 2260              		.loc 1 723 13 is_stmt 0 view .LVU707
 2261 0132 CA78     		ldrb	r2, [r1, #3]	@ zero_extendqisi2
 723:Drivers/STM32H7xx_HAL_Driver/Src/stm32h7xx_ll_usb.c ****       {
 2262              		.loc 1 723 10 view .LVU708
 2263 0134 012A     		cmp	r2, #1
 2264 0136 08D0     		beq	.L166
 2265              	.LVL177:
 2266              	.L150:
 736:Drivers/STM32H7xx_HAL_Driver/Src/stm32h7xx_ll_usb.c ****     }
 2267              		.loc 1 736 7 is_stmt 1 view .LVU709
 736:Drivers/STM32H7xx_HAL_Driver/Src/stm32h7xx_ll_usb.c ****     }
 2268              		.loc 1 736 33 is_stmt 0 view .LVU710
 2269 0138 00EB4313 		add	r3, r0, r3, lsl #5
 2270              	.LVL178:
 736:Drivers/STM32H7xx_HAL_Driver/Src/stm32h7xx_ll_usb.c ****     }
 2271              		.loc 1 736 33 view .LVU711
 2272 013c D3F80029 		ldr	r2, [r3, #2304]
 2273 0140 42F00442 		orr	r2, r2, #-2080374784
 2274 0144 C3F80029 		str	r2, [r3, #2304]
 2275 0148 87E7     		b	.L152
 2276              	.LVL179:
 2277              	.L166:
 725:Drivers/STM32H7xx_HAL_Driver/Src/stm32h7xx_ll_usb.c ****         {
 2278              		.loc 1 725 9 is_stmt 1 view .LVU712
 725:Drivers/STM32H7xx_HAL_Driver/Src/stm32h7xx_ll_usb.c ****         {
 2279              		.loc 1 725 25 is_stmt 0 view .LVU713
 2280 014a D0F80828 		ldr	r2, [r0, #2056]
 725:Drivers/STM32H7xx_HAL_Driver/Src/stm32h7xx_ll_usb.c ****         {
 2281              		.loc 1 725 12 view .LVU714
 2282 014e 12F4807F 		tst	r2, #256
 2283 0152 08D1     		bne	.L151
 727:Drivers/STM32H7xx_HAL_Driver/Src/stm32h7xx_ll_usb.c ****         }
 2284              		.loc 1 727 11 is_stmt 1 view .LVU715
 727:Drivers/STM32H7xx_HAL_Driver/Src/stm32h7xx_ll_usb.c ****         }
 2285              		.loc 1 727 37 is_stmt 0 view .LVU716
 2286 0154 00EB4311 		add	r1, r0, r3, lsl #5
 2287              	.LVL180:
 727:Drivers/STM32H7xx_HAL_Driver/Src/stm32h7xx_ll_usb.c ****         }
 2288              		.loc 1 727 37 view .LVU717
 2289 0158 D1F80029 		ldr	r2, [r1, #2304]
 2290 015c 42F00052 		orr	r2, r2, #536870912
 2291 0160 C1F80029 		str	r2, [r1, #2304]
 2292 0164 E8E7     		b	.L150
 2293              	.LVL181:
 2294              	.L151:
 731:Drivers/STM32H7xx_HAL_Driver/Src/stm32h7xx_ll_usb.c ****         }
 2295              		.loc 1 731 11 is_stmt 1 view .LVU718
 731:Drivers/STM32H7xx_HAL_Driver/Src/stm32h7xx_ll_usb.c ****         }
 2296              		.loc 1 731 37 is_stmt 0 view .LVU719
 2297 0166 00EB4311 		add	r1, r0, r3, lsl #5
 2298              	.LVL182:
ARM GAS  /tmp/cc0TWTOC.s 			page 76


 731:Drivers/STM32H7xx_HAL_Driver/Src/stm32h7xx_ll_usb.c ****         }
 2299              		.loc 1 731 37 view .LVU720
 2300 016a D1F80029 		ldr	r2, [r1, #2304]
 2301 016e 42F08052 		orr	r2, r2, #268435456
 2302 0172 C1F80029 		str	r2, [r1, #2304]
 2303 0176 DFE7     		b	.L150
 2304              	.LVL183:
 2305              	.L153:
 753:Drivers/STM32H7xx_HAL_Driver/Src/stm32h7xx_ll_usb.c ****         {
 2306              		.loc 1 753 9 is_stmt 1 view .LVU721
 753:Drivers/STM32H7xx_HAL_Driver/Src/stm32h7xx_ll_usb.c ****         {
 2307              		.loc 1 753 25 is_stmt 0 view .LVU722
 2308 0178 D0F80848 		ldr	r4, [r0, #2056]
 753:Drivers/STM32H7xx_HAL_Driver/Src/stm32h7xx_ll_usb.c ****         {
 2309              		.loc 1 753 12 view .LVU723
 2310 017c 14F4807F 		tst	r4, #256
 2311 0180 0CD1     		bne	.L154
 755:Drivers/STM32H7xx_HAL_Driver/Src/stm32h7xx_ll_usb.c ****         }
 2312              		.loc 1 755 11 is_stmt 1 view .LVU724
 755:Drivers/STM32H7xx_HAL_Driver/Src/stm32h7xx_ll_usb.c ****         }
 2313              		.loc 1 755 37 is_stmt 0 view .LVU725
 2314 0182 D3F80049 		ldr	r4, [r3, #2304]
 2315 0186 44F00054 		orr	r4, r4, #536870912
 2316 018a C3F80049 		str	r4, [r3, #2304]
 2317              	.L155:
 762:Drivers/STM32H7xx_HAL_Driver/Src/stm32h7xx_ll_usb.c ****       }
 2318              		.loc 1 762 9 is_stmt 1 view .LVU726
 762:Drivers/STM32H7xx_HAL_Driver/Src/stm32h7xx_ll_usb.c ****       }
 2319              		.loc 1 762 15 is_stmt 0 view .LVU727
 2320 018e 0092     		str	r2, [sp]
 2321 0190 8B8A     		ldrh	r3, [r1, #20]
 2322 0192 0A78     		ldrb	r2, [r1]	@ zero_extendqisi2
 2323              	.LVL184:
 762:Drivers/STM32H7xx_HAL_Driver/Src/stm32h7xx_ll_usb.c ****       }
 2324              		.loc 1 762 15 view .LVU728
 2325 0194 C968     		ldr	r1, [r1, #12]
 2326              	.LVL185:
 762:Drivers/STM32H7xx_HAL_Driver/Src/stm32h7xx_ll_usb.c ****       }
 2327              		.loc 1 762 15 view .LVU729
 2328 0196 FFF7FEFF 		bl	USB_WritePacket
 2329              	.LVL186:
 762:Drivers/STM32H7xx_HAL_Driver/Src/stm32h7xx_ll_usb.c ****       }
 2330              		.loc 1 762 15 view .LVU730
 2331 019a 5EE7     		b	.L152
 2332              	.LVL187:
 2333              	.L154:
 759:Drivers/STM32H7xx_HAL_Driver/Src/stm32h7xx_ll_usb.c ****         }
 2334              		.loc 1 759 11 is_stmt 1 view .LVU731
 759:Drivers/STM32H7xx_HAL_Driver/Src/stm32h7xx_ll_usb.c ****         }
 2335              		.loc 1 759 37 is_stmt 0 view .LVU732
 2336 019c D3F80049 		ldr	r4, [r3, #2304]
 2337 01a0 44F08054 		orr	r4, r4, #268435456
 2338 01a4 C3F80049 		str	r4, [r3, #2304]
 2339 01a8 F1E7     		b	.L155
 2340              	.L156:
 782:Drivers/STM32H7xx_HAL_Driver/Src/stm32h7xx_ll_usb.c ****       USBx_OUTEP(epnum)->DOEPTSIZ |= USB_OTG_DOEPTSIZ_PKTCNT & ((uint32_t)pktcnt << 19);
 2341              		.loc 1 782 7 is_stmt 1 view .LVU733
ARM GAS  /tmp/cc0TWTOC.s 			page 77


 782:Drivers/STM32H7xx_HAL_Driver/Src/stm32h7xx_ll_usb.c ****       USBx_OUTEP(epnum)->DOEPTSIZ |= USB_OTG_DOEPTSIZ_PKTCNT & ((uint32_t)pktcnt << 19);
 2342              		.loc 1 782 45 is_stmt 0 view .LVU734
 2343 01aa 8E68     		ldr	r6, [r1, #8]
 782:Drivers/STM32H7xx_HAL_Driver/Src/stm32h7xx_ll_usb.c ****       USBx_OUTEP(epnum)->DOEPTSIZ |= USB_OTG_DOEPTSIZ_PKTCNT & ((uint32_t)pktcnt << 19);
 2344              		.loc 1 782 41 view .LVU735
 2345 01ac 3544     		add	r5, r5, r6
 782:Drivers/STM32H7xx_HAL_Driver/Src/stm32h7xx_ll_usb.c ****       USBx_OUTEP(epnum)->DOEPTSIZ |= USB_OTG_DOEPTSIZ_PKTCNT & ((uint32_t)pktcnt << 19);
 2346              		.loc 1 782 57 view .LVU736
 2347 01ae 013D     		subs	r5, r5, #1
 782:Drivers/STM32H7xx_HAL_Driver/Src/stm32h7xx_ll_usb.c ****       USBx_OUTEP(epnum)->DOEPTSIZ |= USB_OTG_DOEPTSIZ_PKTCNT & ((uint32_t)pktcnt << 19);
 2348              		.loc 1 782 63 view .LVU737
 2349 01b0 B5FBF6F5 		udiv	r5, r5, r6
 2350              	.LVL188:
 783:Drivers/STM32H7xx_HAL_Driver/Src/stm32h7xx_ll_usb.c ****       USBx_OUTEP(epnum)->DOEPTSIZ |= USB_OTG_DOEPTSIZ_XFRSIZ & (ep->maxpacket * pktcnt);
 2351              		.loc 1 783 7 is_stmt 1 view .LVU738
 783:Drivers/STM32H7xx_HAL_Driver/Src/stm32h7xx_ll_usb.c ****       USBx_OUTEP(epnum)->DOEPTSIZ |= USB_OTG_DOEPTSIZ_XFRSIZ & (ep->maxpacket * pktcnt);
 2352              		.loc 1 783 35 is_stmt 0 view .LVU739
 2353 01b4 2669     		ldr	r6, [r4, #16]
 783:Drivers/STM32H7xx_HAL_Driver/Src/stm32h7xx_ll_usb.c ****       USBx_OUTEP(epnum)->DOEPTSIZ |= USB_OTG_DOEPTSIZ_XFRSIZ & (ep->maxpacket * pktcnt);
 2354              		.loc 1 783 62 view .LVU740
 2355 01b6 164F     		ldr	r7, .L167+8
 2356 01b8 07EAC547 		and	r7, r7, r5, lsl #19
 783:Drivers/STM32H7xx_HAL_Driver/Src/stm32h7xx_ll_usb.c ****       USBx_OUTEP(epnum)->DOEPTSIZ |= USB_OTG_DOEPTSIZ_XFRSIZ & (ep->maxpacket * pktcnt);
 2357              		.loc 1 783 35 view .LVU741
 2358 01bc 3E43     		orrs	r6, r6, r7
 2359 01be 2661     		str	r6, [r4, #16]
 784:Drivers/STM32H7xx_HAL_Driver/Src/stm32h7xx_ll_usb.c ****     }
 2360              		.loc 1 784 7 is_stmt 1 view .LVU742
 784:Drivers/STM32H7xx_HAL_Driver/Src/stm32h7xx_ll_usb.c ****     }
 2361              		.loc 1 784 35 is_stmt 0 view .LVU743
 2362 01c0 2769     		ldr	r7, [r4, #16]
 784:Drivers/STM32H7xx_HAL_Driver/Src/stm32h7xx_ll_usb.c ****     }
 2363              		.loc 1 784 67 view .LVU744
 2364 01c2 8E68     		ldr	r6, [r1, #8]
 784:Drivers/STM32H7xx_HAL_Driver/Src/stm32h7xx_ll_usb.c ****     }
 2365              		.loc 1 784 79 view .LVU745
 2366 01c4 ADB2     		uxth	r5, r5
 784:Drivers/STM32H7xx_HAL_Driver/Src/stm32h7xx_ll_usb.c ****     }
 2367              		.loc 1 784 79 view .LVU746
 2368 01c6 06FB05F5 		mul	r5, r6, r5
 2369              	.LVL189:
 784:Drivers/STM32H7xx_HAL_Driver/Src/stm32h7xx_ll_usb.c ****     }
 2370              		.loc 1 784 62 view .LVU747
 2371 01ca C5F31205 		ubfx	r5, r5, #0, #19
 784:Drivers/STM32H7xx_HAL_Driver/Src/stm32h7xx_ll_usb.c ****     }
 2372              		.loc 1 784 35 view .LVU748
 2373 01ce 3D43     		orrs	r5, r5, r7
 2374 01d0 2561     		str	r5, [r4, #16]
 2375 01d2 35E7     		b	.L157
 2376              	.L163:
 789:Drivers/STM32H7xx_HAL_Driver/Src/stm32h7xx_ll_usb.c ****       {
 2377              		.loc 1 789 7 is_stmt 1 view .LVU749
 789:Drivers/STM32H7xx_HAL_Driver/Src/stm32h7xx_ll_usb.c ****       {
 2378              		.loc 1 789 23 is_stmt 0 view .LVU750
 2379 01d4 CA68     		ldr	r2, [r1, #12]
 2380              	.LVL190:
 789:Drivers/STM32H7xx_HAL_Driver/Src/stm32h7xx_ll_usb.c ****       {
ARM GAS  /tmp/cc0TWTOC.s 			page 78


 2381              		.loc 1 789 10 view .LVU751
 2382 01d6 002A     		cmp	r2, #0
 2383 01d8 3FF435AF 		beq	.L158
 791:Drivers/STM32H7xx_HAL_Driver/Src/stm32h7xx_ll_usb.c ****       }
 2384              		.loc 1 791 9 is_stmt 1 view .LVU752
 791:Drivers/STM32H7xx_HAL_Driver/Src/stm32h7xx_ll_usb.c ****       }
 2385              		.loc 1 791 36 is_stmt 0 view .LVU753
 2386 01dc 6261     		str	r2, [r4, #20]
 2387 01de 32E7     		b	.L158
 2388              	.L164:
 797:Drivers/STM32H7xx_HAL_Driver/Src/stm32h7xx_ll_usb.c ****       {
 2389              		.loc 1 797 7 is_stmt 1 view .LVU754
 797:Drivers/STM32H7xx_HAL_Driver/Src/stm32h7xx_ll_usb.c ****       {
 2390              		.loc 1 797 23 is_stmt 0 view .LVU755
 2391 01e0 D0F80828 		ldr	r2, [r0, #2056]
 797:Drivers/STM32H7xx_HAL_Driver/Src/stm32h7xx_ll_usb.c ****       {
 2392              		.loc 1 797 10 view .LVU756
 2393 01e4 12F4807F 		tst	r2, #256
 2394 01e8 06D1     		bne	.L160
 799:Drivers/STM32H7xx_HAL_Driver/Src/stm32h7xx_ll_usb.c ****       }
 2395              		.loc 1 799 9 is_stmt 1 view .LVU757
 799:Drivers/STM32H7xx_HAL_Driver/Src/stm32h7xx_ll_usb.c ****       }
 2396              		.loc 1 799 36 is_stmt 0 view .LVU758
 2397 01ea D3F8002B 		ldr	r2, [r3, #2816]
 2398 01ee 42F00052 		orr	r2, r2, #536870912
 2399 01f2 C3F8002B 		str	r2, [r3, #2816]
 2400 01f6 2AE7     		b	.L159
 2401              	.L160:
 803:Drivers/STM32H7xx_HAL_Driver/Src/stm32h7xx_ll_usb.c ****       }
 2402              		.loc 1 803 9 is_stmt 1 view .LVU759
 803:Drivers/STM32H7xx_HAL_Driver/Src/stm32h7xx_ll_usb.c ****       }
 2403              		.loc 1 803 36 is_stmt 0 view .LVU760
 2404 01f8 D3F8002B 		ldr	r2, [r3, #2816]
 2405 01fc 42F08052 		orr	r2, r2, #268435456
 2406 0200 C3F8002B 		str	r2, [r3, #2816]
 2407 0204 23E7     		b	.L159
 2408              	.L168:
 2409 0206 00BF     		.align	2
 2410              	.L167:
 2411 0208 0000F8FF 		.word	-524288
 2412 020c FFFF07E0 		.word	-536346625
 2413 0210 0000F81F 		.word	536346624
 2414              		.cfi_endproc
 2415              	.LFE155:
 2417              		.section	.text.USB_ReadPacket,"ax",%progbits
 2418              		.align	1
 2419              		.global	USB_ReadPacket
 2420              		.syntax unified
 2421              		.thumb
 2422              		.thumb_func
 2423              		.fpu fpv5-d16
 2425              	USB_ReadPacket:
 2426              	.LVL191:
 2427              	.LFB158:
 950:Drivers/STM32H7xx_HAL_Driver/Src/stm32h7xx_ll_usb.c ****   uint32_t USBx_BASE = (uint32_t)USBx;
 2428              		.loc 1 950 1 is_stmt 1 view -0
 2429              		.cfi_startproc
ARM GAS  /tmp/cc0TWTOC.s 			page 79


 2430              		@ args = 0, pretend = 0, frame = 0
 2431              		@ frame_needed = 0, uses_anonymous_args = 0
 2432              		@ link register save eliminated.
 950:Drivers/STM32H7xx_HAL_Driver/Src/stm32h7xx_ll_usb.c ****   uint32_t USBx_BASE = (uint32_t)USBx;
 2433              		.loc 1 950 1 is_stmt 0 view .LVU762
 2434 0000 10B4     		push	{r4}
 2435              	.LCFI29:
 2436              		.cfi_def_cfa_offset 4
 2437              		.cfi_offset 4, -4
 951:Drivers/STM32H7xx_HAL_Driver/Src/stm32h7xx_ll_usb.c ****   uint32_t *pDest = (uint32_t *)dest;
 2438              		.loc 1 951 3 is_stmt 1 view .LVU763
 2439              	.LVL192:
 952:Drivers/STM32H7xx_HAL_Driver/Src/stm32h7xx_ll_usb.c ****   uint32_t i;
 2440              		.loc 1 952 3 view .LVU764
 953:Drivers/STM32H7xx_HAL_Driver/Src/stm32h7xx_ll_usb.c ****   uint32_t count32b = ((uint32_t)len + 3U) / 4U;
 2441              		.loc 1 953 3 view .LVU765
 954:Drivers/STM32H7xx_HAL_Driver/Src/stm32h7xx_ll_usb.c **** 
 2442              		.loc 1 954 3 view .LVU766
 954:Drivers/STM32H7xx_HAL_Driver/Src/stm32h7xx_ll_usb.c **** 
 2443              		.loc 1 954 38 is_stmt 0 view .LVU767
 2444 0002 0332     		adds	r2, r2, #3
 2445              	.LVL193:
 954:Drivers/STM32H7xx_HAL_Driver/Src/stm32h7xx_ll_usb.c **** 
 2446              		.loc 1 954 12 view .LVU768
 2447 0004 9408     		lsrs	r4, r2, #2
 2448              	.LVL194:
 956:Drivers/STM32H7xx_HAL_Driver/Src/stm32h7xx_ll_usb.c ****   {
 2449              		.loc 1 956 3 is_stmt 1 view .LVU769
 956:Drivers/STM32H7xx_HAL_Driver/Src/stm32h7xx_ll_usb.c ****   {
 2450              		.loc 1 956 10 is_stmt 0 view .LVU770
 2451 0006 0023     		movs	r3, #0
 2452              	.LVL195:
 2453              	.L170:
 956:Drivers/STM32H7xx_HAL_Driver/Src/stm32h7xx_ll_usb.c ****   {
 2454              		.loc 1 956 3 discriminator 1 view .LVU771
 2455 0008 A342     		cmp	r3, r4
 2456 000a 06D2     		bcs	.L173
 958:Drivers/STM32H7xx_HAL_Driver/Src/stm32h7xx_ll_usb.c ****     pDest++;
 2457              		.loc 1 958 5 is_stmt 1 discriminator 3 view .LVU772
 2458 000c 00F58052 		add	r2, r0, #4096
 2459 0010 1268     		ldr	r2, [r2]
 2460 0012 41F8042B 		str	r2, [r1], #4	@ unaligned
 2461              	.LVL196:
 959:Drivers/STM32H7xx_HAL_Driver/Src/stm32h7xx_ll_usb.c ****   }
 2462              		.loc 1 959 5 discriminator 3 view .LVU773
 956:Drivers/STM32H7xx_HAL_Driver/Src/stm32h7xx_ll_usb.c ****   {
 2463              		.loc 1 956 31 is_stmt 0 discriminator 3 view .LVU774
 2464 0016 0133     		adds	r3, r3, #1
 2465              	.LVL197:
 956:Drivers/STM32H7xx_HAL_Driver/Src/stm32h7xx_ll_usb.c ****   {
 2466              		.loc 1 956 31 discriminator 3 view .LVU775
 2467 0018 F6E7     		b	.L170
 2468              	.L173:
 962:Drivers/STM32H7xx_HAL_Driver/Src/stm32h7xx_ll_usb.c **** }
 2469              		.loc 1 962 3 is_stmt 1 view .LVU776
 963:Drivers/STM32H7xx_HAL_Driver/Src/stm32h7xx_ll_usb.c **** 
 2470              		.loc 1 963 1 is_stmt 0 view .LVU777
ARM GAS  /tmp/cc0TWTOC.s 			page 80


 2471 001a 0846     		mov	r0, r1
 2472              	.LVL198:
 963:Drivers/STM32H7xx_HAL_Driver/Src/stm32h7xx_ll_usb.c **** 
 2473              		.loc 1 963 1 view .LVU778
 2474 001c 5DF8044B 		ldr	r4, [sp], #4
 2475              	.LCFI30:
 2476              		.cfi_restore 4
 2477              		.cfi_def_cfa_offset 0
 2478              	.LVL199:
 963:Drivers/STM32H7xx_HAL_Driver/Src/stm32h7xx_ll_usb.c **** 
 2479              		.loc 1 963 1 view .LVU779
 2480 0020 7047     		bx	lr
 2481              		.cfi_endproc
 2482              	.LFE158:
 2484              		.section	.text.USB_EPSetStall,"ax",%progbits
 2485              		.align	1
 2486              		.global	USB_EPSetStall
 2487              		.syntax unified
 2488              		.thumb
 2489              		.thumb_func
 2490              		.fpu fpv5-d16
 2492              	USB_EPSetStall:
 2493              	.LVL200:
 2494              	.LFB159:
 972:Drivers/STM32H7xx_HAL_Driver/Src/stm32h7xx_ll_usb.c ****   uint32_t USBx_BASE = (uint32_t)USBx;
 2495              		.loc 1 972 1 is_stmt 1 view -0
 2496              		.cfi_startproc
 2497              		@ args = 0, pretend = 0, frame = 0
 2498              		@ frame_needed = 0, uses_anonymous_args = 0
 2499              		@ link register save eliminated.
 973:Drivers/STM32H7xx_HAL_Driver/Src/stm32h7xx_ll_usb.c ****   uint32_t epnum = (uint32_t)ep->num;
 2500              		.loc 1 973 3 view .LVU781
 974:Drivers/STM32H7xx_HAL_Driver/Src/stm32h7xx_ll_usb.c **** 
 2501              		.loc 1 974 3 view .LVU782
 974:Drivers/STM32H7xx_HAL_Driver/Src/stm32h7xx_ll_usb.c **** 
 2502              		.loc 1 974 32 is_stmt 0 view .LVU783
 2503 0000 0B78     		ldrb	r3, [r1]	@ zero_extendqisi2
 2504              	.LVL201:
 976:Drivers/STM32H7xx_HAL_Driver/Src/stm32h7xx_ll_usb.c ****   {
 2505              		.loc 1 976 3 is_stmt 1 view .LVU784
 976:Drivers/STM32H7xx_HAL_Driver/Src/stm32h7xx_ll_usb.c ****   {
 2506              		.loc 1 976 9 is_stmt 0 view .LVU785
 2507 0002 4A78     		ldrb	r2, [r1, #1]	@ zero_extendqisi2
 976:Drivers/STM32H7xx_HAL_Driver/Src/stm32h7xx_ll_usb.c ****   {
 2508              		.loc 1 976 6 view .LVU786
 2509 0004 012A     		cmp	r2, #1
 2510 0006 14D0     		beq	.L179
 986:Drivers/STM32H7xx_HAL_Driver/Src/stm32h7xx_ll_usb.c ****     {
 2511              		.loc 1 986 5 is_stmt 1 view .LVU787
 986:Drivers/STM32H7xx_HAL_Driver/Src/stm32h7xx_ll_usb.c ****     {
 2512              		.loc 1 986 11 is_stmt 0 view .LVU788
 2513 0008 00EB4310 		add	r0, r0, r3, lsl #5
 2514              	.LVL202:
 986:Drivers/STM32H7xx_HAL_Driver/Src/stm32h7xx_ll_usb.c ****     {
 2515              		.loc 1 986 28 view .LVU789
 2516 000c D0F8002B 		ldr	r2, [r0, #2816]
 986:Drivers/STM32H7xx_HAL_Driver/Src/stm32h7xx_ll_usb.c ****     {
ARM GAS  /tmp/cc0TWTOC.s 			page 81


 2517              		.loc 1 986 8 view .LVU790
 2518 0010 002A     		cmp	r2, #0
 2519 0012 06DB     		blt	.L178
 986:Drivers/STM32H7xx_HAL_Driver/Src/stm32h7xx_ll_usb.c ****     {
 2520              		.loc 1 986 70 discriminator 1 view .LVU791
 2521 0014 2BB1     		cbz	r3, .L178
 988:Drivers/STM32H7xx_HAL_Driver/Src/stm32h7xx_ll_usb.c ****     }
 2522              		.loc 1 988 7 is_stmt 1 view .LVU792
 988:Drivers/STM32H7xx_HAL_Driver/Src/stm32h7xx_ll_usb.c ****     }
 2523              		.loc 1 988 34 is_stmt 0 view .LVU793
 2524 0016 D0F8003B 		ldr	r3, [r0, #2816]
 2525              	.LVL203:
 988:Drivers/STM32H7xx_HAL_Driver/Src/stm32h7xx_ll_usb.c ****     }
 2526              		.loc 1 988 34 view .LVU794
 2527 001a 23F08043 		bic	r3, r3, #1073741824
 2528 001e C0F8003B 		str	r3, [r0, #2816]
 2529              	.LVL204:
 2530              	.L178:
 990:Drivers/STM32H7xx_HAL_Driver/Src/stm32h7xx_ll_usb.c ****   }
 2531              		.loc 1 990 5 is_stmt 1 view .LVU795
 990:Drivers/STM32H7xx_HAL_Driver/Src/stm32h7xx_ll_usb.c ****   }
 2532              		.loc 1 990 32 is_stmt 0 view .LVU796
 2533 0022 D0F8003B 		ldr	r3, [r0, #2816]
 2534 0026 43F40013 		orr	r3, r3, #2097152
 2535 002a C0F8003B 		str	r3, [r0, #2816]
 2536              	.L177:
 993:Drivers/STM32H7xx_HAL_Driver/Src/stm32h7xx_ll_usb.c **** }
 2537              		.loc 1 993 3 is_stmt 1 view .LVU797
 994:Drivers/STM32H7xx_HAL_Driver/Src/stm32h7xx_ll_usb.c **** 
 2538              		.loc 1 994 1 is_stmt 0 view .LVU798
 2539 002e 0020     		movs	r0, #0
 2540 0030 7047     		bx	lr
 2541              	.LVL205:
 2542              	.L179:
 978:Drivers/STM32H7xx_HAL_Driver/Src/stm32h7xx_ll_usb.c ****     {
 2543              		.loc 1 978 5 is_stmt 1 view .LVU799
 978:Drivers/STM32H7xx_HAL_Driver/Src/stm32h7xx_ll_usb.c ****     {
 2544              		.loc 1 978 11 is_stmt 0 view .LVU800
 2545 0032 00EB4310 		add	r0, r0, r3, lsl #5
 2546              	.LVL206:
 978:Drivers/STM32H7xx_HAL_Driver/Src/stm32h7xx_ll_usb.c ****     {
 2547              		.loc 1 978 27 view .LVU801
 2548 0036 D0F80029 		ldr	r2, [r0, #2304]
 978:Drivers/STM32H7xx_HAL_Driver/Src/stm32h7xx_ll_usb.c ****     {
 2549              		.loc 1 978 8 view .LVU802
 2550 003a 002A     		cmp	r2, #0
 2551 003c 06DB     		blt	.L176
 978:Drivers/STM32H7xx_HAL_Driver/Src/stm32h7xx_ll_usb.c ****     {
 2552              		.loc 1 978 69 discriminator 1 view .LVU803
 2553 003e 2BB1     		cbz	r3, .L176
 980:Drivers/STM32H7xx_HAL_Driver/Src/stm32h7xx_ll_usb.c ****     }
 2554              		.loc 1 980 7 is_stmt 1 view .LVU804
 980:Drivers/STM32H7xx_HAL_Driver/Src/stm32h7xx_ll_usb.c ****     }
 2555              		.loc 1 980 33 is_stmt 0 view .LVU805
 2556 0040 D0F80039 		ldr	r3, [r0, #2304]
 2557              	.LVL207:
 980:Drivers/STM32H7xx_HAL_Driver/Src/stm32h7xx_ll_usb.c ****     }
ARM GAS  /tmp/cc0TWTOC.s 			page 82


 2558              		.loc 1 980 33 view .LVU806
 2559 0044 23F08043 		bic	r3, r3, #1073741824
 2560 0048 C0F80039 		str	r3, [r0, #2304]
 2561              	.LVL208:
 2562              	.L176:
 982:Drivers/STM32H7xx_HAL_Driver/Src/stm32h7xx_ll_usb.c ****   }
 2563              		.loc 1 982 5 is_stmt 1 view .LVU807
 982:Drivers/STM32H7xx_HAL_Driver/Src/stm32h7xx_ll_usb.c ****   }
 2564              		.loc 1 982 31 is_stmt 0 view .LVU808
 2565 004c D0F80039 		ldr	r3, [r0, #2304]
 2566 0050 43F40013 		orr	r3, r3, #2097152
 2567 0054 C0F80039 		str	r3, [r0, #2304]
 2568 0058 E9E7     		b	.L177
 2569              		.cfi_endproc
 2570              	.LFE159:
 2572              		.section	.text.USB_EPClearStall,"ax",%progbits
 2573              		.align	1
 2574              		.global	USB_EPClearStall
 2575              		.syntax unified
 2576              		.thumb
 2577              		.thumb_func
 2578              		.fpu fpv5-d16
 2580              	USB_EPClearStall:
 2581              	.LVL209:
 2582              	.LFB160:
1003:Drivers/STM32H7xx_HAL_Driver/Src/stm32h7xx_ll_usb.c ****   uint32_t USBx_BASE = (uint32_t)USBx;
 2583              		.loc 1 1003 1 is_stmt 1 view -0
 2584              		.cfi_startproc
 2585              		@ args = 0, pretend = 0, frame = 0
 2586              		@ frame_needed = 0, uses_anonymous_args = 0
 2587              		@ link register save eliminated.
1004:Drivers/STM32H7xx_HAL_Driver/Src/stm32h7xx_ll_usb.c ****   uint32_t epnum = (uint32_t)ep->num;
 2588              		.loc 1 1004 3 view .LVU810
1005:Drivers/STM32H7xx_HAL_Driver/Src/stm32h7xx_ll_usb.c **** 
 2589              		.loc 1 1005 3 view .LVU811
1005:Drivers/STM32H7xx_HAL_Driver/Src/stm32h7xx_ll_usb.c **** 
 2590              		.loc 1 1005 32 is_stmt 0 view .LVU812
 2591 0000 0B78     		ldrb	r3, [r1]	@ zero_extendqisi2
 2592              	.LVL210:
1007:Drivers/STM32H7xx_HAL_Driver/Src/stm32h7xx_ll_usb.c ****   {
 2593              		.loc 1 1007 3 is_stmt 1 view .LVU813
1007:Drivers/STM32H7xx_HAL_Driver/Src/stm32h7xx_ll_usb.c ****   {
 2594              		.loc 1 1007 9 is_stmt 0 view .LVU814
 2595 0002 4A78     		ldrb	r2, [r1, #1]	@ zero_extendqisi2
1007:Drivers/STM32H7xx_HAL_Driver/Src/stm32h7xx_ll_usb.c ****   {
 2596              		.loc 1 1007 6 view .LVU815
 2597 0004 012A     		cmp	r2, #1
 2598 0006 0ED0     		beq	.L183
1017:Drivers/STM32H7xx_HAL_Driver/Src/stm32h7xx_ll_usb.c ****     if ((ep->type == EP_TYPE_INTR) || (ep->type == EP_TYPE_BULK))
 2599              		.loc 1 1017 5 is_stmt 1 view .LVU816
1017:Drivers/STM32H7xx_HAL_Driver/Src/stm32h7xx_ll_usb.c ****     if ((ep->type == EP_TYPE_INTR) || (ep->type == EP_TYPE_BULK))
 2600              		.loc 1 1017 32 is_stmt 0 view .LVU817
 2601 0008 00EB4310 		add	r0, r0, r3, lsl #5
 2602              	.LVL211:
1017:Drivers/STM32H7xx_HAL_Driver/Src/stm32h7xx_ll_usb.c ****     if ((ep->type == EP_TYPE_INTR) || (ep->type == EP_TYPE_BULK))
 2603              		.loc 1 1017 32 view .LVU818
 2604 000c D0F8003B 		ldr	r3, [r0, #2816]
ARM GAS  /tmp/cc0TWTOC.s 			page 83


 2605              	.LVL212:
1017:Drivers/STM32H7xx_HAL_Driver/Src/stm32h7xx_ll_usb.c ****     if ((ep->type == EP_TYPE_INTR) || (ep->type == EP_TYPE_BULK))
 2606              		.loc 1 1017 32 view .LVU819
 2607 0010 23F40013 		bic	r3, r3, #2097152
 2608 0014 C0F8003B 		str	r3, [r0, #2816]
 2609              	.LVL213:
1018:Drivers/STM32H7xx_HAL_Driver/Src/stm32h7xx_ll_usb.c ****     {
 2610              		.loc 1 1018 5 is_stmt 1 view .LVU820
1018:Drivers/STM32H7xx_HAL_Driver/Src/stm32h7xx_ll_usb.c ****     {
 2611              		.loc 1 1018 12 is_stmt 0 view .LVU821
 2612 0018 CB78     		ldrb	r3, [r1, #3]	@ zero_extendqisi2
1018:Drivers/STM32H7xx_HAL_Driver/Src/stm32h7xx_ll_usb.c ****     {
 2613              		.loc 1 1018 36 view .LVU822
 2614 001a 023B     		subs	r3, r3, #2
 2615 001c DBB2     		uxtb	r3, r3
1018:Drivers/STM32H7xx_HAL_Driver/Src/stm32h7xx_ll_usb.c ****     {
 2616              		.loc 1 1018 8 view .LVU823
 2617 001e 012B     		cmp	r3, #1
 2618 0020 15D9     		bls	.L184
 2619              	.L182:
1023:Drivers/STM32H7xx_HAL_Driver/Src/stm32h7xx_ll_usb.c **** }
 2620              		.loc 1 1023 3 is_stmt 1 view .LVU824
1024:Drivers/STM32H7xx_HAL_Driver/Src/stm32h7xx_ll_usb.c **** 
 2621              		.loc 1 1024 1 is_stmt 0 view .LVU825
 2622 0022 0020     		movs	r0, #0
 2623 0024 7047     		bx	lr
 2624              	.LVL214:
 2625              	.L183:
1009:Drivers/STM32H7xx_HAL_Driver/Src/stm32h7xx_ll_usb.c ****     if ((ep->type == EP_TYPE_INTR) || (ep->type == EP_TYPE_BULK))
 2626              		.loc 1 1009 5 is_stmt 1 view .LVU826
1009:Drivers/STM32H7xx_HAL_Driver/Src/stm32h7xx_ll_usb.c ****     if ((ep->type == EP_TYPE_INTR) || (ep->type == EP_TYPE_BULK))
 2627              		.loc 1 1009 31 is_stmt 0 view .LVU827
 2628 0026 00EB4310 		add	r0, r0, r3, lsl #5
 2629              	.LVL215:
1009:Drivers/STM32H7xx_HAL_Driver/Src/stm32h7xx_ll_usb.c ****     if ((ep->type == EP_TYPE_INTR) || (ep->type == EP_TYPE_BULK))
 2630              		.loc 1 1009 31 view .LVU828
 2631 002a D0F80039 		ldr	r3, [r0, #2304]
 2632              	.LVL216:
1009:Drivers/STM32H7xx_HAL_Driver/Src/stm32h7xx_ll_usb.c ****     if ((ep->type == EP_TYPE_INTR) || (ep->type == EP_TYPE_BULK))
 2633              		.loc 1 1009 31 view .LVU829
 2634 002e 23F40013 		bic	r3, r3, #2097152
 2635 0032 C0F80039 		str	r3, [r0, #2304]
 2636              	.LVL217:
1010:Drivers/STM32H7xx_HAL_Driver/Src/stm32h7xx_ll_usb.c ****     {
 2637              		.loc 1 1010 5 is_stmt 1 view .LVU830
1010:Drivers/STM32H7xx_HAL_Driver/Src/stm32h7xx_ll_usb.c ****     {
 2638              		.loc 1 1010 12 is_stmt 0 view .LVU831
 2639 0036 CB78     		ldrb	r3, [r1, #3]	@ zero_extendqisi2
1010:Drivers/STM32H7xx_HAL_Driver/Src/stm32h7xx_ll_usb.c ****     {
 2640              		.loc 1 1010 36 view .LVU832
 2641 0038 023B     		subs	r3, r3, #2
 2642 003a DBB2     		uxtb	r3, r3
1010:Drivers/STM32H7xx_HAL_Driver/Src/stm32h7xx_ll_usb.c ****     {
 2643              		.loc 1 1010 8 view .LVU833
 2644 003c 012B     		cmp	r3, #1
 2645 003e F0D8     		bhi	.L182
1012:Drivers/STM32H7xx_HAL_Driver/Src/stm32h7xx_ll_usb.c ****     }
ARM GAS  /tmp/cc0TWTOC.s 			page 84


 2646              		.loc 1 1012 7 is_stmt 1 view .LVU834
1012:Drivers/STM32H7xx_HAL_Driver/Src/stm32h7xx_ll_usb.c ****     }
 2647              		.loc 1 1012 33 is_stmt 0 view .LVU835
 2648 0040 D0F80039 		ldr	r3, [r0, #2304]
 2649 0044 43F08053 		orr	r3, r3, #268435456
 2650 0048 C0F80039 		str	r3, [r0, #2304]
 2651 004c E9E7     		b	.L182
 2652              	.L184:
1020:Drivers/STM32H7xx_HAL_Driver/Src/stm32h7xx_ll_usb.c ****     }
 2653              		.loc 1 1020 7 is_stmt 1 view .LVU836
1020:Drivers/STM32H7xx_HAL_Driver/Src/stm32h7xx_ll_usb.c ****     }
 2654              		.loc 1 1020 34 is_stmt 0 view .LVU837
 2655 004e D0F8003B 		ldr	r3, [r0, #2816]
 2656 0052 43F08053 		orr	r3, r3, #268435456
 2657 0056 C0F8003B 		str	r3, [r0, #2816]
 2658 005a E2E7     		b	.L182
 2659              		.cfi_endproc
 2660              	.LFE160:
 2662              		.section	.text.USB_StopDevice,"ax",%progbits
 2663              		.align	1
 2664              		.global	USB_StopDevice
 2665              		.syntax unified
 2666              		.thumb
 2667              		.thumb_func
 2668              		.fpu fpv5-d16
 2670              	USB_StopDevice:
 2671              	.LVL218:
 2672              	.LFB161:
1032:Drivers/STM32H7xx_HAL_Driver/Src/stm32h7xx_ll_usb.c ****   HAL_StatusTypeDef ret;
 2673              		.loc 1 1032 1 is_stmt 1 view -0
 2674              		.cfi_startproc
 2675              		@ args = 0, pretend = 0, frame = 0
 2676              		@ frame_needed = 0, uses_anonymous_args = 0
1032:Drivers/STM32H7xx_HAL_Driver/Src/stm32h7xx_ll_usb.c ****   HAL_StatusTypeDef ret;
 2677              		.loc 1 1032 1 is_stmt 0 view .LVU839
 2678 0000 70B5     		push	{r4, r5, r6, lr}
 2679              	.LCFI31:
 2680              		.cfi_def_cfa_offset 16
 2681              		.cfi_offset 4, -16
 2682              		.cfi_offset 5, -12
 2683              		.cfi_offset 6, -8
 2684              		.cfi_offset 14, -4
 2685 0002 0646     		mov	r6, r0
1033:Drivers/STM32H7xx_HAL_Driver/Src/stm32h7xx_ll_usb.c ****   uint32_t USBx_BASE = (uint32_t)USBx;
 2686              		.loc 1 1033 3 is_stmt 1 view .LVU840
1034:Drivers/STM32H7xx_HAL_Driver/Src/stm32h7xx_ll_usb.c ****   uint32_t i;
 2687              		.loc 1 1034 3 view .LVU841
1034:Drivers/STM32H7xx_HAL_Driver/Src/stm32h7xx_ll_usb.c ****   uint32_t i;
 2688              		.loc 1 1034 12 is_stmt 0 view .LVU842
 2689 0004 0546     		mov	r5, r0
 2690              	.LVL219:
1035:Drivers/STM32H7xx_HAL_Driver/Src/stm32h7xx_ll_usb.c **** 
 2691              		.loc 1 1035 3 is_stmt 1 view .LVU843
1038:Drivers/STM32H7xx_HAL_Driver/Src/stm32h7xx_ll_usb.c ****   {
 2692              		.loc 1 1038 3 view .LVU844
1038:Drivers/STM32H7xx_HAL_Driver/Src/stm32h7xx_ll_usb.c ****   {
 2693              		.loc 1 1038 10 is_stmt 0 view .LVU845
ARM GAS  /tmp/cc0TWTOC.s 			page 85


 2694 0006 0022     		movs	r2, #0
1038:Drivers/STM32H7xx_HAL_Driver/Src/stm32h7xx_ll_usb.c ****   {
 2695              		.loc 1 1038 3 view .LVU846
 2696 0008 08E0     		b	.L186
 2697              	.LVL220:
 2698              	.L187:
1040:Drivers/STM32H7xx_HAL_Driver/Src/stm32h7xx_ll_usb.c ****     USBx_OUTEP(i)->DOEPINT = 0xFB7FU;
 2699              		.loc 1 1040 5 is_stmt 1 discriminator 3 view .LVU847
 2700 000a 05EB4213 		add	r3, r5, r2, lsl #5
1040:Drivers/STM32H7xx_HAL_Driver/Src/stm32h7xx_ll_usb.c ****     USBx_OUTEP(i)->DOEPINT = 0xFB7FU;
 2701              		.loc 1 1040 27 is_stmt 0 discriminator 3 view .LVU848
 2702 000e 4FF67F31 		movw	r1, #64383
 2703 0012 C3F80819 		str	r1, [r3, #2312]
1041:Drivers/STM32H7xx_HAL_Driver/Src/stm32h7xx_ll_usb.c ****   }
 2704              		.loc 1 1041 5 is_stmt 1 discriminator 3 view .LVU849
1041:Drivers/STM32H7xx_HAL_Driver/Src/stm32h7xx_ll_usb.c ****   }
 2705              		.loc 1 1041 28 is_stmt 0 discriminator 3 view .LVU850
 2706 0016 C3F8081B 		str	r1, [r3, #2824]
1038:Drivers/STM32H7xx_HAL_Driver/Src/stm32h7xx_ll_usb.c ****   {
 2707              		.loc 1 1038 26 discriminator 3 view .LVU851
 2708 001a 0132     		adds	r2, r2, #1
 2709              	.LVL221:
 2710              	.L186:
1038:Drivers/STM32H7xx_HAL_Driver/Src/stm32h7xx_ll_usb.c ****   {
 2711              		.loc 1 1038 3 discriminator 1 view .LVU852
 2712 001c 0E2A     		cmp	r2, #14
 2713 001e F4D9     		bls	.L187
1045:Drivers/STM32H7xx_HAL_Driver/Src/stm32h7xx_ll_usb.c ****   USBx_DEVICE->DOEPMSK  = 0U;
 2714              		.loc 1 1045 3 is_stmt 1 view .LVU853
1045:Drivers/STM32H7xx_HAL_Driver/Src/stm32h7xx_ll_usb.c ****   USBx_DEVICE->DOEPMSK  = 0U;
 2715              		.loc 1 1045 25 is_stmt 0 view .LVU854
 2716 0020 0022     		movs	r2, #0
 2717              	.LVL222:
1045:Drivers/STM32H7xx_HAL_Driver/Src/stm32h7xx_ll_usb.c ****   USBx_DEVICE->DOEPMSK  = 0U;
 2718              		.loc 1 1045 25 view .LVU855
 2719 0022 C6F81028 		str	r2, [r6, #2064]
1046:Drivers/STM32H7xx_HAL_Driver/Src/stm32h7xx_ll_usb.c ****   USBx_DEVICE->DAINTMSK = 0U;
 2720              		.loc 1 1046 3 is_stmt 1 view .LVU856
1046:Drivers/STM32H7xx_HAL_Driver/Src/stm32h7xx_ll_usb.c ****   USBx_DEVICE->DAINTMSK = 0U;
 2721              		.loc 1 1046 25 is_stmt 0 view .LVU857
 2722 0026 C6F81428 		str	r2, [r6, #2068]
1047:Drivers/STM32H7xx_HAL_Driver/Src/stm32h7xx_ll_usb.c **** 
 2723              		.loc 1 1047 3 is_stmt 1 view .LVU858
1047:Drivers/STM32H7xx_HAL_Driver/Src/stm32h7xx_ll_usb.c **** 
 2724              		.loc 1 1047 25 is_stmt 0 view .LVU859
 2725 002a C6F81C28 		str	r2, [r6, #2076]
1050:Drivers/STM32H7xx_HAL_Driver/Src/stm32h7xx_ll_usb.c ****   if (ret != HAL_OK)
 2726              		.loc 1 1050 3 is_stmt 1 view .LVU860
1050:Drivers/STM32H7xx_HAL_Driver/Src/stm32h7xx_ll_usb.c ****   if (ret != HAL_OK)
 2727              		.loc 1 1050 9 is_stmt 0 view .LVU861
 2728 002e 3046     		mov	r0, r6
 2729              	.LVL223:
1050:Drivers/STM32H7xx_HAL_Driver/Src/stm32h7xx_ll_usb.c ****   if (ret != HAL_OK)
 2730              		.loc 1 1050 9 view .LVU862
 2731 0030 FFF7FEFF 		bl	USB_FlushRxFifo
 2732              	.LVL224:
1051:Drivers/STM32H7xx_HAL_Driver/Src/stm32h7xx_ll_usb.c ****   {
ARM GAS  /tmp/cc0TWTOC.s 			page 86


 2733              		.loc 1 1051 3 is_stmt 1 view .LVU863
1051:Drivers/STM32H7xx_HAL_Driver/Src/stm32h7xx_ll_usb.c ****   {
 2734              		.loc 1 1051 6 is_stmt 0 view .LVU864
 2735 0034 00B1     		cbz	r0, .L190
 2736              	.L188:
1063:Drivers/STM32H7xx_HAL_Driver/Src/stm32h7xx_ll_usb.c **** 
 2737              		.loc 1 1063 1 view .LVU865
 2738 0036 70BD     		pop	{r4, r5, r6, pc}
 2739              	.LVL225:
 2740              	.L190:
1056:Drivers/STM32H7xx_HAL_Driver/Src/stm32h7xx_ll_usb.c ****   if (ret != HAL_OK)
 2741              		.loc 1 1056 3 is_stmt 1 view .LVU866
1056:Drivers/STM32H7xx_HAL_Driver/Src/stm32h7xx_ll_usb.c ****   if (ret != HAL_OK)
 2742              		.loc 1 1056 9 is_stmt 0 view .LVU867
 2743 0038 1021     		movs	r1, #16
 2744 003a 3046     		mov	r0, r6
 2745              	.LVL226:
1056:Drivers/STM32H7xx_HAL_Driver/Src/stm32h7xx_ll_usb.c ****   if (ret != HAL_OK)
 2746              		.loc 1 1056 9 view .LVU868
 2747 003c FFF7FEFF 		bl	USB_FlushTxFifo
 2748              	.LVL227:
1057:Drivers/STM32H7xx_HAL_Driver/Src/stm32h7xx_ll_usb.c ****   {
 2749              		.loc 1 1057 3 is_stmt 1 view .LVU869
 2750 0040 F9E7     		b	.L188
 2751              		.cfi_endproc
 2752              	.LFE161:
 2754              		.section	.text.USB_SetDevAddress,"ax",%progbits
 2755              		.align	1
 2756              		.global	USB_SetDevAddress
 2757              		.syntax unified
 2758              		.thumb
 2759              		.thumb_func
 2760              		.fpu fpv5-d16
 2762              	USB_SetDevAddress:
 2763              	.LVL228:
 2764              	.LFB162:
1073:Drivers/STM32H7xx_HAL_Driver/Src/stm32h7xx_ll_usb.c ****   uint32_t USBx_BASE = (uint32_t)USBx;
 2765              		.loc 1 1073 1 view -0
 2766              		.cfi_startproc
 2767              		@ args = 0, pretend = 0, frame = 0
 2768              		@ frame_needed = 0, uses_anonymous_args = 0
 2769              		@ link register save eliminated.
1074:Drivers/STM32H7xx_HAL_Driver/Src/stm32h7xx_ll_usb.c **** 
 2770              		.loc 1 1074 3 view .LVU871
1076:Drivers/STM32H7xx_HAL_Driver/Src/stm32h7xx_ll_usb.c ****   USBx_DEVICE->DCFG |= ((uint32_t)address << 4) & USB_OTG_DCFG_DAD;
 2771              		.loc 1 1076 3 view .LVU872
1076:Drivers/STM32H7xx_HAL_Driver/Src/stm32h7xx_ll_usb.c ****   USBx_DEVICE->DCFG |= ((uint32_t)address << 4) & USB_OTG_DCFG_DAD;
 2772              		.loc 1 1076 21 is_stmt 0 view .LVU873
 2773 0000 D0F80038 		ldr	r3, [r0, #2048]
 2774 0004 23F4FE63 		bic	r3, r3, #2032
 2775 0008 C0F80038 		str	r3, [r0, #2048]
1077:Drivers/STM32H7xx_HAL_Driver/Src/stm32h7xx_ll_usb.c **** 
 2776              		.loc 1 1077 3 is_stmt 1 view .LVU874
1077:Drivers/STM32H7xx_HAL_Driver/Src/stm32h7xx_ll_usb.c **** 
 2777              		.loc 1 1077 21 is_stmt 0 view .LVU875
 2778 000c D0F80038 		ldr	r3, [r0, #2048]
1077:Drivers/STM32H7xx_HAL_Driver/Src/stm32h7xx_ll_usb.c **** 
ARM GAS  /tmp/cc0TWTOC.s 			page 87


 2779              		.loc 1 1077 43 view .LVU876
 2780 0010 0901     		lsls	r1, r1, #4
 2781              	.LVL229:
1077:Drivers/STM32H7xx_HAL_Driver/Src/stm32h7xx_ll_usb.c **** 
 2782              		.loc 1 1077 49 view .LVU877
 2783 0012 01F4FE61 		and	r1, r1, #2032
1077:Drivers/STM32H7xx_HAL_Driver/Src/stm32h7xx_ll_usb.c **** 
 2784              		.loc 1 1077 21 view .LVU878
 2785 0016 1943     		orrs	r1, r1, r3
 2786 0018 C0F80018 		str	r1, [r0, #2048]
1079:Drivers/STM32H7xx_HAL_Driver/Src/stm32h7xx_ll_usb.c **** }
 2787              		.loc 1 1079 3 is_stmt 1 view .LVU879
1080:Drivers/STM32H7xx_HAL_Driver/Src/stm32h7xx_ll_usb.c **** 
 2788              		.loc 1 1080 1 is_stmt 0 view .LVU880
 2789 001c 0020     		movs	r0, #0
 2790              	.LVL230:
1080:Drivers/STM32H7xx_HAL_Driver/Src/stm32h7xx_ll_usb.c **** 
 2791              		.loc 1 1080 1 view .LVU881
 2792 001e 7047     		bx	lr
 2793              		.cfi_endproc
 2794              	.LFE162:
 2796              		.section	.text.USB_DevConnect,"ax",%progbits
 2797              		.align	1
 2798              		.global	USB_DevConnect
 2799              		.syntax unified
 2800              		.thumb
 2801              		.thumb_func
 2802              		.fpu fpv5-d16
 2804              	USB_DevConnect:
 2805              	.LVL231:
 2806              	.LFB163:
1088:Drivers/STM32H7xx_HAL_Driver/Src/stm32h7xx_ll_usb.c ****   uint32_t USBx_BASE = (uint32_t)USBx;
 2807              		.loc 1 1088 1 is_stmt 1 view -0
 2808              		.cfi_startproc
 2809              		@ args = 0, pretend = 0, frame = 0
 2810              		@ frame_needed = 0, uses_anonymous_args = 0
1088:Drivers/STM32H7xx_HAL_Driver/Src/stm32h7xx_ll_usb.c ****   uint32_t USBx_BASE = (uint32_t)USBx;
 2811              		.loc 1 1088 1 is_stmt 0 view .LVU883
 2812 0000 08B5     		push	{r3, lr}
 2813              	.LCFI32:
 2814              		.cfi_def_cfa_offset 8
 2815              		.cfi_offset 3, -8
 2816              		.cfi_offset 14, -4
1089:Drivers/STM32H7xx_HAL_Driver/Src/stm32h7xx_ll_usb.c **** 
 2817              		.loc 1 1089 3 is_stmt 1 view .LVU884
 2818              	.LVL232:
1091:Drivers/STM32H7xx_HAL_Driver/Src/stm32h7xx_ll_usb.c ****   HAL_Delay(3U);
 2819              		.loc 1 1091 3 view .LVU885
1091:Drivers/STM32H7xx_HAL_Driver/Src/stm32h7xx_ll_usb.c ****   HAL_Delay(3U);
 2820              		.loc 1 1091 21 is_stmt 0 view .LVU886
 2821 0002 D0F80438 		ldr	r3, [r0, #2052]
 2822 0006 23F00203 		bic	r3, r3, #2
 2823 000a C0F80438 		str	r3, [r0, #2052]
1092:Drivers/STM32H7xx_HAL_Driver/Src/stm32h7xx_ll_usb.c **** 
 2824              		.loc 1 1092 3 is_stmt 1 view .LVU887
 2825 000e 0320     		movs	r0, #3
 2826              	.LVL233:
ARM GAS  /tmp/cc0TWTOC.s 			page 88


1092:Drivers/STM32H7xx_HAL_Driver/Src/stm32h7xx_ll_usb.c **** 
 2827              		.loc 1 1092 3 is_stmt 0 view .LVU888
 2828 0010 FFF7FEFF 		bl	HAL_Delay
 2829              	.LVL234:
1094:Drivers/STM32H7xx_HAL_Driver/Src/stm32h7xx_ll_usb.c **** }
 2830              		.loc 1 1094 3 is_stmt 1 view .LVU889
1095:Drivers/STM32H7xx_HAL_Driver/Src/stm32h7xx_ll_usb.c **** 
 2831              		.loc 1 1095 1 is_stmt 0 view .LVU890
 2832 0014 0020     		movs	r0, #0
 2833 0016 08BD     		pop	{r3, pc}
 2834              		.cfi_endproc
 2835              	.LFE163:
 2837              		.section	.text.USB_DevDisconnect,"ax",%progbits
 2838              		.align	1
 2839              		.global	USB_DevDisconnect
 2840              		.syntax unified
 2841              		.thumb
 2842              		.thumb_func
 2843              		.fpu fpv5-d16
 2845              	USB_DevDisconnect:
 2846              	.LVL235:
 2847              	.LFB164:
1103:Drivers/STM32H7xx_HAL_Driver/Src/stm32h7xx_ll_usb.c ****   uint32_t USBx_BASE = (uint32_t)USBx;
 2848              		.loc 1 1103 1 is_stmt 1 view -0
 2849              		.cfi_startproc
 2850              		@ args = 0, pretend = 0, frame = 0
 2851              		@ frame_needed = 0, uses_anonymous_args = 0
1103:Drivers/STM32H7xx_HAL_Driver/Src/stm32h7xx_ll_usb.c ****   uint32_t USBx_BASE = (uint32_t)USBx;
 2852              		.loc 1 1103 1 is_stmt 0 view .LVU892
 2853 0000 08B5     		push	{r3, lr}
 2854              	.LCFI33:
 2855              		.cfi_def_cfa_offset 8
 2856              		.cfi_offset 3, -8
 2857              		.cfi_offset 14, -4
1104:Drivers/STM32H7xx_HAL_Driver/Src/stm32h7xx_ll_usb.c **** 
 2858              		.loc 1 1104 3 is_stmt 1 view .LVU893
 2859              	.LVL236:
1106:Drivers/STM32H7xx_HAL_Driver/Src/stm32h7xx_ll_usb.c ****   HAL_Delay(3U);
 2860              		.loc 1 1106 3 view .LVU894
1106:Drivers/STM32H7xx_HAL_Driver/Src/stm32h7xx_ll_usb.c ****   HAL_Delay(3U);
 2861              		.loc 1 1106 21 is_stmt 0 view .LVU895
 2862 0002 D0F80438 		ldr	r3, [r0, #2052]
 2863 0006 43F00203 		orr	r3, r3, #2
 2864 000a C0F80438 		str	r3, [r0, #2052]
1107:Drivers/STM32H7xx_HAL_Driver/Src/stm32h7xx_ll_usb.c **** 
 2865              		.loc 1 1107 3 is_stmt 1 view .LVU896
 2866 000e 0320     		movs	r0, #3
 2867              	.LVL237:
1107:Drivers/STM32H7xx_HAL_Driver/Src/stm32h7xx_ll_usb.c **** 
 2868              		.loc 1 1107 3 is_stmt 0 view .LVU897
 2869 0010 FFF7FEFF 		bl	HAL_Delay
 2870              	.LVL238:
1109:Drivers/STM32H7xx_HAL_Driver/Src/stm32h7xx_ll_usb.c **** }
 2871              		.loc 1 1109 3 is_stmt 1 view .LVU898
1110:Drivers/STM32H7xx_HAL_Driver/Src/stm32h7xx_ll_usb.c **** 
 2872              		.loc 1 1110 1 is_stmt 0 view .LVU899
 2873 0014 0020     		movs	r0, #0
ARM GAS  /tmp/cc0TWTOC.s 			page 89


 2874 0016 08BD     		pop	{r3, pc}
 2875              		.cfi_endproc
 2876              	.LFE164:
 2878              		.section	.text.USB_ReadInterrupts,"ax",%progbits
 2879              		.align	1
 2880              		.global	USB_ReadInterrupts
 2881              		.syntax unified
 2882              		.thumb
 2883              		.thumb_func
 2884              		.fpu fpv5-d16
 2886              	USB_ReadInterrupts:
 2887              	.LVL239:
 2888              	.LFB165:
1118:Drivers/STM32H7xx_HAL_Driver/Src/stm32h7xx_ll_usb.c ****   uint32_t tmpreg;
 2889              		.loc 1 1118 1 is_stmt 1 view -0
 2890              		.cfi_startproc
 2891              		@ args = 0, pretend = 0, frame = 0
 2892              		@ frame_needed = 0, uses_anonymous_args = 0
 2893              		@ link register save eliminated.
1119:Drivers/STM32H7xx_HAL_Driver/Src/stm32h7xx_ll_usb.c **** 
 2894              		.loc 1 1119 3 view .LVU901
1121:Drivers/STM32H7xx_HAL_Driver/Src/stm32h7xx_ll_usb.c ****   tmpreg &= USBx->GINTMSK;
 2895              		.loc 1 1121 3 view .LVU902
1121:Drivers/STM32H7xx_HAL_Driver/Src/stm32h7xx_ll_usb.c ****   tmpreg &= USBx->GINTMSK;
 2896              		.loc 1 1121 10 is_stmt 0 view .LVU903
 2897 0000 4269     		ldr	r2, [r0, #20]
 2898              	.LVL240:
1122:Drivers/STM32H7xx_HAL_Driver/Src/stm32h7xx_ll_usb.c **** 
 2899              		.loc 1 1122 3 is_stmt 1 view .LVU904
1122:Drivers/STM32H7xx_HAL_Driver/Src/stm32h7xx_ll_usb.c **** 
 2900              		.loc 1 1122 17 is_stmt 0 view .LVU905
 2901 0002 8069     		ldr	r0, [r0, #24]
 2902              	.LVL241:
1124:Drivers/STM32H7xx_HAL_Driver/Src/stm32h7xx_ll_usb.c **** }
 2903              		.loc 1 1124 3 is_stmt 1 view .LVU906
1125:Drivers/STM32H7xx_HAL_Driver/Src/stm32h7xx_ll_usb.c **** 
 2904              		.loc 1 1125 1 is_stmt 0 view .LVU907
 2905 0004 1040     		ands	r0, r0, r2
 2906              	.LVL242:
1125:Drivers/STM32H7xx_HAL_Driver/Src/stm32h7xx_ll_usb.c **** 
 2907              		.loc 1 1125 1 view .LVU908
 2908 0006 7047     		bx	lr
 2909              		.cfi_endproc
 2910              	.LFE165:
 2912              		.section	.text.USB_ReadDevAllOutEpInterrupt,"ax",%progbits
 2913              		.align	1
 2914              		.global	USB_ReadDevAllOutEpInterrupt
 2915              		.syntax unified
 2916              		.thumb
 2917              		.thumb_func
 2918              		.fpu fpv5-d16
 2920              	USB_ReadDevAllOutEpInterrupt:
 2921              	.LVL243:
 2922              	.LFB166:
1133:Drivers/STM32H7xx_HAL_Driver/Src/stm32h7xx_ll_usb.c ****   uint32_t USBx_BASE = (uint32_t)USBx;
 2923              		.loc 1 1133 1 is_stmt 1 view -0
 2924              		.cfi_startproc
ARM GAS  /tmp/cc0TWTOC.s 			page 90


 2925              		@ args = 0, pretend = 0, frame = 0
 2926              		@ frame_needed = 0, uses_anonymous_args = 0
 2927              		@ link register save eliminated.
1134:Drivers/STM32H7xx_HAL_Driver/Src/stm32h7xx_ll_usb.c ****   uint32_t tmpreg;
 2928              		.loc 1 1134 3 view .LVU910
1135:Drivers/STM32H7xx_HAL_Driver/Src/stm32h7xx_ll_usb.c **** 
 2929              		.loc 1 1135 3 view .LVU911
1137:Drivers/STM32H7xx_HAL_Driver/Src/stm32h7xx_ll_usb.c ****   tmpreg &= USBx_DEVICE->DAINTMSK;
 2930              		.loc 1 1137 3 view .LVU912
1137:Drivers/STM32H7xx_HAL_Driver/Src/stm32h7xx_ll_usb.c ****   tmpreg &= USBx_DEVICE->DAINTMSK;
 2931              		.loc 1 1137 11 is_stmt 0 view .LVU913
 2932 0000 D0F81838 		ldr	r3, [r0, #2072]
1137:Drivers/STM32H7xx_HAL_Driver/Src/stm32h7xx_ll_usb.c ****   tmpreg &= USBx_DEVICE->DAINTMSK;
 2933              		.loc 1 1137 13 view .LVU914
 2934 0004 00F50060 		add	r0, r0, #2048
 2935              	.LVL244:
1138:Drivers/STM32H7xx_HAL_Driver/Src/stm32h7xx_ll_usb.c **** 
 2936              		.loc 1 1138 3 is_stmt 1 view .LVU915
1138:Drivers/STM32H7xx_HAL_Driver/Src/stm32h7xx_ll_usb.c **** 
 2937              		.loc 1 1138 24 is_stmt 0 view .LVU916
 2938 0008 C069     		ldr	r0, [r0, #28]
 2939              	.LVL245:
1138:Drivers/STM32H7xx_HAL_Driver/Src/stm32h7xx_ll_usb.c **** 
 2940              		.loc 1 1138 10 view .LVU917
 2941 000a 1840     		ands	r0, r0, r3
 2942              	.LVL246:
1140:Drivers/STM32H7xx_HAL_Driver/Src/stm32h7xx_ll_usb.c **** }
 2943              		.loc 1 1140 3 is_stmt 1 view .LVU918
1141:Drivers/STM32H7xx_HAL_Driver/Src/stm32h7xx_ll_usb.c **** 
 2944              		.loc 1 1141 1 is_stmt 0 view .LVU919
 2945 000c 000C     		lsrs	r0, r0, #16
 2946              	.LVL247:
1141:Drivers/STM32H7xx_HAL_Driver/Src/stm32h7xx_ll_usb.c **** 
 2947              		.loc 1 1141 1 view .LVU920
 2948 000e 7047     		bx	lr
 2949              		.cfi_endproc
 2950              	.LFE166:
 2952              		.section	.text.USB_ReadDevAllInEpInterrupt,"ax",%progbits
 2953              		.align	1
 2954              		.global	USB_ReadDevAllInEpInterrupt
 2955              		.syntax unified
 2956              		.thumb
 2957              		.thumb_func
 2958              		.fpu fpv5-d16
 2960              	USB_ReadDevAllInEpInterrupt:
 2961              	.LVL248:
 2962              	.LFB167:
1149:Drivers/STM32H7xx_HAL_Driver/Src/stm32h7xx_ll_usb.c ****   uint32_t USBx_BASE = (uint32_t)USBx;
 2963              		.loc 1 1149 1 is_stmt 1 view -0
 2964              		.cfi_startproc
 2965              		@ args = 0, pretend = 0, frame = 0
 2966              		@ frame_needed = 0, uses_anonymous_args = 0
 2967              		@ link register save eliminated.
1150:Drivers/STM32H7xx_HAL_Driver/Src/stm32h7xx_ll_usb.c ****   uint32_t tmpreg;
 2968              		.loc 1 1150 3 view .LVU922
1151:Drivers/STM32H7xx_HAL_Driver/Src/stm32h7xx_ll_usb.c **** 
 2969              		.loc 1 1151 3 view .LVU923
ARM GAS  /tmp/cc0TWTOC.s 			page 91


1153:Drivers/STM32H7xx_HAL_Driver/Src/stm32h7xx_ll_usb.c ****   tmpreg &= USBx_DEVICE->DAINTMSK;
 2970              		.loc 1 1153 3 view .LVU924
1153:Drivers/STM32H7xx_HAL_Driver/Src/stm32h7xx_ll_usb.c ****   tmpreg &= USBx_DEVICE->DAINTMSK;
 2971              		.loc 1 1153 11 is_stmt 0 view .LVU925
 2972 0000 D0F81838 		ldr	r3, [r0, #2072]
1153:Drivers/STM32H7xx_HAL_Driver/Src/stm32h7xx_ll_usb.c ****   tmpreg &= USBx_DEVICE->DAINTMSK;
 2973              		.loc 1 1153 13 view .LVU926
 2974 0004 00F50060 		add	r0, r0, #2048
 2975              	.LVL249:
1154:Drivers/STM32H7xx_HAL_Driver/Src/stm32h7xx_ll_usb.c **** 
 2976              		.loc 1 1154 3 is_stmt 1 view .LVU927
1154:Drivers/STM32H7xx_HAL_Driver/Src/stm32h7xx_ll_usb.c **** 
 2977              		.loc 1 1154 24 is_stmt 0 view .LVU928
 2978 0008 C069     		ldr	r0, [r0, #28]
 2979              	.LVL250:
1154:Drivers/STM32H7xx_HAL_Driver/Src/stm32h7xx_ll_usb.c **** 
 2980              		.loc 1 1154 10 view .LVU929
 2981 000a 1840     		ands	r0, r0, r3
 2982              	.LVL251:
1156:Drivers/STM32H7xx_HAL_Driver/Src/stm32h7xx_ll_usb.c **** }
 2983              		.loc 1 1156 3 is_stmt 1 view .LVU930
1157:Drivers/STM32H7xx_HAL_Driver/Src/stm32h7xx_ll_usb.c **** 
 2984              		.loc 1 1157 1 is_stmt 0 view .LVU931
 2985 000c 80B2     		uxth	r0, r0
 2986              	.LVL252:
1157:Drivers/STM32H7xx_HAL_Driver/Src/stm32h7xx_ll_usb.c **** 
 2987              		.loc 1 1157 1 view .LVU932
 2988 000e 7047     		bx	lr
 2989              		.cfi_endproc
 2990              	.LFE167:
 2992              		.section	.text.USB_ReadDevOutEPInterrupt,"ax",%progbits
 2993              		.align	1
 2994              		.global	USB_ReadDevOutEPInterrupt
 2995              		.syntax unified
 2996              		.thumb
 2997              		.thumb_func
 2998              		.fpu fpv5-d16
 3000              	USB_ReadDevOutEPInterrupt:
 3001              	.LVL253:
 3002              	.LFB168:
1167:Drivers/STM32H7xx_HAL_Driver/Src/stm32h7xx_ll_usb.c ****   uint32_t USBx_BASE = (uint32_t)USBx;
 3003              		.loc 1 1167 1 is_stmt 1 view -0
 3004              		.cfi_startproc
 3005              		@ args = 0, pretend = 0, frame = 0
 3006              		@ frame_needed = 0, uses_anonymous_args = 0
 3007              		@ link register save eliminated.
1168:Drivers/STM32H7xx_HAL_Driver/Src/stm32h7xx_ll_usb.c ****   uint32_t tmpreg;
 3008              		.loc 1 1168 3 view .LVU934
1169:Drivers/STM32H7xx_HAL_Driver/Src/stm32h7xx_ll_usb.c **** 
 3009              		.loc 1 1169 3 view .LVU935
1171:Drivers/STM32H7xx_HAL_Driver/Src/stm32h7xx_ll_usb.c ****   tmpreg &= USBx_DEVICE->DOEPMSK;
 3010              		.loc 1 1171 3 view .LVU936
1171:Drivers/STM32H7xx_HAL_Driver/Src/stm32h7xx_ll_usb.c ****   tmpreg &= USBx_DEVICE->DOEPMSK;
 3011              		.loc 1 1171 13 is_stmt 0 view .LVU937
 3012 0000 00EB4111 		add	r1, r0, r1, lsl #5
 3013              	.LVL254:
1171:Drivers/STM32H7xx_HAL_Driver/Src/stm32h7xx_ll_usb.c ****   tmpreg &= USBx_DEVICE->DOEPMSK;
ARM GAS  /tmp/cc0TWTOC.s 			page 92


 3014              		.loc 1 1171 11 view .LVU938
 3015 0004 D1F8082B 		ldr	r2, [r1, #2824]
 3016              	.LVL255:
1172:Drivers/STM32H7xx_HAL_Driver/Src/stm32h7xx_ll_usb.c **** 
 3017              		.loc 1 1172 3 is_stmt 1 view .LVU939
1172:Drivers/STM32H7xx_HAL_Driver/Src/stm32h7xx_ll_usb.c **** 
 3018              		.loc 1 1172 13 is_stmt 0 view .LVU940
 3019 0008 00F50060 		add	r0, r0, #2048
 3020              	.LVL256:
1172:Drivers/STM32H7xx_HAL_Driver/Src/stm32h7xx_ll_usb.c **** 
 3021              		.loc 1 1172 24 view .LVU941
 3022 000c 4069     		ldr	r0, [r0, #20]
 3023              	.LVL257:
1174:Drivers/STM32H7xx_HAL_Driver/Src/stm32h7xx_ll_usb.c **** }
 3024              		.loc 1 1174 3 is_stmt 1 view .LVU942
1175:Drivers/STM32H7xx_HAL_Driver/Src/stm32h7xx_ll_usb.c **** 
 3025              		.loc 1 1175 1 is_stmt 0 view .LVU943
 3026 000e 1040     		ands	r0, r0, r2
 3027              	.LVL258:
1175:Drivers/STM32H7xx_HAL_Driver/Src/stm32h7xx_ll_usb.c **** 
 3028              		.loc 1 1175 1 view .LVU944
 3029 0010 7047     		bx	lr
 3030              		.cfi_endproc
 3031              	.LFE168:
 3033              		.section	.text.USB_ReadDevInEPInterrupt,"ax",%progbits
 3034              		.align	1
 3035              		.global	USB_ReadDevInEPInterrupt
 3036              		.syntax unified
 3037              		.thumb
 3038              		.thumb_func
 3039              		.fpu fpv5-d16
 3041              	USB_ReadDevInEPInterrupt:
 3042              	.LVL259:
 3043              	.LFB169:
1185:Drivers/STM32H7xx_HAL_Driver/Src/stm32h7xx_ll_usb.c ****   uint32_t USBx_BASE = (uint32_t)USBx;
 3044              		.loc 1 1185 1 is_stmt 1 view -0
 3045              		.cfi_startproc
 3046              		@ args = 0, pretend = 0, frame = 0
 3047              		@ frame_needed = 0, uses_anonymous_args = 0
 3048              		@ link register save eliminated.
1185:Drivers/STM32H7xx_HAL_Driver/Src/stm32h7xx_ll_usb.c ****   uint32_t USBx_BASE = (uint32_t)USBx;
 3049              		.loc 1 1185 1 is_stmt 0 view .LVU946
 3050 0000 10B4     		push	{r4}
 3051              	.LCFI34:
 3052              		.cfi_def_cfa_offset 4
 3053              		.cfi_offset 4, -4
1186:Drivers/STM32H7xx_HAL_Driver/Src/stm32h7xx_ll_usb.c ****   uint32_t tmpreg, msk, emp;
 3054              		.loc 1 1186 3 is_stmt 1 view .LVU947
 3055              	.LVL260:
1187:Drivers/STM32H7xx_HAL_Driver/Src/stm32h7xx_ll_usb.c **** 
 3056              		.loc 1 1187 3 view .LVU948
1189:Drivers/STM32H7xx_HAL_Driver/Src/stm32h7xx_ll_usb.c ****   emp = USBx_DEVICE->DIEPEMPMSK;
 3057              		.loc 1 1189 3 view .LVU949
1189:Drivers/STM32H7xx_HAL_Driver/Src/stm32h7xx_ll_usb.c ****   emp = USBx_DEVICE->DIEPEMPMSK;
 3058              		.loc 1 1189 7 is_stmt 0 view .LVU950
 3059 0002 D0F81048 		ldr	r4, [r0, #2064]
 3060              	.LVL261:
ARM GAS  /tmp/cc0TWTOC.s 			page 93


1190:Drivers/STM32H7xx_HAL_Driver/Src/stm32h7xx_ll_usb.c ****   msk |= ((emp >> (epnum & EP_ADDR_MSK)) & 0x1U) << 7;
 3061              		.loc 1 1190 3 is_stmt 1 view .LVU951
1190:Drivers/STM32H7xx_HAL_Driver/Src/stm32h7xx_ll_usb.c ****   msk |= ((emp >> (epnum & EP_ADDR_MSK)) & 0x1U) << 7;
 3062              		.loc 1 1190 7 is_stmt 0 view .LVU952
 3063 0006 D0F83438 		ldr	r3, [r0, #2100]
 3064              	.LVL262:
1191:Drivers/STM32H7xx_HAL_Driver/Src/stm32h7xx_ll_usb.c ****   tmpreg = USBx_INEP((uint32_t)epnum)->DIEPINT & msk;
 3065              		.loc 1 1191 3 is_stmt 1 view .LVU953
1191:Drivers/STM32H7xx_HAL_Driver/Src/stm32h7xx_ll_usb.c ****   tmpreg = USBx_INEP((uint32_t)epnum)->DIEPINT & msk;
 3066              		.loc 1 1191 26 is_stmt 0 view .LVU954
 3067 000a 01F00F02 		and	r2, r1, #15
1191:Drivers/STM32H7xx_HAL_Driver/Src/stm32h7xx_ll_usb.c ****   tmpreg = USBx_INEP((uint32_t)epnum)->DIEPINT & msk;
 3068              		.loc 1 1191 16 view .LVU955
 3069 000e D340     		lsrs	r3, r3, r2
 3070              	.LVL263:
1191:Drivers/STM32H7xx_HAL_Driver/Src/stm32h7xx_ll_usb.c ****   tmpreg = USBx_INEP((uint32_t)epnum)->DIEPINT & msk;
 3071              		.loc 1 1191 50 view .LVU956
 3072 0010 DB01     		lsls	r3, r3, #7
 3073 0012 DBB2     		uxtb	r3, r3
1191:Drivers/STM32H7xx_HAL_Driver/Src/stm32h7xx_ll_usb.c ****   tmpreg = USBx_INEP((uint32_t)epnum)->DIEPINT & msk;
 3074              		.loc 1 1191 7 view .LVU957
 3075 0014 2343     		orrs	r3, r3, r4
 3076              	.LVL264:
1192:Drivers/STM32H7xx_HAL_Driver/Src/stm32h7xx_ll_usb.c **** 
 3077              		.loc 1 1192 3 is_stmt 1 view .LVU958
1192:Drivers/STM32H7xx_HAL_Driver/Src/stm32h7xx_ll_usb.c **** 
 3078              		.loc 1 1192 12 is_stmt 0 view .LVU959
 3079 0016 00EB4110 		add	r0, r0, r1, lsl #5
 3080              	.LVL265:
1192:Drivers/STM32H7xx_HAL_Driver/Src/stm32h7xx_ll_usb.c **** 
 3081              		.loc 1 1192 12 view .LVU960
 3082 001a 00F51060 		add	r0, r0, #2304
1192:Drivers/STM32H7xx_HAL_Driver/Src/stm32h7xx_ll_usb.c **** 
 3083              		.loc 1 1192 38 view .LVU961
 3084 001e 8068     		ldr	r0, [r0, #8]
 3085              	.LVL266:
1194:Drivers/STM32H7xx_HAL_Driver/Src/stm32h7xx_ll_usb.c **** }
 3086              		.loc 1 1194 3 is_stmt 1 view .LVU962
1195:Drivers/STM32H7xx_HAL_Driver/Src/stm32h7xx_ll_usb.c **** 
 3087              		.loc 1 1195 1 is_stmt 0 view .LVU963
 3088 0020 1840     		ands	r0, r0, r3
 3089              	.LVL267:
1195:Drivers/STM32H7xx_HAL_Driver/Src/stm32h7xx_ll_usb.c **** 
 3090              		.loc 1 1195 1 view .LVU964
 3091 0022 5DF8044B 		ldr	r4, [sp], #4
 3092              	.LCFI35:
 3093              		.cfi_restore 4
 3094              		.cfi_def_cfa_offset 0
 3095 0026 7047     		bx	lr
 3096              		.cfi_endproc
 3097              	.LFE169:
 3099              		.section	.text.USB_ClearInterrupts,"ax",%progbits
 3100              		.align	1
 3101              		.global	USB_ClearInterrupts
 3102              		.syntax unified
 3103              		.thumb
 3104              		.thumb_func
ARM GAS  /tmp/cc0TWTOC.s 			page 94


 3105              		.fpu fpv5-d16
 3107              	USB_ClearInterrupts:
 3108              	.LVL268:
 3109              	.LFB170:
1204:Drivers/STM32H7xx_HAL_Driver/Src/stm32h7xx_ll_usb.c ****   USBx->GINTSTS |= interrupt;
 3110              		.loc 1 1204 1 is_stmt 1 view -0
 3111              		.cfi_startproc
 3112              		@ args = 0, pretend = 0, frame = 0
 3113              		@ frame_needed = 0, uses_anonymous_args = 0
 3114              		@ link register save eliminated.
1205:Drivers/STM32H7xx_HAL_Driver/Src/stm32h7xx_ll_usb.c **** }
 3115              		.loc 1 1205 3 view .LVU966
1205:Drivers/STM32H7xx_HAL_Driver/Src/stm32h7xx_ll_usb.c **** }
 3116              		.loc 1 1205 17 is_stmt 0 view .LVU967
 3117 0000 4369     		ldr	r3, [r0, #20]
 3118 0002 0B43     		orrs	r3, r3, r1
 3119 0004 4361     		str	r3, [r0, #20]
1206:Drivers/STM32H7xx_HAL_Driver/Src/stm32h7xx_ll_usb.c **** 
 3120              		.loc 1 1206 1 view .LVU968
 3121 0006 7047     		bx	lr
 3122              		.cfi_endproc
 3123              	.LFE170:
 3125              		.section	.text.USB_GetMode,"ax",%progbits
 3126              		.align	1
 3127              		.global	USB_GetMode
 3128              		.syntax unified
 3129              		.thumb
 3130              		.thumb_func
 3131              		.fpu fpv5-d16
 3133              	USB_GetMode:
 3134              	.LVL269:
 3135              	.LFB171:
1217:Drivers/STM32H7xx_HAL_Driver/Src/stm32h7xx_ll_usb.c ****   return ((USBx->GINTSTS) & 0x1U);
 3136              		.loc 1 1217 1 is_stmt 1 view -0
 3137              		.cfi_startproc
 3138              		@ args = 0, pretend = 0, frame = 0
 3139              		@ frame_needed = 0, uses_anonymous_args = 0
 3140              		@ link register save eliminated.
1218:Drivers/STM32H7xx_HAL_Driver/Src/stm32h7xx_ll_usb.c **** }
 3141              		.loc 1 1218 3 view .LVU970
1218:Drivers/STM32H7xx_HAL_Driver/Src/stm32h7xx_ll_usb.c **** }
 3142              		.loc 1 1218 16 is_stmt 0 view .LVU971
 3143 0000 4069     		ldr	r0, [r0, #20]
 3144              	.LVL270:
1219:Drivers/STM32H7xx_HAL_Driver/Src/stm32h7xx_ll_usb.c **** 
 3145              		.loc 1 1219 1 view .LVU972
 3146 0002 00F00100 		and	r0, r0, #1
 3147 0006 7047     		bx	lr
 3148              		.cfi_endproc
 3149              	.LFE171:
 3151              		.section	.text.USB_ActivateSetup,"ax",%progbits
 3152              		.align	1
 3153              		.global	USB_ActivateSetup
 3154              		.syntax unified
 3155              		.thumb
 3156              		.thumb_func
 3157              		.fpu fpv5-d16
ARM GAS  /tmp/cc0TWTOC.s 			page 95


 3159              	USB_ActivateSetup:
 3160              	.LVL271:
 3161              	.LFB172:
1227:Drivers/STM32H7xx_HAL_Driver/Src/stm32h7xx_ll_usb.c ****   uint32_t USBx_BASE = (uint32_t)USBx;
 3162              		.loc 1 1227 1 is_stmt 1 view -0
 3163              		.cfi_startproc
 3164              		@ args = 0, pretend = 0, frame = 0
 3165              		@ frame_needed = 0, uses_anonymous_args = 0
 3166              		@ link register save eliminated.
1228:Drivers/STM32H7xx_HAL_Driver/Src/stm32h7xx_ll_usb.c **** 
 3167              		.loc 1 1228 3 view .LVU974
1231:Drivers/STM32H7xx_HAL_Driver/Src/stm32h7xx_ll_usb.c **** 
 3168              		.loc 1 1231 3 view .LVU975
1231:Drivers/STM32H7xx_HAL_Driver/Src/stm32h7xx_ll_usb.c **** 
 3169              		.loc 1 1231 26 is_stmt 0 view .LVU976
 3170 0000 D0F80029 		ldr	r2, [r0, #2304]
 3171 0004 0B4B     		ldr	r3, .L207
 3172 0006 1340     		ands	r3, r3, r2
 3173 0008 C0F80039 		str	r3, [r0, #2304]
1233:Drivers/STM32H7xx_HAL_Driver/Src/stm32h7xx_ll_usb.c ****   {
 3174              		.loc 1 1233 3 is_stmt 1 view .LVU977
1233:Drivers/STM32H7xx_HAL_Driver/Src/stm32h7xx_ll_usb.c ****   {
 3175              		.loc 1 1233 8 is_stmt 0 view .LVU978
 3176 000c 00F50063 		add	r3, r0, #2048
1233:Drivers/STM32H7xx_HAL_Driver/Src/stm32h7xx_ll_usb.c ****   {
 3177              		.loc 1 1233 19 view .LVU979
 3178 0010 9A68     		ldr	r2, [r3, #8]
1233:Drivers/STM32H7xx_HAL_Driver/Src/stm32h7xx_ll_usb.c ****   {
 3179              		.loc 1 1233 26 view .LVU980
 3180 0012 02F00602 		and	r2, r2, #6
1233:Drivers/STM32H7xx_HAL_Driver/Src/stm32h7xx_ll_usb.c ****   {
 3181              		.loc 1 1233 6 view .LVU981
 3182 0016 042A     		cmp	r2, #4
 3183 0018 05D0     		beq	.L206
 3184              	.L205:
1237:Drivers/STM32H7xx_HAL_Driver/Src/stm32h7xx_ll_usb.c **** 
 3185              		.loc 1 1237 3 is_stmt 1 view .LVU982
1237:Drivers/STM32H7xx_HAL_Driver/Src/stm32h7xx_ll_usb.c **** 
 3186              		.loc 1 1237 21 is_stmt 0 view .LVU983
 3187 001a 5A68     		ldr	r2, [r3, #4]
 3188 001c 42F48072 		orr	r2, r2, #256
 3189 0020 5A60     		str	r2, [r3, #4]
1239:Drivers/STM32H7xx_HAL_Driver/Src/stm32h7xx_ll_usb.c **** }
 3190              		.loc 1 1239 3 is_stmt 1 view .LVU984
1240:Drivers/STM32H7xx_HAL_Driver/Src/stm32h7xx_ll_usb.c **** 
 3191              		.loc 1 1240 1 is_stmt 0 view .LVU985
 3192 0022 0020     		movs	r0, #0
 3193              	.LVL272:
1240:Drivers/STM32H7xx_HAL_Driver/Src/stm32h7xx_ll_usb.c **** 
 3194              		.loc 1 1240 1 view .LVU986
 3195 0024 7047     		bx	lr
 3196              	.LVL273:
 3197              	.L206:
1235:Drivers/STM32H7xx_HAL_Driver/Src/stm32h7xx_ll_usb.c ****   }
 3198              		.loc 1 1235 5 is_stmt 1 view .LVU987
1235:Drivers/STM32H7xx_HAL_Driver/Src/stm32h7xx_ll_usb.c ****   }
 3199              		.loc 1 1235 28 is_stmt 0 view .LVU988
ARM GAS  /tmp/cc0TWTOC.s 			page 96


 3200 0026 D0F80029 		ldr	r2, [r0, #2304]
 3201 002a 42F00302 		orr	r2, r2, #3
 3202 002e C0F80029 		str	r2, [r0, #2304]
 3203 0032 F2E7     		b	.L205
 3204              	.L208:
 3205              		.align	2
 3206              	.L207:
 3207 0034 00F8FFFF 		.word	-2048
 3208              		.cfi_endproc
 3209              	.LFE172:
 3211              		.section	.text.USB_EP0_OutStart,"ax",%progbits
 3212              		.align	1
 3213              		.global	USB_EP0_OutStart
 3214              		.syntax unified
 3215              		.thumb
 3216              		.thumb_func
 3217              		.fpu fpv5-d16
 3219              	USB_EP0_OutStart:
 3220              	.LVL274:
 3221              	.LFB173:
1253:Drivers/STM32H7xx_HAL_Driver/Src/stm32h7xx_ll_usb.c ****   uint32_t USBx_BASE = (uint32_t)USBx;
 3222              		.loc 1 1253 1 is_stmt 1 view -0
 3223              		.cfi_startproc
 3224              		@ args = 0, pretend = 0, frame = 0
 3225              		@ frame_needed = 0, uses_anonymous_args = 0
 3226              		@ link register save eliminated.
1253:Drivers/STM32H7xx_HAL_Driver/Src/stm32h7xx_ll_usb.c ****   uint32_t USBx_BASE = (uint32_t)USBx;
 3227              		.loc 1 1253 1 is_stmt 0 view .LVU990
 3228 0000 10B4     		push	{r4}
 3229              	.LCFI36:
 3230              		.cfi_def_cfa_offset 4
 3231              		.cfi_offset 4, -4
1254:Drivers/STM32H7xx_HAL_Driver/Src/stm32h7xx_ll_usb.c ****   uint32_t gSNPSiD = *(__IO uint32_t *)(&USBx->CID + 0x1U);
 3232              		.loc 1 1254 3 is_stmt 1 view .LVU991
 3233              	.LVL275:
1255:Drivers/STM32H7xx_HAL_Driver/Src/stm32h7xx_ll_usb.c **** 
 3234              		.loc 1 1255 3 view .LVU992
1255:Drivers/STM32H7xx_HAL_Driver/Src/stm32h7xx_ll_usb.c **** 
 3235              		.loc 1 1255 12 is_stmt 0 view .LVU993
 3236 0002 046C     		ldr	r4, [r0, #64]
 3237              	.LVL276:
1257:Drivers/STM32H7xx_HAL_Driver/Src/stm32h7xx_ll_usb.c ****   {
 3238              		.loc 1 1257 3 is_stmt 1 view .LVU994
1257:Drivers/STM32H7xx_HAL_Driver/Src/stm32h7xx_ll_usb.c ****   {
 3239              		.loc 1 1257 6 is_stmt 0 view .LVU995
 3240 0004 154B     		ldr	r3, .L214
 3241 0006 9C42     		cmp	r4, r3
 3242 0008 03D9     		bls	.L210
1259:Drivers/STM32H7xx_HAL_Driver/Src/stm32h7xx_ll_usb.c ****     {
 3243              		.loc 1 1259 5 is_stmt 1 view .LVU996
1259:Drivers/STM32H7xx_HAL_Driver/Src/stm32h7xx_ll_usb.c ****     {
 3244              		.loc 1 1259 24 is_stmt 0 view .LVU997
 3245 000a D0F8003B 		ldr	r3, [r0, #2816]
1259:Drivers/STM32H7xx_HAL_Driver/Src/stm32h7xx_ll_usb.c ****     {
 3246              		.loc 1 1259 8 view .LVU998
 3247 000e 002B     		cmp	r3, #0
 3248 0010 16DB     		blt	.L211
ARM GAS  /tmp/cc0TWTOC.s 			page 97


 3249              	.L210:
1265:Drivers/STM32H7xx_HAL_Driver/Src/stm32h7xx_ll_usb.c ****   USBx_OUTEP(0U)->DOEPTSIZ |= (USB_OTG_DOEPTSIZ_PKTCNT & (1U << 19));
 3250              		.loc 1 1265 3 is_stmt 1 view .LVU999
1265:Drivers/STM32H7xx_HAL_Driver/Src/stm32h7xx_ll_usb.c ****   USBx_OUTEP(0U)->DOEPTSIZ |= (USB_OTG_DOEPTSIZ_PKTCNT & (1U << 19));
 3251              		.loc 1 1265 28 is_stmt 0 view .LVU1000
 3252 0012 0024     		movs	r4, #0
 3253              	.LVL277:
1265:Drivers/STM32H7xx_HAL_Driver/Src/stm32h7xx_ll_usb.c ****   USBx_OUTEP(0U)->DOEPTSIZ |= (USB_OTG_DOEPTSIZ_PKTCNT & (1U << 19));
 3254              		.loc 1 1265 28 view .LVU1001
 3255 0014 C0F8104B 		str	r4, [r0, #2832]
1266:Drivers/STM32H7xx_HAL_Driver/Src/stm32h7xx_ll_usb.c ****   USBx_OUTEP(0U)->DOEPTSIZ |= (3U * 8U);
 3256              		.loc 1 1266 3 is_stmt 1 view .LVU1002
1266:Drivers/STM32H7xx_HAL_Driver/Src/stm32h7xx_ll_usb.c ****   USBx_OUTEP(0U)->DOEPTSIZ |= (3U * 8U);
 3257              		.loc 1 1266 28 is_stmt 0 view .LVU1003
 3258 0018 D0F8104B 		ldr	r4, [r0, #2832]
 3259 001c 44F40024 		orr	r4, r4, #524288
 3260 0020 C0F8104B 		str	r4, [r0, #2832]
1267:Drivers/STM32H7xx_HAL_Driver/Src/stm32h7xx_ll_usb.c ****   USBx_OUTEP(0U)->DOEPTSIZ |=  USB_OTG_DOEPTSIZ_STUPCNT;
 3261              		.loc 1 1267 3 is_stmt 1 view .LVU1004
1267:Drivers/STM32H7xx_HAL_Driver/Src/stm32h7xx_ll_usb.c ****   USBx_OUTEP(0U)->DOEPTSIZ |=  USB_OTG_DOEPTSIZ_STUPCNT;
 3262              		.loc 1 1267 28 is_stmt 0 view .LVU1005
 3263 0024 D0F8104B 		ldr	r4, [r0, #2832]
 3264 0028 44F01804 		orr	r4, r4, #24
 3265 002c C0F8104B 		str	r4, [r0, #2832]
1268:Drivers/STM32H7xx_HAL_Driver/Src/stm32h7xx_ll_usb.c **** 
 3266              		.loc 1 1268 3 is_stmt 1 view .LVU1006
1268:Drivers/STM32H7xx_HAL_Driver/Src/stm32h7xx_ll_usb.c **** 
 3267              		.loc 1 1268 28 is_stmt 0 view .LVU1007
 3268 0030 D0F8104B 		ldr	r4, [r0, #2832]
 3269 0034 44F0C044 		orr	r4, r4, #1610612736
 3270 0038 C0F8104B 		str	r4, [r0, #2832]
1270:Drivers/STM32H7xx_HAL_Driver/Src/stm32h7xx_ll_usb.c ****   {
 3271              		.loc 1 1270 3 is_stmt 1 view .LVU1008
1270:Drivers/STM32H7xx_HAL_Driver/Src/stm32h7xx_ll_usb.c ****   {
 3272              		.loc 1 1270 6 is_stmt 0 view .LVU1009
 3273 003c 0129     		cmp	r1, #1
 3274 003e 03D0     		beq	.L213
 3275              	.L211:
1278:Drivers/STM32H7xx_HAL_Driver/Src/stm32h7xx_ll_usb.c **** 
 3276              		.loc 1 1278 1 view .LVU1010
 3277 0040 0020     		movs	r0, #0
 3278              	.LVL278:
1278:Drivers/STM32H7xx_HAL_Driver/Src/stm32h7xx_ll_usb.c **** 
 3279              		.loc 1 1278 1 view .LVU1011
 3280 0042 5DF8044B 		ldr	r4, [sp], #4
 3281              	.LCFI37:
 3282              		.cfi_remember_state
 3283              		.cfi_restore 4
 3284              		.cfi_def_cfa_offset 0
 3285 0046 7047     		bx	lr
 3286              	.LVL279:
 3287              	.L213:
 3288              	.LCFI38:
 3289              		.cfi_restore_state
1272:Drivers/STM32H7xx_HAL_Driver/Src/stm32h7xx_ll_usb.c ****     /* EP enable */
 3290              		.loc 1 1272 5 is_stmt 1 view .LVU1012
1272:Drivers/STM32H7xx_HAL_Driver/Src/stm32h7xx_ll_usb.c ****     /* EP enable */
ARM GAS  /tmp/cc0TWTOC.s 			page 98


 3291              		.loc 1 1272 29 is_stmt 0 view .LVU1013
 3292 0048 C0F8142B 		str	r2, [r0, #2836]
1274:Drivers/STM32H7xx_HAL_Driver/Src/stm32h7xx_ll_usb.c ****   }
 3293              		.loc 1 1274 5 is_stmt 1 view .LVU1014
1274:Drivers/STM32H7xx_HAL_Driver/Src/stm32h7xx_ll_usb.c ****   }
 3294              		.loc 1 1274 29 is_stmt 0 view .LVU1015
 3295 004c D0F8003B 		ldr	r3, [r0, #2816]
 3296 0050 43F08023 		orr	r3, r3, #-2147450880
 3297 0054 C0F8003B 		str	r3, [r0, #2816]
 3298 0058 F2E7     		b	.L211
 3299              	.L215:
 3300 005a 00BF     		.align	2
 3301              	.L214:
 3302 005c 0A30544F 		.word	1330917386
 3303              		.cfi_endproc
 3304              	.LFE173:
 3306              		.section	.text.USB_InitFSLSPClkSel,"ax",%progbits
 3307              		.align	1
 3308              		.global	USB_InitFSLSPClkSel
 3309              		.syntax unified
 3310              		.thumb
 3311              		.thumb_func
 3312              		.fpu fpv5-d16
 3314              	USB_InitFSLSPClkSel:
 3315              	.LVL280:
 3316              	.LFB176:
1314:Drivers/STM32H7xx_HAL_Driver/Src/stm32h7xx_ll_usb.c **** 
1315:Drivers/STM32H7xx_HAL_Driver/Src/stm32h7xx_ll_usb.c **** /**
1316:Drivers/STM32H7xx_HAL_Driver/Src/stm32h7xx_ll_usb.c ****   * @brief  USB_HostInit : Initializes the USB OTG controller registers
1317:Drivers/STM32H7xx_HAL_Driver/Src/stm32h7xx_ll_usb.c ****   *         for Host mode
1318:Drivers/STM32H7xx_HAL_Driver/Src/stm32h7xx_ll_usb.c ****   * @param  USBx  Selected device
1319:Drivers/STM32H7xx_HAL_Driver/Src/stm32h7xx_ll_usb.c ****   * @param  cfg   pointer to a USB_OTG_CfgTypeDef structure that contains
1320:Drivers/STM32H7xx_HAL_Driver/Src/stm32h7xx_ll_usb.c ****   *         the configuration information for the specified USBx peripheral.
1321:Drivers/STM32H7xx_HAL_Driver/Src/stm32h7xx_ll_usb.c ****   * @retval HAL status
1322:Drivers/STM32H7xx_HAL_Driver/Src/stm32h7xx_ll_usb.c ****   */
1323:Drivers/STM32H7xx_HAL_Driver/Src/stm32h7xx_ll_usb.c **** HAL_StatusTypeDef USB_HostInit(USB_OTG_GlobalTypeDef *USBx, USB_OTG_CfgTypeDef cfg)
1324:Drivers/STM32H7xx_HAL_Driver/Src/stm32h7xx_ll_usb.c **** {
1325:Drivers/STM32H7xx_HAL_Driver/Src/stm32h7xx_ll_usb.c ****   uint32_t USBx_BASE = (uint32_t)USBx;
1326:Drivers/STM32H7xx_HAL_Driver/Src/stm32h7xx_ll_usb.c ****   uint32_t i;
1327:Drivers/STM32H7xx_HAL_Driver/Src/stm32h7xx_ll_usb.c **** 
1328:Drivers/STM32H7xx_HAL_Driver/Src/stm32h7xx_ll_usb.c ****   /* Restart the Phy Clock */
1329:Drivers/STM32H7xx_HAL_Driver/Src/stm32h7xx_ll_usb.c ****   USBx_PCGCCTL = 0U;
1330:Drivers/STM32H7xx_HAL_Driver/Src/stm32h7xx_ll_usb.c **** 
1331:Drivers/STM32H7xx_HAL_Driver/Src/stm32h7xx_ll_usb.c ****   /* Disable VBUS sensing */
1332:Drivers/STM32H7xx_HAL_Driver/Src/stm32h7xx_ll_usb.c ****   USBx->GCCFG &= ~(USB_OTG_GCCFG_VBDEN);
1333:Drivers/STM32H7xx_HAL_Driver/Src/stm32h7xx_ll_usb.c **** 
1334:Drivers/STM32H7xx_HAL_Driver/Src/stm32h7xx_ll_usb.c ****   /* Disable Battery chargin detector */
1335:Drivers/STM32H7xx_HAL_Driver/Src/stm32h7xx_ll_usb.c ****   USBx->GCCFG &= ~(USB_OTG_GCCFG_BCDEN);
1336:Drivers/STM32H7xx_HAL_Driver/Src/stm32h7xx_ll_usb.c **** 
1337:Drivers/STM32H7xx_HAL_Driver/Src/stm32h7xx_ll_usb.c **** 
1338:Drivers/STM32H7xx_HAL_Driver/Src/stm32h7xx_ll_usb.c ****   if ((USBx->CID & (0x1U << 8)) != 0U)
1339:Drivers/STM32H7xx_HAL_Driver/Src/stm32h7xx_ll_usb.c ****   {
1340:Drivers/STM32H7xx_HAL_Driver/Src/stm32h7xx_ll_usb.c ****     if (cfg.speed == USB_OTG_SPEED_FULL)
1341:Drivers/STM32H7xx_HAL_Driver/Src/stm32h7xx_ll_usb.c ****     {
1342:Drivers/STM32H7xx_HAL_Driver/Src/stm32h7xx_ll_usb.c ****       /* Force Device Enumeration to FS/LS mode only */
1343:Drivers/STM32H7xx_HAL_Driver/Src/stm32h7xx_ll_usb.c ****       USBx_HOST->HCFG |= USB_OTG_HCFG_FSLSS;
1344:Drivers/STM32H7xx_HAL_Driver/Src/stm32h7xx_ll_usb.c ****     }
ARM GAS  /tmp/cc0TWTOC.s 			page 99


1345:Drivers/STM32H7xx_HAL_Driver/Src/stm32h7xx_ll_usb.c ****     else
1346:Drivers/STM32H7xx_HAL_Driver/Src/stm32h7xx_ll_usb.c ****     {
1347:Drivers/STM32H7xx_HAL_Driver/Src/stm32h7xx_ll_usb.c ****       /* Set default Max speed support */
1348:Drivers/STM32H7xx_HAL_Driver/Src/stm32h7xx_ll_usb.c ****       USBx_HOST->HCFG &= ~(USB_OTG_HCFG_FSLSS);
1349:Drivers/STM32H7xx_HAL_Driver/Src/stm32h7xx_ll_usb.c ****     }
1350:Drivers/STM32H7xx_HAL_Driver/Src/stm32h7xx_ll_usb.c ****   }
1351:Drivers/STM32H7xx_HAL_Driver/Src/stm32h7xx_ll_usb.c ****   else
1352:Drivers/STM32H7xx_HAL_Driver/Src/stm32h7xx_ll_usb.c ****   {
1353:Drivers/STM32H7xx_HAL_Driver/Src/stm32h7xx_ll_usb.c ****     /* Set default Max speed support */
1354:Drivers/STM32H7xx_HAL_Driver/Src/stm32h7xx_ll_usb.c ****     USBx_HOST->HCFG &= ~(USB_OTG_HCFG_FSLSS);
1355:Drivers/STM32H7xx_HAL_Driver/Src/stm32h7xx_ll_usb.c ****   }
1356:Drivers/STM32H7xx_HAL_Driver/Src/stm32h7xx_ll_usb.c **** 
1357:Drivers/STM32H7xx_HAL_Driver/Src/stm32h7xx_ll_usb.c ****   /* Make sure the FIFOs are flushed. */
1358:Drivers/STM32H7xx_HAL_Driver/Src/stm32h7xx_ll_usb.c ****   (void)USB_FlushTxFifo(USBx, 0x10U); /* all Tx FIFOs */
1359:Drivers/STM32H7xx_HAL_Driver/Src/stm32h7xx_ll_usb.c ****   (void)USB_FlushRxFifo(USBx);
1360:Drivers/STM32H7xx_HAL_Driver/Src/stm32h7xx_ll_usb.c **** 
1361:Drivers/STM32H7xx_HAL_Driver/Src/stm32h7xx_ll_usb.c ****   /* Clear all pending HC Interrupts */
1362:Drivers/STM32H7xx_HAL_Driver/Src/stm32h7xx_ll_usb.c ****   for (i = 0U; i < cfg.Host_channels; i++)
1363:Drivers/STM32H7xx_HAL_Driver/Src/stm32h7xx_ll_usb.c ****   {
1364:Drivers/STM32H7xx_HAL_Driver/Src/stm32h7xx_ll_usb.c ****     USBx_HC(i)->HCINT = 0xFFFFFFFFU;
1365:Drivers/STM32H7xx_HAL_Driver/Src/stm32h7xx_ll_usb.c ****     USBx_HC(i)->HCINTMSK = 0U;
1366:Drivers/STM32H7xx_HAL_Driver/Src/stm32h7xx_ll_usb.c ****   }
1367:Drivers/STM32H7xx_HAL_Driver/Src/stm32h7xx_ll_usb.c **** 
1368:Drivers/STM32H7xx_HAL_Driver/Src/stm32h7xx_ll_usb.c ****   /* Enable VBUS driving */
1369:Drivers/STM32H7xx_HAL_Driver/Src/stm32h7xx_ll_usb.c ****   (void)USB_DriveVbus(USBx, 1U);
1370:Drivers/STM32H7xx_HAL_Driver/Src/stm32h7xx_ll_usb.c **** 
1371:Drivers/STM32H7xx_HAL_Driver/Src/stm32h7xx_ll_usb.c ****   HAL_Delay(200U);
1372:Drivers/STM32H7xx_HAL_Driver/Src/stm32h7xx_ll_usb.c **** 
1373:Drivers/STM32H7xx_HAL_Driver/Src/stm32h7xx_ll_usb.c ****   /* Disable all interrupts. */
1374:Drivers/STM32H7xx_HAL_Driver/Src/stm32h7xx_ll_usb.c ****   USBx->GINTMSK = 0U;
1375:Drivers/STM32H7xx_HAL_Driver/Src/stm32h7xx_ll_usb.c **** 
1376:Drivers/STM32H7xx_HAL_Driver/Src/stm32h7xx_ll_usb.c ****   /* Clear any pending interrupts */
1377:Drivers/STM32H7xx_HAL_Driver/Src/stm32h7xx_ll_usb.c ****   USBx->GINTSTS = 0xFFFFFFFFU;
1378:Drivers/STM32H7xx_HAL_Driver/Src/stm32h7xx_ll_usb.c **** 
1379:Drivers/STM32H7xx_HAL_Driver/Src/stm32h7xx_ll_usb.c ****   if ((USBx->CID & (0x1U << 8)) != 0U)
1380:Drivers/STM32H7xx_HAL_Driver/Src/stm32h7xx_ll_usb.c ****   {
1381:Drivers/STM32H7xx_HAL_Driver/Src/stm32h7xx_ll_usb.c ****     /* set Rx FIFO size */
1382:Drivers/STM32H7xx_HAL_Driver/Src/stm32h7xx_ll_usb.c ****     USBx->GRXFSIZ  = 0x200U;
1383:Drivers/STM32H7xx_HAL_Driver/Src/stm32h7xx_ll_usb.c ****     USBx->DIEPTXF0_HNPTXFSIZ = (uint32_t)(((0x100U << 16) & USB_OTG_NPTXFD) | 0x200U);
1384:Drivers/STM32H7xx_HAL_Driver/Src/stm32h7xx_ll_usb.c ****     USBx->HPTXFSIZ = (uint32_t)(((0xE0U << 16) & USB_OTG_HPTXFSIZ_PTXFD) | 0x300U);
1385:Drivers/STM32H7xx_HAL_Driver/Src/stm32h7xx_ll_usb.c ****   }
1386:Drivers/STM32H7xx_HAL_Driver/Src/stm32h7xx_ll_usb.c ****   else
1387:Drivers/STM32H7xx_HAL_Driver/Src/stm32h7xx_ll_usb.c ****   {
1388:Drivers/STM32H7xx_HAL_Driver/Src/stm32h7xx_ll_usb.c ****     /* set Rx FIFO size */
1389:Drivers/STM32H7xx_HAL_Driver/Src/stm32h7xx_ll_usb.c ****     USBx->GRXFSIZ  = 0x80U;
1390:Drivers/STM32H7xx_HAL_Driver/Src/stm32h7xx_ll_usb.c ****     USBx->DIEPTXF0_HNPTXFSIZ = (uint32_t)(((0x60U << 16) & USB_OTG_NPTXFD) | 0x80U);
1391:Drivers/STM32H7xx_HAL_Driver/Src/stm32h7xx_ll_usb.c ****     USBx->HPTXFSIZ = (uint32_t)(((0x40U << 16)& USB_OTG_HPTXFSIZ_PTXFD) | 0xE0U);
1392:Drivers/STM32H7xx_HAL_Driver/Src/stm32h7xx_ll_usb.c ****   }
1393:Drivers/STM32H7xx_HAL_Driver/Src/stm32h7xx_ll_usb.c **** 
1394:Drivers/STM32H7xx_HAL_Driver/Src/stm32h7xx_ll_usb.c ****   /* Enable the common interrupts */
1395:Drivers/STM32H7xx_HAL_Driver/Src/stm32h7xx_ll_usb.c ****   if (cfg.dma_enable == 0U)
1396:Drivers/STM32H7xx_HAL_Driver/Src/stm32h7xx_ll_usb.c ****   {
1397:Drivers/STM32H7xx_HAL_Driver/Src/stm32h7xx_ll_usb.c ****     USBx->GINTMSK |= USB_OTG_GINTMSK_RXFLVLM;
1398:Drivers/STM32H7xx_HAL_Driver/Src/stm32h7xx_ll_usb.c ****   }
1399:Drivers/STM32H7xx_HAL_Driver/Src/stm32h7xx_ll_usb.c **** 
1400:Drivers/STM32H7xx_HAL_Driver/Src/stm32h7xx_ll_usb.c ****   /* Enable interrupts matching to the Host mode ONLY */
1401:Drivers/STM32H7xx_HAL_Driver/Src/stm32h7xx_ll_usb.c ****   USBx->GINTMSK |= (USB_OTG_GINTMSK_PRTIM            | USB_OTG_GINTMSK_HCIM | \
ARM GAS  /tmp/cc0TWTOC.s 			page 100


1402:Drivers/STM32H7xx_HAL_Driver/Src/stm32h7xx_ll_usb.c ****                     USB_OTG_GINTMSK_SOFM             | USB_OTG_GINTSTS_DISCINT | \
1403:Drivers/STM32H7xx_HAL_Driver/Src/stm32h7xx_ll_usb.c ****                     USB_OTG_GINTMSK_PXFRM_IISOOXFRM  | USB_OTG_GINTMSK_WUIM);
1404:Drivers/STM32H7xx_HAL_Driver/Src/stm32h7xx_ll_usb.c **** 
1405:Drivers/STM32H7xx_HAL_Driver/Src/stm32h7xx_ll_usb.c ****   return HAL_OK;
1406:Drivers/STM32H7xx_HAL_Driver/Src/stm32h7xx_ll_usb.c **** }
1407:Drivers/STM32H7xx_HAL_Driver/Src/stm32h7xx_ll_usb.c **** 
1408:Drivers/STM32H7xx_HAL_Driver/Src/stm32h7xx_ll_usb.c **** /**
1409:Drivers/STM32H7xx_HAL_Driver/Src/stm32h7xx_ll_usb.c ****   * @brief  USB_InitFSLSPClkSel : Initializes the FSLSPClkSel field of the
1410:Drivers/STM32H7xx_HAL_Driver/Src/stm32h7xx_ll_usb.c ****   *         HCFG register on the PHY type and set the right frame interval
1411:Drivers/STM32H7xx_HAL_Driver/Src/stm32h7xx_ll_usb.c ****   * @param  USBx  Selected device
1412:Drivers/STM32H7xx_HAL_Driver/Src/stm32h7xx_ll_usb.c ****   * @param  freq  clock frequency
1413:Drivers/STM32H7xx_HAL_Driver/Src/stm32h7xx_ll_usb.c ****   *          This parameter can be one of these values:
1414:Drivers/STM32H7xx_HAL_Driver/Src/stm32h7xx_ll_usb.c ****   *           HCFG_48_MHZ : Full Speed 48 MHz Clock
1415:Drivers/STM32H7xx_HAL_Driver/Src/stm32h7xx_ll_usb.c ****   *           HCFG_6_MHZ : Low Speed 6 MHz Clock
1416:Drivers/STM32H7xx_HAL_Driver/Src/stm32h7xx_ll_usb.c ****   * @retval HAL status
1417:Drivers/STM32H7xx_HAL_Driver/Src/stm32h7xx_ll_usb.c ****   */
1418:Drivers/STM32H7xx_HAL_Driver/Src/stm32h7xx_ll_usb.c **** HAL_StatusTypeDef USB_InitFSLSPClkSel(USB_OTG_GlobalTypeDef *USBx, uint8_t freq)
1419:Drivers/STM32H7xx_HAL_Driver/Src/stm32h7xx_ll_usb.c **** {
 3317              		.loc 1 1419 1 is_stmt 1 view -0
 3318              		.cfi_startproc
 3319              		@ args = 0, pretend = 0, frame = 0
 3320              		@ frame_needed = 0, uses_anonymous_args = 0
 3321              		@ link register save eliminated.
 3322              		.loc 1 1419 1 is_stmt 0 view .LVU1017
 3323 0000 10B4     		push	{r4}
 3324              	.LCFI39:
 3325              		.cfi_def_cfa_offset 4
 3326              		.cfi_offset 4, -4
1420:Drivers/STM32H7xx_HAL_Driver/Src/stm32h7xx_ll_usb.c ****   uint32_t USBx_BASE = (uint32_t)USBx;
 3327              		.loc 1 1420 3 is_stmt 1 view .LVU1018
 3328              	.LVL281:
1421:Drivers/STM32H7xx_HAL_Driver/Src/stm32h7xx_ll_usb.c **** 
1422:Drivers/STM32H7xx_HAL_Driver/Src/stm32h7xx_ll_usb.c ****   USBx_HOST->HCFG &= ~(USB_OTG_HCFG_FSLSPCS);
 3329              		.loc 1 1422 3 view .LVU1019
 3330              		.loc 1 1422 19 is_stmt 0 view .LVU1020
 3331 0002 00F58064 		add	r4, r0, #1024
 3332 0006 D0F80034 		ldr	r3, [r0, #1024]
 3333 000a 23F00303 		bic	r3, r3, #3
 3334 000e C0F80034 		str	r3, [r0, #1024]
1423:Drivers/STM32H7xx_HAL_Driver/Src/stm32h7xx_ll_usb.c ****   USBx_HOST->HCFG |= (uint32_t)freq & USB_OTG_HCFG_FSLSPCS;
 3335              		.loc 1 1423 3 is_stmt 1 view .LVU1021
 3336              		.loc 1 1423 19 is_stmt 0 view .LVU1022
 3337 0012 D0F80034 		ldr	r3, [r0, #1024]
 3338              		.loc 1 1423 37 view .LVU1023
 3339 0016 01F00302 		and	r2, r1, #3
 3340              		.loc 1 1423 19 view .LVU1024
 3341 001a 1343     		orrs	r3, r3, r2
 3342 001c C0F80034 		str	r3, [r0, #1024]
1424:Drivers/STM32H7xx_HAL_Driver/Src/stm32h7xx_ll_usb.c **** 
1425:Drivers/STM32H7xx_HAL_Driver/Src/stm32h7xx_ll_usb.c ****   if (freq == HCFG_48_MHZ)
 3343              		.loc 1 1425 3 is_stmt 1 view .LVU1025
 3344              		.loc 1 1425 6 is_stmt 0 view .LVU1026
 3345 0020 0129     		cmp	r1, #1
 3346 0022 05D0     		beq	.L220
1426:Drivers/STM32H7xx_HAL_Driver/Src/stm32h7xx_ll_usb.c ****   {
1427:Drivers/STM32H7xx_HAL_Driver/Src/stm32h7xx_ll_usb.c ****     USBx_HOST->HFIR = 48000U;
1428:Drivers/STM32H7xx_HAL_Driver/Src/stm32h7xx_ll_usb.c ****   }
ARM GAS  /tmp/cc0TWTOC.s 			page 101


1429:Drivers/STM32H7xx_HAL_Driver/Src/stm32h7xx_ll_usb.c ****   else if (freq == HCFG_6_MHZ)
 3347              		.loc 1 1429 8 is_stmt 1 view .LVU1027
 3348              		.loc 1 1429 11 is_stmt 0 view .LVU1028
 3349 0024 0229     		cmp	r1, #2
 3350 0026 07D0     		beq	.L221
 3351              	.L218:
1430:Drivers/STM32H7xx_HAL_Driver/Src/stm32h7xx_ll_usb.c ****   {
1431:Drivers/STM32H7xx_HAL_Driver/Src/stm32h7xx_ll_usb.c ****     USBx_HOST->HFIR = 6000U;
1432:Drivers/STM32H7xx_HAL_Driver/Src/stm32h7xx_ll_usb.c ****   }
1433:Drivers/STM32H7xx_HAL_Driver/Src/stm32h7xx_ll_usb.c ****   else
1434:Drivers/STM32H7xx_HAL_Driver/Src/stm32h7xx_ll_usb.c ****   {
1435:Drivers/STM32H7xx_HAL_Driver/Src/stm32h7xx_ll_usb.c ****     /* ... */
1436:Drivers/STM32H7xx_HAL_Driver/Src/stm32h7xx_ll_usb.c ****   }
 3352              		.loc 1 1436 3 is_stmt 1 view .LVU1029
1437:Drivers/STM32H7xx_HAL_Driver/Src/stm32h7xx_ll_usb.c **** 
1438:Drivers/STM32H7xx_HAL_Driver/Src/stm32h7xx_ll_usb.c ****   return HAL_OK;
 3353              		.loc 1 1438 3 view .LVU1030
1439:Drivers/STM32H7xx_HAL_Driver/Src/stm32h7xx_ll_usb.c **** }
 3354              		.loc 1 1439 1 is_stmt 0 view .LVU1031
 3355 0028 0020     		movs	r0, #0
 3356              	.LVL282:
 3357              		.loc 1 1439 1 view .LVU1032
 3358 002a 5DF8044B 		ldr	r4, [sp], #4
 3359              	.LCFI40:
 3360              		.cfi_remember_state
 3361              		.cfi_restore 4
 3362              		.cfi_def_cfa_offset 0
 3363              	.LVL283:
 3364              		.loc 1 1439 1 view .LVU1033
 3365 002e 7047     		bx	lr
 3366              	.LVL284:
 3367              	.L220:
 3368              	.LCFI41:
 3369              		.cfi_restore_state
1427:Drivers/STM32H7xx_HAL_Driver/Src/stm32h7xx_ll_usb.c ****   }
 3370              		.loc 1 1427 5 is_stmt 1 view .LVU1034
1427:Drivers/STM32H7xx_HAL_Driver/Src/stm32h7xx_ll_usb.c ****   }
 3371              		.loc 1 1427 21 is_stmt 0 view .LVU1035
 3372 0030 4BF68033 		movw	r3, #48000
 3373 0034 6360     		str	r3, [r4, #4]
 3374 0036 F7E7     		b	.L218
 3375              	.L221:
1431:Drivers/STM32H7xx_HAL_Driver/Src/stm32h7xx_ll_usb.c ****   }
 3376              		.loc 1 1431 5 is_stmt 1 view .LVU1036
1431:Drivers/STM32H7xx_HAL_Driver/Src/stm32h7xx_ll_usb.c ****   }
 3377              		.loc 1 1431 21 is_stmt 0 view .LVU1037
 3378 0038 41F27073 		movw	r3, #6000
 3379 003c 6360     		str	r3, [r4, #4]
 3380 003e F3E7     		b	.L218
 3381              		.cfi_endproc
 3382              	.LFE176:
 3384              		.section	.text.USB_ResetPort,"ax",%progbits
 3385              		.align	1
 3386              		.global	USB_ResetPort
 3387              		.syntax unified
 3388              		.thumb
 3389              		.thumb_func
ARM GAS  /tmp/cc0TWTOC.s 			page 102


 3390              		.fpu fpv5-d16
 3392              	USB_ResetPort:
 3393              	.LVL285:
 3394              	.LFB177:
1440:Drivers/STM32H7xx_HAL_Driver/Src/stm32h7xx_ll_usb.c **** 
1441:Drivers/STM32H7xx_HAL_Driver/Src/stm32h7xx_ll_usb.c **** /**
1442:Drivers/STM32H7xx_HAL_Driver/Src/stm32h7xx_ll_usb.c **** * @brief  USB_OTG_ResetPort : Reset Host Port
1443:Drivers/STM32H7xx_HAL_Driver/Src/stm32h7xx_ll_usb.c ****   * @param  USBx  Selected device
1444:Drivers/STM32H7xx_HAL_Driver/Src/stm32h7xx_ll_usb.c ****   * @retval HAL status
1445:Drivers/STM32H7xx_HAL_Driver/Src/stm32h7xx_ll_usb.c ****   * @note (1)The application must wait at least 10 ms
1446:Drivers/STM32H7xx_HAL_Driver/Src/stm32h7xx_ll_usb.c ****   *   before clearing the reset bit.
1447:Drivers/STM32H7xx_HAL_Driver/Src/stm32h7xx_ll_usb.c ****   */
1448:Drivers/STM32H7xx_HAL_Driver/Src/stm32h7xx_ll_usb.c **** HAL_StatusTypeDef USB_ResetPort(USB_OTG_GlobalTypeDef *USBx)
1449:Drivers/STM32H7xx_HAL_Driver/Src/stm32h7xx_ll_usb.c **** {
 3395              		.loc 1 1449 1 is_stmt 1 view -0
 3396              		.cfi_startproc
 3397              		@ args = 0, pretend = 0, frame = 8
 3398              		@ frame_needed = 0, uses_anonymous_args = 0
 3399              		.loc 1 1449 1 is_stmt 0 view .LVU1039
 3400 0000 30B5     		push	{r4, r5, lr}
 3401              	.LCFI42:
 3402              		.cfi_def_cfa_offset 12
 3403              		.cfi_offset 4, -12
 3404              		.cfi_offset 5, -8
 3405              		.cfi_offset 14, -4
 3406 0002 83B0     		sub	sp, sp, #12
 3407              	.LCFI43:
 3408              		.cfi_def_cfa_offset 24
 3409 0004 0446     		mov	r4, r0
1450:Drivers/STM32H7xx_HAL_Driver/Src/stm32h7xx_ll_usb.c ****   uint32_t USBx_BASE = (uint32_t)USBx;
 3410              		.loc 1 1450 3 is_stmt 1 view .LVU1040
 3411              	.LVL286:
1451:Drivers/STM32H7xx_HAL_Driver/Src/stm32h7xx_ll_usb.c **** 
1452:Drivers/STM32H7xx_HAL_Driver/Src/stm32h7xx_ll_usb.c ****   __IO uint32_t hprt0 = 0U;
 3412              		.loc 1 1452 3 view .LVU1041
 3413              		.loc 1 1452 17 is_stmt 0 view .LVU1042
 3414 0006 0025     		movs	r5, #0
 3415 0008 0195     		str	r5, [sp, #4]
1453:Drivers/STM32H7xx_HAL_Driver/Src/stm32h7xx_ll_usb.c **** 
1454:Drivers/STM32H7xx_HAL_Driver/Src/stm32h7xx_ll_usb.c ****   hprt0 = USBx_HPRT0;
 3416              		.loc 1 1454 3 is_stmt 1 view .LVU1043
 3417              		.loc 1 1454 11 is_stmt 0 view .LVU1044
 3418 000a D0F84034 		ldr	r3, [r0, #1088]
 3419              		.loc 1 1454 9 view .LVU1045
 3420 000e 0193     		str	r3, [sp, #4]
1455:Drivers/STM32H7xx_HAL_Driver/Src/stm32h7xx_ll_usb.c **** 
1456:Drivers/STM32H7xx_HAL_Driver/Src/stm32h7xx_ll_usb.c ****   hprt0 &= ~(USB_OTG_HPRT_PENA | USB_OTG_HPRT_PCDET |
 3421              		.loc 1 1456 3 is_stmt 1 view .LVU1046
 3422              		.loc 1 1456 9 is_stmt 0 view .LVU1047
 3423 0010 019B     		ldr	r3, [sp, #4]
 3424 0012 23F02E03 		bic	r3, r3, #46
 3425 0016 0193     		str	r3, [sp, #4]
1457:Drivers/STM32H7xx_HAL_Driver/Src/stm32h7xx_ll_usb.c ****              USB_OTG_HPRT_PENCHNG | USB_OTG_HPRT_POCCHNG);
1458:Drivers/STM32H7xx_HAL_Driver/Src/stm32h7xx_ll_usb.c **** 
1459:Drivers/STM32H7xx_HAL_Driver/Src/stm32h7xx_ll_usb.c ****   USBx_HPRT0 = (USB_OTG_HPRT_PRST | hprt0);
 3426              		.loc 1 1459 3 is_stmt 1 view .LVU1048
 3427              		.loc 1 1459 35 is_stmt 0 view .LVU1049
ARM GAS  /tmp/cc0TWTOC.s 			page 103


 3428 0018 019B     		ldr	r3, [sp, #4]
 3429 001a 43F48073 		orr	r3, r3, #256
 3430              		.loc 1 1459 14 view .LVU1050
 3431 001e C0F84034 		str	r3, [r0, #1088]
1460:Drivers/STM32H7xx_HAL_Driver/Src/stm32h7xx_ll_usb.c ****   HAL_Delay(100U);                                 /* See Note #1 */
 3432              		.loc 1 1460 3 is_stmt 1 view .LVU1051
 3433 0022 6420     		movs	r0, #100
 3434              	.LVL287:
 3435              		.loc 1 1460 3 is_stmt 0 view .LVU1052
 3436 0024 FFF7FEFF 		bl	HAL_Delay
 3437              	.LVL288:
1461:Drivers/STM32H7xx_HAL_Driver/Src/stm32h7xx_ll_usb.c ****   USBx_HPRT0 = ((~USB_OTG_HPRT_PRST) & hprt0);
 3438              		.loc 1 1461 3 is_stmt 1 view .LVU1053
 3439              		.loc 1 1461 38 is_stmt 0 view .LVU1054
 3440 0028 019B     		ldr	r3, [sp, #4]
 3441 002a 23F48073 		bic	r3, r3, #256
 3442              		.loc 1 1461 14 view .LVU1055
 3443 002e C4F84034 		str	r3, [r4, #1088]
1462:Drivers/STM32H7xx_HAL_Driver/Src/stm32h7xx_ll_usb.c ****   HAL_Delay(10U);
 3444              		.loc 1 1462 3 is_stmt 1 view .LVU1056
 3445 0032 0A20     		movs	r0, #10
 3446 0034 FFF7FEFF 		bl	HAL_Delay
 3447              	.LVL289:
1463:Drivers/STM32H7xx_HAL_Driver/Src/stm32h7xx_ll_usb.c **** 
1464:Drivers/STM32H7xx_HAL_Driver/Src/stm32h7xx_ll_usb.c ****   return HAL_OK;
 3448              		.loc 1 1464 3 view .LVU1057
1465:Drivers/STM32H7xx_HAL_Driver/Src/stm32h7xx_ll_usb.c **** }
 3449              		.loc 1 1465 1 is_stmt 0 view .LVU1058
 3450 0038 2846     		mov	r0, r5
 3451 003a 03B0     		add	sp, sp, #12
 3452              	.LCFI44:
 3453              		.cfi_def_cfa_offset 12
 3454              		@ sp needed
 3455 003c 30BD     		pop	{r4, r5, pc}
 3456              		.loc 1 1465 1 view .LVU1059
 3457              		.cfi_endproc
 3458              	.LFE177:
 3460              		.section	.text.USB_DriveVbus,"ax",%progbits
 3461              		.align	1
 3462              		.global	USB_DriveVbus
 3463              		.syntax unified
 3464              		.thumb
 3465              		.thumb_func
 3466              		.fpu fpv5-d16
 3468              	USB_DriveVbus:
 3469              	.LVL290:
 3470              	.LFB178:
1466:Drivers/STM32H7xx_HAL_Driver/Src/stm32h7xx_ll_usb.c **** 
1467:Drivers/STM32H7xx_HAL_Driver/Src/stm32h7xx_ll_usb.c **** /**
1468:Drivers/STM32H7xx_HAL_Driver/Src/stm32h7xx_ll_usb.c ****   * @brief  USB_DriveVbus : activate or de-activate vbus
1469:Drivers/STM32H7xx_HAL_Driver/Src/stm32h7xx_ll_usb.c ****   * @param  state  VBUS state
1470:Drivers/STM32H7xx_HAL_Driver/Src/stm32h7xx_ll_usb.c ****   *          This parameter can be one of these values:
1471:Drivers/STM32H7xx_HAL_Driver/Src/stm32h7xx_ll_usb.c ****   *           0 : VBUS Active
1472:Drivers/STM32H7xx_HAL_Driver/Src/stm32h7xx_ll_usb.c ****   *           1 : VBUS Inactive
1473:Drivers/STM32H7xx_HAL_Driver/Src/stm32h7xx_ll_usb.c ****   * @retval HAL status
1474:Drivers/STM32H7xx_HAL_Driver/Src/stm32h7xx_ll_usb.c **** */
1475:Drivers/STM32H7xx_HAL_Driver/Src/stm32h7xx_ll_usb.c **** HAL_StatusTypeDef USB_DriveVbus(USB_OTG_GlobalTypeDef *USBx, uint8_t state)
ARM GAS  /tmp/cc0TWTOC.s 			page 104


1476:Drivers/STM32H7xx_HAL_Driver/Src/stm32h7xx_ll_usb.c **** {
 3471              		.loc 1 1476 1 is_stmt 1 view -0
 3472              		.cfi_startproc
 3473              		@ args = 0, pretend = 0, frame = 8
 3474              		@ frame_needed = 0, uses_anonymous_args = 0
 3475              		@ link register save eliminated.
 3476              		.loc 1 1476 1 is_stmt 0 view .LVU1061
 3477 0000 82B0     		sub	sp, sp, #8
 3478              	.LCFI45:
 3479              		.cfi_def_cfa_offset 8
1477:Drivers/STM32H7xx_HAL_Driver/Src/stm32h7xx_ll_usb.c ****   uint32_t USBx_BASE = (uint32_t)USBx;
 3480              		.loc 1 1477 3 is_stmt 1 view .LVU1062
 3481              	.LVL291:
1478:Drivers/STM32H7xx_HAL_Driver/Src/stm32h7xx_ll_usb.c ****   __IO uint32_t hprt0 = 0U;
 3482              		.loc 1 1478 3 view .LVU1063
 3483              		.loc 1 1478 17 is_stmt 0 view .LVU1064
 3484 0002 0023     		movs	r3, #0
 3485 0004 0193     		str	r3, [sp, #4]
1479:Drivers/STM32H7xx_HAL_Driver/Src/stm32h7xx_ll_usb.c **** 
1480:Drivers/STM32H7xx_HAL_Driver/Src/stm32h7xx_ll_usb.c ****   hprt0 = USBx_HPRT0;
 3486              		.loc 1 1480 3 is_stmt 1 view .LVU1065
 3487              		.loc 1 1480 11 is_stmt 0 view .LVU1066
 3488 0006 D0F84034 		ldr	r3, [r0, #1088]
 3489              		.loc 1 1480 9 view .LVU1067
 3490 000a 0193     		str	r3, [sp, #4]
1481:Drivers/STM32H7xx_HAL_Driver/Src/stm32h7xx_ll_usb.c **** 
1482:Drivers/STM32H7xx_HAL_Driver/Src/stm32h7xx_ll_usb.c ****   hprt0 &= ~(USB_OTG_HPRT_PENA | USB_OTG_HPRT_PCDET |
 3491              		.loc 1 1482 3 is_stmt 1 view .LVU1068
 3492              		.loc 1 1482 9 is_stmt 0 view .LVU1069
 3493 000c 019B     		ldr	r3, [sp, #4]
 3494 000e 23F02E03 		bic	r3, r3, #46
 3495 0012 0193     		str	r3, [sp, #4]
1483:Drivers/STM32H7xx_HAL_Driver/Src/stm32h7xx_ll_usb.c ****              USB_OTG_HPRT_PENCHNG | USB_OTG_HPRT_POCCHNG);
1484:Drivers/STM32H7xx_HAL_Driver/Src/stm32h7xx_ll_usb.c **** 
1485:Drivers/STM32H7xx_HAL_Driver/Src/stm32h7xx_ll_usb.c ****   if (((hprt0 & USB_OTG_HPRT_PPWR) == 0U) && (state == 1U))
 3496              		.loc 1 1485 3 is_stmt 1 view .LVU1070
 3497              		.loc 1 1485 15 is_stmt 0 view .LVU1071
 3498 0014 019B     		ldr	r3, [sp, #4]
 3499              		.loc 1 1485 6 view .LVU1072
 3500 0016 13F4805F 		tst	r3, #4096
 3501 001a 01D1     		bne	.L225
 3502              		.loc 1 1485 43 discriminator 1 view .LVU1073
 3503 001c 0129     		cmp	r1, #1
 3504 001e 0CD0     		beq	.L228
 3505              	.L225:
1486:Drivers/STM32H7xx_HAL_Driver/Src/stm32h7xx_ll_usb.c ****   {
1487:Drivers/STM32H7xx_HAL_Driver/Src/stm32h7xx_ll_usb.c ****     USBx_HPRT0 = (USB_OTG_HPRT_PPWR | hprt0);
1488:Drivers/STM32H7xx_HAL_Driver/Src/stm32h7xx_ll_usb.c ****   }
1489:Drivers/STM32H7xx_HAL_Driver/Src/stm32h7xx_ll_usb.c ****   if (((hprt0 & USB_OTG_HPRT_PPWR) == USB_OTG_HPRT_PPWR) && (state == 0U))
 3506              		.loc 1 1489 3 is_stmt 1 view .LVU1074
 3507              		.loc 1 1489 15 is_stmt 0 view .LVU1075
 3508 0020 019B     		ldr	r3, [sp, #4]
 3509              		.loc 1 1489 6 view .LVU1076
 3510 0022 13F4805F 		tst	r3, #4096
 3511 0026 05D0     		beq	.L226
 3512              		.loc 1 1489 58 discriminator 1 view .LVU1077
 3513 0028 21B9     		cbnz	r1, .L226
ARM GAS  /tmp/cc0TWTOC.s 			page 105


1490:Drivers/STM32H7xx_HAL_Driver/Src/stm32h7xx_ll_usb.c ****   {
1491:Drivers/STM32H7xx_HAL_Driver/Src/stm32h7xx_ll_usb.c ****     USBx_HPRT0 = ((~USB_OTG_HPRT_PPWR) & hprt0);
 3514              		.loc 1 1491 5 is_stmt 1 view .LVU1078
 3515              		.loc 1 1491 40 is_stmt 0 view .LVU1079
 3516 002a 019B     		ldr	r3, [sp, #4]
 3517 002c 23F48053 		bic	r3, r3, #4096
 3518              		.loc 1 1491 16 view .LVU1080
 3519 0030 C0F84034 		str	r3, [r0, #1088]
 3520              	.L226:
1492:Drivers/STM32H7xx_HAL_Driver/Src/stm32h7xx_ll_usb.c ****   }
1493:Drivers/STM32H7xx_HAL_Driver/Src/stm32h7xx_ll_usb.c ****   return HAL_OK;
 3521              		.loc 1 1493 3 is_stmt 1 view .LVU1081
1494:Drivers/STM32H7xx_HAL_Driver/Src/stm32h7xx_ll_usb.c **** }
 3522              		.loc 1 1494 1 is_stmt 0 view .LVU1082
 3523 0034 0020     		movs	r0, #0
 3524              	.LVL292:
 3525              		.loc 1 1494 1 view .LVU1083
 3526 0036 02B0     		add	sp, sp, #8
 3527              	.LCFI46:
 3528              		.cfi_remember_state
 3529              		.cfi_def_cfa_offset 0
 3530              		@ sp needed
 3531 0038 7047     		bx	lr
 3532              	.LVL293:
 3533              	.L228:
 3534              	.LCFI47:
 3535              		.cfi_restore_state
1487:Drivers/STM32H7xx_HAL_Driver/Src/stm32h7xx_ll_usb.c ****   }
 3536              		.loc 1 1487 5 is_stmt 1 view .LVU1084
1487:Drivers/STM32H7xx_HAL_Driver/Src/stm32h7xx_ll_usb.c ****   }
 3537              		.loc 1 1487 37 is_stmt 0 view .LVU1085
 3538 003a 019B     		ldr	r3, [sp, #4]
 3539 003c 43F48053 		orr	r3, r3, #4096
1487:Drivers/STM32H7xx_HAL_Driver/Src/stm32h7xx_ll_usb.c ****   }
 3540              		.loc 1 1487 16 view .LVU1086
 3541 0040 C0F84034 		str	r3, [r0, #1088]
 3542 0044 ECE7     		b	.L225
 3543              		.cfi_endproc
 3544              	.LFE178:
 3546              		.section	.text.USB_HostInit,"ax",%progbits
 3547              		.align	1
 3548              		.global	USB_HostInit
 3549              		.syntax unified
 3550              		.thumb
 3551              		.thumb_func
 3552              		.fpu fpv5-d16
 3554              	USB_HostInit:
 3555              	.LVL294:
 3556              	.LFB175:
1324:Drivers/STM32H7xx_HAL_Driver/Src/stm32h7xx_ll_usb.c ****   uint32_t USBx_BASE = (uint32_t)USBx;
 3557              		.loc 1 1324 1 is_stmt 1 view -0
 3558              		.cfi_startproc
 3559              		@ args = 56, pretend = 16, frame = 0
 3560              		@ frame_needed = 0, uses_anonymous_args = 0
1324:Drivers/STM32H7xx_HAL_Driver/Src/stm32h7xx_ll_usb.c ****   uint32_t USBx_BASE = (uint32_t)USBx;
 3561              		.loc 1 1324 1 is_stmt 0 view .LVU1088
 3562 0000 84B0     		sub	sp, sp, #16
ARM GAS  /tmp/cc0TWTOC.s 			page 106


 3563              	.LCFI48:
 3564              		.cfi_def_cfa_offset 16
 3565 0002 38B5     		push	{r3, r4, r5, lr}
 3566              	.LCFI49:
 3567              		.cfi_def_cfa_offset 32
 3568              		.cfi_offset 3, -32
 3569              		.cfi_offset 4, -28
 3570              		.cfi_offset 5, -24
 3571              		.cfi_offset 14, -20
 3572 0004 0446     		mov	r4, r0
 3573 0006 05A8     		add	r0, sp, #20
 3574              	.LVL295:
1324:Drivers/STM32H7xx_HAL_Driver/Src/stm32h7xx_ll_usb.c ****   uint32_t USBx_BASE = (uint32_t)USBx;
 3575              		.loc 1 1324 1 view .LVU1089
 3576 0008 80E80E00 		stm	r0, {r1, r2, r3}
1325:Drivers/STM32H7xx_HAL_Driver/Src/stm32h7xx_ll_usb.c ****   uint32_t i;
 3577              		.loc 1 1325 3 is_stmt 1 view .LVU1090
1325:Drivers/STM32H7xx_HAL_Driver/Src/stm32h7xx_ll_usb.c ****   uint32_t i;
 3578              		.loc 1 1325 12 is_stmt 0 view .LVU1091
 3579 000c 2546     		mov	r5, r4
 3580              	.LVL296:
1326:Drivers/STM32H7xx_HAL_Driver/Src/stm32h7xx_ll_usb.c **** 
 3581              		.loc 1 1326 3 is_stmt 1 view .LVU1092
1329:Drivers/STM32H7xx_HAL_Driver/Src/stm32h7xx_ll_usb.c **** 
 3582              		.loc 1 1329 3 view .LVU1093
1329:Drivers/STM32H7xx_HAL_Driver/Src/stm32h7xx_ll_usb.c **** 
 3583              		.loc 1 1329 16 is_stmt 0 view .LVU1094
 3584 000e 0023     		movs	r3, #0
 3585 0010 C4F8003E 		str	r3, [r4, #3584]
1332:Drivers/STM32H7xx_HAL_Driver/Src/stm32h7xx_ll_usb.c **** 
 3586              		.loc 1 1332 3 is_stmt 1 view .LVU1095
1332:Drivers/STM32H7xx_HAL_Driver/Src/stm32h7xx_ll_usb.c **** 
 3587              		.loc 1 1332 15 is_stmt 0 view .LVU1096
 3588 0014 A36B     		ldr	r3, [r4, #56]
 3589 0016 23F40013 		bic	r3, r3, #2097152
 3590 001a A363     		str	r3, [r4, #56]
1335:Drivers/STM32H7xx_HAL_Driver/Src/stm32h7xx_ll_usb.c **** 
 3591              		.loc 1 1335 3 is_stmt 1 view .LVU1097
1335:Drivers/STM32H7xx_HAL_Driver/Src/stm32h7xx_ll_usb.c **** 
 3592              		.loc 1 1335 15 is_stmt 0 view .LVU1098
 3593 001c A36B     		ldr	r3, [r4, #56]
 3594 001e 23F40033 		bic	r3, r3, #131072
 3595 0022 A363     		str	r3, [r4, #56]
1338:Drivers/STM32H7xx_HAL_Driver/Src/stm32h7xx_ll_usb.c ****   {
 3596              		.loc 1 1338 3 is_stmt 1 view .LVU1099
1338:Drivers/STM32H7xx_HAL_Driver/Src/stm32h7xx_ll_usb.c ****   {
 3597              		.loc 1 1338 12 is_stmt 0 view .LVU1100
 3598 0024 E36B     		ldr	r3, [r4, #60]
1338:Drivers/STM32H7xx_HAL_Driver/Src/stm32h7xx_ll_usb.c ****   {
 3599              		.loc 1 1338 6 view .LVU1101
 3600 0026 13F4807F 		tst	r3, #256
 3601 002a 10D0     		beq	.L230
1340:Drivers/STM32H7xx_HAL_Driver/Src/stm32h7xx_ll_usb.c ****     {
 3602              		.loc 1 1340 5 is_stmt 1 view .LVU1102
1340:Drivers/STM32H7xx_HAL_Driver/Src/stm32h7xx_ll_usb.c ****     {
 3603              		.loc 1 1340 12 is_stmt 0 view .LVU1103
 3604 002c 079B     		ldr	r3, [sp, #28]
ARM GAS  /tmp/cc0TWTOC.s 			page 107


1340:Drivers/STM32H7xx_HAL_Driver/Src/stm32h7xx_ll_usb.c ****     {
 3605              		.loc 1 1340 8 view .LVU1104
 3606 002e 032B     		cmp	r3, #3
 3607 0030 06D0     		beq	.L239
1348:Drivers/STM32H7xx_HAL_Driver/Src/stm32h7xx_ll_usb.c ****     }
 3608              		.loc 1 1348 7 is_stmt 1 view .LVU1105
1348:Drivers/STM32H7xx_HAL_Driver/Src/stm32h7xx_ll_usb.c ****     }
 3609              		.loc 1 1348 23 is_stmt 0 view .LVU1106
 3610 0032 D4F80034 		ldr	r3, [r4, #1024]
 3611 0036 23F00403 		bic	r3, r3, #4
 3612 003a C4F80034 		str	r3, [r4, #1024]
 3613 003e 0CE0     		b	.L232
 3614              	.L239:
1343:Drivers/STM32H7xx_HAL_Driver/Src/stm32h7xx_ll_usb.c ****     }
 3615              		.loc 1 1343 7 is_stmt 1 view .LVU1107
1343:Drivers/STM32H7xx_HAL_Driver/Src/stm32h7xx_ll_usb.c ****     }
 3616              		.loc 1 1343 23 is_stmt 0 view .LVU1108
 3617 0040 D4F80034 		ldr	r3, [r4, #1024]
 3618 0044 43F00403 		orr	r3, r3, #4
 3619 0048 C4F80034 		str	r3, [r4, #1024]
 3620 004c 05E0     		b	.L232
 3621              	.L230:
1354:Drivers/STM32H7xx_HAL_Driver/Src/stm32h7xx_ll_usb.c ****   }
 3622              		.loc 1 1354 5 is_stmt 1 view .LVU1109
1354:Drivers/STM32H7xx_HAL_Driver/Src/stm32h7xx_ll_usb.c ****   }
 3623              		.loc 1 1354 21 is_stmt 0 view .LVU1110
 3624 004e D4F80034 		ldr	r3, [r4, #1024]
 3625 0052 23F00403 		bic	r3, r3, #4
 3626 0056 C4F80034 		str	r3, [r4, #1024]
 3627              	.L232:
1358:Drivers/STM32H7xx_HAL_Driver/Src/stm32h7xx_ll_usb.c ****   (void)USB_FlushRxFifo(USBx);
 3628              		.loc 1 1358 3 is_stmt 1 view .LVU1111
1358:Drivers/STM32H7xx_HAL_Driver/Src/stm32h7xx_ll_usb.c ****   (void)USB_FlushRxFifo(USBx);
 3629              		.loc 1 1358 9 is_stmt 0 view .LVU1112
 3630 005a 1021     		movs	r1, #16
 3631 005c 2046     		mov	r0, r4
 3632 005e FFF7FEFF 		bl	USB_FlushTxFifo
 3633              	.LVL297:
1359:Drivers/STM32H7xx_HAL_Driver/Src/stm32h7xx_ll_usb.c **** 
 3634              		.loc 1 1359 3 is_stmt 1 view .LVU1113
1359:Drivers/STM32H7xx_HAL_Driver/Src/stm32h7xx_ll_usb.c **** 
 3635              		.loc 1 1359 9 is_stmt 0 view .LVU1114
 3636 0062 2046     		mov	r0, r4
 3637 0064 FFF7FEFF 		bl	USB_FlushRxFifo
 3638              	.LVL298:
1362:Drivers/STM32H7xx_HAL_Driver/Src/stm32h7xx_ll_usb.c ****   {
 3639              		.loc 1 1362 3 is_stmt 1 view .LVU1115
1362:Drivers/STM32H7xx_HAL_Driver/Src/stm32h7xx_ll_usb.c ****   {
 3640              		.loc 1 1362 10 is_stmt 0 view .LVU1116
 3641 0068 0022     		movs	r2, #0
 3642              	.LVL299:
 3643              	.L233:
1362:Drivers/STM32H7xx_HAL_Driver/Src/stm32h7xx_ll_usb.c ****   {
 3644              		.loc 1 1362 23 discriminator 1 view .LVU1117
 3645 006a 069B     		ldr	r3, [sp, #24]
1362:Drivers/STM32H7xx_HAL_Driver/Src/stm32h7xx_ll_usb.c ****   {
 3646              		.loc 1 1362 3 discriminator 1 view .LVU1118
ARM GAS  /tmp/cc0TWTOC.s 			page 108


 3647 006c 9342     		cmp	r3, r2
 3648 006e 0AD9     		bls	.L240
1364:Drivers/STM32H7xx_HAL_Driver/Src/stm32h7xx_ll_usb.c ****     USBx_HC(i)->HCINTMSK = 0U;
 3649              		.loc 1 1364 5 is_stmt 1 discriminator 3 view .LVU1119
 3650 0070 05EB4213 		add	r3, r5, r2, lsl #5
1364:Drivers/STM32H7xx_HAL_Driver/Src/stm32h7xx_ll_usb.c ****     USBx_HC(i)->HCINTMSK = 0U;
 3651              		.loc 1 1364 23 is_stmt 0 discriminator 3 view .LVU1120
 3652 0074 4FF0FF31 		mov	r1, #-1
 3653 0078 C3F80815 		str	r1, [r3, #1288]
1365:Drivers/STM32H7xx_HAL_Driver/Src/stm32h7xx_ll_usb.c ****   }
 3654              		.loc 1 1365 5 is_stmt 1 discriminator 3 view .LVU1121
1365:Drivers/STM32H7xx_HAL_Driver/Src/stm32h7xx_ll_usb.c ****   }
 3655              		.loc 1 1365 26 is_stmt 0 discriminator 3 view .LVU1122
 3656 007c 0021     		movs	r1, #0
 3657 007e C3F80C15 		str	r1, [r3, #1292]
1362:Drivers/STM32H7xx_HAL_Driver/Src/stm32h7xx_ll_usb.c ****   {
 3658              		.loc 1 1362 40 discriminator 3 view .LVU1123
 3659 0082 0132     		adds	r2, r2, #1
 3660              	.LVL300:
1362:Drivers/STM32H7xx_HAL_Driver/Src/stm32h7xx_ll_usb.c ****   {
 3661              		.loc 1 1362 40 discriminator 3 view .LVU1124
 3662 0084 F1E7     		b	.L233
 3663              	.L240:
1369:Drivers/STM32H7xx_HAL_Driver/Src/stm32h7xx_ll_usb.c **** 
 3664              		.loc 1 1369 3 is_stmt 1 view .LVU1125
1369:Drivers/STM32H7xx_HAL_Driver/Src/stm32h7xx_ll_usb.c **** 
 3665              		.loc 1 1369 9 is_stmt 0 view .LVU1126
 3666 0086 0121     		movs	r1, #1
 3667 0088 2046     		mov	r0, r4
 3668 008a FFF7FEFF 		bl	USB_DriveVbus
 3669              	.LVL301:
1371:Drivers/STM32H7xx_HAL_Driver/Src/stm32h7xx_ll_usb.c **** 
 3670              		.loc 1 1371 3 is_stmt 1 view .LVU1127
 3671 008e C820     		movs	r0, #200
 3672 0090 FFF7FEFF 		bl	HAL_Delay
 3673              	.LVL302:
1374:Drivers/STM32H7xx_HAL_Driver/Src/stm32h7xx_ll_usb.c **** 
 3674              		.loc 1 1374 3 view .LVU1128
1374:Drivers/STM32H7xx_HAL_Driver/Src/stm32h7xx_ll_usb.c **** 
 3675              		.loc 1 1374 17 is_stmt 0 view .LVU1129
 3676 0094 0023     		movs	r3, #0
 3677 0096 A361     		str	r3, [r4, #24]
1377:Drivers/STM32H7xx_HAL_Driver/Src/stm32h7xx_ll_usb.c **** 
 3678              		.loc 1 1377 3 is_stmt 1 view .LVU1130
1377:Drivers/STM32H7xx_HAL_Driver/Src/stm32h7xx_ll_usb.c **** 
 3679              		.loc 1 1377 17 is_stmt 0 view .LVU1131
 3680 0098 4FF0FF33 		mov	r3, #-1
 3681 009c 6361     		str	r3, [r4, #20]
1379:Drivers/STM32H7xx_HAL_Driver/Src/stm32h7xx_ll_usb.c ****   {
 3682              		.loc 1 1379 3 is_stmt 1 view .LVU1132
1379:Drivers/STM32H7xx_HAL_Driver/Src/stm32h7xx_ll_usb.c ****   {
 3683              		.loc 1 1379 12 is_stmt 0 view .LVU1133
 3684 009e E36B     		ldr	r3, [r4, #60]
1379:Drivers/STM32H7xx_HAL_Driver/Src/stm32h7xx_ll_usb.c ****   {
 3685              		.loc 1 1379 6 view .LVU1134
 3686 00a0 13F4807F 		tst	r3, #256
 3687 00a4 17D0     		beq	.L235
ARM GAS  /tmp/cc0TWTOC.s 			page 109


1382:Drivers/STM32H7xx_HAL_Driver/Src/stm32h7xx_ll_usb.c ****     USBx->DIEPTXF0_HNPTXFSIZ = (uint32_t)(((0x100U << 16) & USB_OTG_NPTXFD) | 0x200U);
 3688              		.loc 1 1382 5 is_stmt 1 view .LVU1135
1382:Drivers/STM32H7xx_HAL_Driver/Src/stm32h7xx_ll_usb.c ****     USBx->DIEPTXF0_HNPTXFSIZ = (uint32_t)(((0x100U << 16) & USB_OTG_NPTXFD) | 0x200U);
 3689              		.loc 1 1382 20 is_stmt 0 view .LVU1136
 3690 00a6 4FF40073 		mov	r3, #512
 3691 00aa 6362     		str	r3, [r4, #36]
1383:Drivers/STM32H7xx_HAL_Driver/Src/stm32h7xx_ll_usb.c ****     USBx->HPTXFSIZ = (uint32_t)(((0xE0U << 16) & USB_OTG_HPTXFSIZ_PTXFD) | 0x300U);
 3692              		.loc 1 1383 5 is_stmt 1 view .LVU1137
1383:Drivers/STM32H7xx_HAL_Driver/Src/stm32h7xx_ll_usb.c ****     USBx->HPTXFSIZ = (uint32_t)(((0xE0U << 16) & USB_OTG_HPTXFSIZ_PTXFD) | 0x300U);
 3693              		.loc 1 1383 30 is_stmt 0 view .LVU1138
 3694 00ac 03F18073 		add	r3, r3, #16777216
 3695 00b0 A362     		str	r3, [r4, #40]
1384:Drivers/STM32H7xx_HAL_Driver/Src/stm32h7xx_ll_usb.c ****   }
 3696              		.loc 1 1384 5 is_stmt 1 view .LVU1139
1384:Drivers/STM32H7xx_HAL_Driver/Src/stm32h7xx_ll_usb.c ****   }
 3697              		.loc 1 1384 20 is_stmt 0 view .LVU1140
 3698 00b2 0D4B     		ldr	r3, .L241
 3699 00b4 C4F80031 		str	r3, [r4, #256]
 3700              	.L236:
1395:Drivers/STM32H7xx_HAL_Driver/Src/stm32h7xx_ll_usb.c ****   {
 3701              		.loc 1 1395 3 is_stmt 1 view .LVU1141
1395:Drivers/STM32H7xx_HAL_Driver/Src/stm32h7xx_ll_usb.c ****   {
 3702              		.loc 1 1395 10 is_stmt 0 view .LVU1142
 3703 00b8 089B     		ldr	r3, [sp, #32]
1395:Drivers/STM32H7xx_HAL_Driver/Src/stm32h7xx_ll_usb.c ****   {
 3704              		.loc 1 1395 6 view .LVU1143
 3705 00ba 1BB9     		cbnz	r3, .L237
1397:Drivers/STM32H7xx_HAL_Driver/Src/stm32h7xx_ll_usb.c ****   }
 3706              		.loc 1 1397 5 is_stmt 1 view .LVU1144
1397:Drivers/STM32H7xx_HAL_Driver/Src/stm32h7xx_ll_usb.c ****   }
 3707              		.loc 1 1397 19 is_stmt 0 view .LVU1145
 3708 00bc A369     		ldr	r3, [r4, #24]
 3709 00be 43F01003 		orr	r3, r3, #16
 3710 00c2 A361     		str	r3, [r4, #24]
 3711              	.L237:
1401:Drivers/STM32H7xx_HAL_Driver/Src/stm32h7xx_ll_usb.c ****                     USB_OTG_GINTMSK_SOFM             | USB_OTG_GINTSTS_DISCINT | \
 3712              		.loc 1 1401 3 is_stmt 1 view .LVU1146
1401:Drivers/STM32H7xx_HAL_Driver/Src/stm32h7xx_ll_usb.c ****                     USB_OTG_GINTMSK_SOFM             | USB_OTG_GINTSTS_DISCINT | \
 3713              		.loc 1 1401 17 is_stmt 0 view .LVU1147
 3714 00c4 A269     		ldr	r2, [r4, #24]
 3715 00c6 094B     		ldr	r3, .L241+4
 3716 00c8 1343     		orrs	r3, r3, r2
 3717 00ca A361     		str	r3, [r4, #24]
1405:Drivers/STM32H7xx_HAL_Driver/Src/stm32h7xx_ll_usb.c **** }
 3718              		.loc 1 1405 3 is_stmt 1 view .LVU1148
1406:Drivers/STM32H7xx_HAL_Driver/Src/stm32h7xx_ll_usb.c **** 
 3719              		.loc 1 1406 1 is_stmt 0 view .LVU1149
 3720 00cc 0020     		movs	r0, #0
 3721 00ce BDE83840 		pop	{r3, r4, r5, lr}
 3722              	.LCFI50:
 3723              		.cfi_remember_state
 3724              		.cfi_restore 14
 3725              		.cfi_restore 5
 3726              		.cfi_restore 4
 3727              		.cfi_restore 3
 3728              		.cfi_def_cfa_offset 16
 3729              	.LVL303:
ARM GAS  /tmp/cc0TWTOC.s 			page 110


1406:Drivers/STM32H7xx_HAL_Driver/Src/stm32h7xx_ll_usb.c **** 
 3730              		.loc 1 1406 1 view .LVU1150
 3731 00d2 04B0     		add	sp, sp, #16
 3732              	.LCFI51:
 3733              		.cfi_def_cfa_offset 0
 3734 00d4 7047     		bx	lr
 3735              	.LVL304:
 3736              	.L235:
 3737              	.LCFI52:
 3738              		.cfi_restore_state
1389:Drivers/STM32H7xx_HAL_Driver/Src/stm32h7xx_ll_usb.c ****     USBx->DIEPTXF0_HNPTXFSIZ = (uint32_t)(((0x60U << 16) & USB_OTG_NPTXFD) | 0x80U);
 3739              		.loc 1 1389 5 is_stmt 1 view .LVU1151
1389:Drivers/STM32H7xx_HAL_Driver/Src/stm32h7xx_ll_usb.c ****     USBx->DIEPTXF0_HNPTXFSIZ = (uint32_t)(((0x60U << 16) & USB_OTG_NPTXFD) | 0x80U);
 3740              		.loc 1 1389 20 is_stmt 0 view .LVU1152
 3741 00d6 8023     		movs	r3, #128
 3742 00d8 6362     		str	r3, [r4, #36]
1390:Drivers/STM32H7xx_HAL_Driver/Src/stm32h7xx_ll_usb.c ****     USBx->HPTXFSIZ = (uint32_t)(((0x40U << 16)& USB_OTG_HPTXFSIZ_PTXFD) | 0xE0U);
 3743              		.loc 1 1390 5 is_stmt 1 view .LVU1153
1390:Drivers/STM32H7xx_HAL_Driver/Src/stm32h7xx_ll_usb.c ****     USBx->HPTXFSIZ = (uint32_t)(((0x40U << 16)& USB_OTG_HPTXFSIZ_PTXFD) | 0xE0U);
 3744              		.loc 1 1390 30 is_stmt 0 view .LVU1154
 3745 00da 03F5C003 		add	r3, r3, #6291456
 3746 00de A362     		str	r3, [r4, #40]
1391:Drivers/STM32H7xx_HAL_Driver/Src/stm32h7xx_ll_usb.c ****   }
 3747              		.loc 1 1391 5 is_stmt 1 view .LVU1155
1391:Drivers/STM32H7xx_HAL_Driver/Src/stm32h7xx_ll_usb.c ****   }
 3748              		.loc 1 1391 20 is_stmt 0 view .LVU1156
 3749 00e0 034B     		ldr	r3, .L241+8
 3750 00e2 C4F80031 		str	r3, [r4, #256]
 3751 00e6 E7E7     		b	.L236
 3752              	.L242:
 3753              		.align	2
 3754              	.L241:
 3755 00e8 0003E000 		.word	14680832
 3756 00ec 080020A3 		.word	-1558183928
 3757 00f0 E0004000 		.word	4194528
 3758              		.cfi_endproc
 3759              	.LFE175:
 3761              		.section	.text.USB_GetHostSpeed,"ax",%progbits
 3762              		.align	1
 3763              		.global	USB_GetHostSpeed
 3764              		.syntax unified
 3765              		.thumb
 3766              		.thumb_func
 3767              		.fpu fpv5-d16
 3769              	USB_GetHostSpeed:
 3770              	.LVL305:
 3771              	.LFB179:
1495:Drivers/STM32H7xx_HAL_Driver/Src/stm32h7xx_ll_usb.c **** 
1496:Drivers/STM32H7xx_HAL_Driver/Src/stm32h7xx_ll_usb.c **** /**
1497:Drivers/STM32H7xx_HAL_Driver/Src/stm32h7xx_ll_usb.c ****   * @brief  Return Host Core speed
1498:Drivers/STM32H7xx_HAL_Driver/Src/stm32h7xx_ll_usb.c ****   * @param  USBx  Selected device
1499:Drivers/STM32H7xx_HAL_Driver/Src/stm32h7xx_ll_usb.c ****   * @retval speed : Host speed
1500:Drivers/STM32H7xx_HAL_Driver/Src/stm32h7xx_ll_usb.c ****   *          This parameter can be one of these values:
1501:Drivers/STM32H7xx_HAL_Driver/Src/stm32h7xx_ll_usb.c ****   *            @arg HCD_SPEED_HIGH: High speed mode
1502:Drivers/STM32H7xx_HAL_Driver/Src/stm32h7xx_ll_usb.c ****   *            @arg HCD_SPEED_FULL: Full speed mode
1503:Drivers/STM32H7xx_HAL_Driver/Src/stm32h7xx_ll_usb.c ****   *            @arg HCD_SPEED_LOW: Low speed mode
1504:Drivers/STM32H7xx_HAL_Driver/Src/stm32h7xx_ll_usb.c ****   */
ARM GAS  /tmp/cc0TWTOC.s 			page 111


1505:Drivers/STM32H7xx_HAL_Driver/Src/stm32h7xx_ll_usb.c **** uint32_t USB_GetHostSpeed(USB_OTG_GlobalTypeDef *USBx)
1506:Drivers/STM32H7xx_HAL_Driver/Src/stm32h7xx_ll_usb.c **** {
 3772              		.loc 1 1506 1 is_stmt 1 view -0
 3773              		.cfi_startproc
 3774              		@ args = 0, pretend = 0, frame = 8
 3775              		@ frame_needed = 0, uses_anonymous_args = 0
 3776              		@ link register save eliminated.
 3777              		.loc 1 1506 1 is_stmt 0 view .LVU1158
 3778 0000 82B0     		sub	sp, sp, #8
 3779              	.LCFI53:
 3780              		.cfi_def_cfa_offset 8
1507:Drivers/STM32H7xx_HAL_Driver/Src/stm32h7xx_ll_usb.c ****   uint32_t USBx_BASE = (uint32_t)USBx;
 3781              		.loc 1 1507 3 is_stmt 1 view .LVU1159
 3782              	.LVL306:
1508:Drivers/STM32H7xx_HAL_Driver/Src/stm32h7xx_ll_usb.c ****   __IO uint32_t hprt0 = 0U;
 3783              		.loc 1 1508 3 view .LVU1160
 3784              		.loc 1 1508 17 is_stmt 0 view .LVU1161
 3785 0002 0023     		movs	r3, #0
 3786 0004 0193     		str	r3, [sp, #4]
1509:Drivers/STM32H7xx_HAL_Driver/Src/stm32h7xx_ll_usb.c **** 
1510:Drivers/STM32H7xx_HAL_Driver/Src/stm32h7xx_ll_usb.c ****   hprt0 = USBx_HPRT0;
 3787              		.loc 1 1510 3 is_stmt 1 view .LVU1162
 3788              		.loc 1 1510 11 is_stmt 0 view .LVU1163
 3789 0006 D0F84034 		ldr	r3, [r0, #1088]
 3790              		.loc 1 1510 9 view .LVU1164
 3791 000a 0193     		str	r3, [sp, #4]
1511:Drivers/STM32H7xx_HAL_Driver/Src/stm32h7xx_ll_usb.c ****   return ((hprt0 & USB_OTG_HPRT_PSPD) >> 17);
 3792              		.loc 1 1511 3 is_stmt 1 view .LVU1165
 3793              		.loc 1 1511 39 is_stmt 0 view .LVU1166
 3794 000c 0198     		ldr	r0, [sp, #4]
 3795              	.LVL307:
1512:Drivers/STM32H7xx_HAL_Driver/Src/stm32h7xx_ll_usb.c **** }
 3796              		.loc 1 1512 1 view .LVU1167
 3797 000e C0F34140 		ubfx	r0, r0, #17, #2
 3798 0012 02B0     		add	sp, sp, #8
 3799              	.LCFI54:
 3800              		.cfi_def_cfa_offset 0
 3801              		@ sp needed
 3802 0014 7047     		bx	lr
 3803              		.cfi_endproc
 3804              	.LFE179:
 3806              		.section	.text.USB_GetCurrentFrame,"ax",%progbits
 3807              		.align	1
 3808              		.global	USB_GetCurrentFrame
 3809              		.syntax unified
 3810              		.thumb
 3811              		.thumb_func
 3812              		.fpu fpv5-d16
 3814              	USB_GetCurrentFrame:
 3815              	.LVL308:
 3816              	.LFB180:
1513:Drivers/STM32H7xx_HAL_Driver/Src/stm32h7xx_ll_usb.c **** 
1514:Drivers/STM32H7xx_HAL_Driver/Src/stm32h7xx_ll_usb.c **** /**
1515:Drivers/STM32H7xx_HAL_Driver/Src/stm32h7xx_ll_usb.c ****   * @brief  Return Host Current Frame number
1516:Drivers/STM32H7xx_HAL_Driver/Src/stm32h7xx_ll_usb.c ****   * @param  USBx  Selected device
1517:Drivers/STM32H7xx_HAL_Driver/Src/stm32h7xx_ll_usb.c ****   * @retval current frame number
1518:Drivers/STM32H7xx_HAL_Driver/Src/stm32h7xx_ll_usb.c **** */
ARM GAS  /tmp/cc0TWTOC.s 			page 112


1519:Drivers/STM32H7xx_HAL_Driver/Src/stm32h7xx_ll_usb.c **** uint32_t USB_GetCurrentFrame(USB_OTG_GlobalTypeDef *USBx)
1520:Drivers/STM32H7xx_HAL_Driver/Src/stm32h7xx_ll_usb.c **** {
 3817              		.loc 1 1520 1 is_stmt 1 view -0
 3818              		.cfi_startproc
 3819              		@ args = 0, pretend = 0, frame = 0
 3820              		@ frame_needed = 0, uses_anonymous_args = 0
 3821              		@ link register save eliminated.
1521:Drivers/STM32H7xx_HAL_Driver/Src/stm32h7xx_ll_usb.c ****   uint32_t USBx_BASE = (uint32_t)USBx;
 3822              		.loc 1 1521 3 view .LVU1169
1522:Drivers/STM32H7xx_HAL_Driver/Src/stm32h7xx_ll_usb.c **** 
1523:Drivers/STM32H7xx_HAL_Driver/Src/stm32h7xx_ll_usb.c ****   return (USBx_HOST->HFNUM & USB_OTG_HFNUM_FRNUM);
 3823              		.loc 1 1523 3 view .LVU1170
 3824              		.loc 1 1523 11 is_stmt 0 view .LVU1171
 3825 0000 00F58060 		add	r0, r0, #1024
 3826              	.LVL309:
 3827              		.loc 1 1523 20 view .LVU1172
 3828 0004 8068     		ldr	r0, [r0, #8]
 3829              	.LVL310:
1524:Drivers/STM32H7xx_HAL_Driver/Src/stm32h7xx_ll_usb.c **** }
 3830              		.loc 1 1524 1 view .LVU1173
 3831 0006 80B2     		uxth	r0, r0
 3832 0008 7047     		bx	lr
 3833              		.cfi_endproc
 3834              	.LFE180:
 3836              		.section	.text.USB_HC_Init,"ax",%progbits
 3837              		.align	1
 3838              		.global	USB_HC_Init
 3839              		.syntax unified
 3840              		.thumb
 3841              		.thumb_func
 3842              		.fpu fpv5-d16
 3844              	USB_HC_Init:
 3845              	.LVL311:
 3846              	.LFB181:
1525:Drivers/STM32H7xx_HAL_Driver/Src/stm32h7xx_ll_usb.c **** 
1526:Drivers/STM32H7xx_HAL_Driver/Src/stm32h7xx_ll_usb.c **** /**
1527:Drivers/STM32H7xx_HAL_Driver/Src/stm32h7xx_ll_usb.c ****   * @brief  Initialize a host channel
1528:Drivers/STM32H7xx_HAL_Driver/Src/stm32h7xx_ll_usb.c ****   * @param  USBx  Selected device
1529:Drivers/STM32H7xx_HAL_Driver/Src/stm32h7xx_ll_usb.c ****   * @param  ch_num  Channel number
1530:Drivers/STM32H7xx_HAL_Driver/Src/stm32h7xx_ll_usb.c ****   *         This parameter can be a value from 1 to 15
1531:Drivers/STM32H7xx_HAL_Driver/Src/stm32h7xx_ll_usb.c ****   * @param  epnum  Endpoint number
1532:Drivers/STM32H7xx_HAL_Driver/Src/stm32h7xx_ll_usb.c ****   *          This parameter can be a value from 1 to 15
1533:Drivers/STM32H7xx_HAL_Driver/Src/stm32h7xx_ll_usb.c ****   * @param  dev_address  Current device address
1534:Drivers/STM32H7xx_HAL_Driver/Src/stm32h7xx_ll_usb.c ****   *          This parameter can be a value from 0 to 255
1535:Drivers/STM32H7xx_HAL_Driver/Src/stm32h7xx_ll_usb.c ****   * @param  speed  Current device speed
1536:Drivers/STM32H7xx_HAL_Driver/Src/stm32h7xx_ll_usb.c ****   *          This parameter can be one of these values:
1537:Drivers/STM32H7xx_HAL_Driver/Src/stm32h7xx_ll_usb.c ****   *            @arg USB_OTG_SPEED_HIGH: High speed mode
1538:Drivers/STM32H7xx_HAL_Driver/Src/stm32h7xx_ll_usb.c ****   *            @arg USB_OTG_SPEED_FULL: Full speed mode
1539:Drivers/STM32H7xx_HAL_Driver/Src/stm32h7xx_ll_usb.c ****   *            @arg USB_OTG_SPEED_LOW: Low speed mode
1540:Drivers/STM32H7xx_HAL_Driver/Src/stm32h7xx_ll_usb.c ****   * @param  ep_type  Endpoint Type
1541:Drivers/STM32H7xx_HAL_Driver/Src/stm32h7xx_ll_usb.c ****   *          This parameter can be one of these values:
1542:Drivers/STM32H7xx_HAL_Driver/Src/stm32h7xx_ll_usb.c ****   *            @arg EP_TYPE_CTRL: Control type
1543:Drivers/STM32H7xx_HAL_Driver/Src/stm32h7xx_ll_usb.c ****   *            @arg EP_TYPE_ISOC: Isochronous type
1544:Drivers/STM32H7xx_HAL_Driver/Src/stm32h7xx_ll_usb.c ****   *            @arg EP_TYPE_BULK: Bulk type
1545:Drivers/STM32H7xx_HAL_Driver/Src/stm32h7xx_ll_usb.c ****   *            @arg EP_TYPE_INTR: Interrupt type
1546:Drivers/STM32H7xx_HAL_Driver/Src/stm32h7xx_ll_usb.c ****   * @param  mps  Max Packet Size
1547:Drivers/STM32H7xx_HAL_Driver/Src/stm32h7xx_ll_usb.c ****   *          This parameter can be a value from 0 to32K
ARM GAS  /tmp/cc0TWTOC.s 			page 113


1548:Drivers/STM32H7xx_HAL_Driver/Src/stm32h7xx_ll_usb.c ****   * @retval HAL state
1549:Drivers/STM32H7xx_HAL_Driver/Src/stm32h7xx_ll_usb.c ****   */
1550:Drivers/STM32H7xx_HAL_Driver/Src/stm32h7xx_ll_usb.c **** HAL_StatusTypeDef USB_HC_Init(USB_OTG_GlobalTypeDef *USBx,
1551:Drivers/STM32H7xx_HAL_Driver/Src/stm32h7xx_ll_usb.c ****                               uint8_t ch_num,
1552:Drivers/STM32H7xx_HAL_Driver/Src/stm32h7xx_ll_usb.c ****                               uint8_t epnum,
1553:Drivers/STM32H7xx_HAL_Driver/Src/stm32h7xx_ll_usb.c ****                               uint8_t dev_address,
1554:Drivers/STM32H7xx_HAL_Driver/Src/stm32h7xx_ll_usb.c ****                               uint8_t speed,
1555:Drivers/STM32H7xx_HAL_Driver/Src/stm32h7xx_ll_usb.c ****                               uint8_t ep_type,
1556:Drivers/STM32H7xx_HAL_Driver/Src/stm32h7xx_ll_usb.c ****                               uint16_t mps)
1557:Drivers/STM32H7xx_HAL_Driver/Src/stm32h7xx_ll_usb.c **** {
 3847              		.loc 1 1557 1 is_stmt 1 view -0
 3848              		.cfi_startproc
 3849              		@ args = 12, pretend = 0, frame = 0
 3850              		@ frame_needed = 0, uses_anonymous_args = 0
 3851              		.loc 1 1557 1 is_stmt 0 view .LVU1175
 3852 0000 F0B5     		push	{r4, r5, r6, r7, lr}
 3853              	.LCFI55:
 3854              		.cfi_def_cfa_offset 20
 3855              		.cfi_offset 4, -20
 3856              		.cfi_offset 5, -16
 3857              		.cfi_offset 6, -12
 3858              		.cfi_offset 7, -8
 3859              		.cfi_offset 14, -4
 3860 0002 0646     		mov	r6, r0
 3861 0004 9DF81840 		ldrb	r4, [sp, #24]	@ zero_extendqisi2
1558:Drivers/STM32H7xx_HAL_Driver/Src/stm32h7xx_ll_usb.c ****   HAL_StatusTypeDef ret = HAL_OK;
 3862              		.loc 1 1558 3 is_stmt 1 view .LVU1176
 3863              	.LVL312:
1559:Drivers/STM32H7xx_HAL_Driver/Src/stm32h7xx_ll_usb.c ****   uint32_t USBx_BASE = (uint32_t)USBx;
 3864              		.loc 1 1559 3 view .LVU1177
1560:Drivers/STM32H7xx_HAL_Driver/Src/stm32h7xx_ll_usb.c ****   uint32_t HCcharEpDir, HCcharLowSpeed;
 3865              		.loc 1 1560 3 view .LVU1178
1561:Drivers/STM32H7xx_HAL_Driver/Src/stm32h7xx_ll_usb.c **** 
1562:Drivers/STM32H7xx_HAL_Driver/Src/stm32h7xx_ll_usb.c ****   /* Clear old interrupt conditions for this host channel. */
1563:Drivers/STM32H7xx_HAL_Driver/Src/stm32h7xx_ll_usb.c ****   USBx_HC((uint32_t)ch_num)->HCINT = 0xFFFFFFFFU;
 3866              		.loc 1 1563 3 view .LVU1179
 3867 0008 00EB4115 		add	r5, r0, r1, lsl #5
 3868 000c 05F5A060 		add	r0, r5, #1280
 3869              	.LVL313:
 3870              		.loc 1 1563 36 is_stmt 0 view .LVU1180
 3871 0010 4FF0FF37 		mov	r7, #-1
 3872 0014 8760     		str	r7, [r0, #8]
1564:Drivers/STM32H7xx_HAL_Driver/Src/stm32h7xx_ll_usb.c **** 
1565:Drivers/STM32H7xx_HAL_Driver/Src/stm32h7xx_ll_usb.c ****   /* Enable channel interrupts required for this transfer. */
1566:Drivers/STM32H7xx_HAL_Driver/Src/stm32h7xx_ll_usb.c ****   switch (ep_type)
 3873              		.loc 1 1566 3 is_stmt 1 view .LVU1181
 3874 0016 032C     		cmp	r4, #3
 3875 0018 65D8     		bhi	.L256
 3876 001a DFE804F0 		tbb	[pc, r4]
 3877              	.L249:
 3878 001e 02       		.byte	(.L250-.L249)/2
 3879 001f 56       		.byte	(.L251-.L249)/2
 3880 0020 02       		.byte	(.L250-.L249)/2
 3881 0021 18       		.byte	(.L248-.L249)/2
 3882              		.p2align 1
 3883              	.L250:
1567:Drivers/STM32H7xx_HAL_Driver/Src/stm32h7xx_ll_usb.c ****   {
ARM GAS  /tmp/cc0TWTOC.s 			page 114


1568:Drivers/STM32H7xx_HAL_Driver/Src/stm32h7xx_ll_usb.c ****     case EP_TYPE_CTRL:
1569:Drivers/STM32H7xx_HAL_Driver/Src/stm32h7xx_ll_usb.c ****     case EP_TYPE_BULK:
1570:Drivers/STM32H7xx_HAL_Driver/Src/stm32h7xx_ll_usb.c ****       USBx_HC((uint32_t)ch_num)->HCINTMSK = USB_OTG_HCINTMSK_XFRCM  |
 3884              		.loc 1 1570 7 view .LVU1182
 3885              		.loc 1 1570 43 is_stmt 0 view .LVU1183
 3886 0022 40F29D47 		movw	r7, #1181
 3887 0026 C760     		str	r7, [r0, #12]
1571:Drivers/STM32H7xx_HAL_Driver/Src/stm32h7xx_ll_usb.c ****                                             USB_OTG_HCINTMSK_STALLM |
1572:Drivers/STM32H7xx_HAL_Driver/Src/stm32h7xx_ll_usb.c ****                                             USB_OTG_HCINTMSK_TXERRM |
1573:Drivers/STM32H7xx_HAL_Driver/Src/stm32h7xx_ll_usb.c ****                                             USB_OTG_HCINTMSK_DTERRM |
1574:Drivers/STM32H7xx_HAL_Driver/Src/stm32h7xx_ll_usb.c ****                                             USB_OTG_HCINTMSK_AHBERR |
1575:Drivers/STM32H7xx_HAL_Driver/Src/stm32h7xx_ll_usb.c ****                                             USB_OTG_HCINTMSK_NAKM;
1576:Drivers/STM32H7xx_HAL_Driver/Src/stm32h7xx_ll_usb.c **** 
1577:Drivers/STM32H7xx_HAL_Driver/Src/stm32h7xx_ll_usb.c ****       if ((epnum & 0x80U) == 0x80U)
 3888              		.loc 1 1577 7 is_stmt 1 view .LVU1184
 3889              		.loc 1 1577 10 is_stmt 0 view .LVU1185
 3890 0028 12F0800F 		tst	r2, #128
 3891 002c 09D1     		bne	.L263
1578:Drivers/STM32H7xx_HAL_Driver/Src/stm32h7xx_ll_usb.c ****       {
1579:Drivers/STM32H7xx_HAL_Driver/Src/stm32h7xx_ll_usb.c ****         USBx_HC((uint32_t)ch_num)->HCINTMSK |= USB_OTG_HCINTMSK_BBERRM;
1580:Drivers/STM32H7xx_HAL_Driver/Src/stm32h7xx_ll_usb.c ****       }
1581:Drivers/STM32H7xx_HAL_Driver/Src/stm32h7xx_ll_usb.c ****       else
1582:Drivers/STM32H7xx_HAL_Driver/Src/stm32h7xx_ll_usb.c ****       {
1583:Drivers/STM32H7xx_HAL_Driver/Src/stm32h7xx_ll_usb.c ****         if ((USBx->CID & (0x1U << 8)) != 0U)
 3892              		.loc 1 1583 9 is_stmt 1 view .LVU1186
 3893              		.loc 1 1583 18 is_stmt 0 view .LVU1187
 3894 002e F76B     		ldr	r7, [r6, #60]
 3895              		.loc 1 1583 12 view .LVU1188
 3896 0030 17F4807F 		tst	r7, #256
 3897 0034 59D0     		beq	.L257
1584:Drivers/STM32H7xx_HAL_Driver/Src/stm32h7xx_ll_usb.c ****         {
1585:Drivers/STM32H7xx_HAL_Driver/Src/stm32h7xx_ll_usb.c ****           USBx_HC((uint32_t)ch_num)->HCINTMSK |= (USB_OTG_HCINTMSK_NYET | USB_OTG_HCINTMSK_ACKM);
 3898              		.loc 1 1585 11 is_stmt 1 view .LVU1189
 3899              		.loc 1 1585 47 is_stmt 0 view .LVU1190
 3900 0036 C768     		ldr	r7, [r0, #12]
 3901 0038 47F06007 		orr	r7, r7, #96
 3902 003c C760     		str	r7, [r0, #12]
1558:Drivers/STM32H7xx_HAL_Driver/Src/stm32h7xx_ll_usb.c ****   uint32_t USBx_BASE = (uint32_t)USBx;
 3903              		.loc 1 1558 21 view .LVU1191
 3904 003e 0020     		movs	r0, #0
 3905 0040 0CE0     		b	.L247
 3906              	.L263:
1579:Drivers/STM32H7xx_HAL_Driver/Src/stm32h7xx_ll_usb.c ****       }
 3907              		.loc 1 1579 9 is_stmt 1 view .LVU1192
1579:Drivers/STM32H7xx_HAL_Driver/Src/stm32h7xx_ll_usb.c ****       }
 3908              		.loc 1 1579 45 is_stmt 0 view .LVU1193
 3909 0042 C768     		ldr	r7, [r0, #12]
 3910 0044 47F48077 		orr	r7, r7, #256
 3911 0048 C760     		str	r7, [r0, #12]
1558:Drivers/STM32H7xx_HAL_Driver/Src/stm32h7xx_ll_usb.c ****   uint32_t USBx_BASE = (uint32_t)USBx;
 3912              		.loc 1 1558 21 view .LVU1194
 3913 004a 0020     		movs	r0, #0
 3914 004c 06E0     		b	.L247
 3915              	.L248:
1586:Drivers/STM32H7xx_HAL_Driver/Src/stm32h7xx_ll_usb.c ****         }
1587:Drivers/STM32H7xx_HAL_Driver/Src/stm32h7xx_ll_usb.c ****       }
1588:Drivers/STM32H7xx_HAL_Driver/Src/stm32h7xx_ll_usb.c ****       break;
ARM GAS  /tmp/cc0TWTOC.s 			page 115


1589:Drivers/STM32H7xx_HAL_Driver/Src/stm32h7xx_ll_usb.c **** 
1590:Drivers/STM32H7xx_HAL_Driver/Src/stm32h7xx_ll_usb.c ****     case EP_TYPE_INTR:
1591:Drivers/STM32H7xx_HAL_Driver/Src/stm32h7xx_ll_usb.c ****       USBx_HC((uint32_t)ch_num)->HCINTMSK = USB_OTG_HCINTMSK_XFRCM  |
 3916              		.loc 1 1591 7 is_stmt 1 view .LVU1195
 3917              		.loc 1 1591 43 is_stmt 0 view .LVU1196
 3918 004e 40F29D67 		movw	r7, #1693
 3919 0052 C760     		str	r7, [r0, #12]
1592:Drivers/STM32H7xx_HAL_Driver/Src/stm32h7xx_ll_usb.c ****                                             USB_OTG_HCINTMSK_STALLM |
1593:Drivers/STM32H7xx_HAL_Driver/Src/stm32h7xx_ll_usb.c ****                                             USB_OTG_HCINTMSK_TXERRM |
1594:Drivers/STM32H7xx_HAL_Driver/Src/stm32h7xx_ll_usb.c ****                                             USB_OTG_HCINTMSK_DTERRM |
1595:Drivers/STM32H7xx_HAL_Driver/Src/stm32h7xx_ll_usb.c ****                                             USB_OTG_HCINTMSK_NAKM   |
1596:Drivers/STM32H7xx_HAL_Driver/Src/stm32h7xx_ll_usb.c ****                                             USB_OTG_HCINTMSK_AHBERR |
1597:Drivers/STM32H7xx_HAL_Driver/Src/stm32h7xx_ll_usb.c ****                                             USB_OTG_HCINTMSK_FRMORM;
1598:Drivers/STM32H7xx_HAL_Driver/Src/stm32h7xx_ll_usb.c **** 
1599:Drivers/STM32H7xx_HAL_Driver/Src/stm32h7xx_ll_usb.c ****       if ((epnum & 0x80U) == 0x80U)
 3920              		.loc 1 1599 7 is_stmt 1 view .LVU1197
 3921              		.loc 1 1599 10 is_stmt 0 view .LVU1198
 3922 0054 12F0800F 		tst	r2, #128
 3923 0058 31D1     		bne	.L264
1558:Drivers/STM32H7xx_HAL_Driver/Src/stm32h7xx_ll_usb.c ****   uint32_t USBx_BASE = (uint32_t)USBx;
 3924              		.loc 1 1558 21 view .LVU1199
 3925 005a 0020     		movs	r0, #0
 3926              	.L247:
 3927              	.LVL314:
1600:Drivers/STM32H7xx_HAL_Driver/Src/stm32h7xx_ll_usb.c ****       {
1601:Drivers/STM32H7xx_HAL_Driver/Src/stm32h7xx_ll_usb.c ****         USBx_HC((uint32_t)ch_num)->HCINTMSK |= USB_OTG_HCINTMSK_BBERRM;
1602:Drivers/STM32H7xx_HAL_Driver/Src/stm32h7xx_ll_usb.c ****       }
1603:Drivers/STM32H7xx_HAL_Driver/Src/stm32h7xx_ll_usb.c **** 
1604:Drivers/STM32H7xx_HAL_Driver/Src/stm32h7xx_ll_usb.c ****       break;
1605:Drivers/STM32H7xx_HAL_Driver/Src/stm32h7xx_ll_usb.c **** 
1606:Drivers/STM32H7xx_HAL_Driver/Src/stm32h7xx_ll_usb.c ****     case EP_TYPE_ISOC:
1607:Drivers/STM32H7xx_HAL_Driver/Src/stm32h7xx_ll_usb.c ****       USBx_HC((uint32_t)ch_num)->HCINTMSK = USB_OTG_HCINTMSK_XFRCM  |
1608:Drivers/STM32H7xx_HAL_Driver/Src/stm32h7xx_ll_usb.c ****                                             USB_OTG_HCINTMSK_ACKM   |
1609:Drivers/STM32H7xx_HAL_Driver/Src/stm32h7xx_ll_usb.c ****                                             USB_OTG_HCINTMSK_AHBERR |
1610:Drivers/STM32H7xx_HAL_Driver/Src/stm32h7xx_ll_usb.c ****                                             USB_OTG_HCINTMSK_FRMORM;
1611:Drivers/STM32H7xx_HAL_Driver/Src/stm32h7xx_ll_usb.c **** 
1612:Drivers/STM32H7xx_HAL_Driver/Src/stm32h7xx_ll_usb.c ****       if ((epnum & 0x80U) == 0x80U)
1613:Drivers/STM32H7xx_HAL_Driver/Src/stm32h7xx_ll_usb.c ****       {
1614:Drivers/STM32H7xx_HAL_Driver/Src/stm32h7xx_ll_usb.c ****         USBx_HC((uint32_t)ch_num)->HCINTMSK |= (USB_OTG_HCINTMSK_TXERRM | USB_OTG_HCINTMSK_BBERRM);
1615:Drivers/STM32H7xx_HAL_Driver/Src/stm32h7xx_ll_usb.c ****       }
1616:Drivers/STM32H7xx_HAL_Driver/Src/stm32h7xx_ll_usb.c ****       break;
1617:Drivers/STM32H7xx_HAL_Driver/Src/stm32h7xx_ll_usb.c **** 
1618:Drivers/STM32H7xx_HAL_Driver/Src/stm32h7xx_ll_usb.c ****     default:
1619:Drivers/STM32H7xx_HAL_Driver/Src/stm32h7xx_ll_usb.c ****       ret = HAL_ERROR;
1620:Drivers/STM32H7xx_HAL_Driver/Src/stm32h7xx_ll_usb.c ****       break;
1621:Drivers/STM32H7xx_HAL_Driver/Src/stm32h7xx_ll_usb.c ****   }
1622:Drivers/STM32H7xx_HAL_Driver/Src/stm32h7xx_ll_usb.c **** 
1623:Drivers/STM32H7xx_HAL_Driver/Src/stm32h7xx_ll_usb.c ****   /* Enable the top level host channel interrupt. */
1624:Drivers/STM32H7xx_HAL_Driver/Src/stm32h7xx_ll_usb.c ****   USBx_HOST->HAINTMSK |= 1UL << (ch_num & 0xFU);
 3928              		.loc 1 1624 3 is_stmt 1 view .LVU1200
 3929              		.loc 1 1624 23 is_stmt 0 view .LVU1201
 3930 005c 06F5806E 		add	lr, r6, #1024
 3931 0060 D6F81874 		ldr	r7, [r6, #1048]
 3932              		.loc 1 1624 41 view .LVU1202
 3933 0064 01F00F01 		and	r1, r1, #15
 3934              	.LVL315:
 3935              		.loc 1 1624 30 view .LVU1203
ARM GAS  /tmp/cc0TWTOC.s 			page 116


 3936 0068 4FF0010C 		mov	ip, #1
 3937 006c 0CFA01F1 		lsl	r1, ip, r1
 3938              		.loc 1 1624 23 view .LVU1204
 3939 0070 3943     		orrs	r1, r1, r7
 3940 0072 C6F81814 		str	r1, [r6, #1048]
1625:Drivers/STM32H7xx_HAL_Driver/Src/stm32h7xx_ll_usb.c **** 
1626:Drivers/STM32H7xx_HAL_Driver/Src/stm32h7xx_ll_usb.c ****   /* Make sure host channel interrupts are enabled. */
1627:Drivers/STM32H7xx_HAL_Driver/Src/stm32h7xx_ll_usb.c ****   USBx->GINTMSK |= USB_OTG_GINTMSK_HCIM;
 3941              		.loc 1 1627 3 is_stmt 1 view .LVU1205
 3942              		.loc 1 1627 17 is_stmt 0 view .LVU1206
 3943 0076 B169     		ldr	r1, [r6, #24]
 3944 0078 41F00071 		orr	r1, r1, #33554432
 3945 007c B161     		str	r1, [r6, #24]
1628:Drivers/STM32H7xx_HAL_Driver/Src/stm32h7xx_ll_usb.c **** 
1629:Drivers/STM32H7xx_HAL_Driver/Src/stm32h7xx_ll_usb.c ****   /* Program the HCCHAR register */
1630:Drivers/STM32H7xx_HAL_Driver/Src/stm32h7xx_ll_usb.c ****   if ((epnum & 0x80U) == 0x80U)
 3946              		.loc 1 1630 3 is_stmt 1 view .LVU1207
 3947              		.loc 1 1630 6 is_stmt 0 view .LVU1208
 3948 007e 12F0800F 		tst	r2, #128
 3949 0082 34D1     		bne	.L265
1631:Drivers/STM32H7xx_HAL_Driver/Src/stm32h7xx_ll_usb.c ****   {
1632:Drivers/STM32H7xx_HAL_Driver/Src/stm32h7xx_ll_usb.c ****     HCcharEpDir = (0x1U << 15) & USB_OTG_HCCHAR_EPDIR;
1633:Drivers/STM32H7xx_HAL_Driver/Src/stm32h7xx_ll_usb.c ****   }
1634:Drivers/STM32H7xx_HAL_Driver/Src/stm32h7xx_ll_usb.c ****   else
1635:Drivers/STM32H7xx_HAL_Driver/Src/stm32h7xx_ll_usb.c ****   {
1636:Drivers/STM32H7xx_HAL_Driver/Src/stm32h7xx_ll_usb.c ****     HCcharEpDir = 0U;
 3950              		.loc 1 1636 17 view .LVU1209
 3951 0084 0026     		movs	r6, #0
 3952              	.LVL316:
 3953              	.L253:
1637:Drivers/STM32H7xx_HAL_Driver/Src/stm32h7xx_ll_usb.c ****   }
1638:Drivers/STM32H7xx_HAL_Driver/Src/stm32h7xx_ll_usb.c **** 
1639:Drivers/STM32H7xx_HAL_Driver/Src/stm32h7xx_ll_usb.c ****   if (speed == HPRT0_PRTSPD_LOW_SPEED)
 3954              		.loc 1 1639 3 is_stmt 1 view .LVU1210
 3955              		.loc 1 1639 6 is_stmt 0 view .LVU1211
 3956 0086 9DF81410 		ldrb	r1, [sp, #20]	@ zero_extendqisi2
 3957 008a 0229     		cmp	r1, #2
 3958 008c 32D0     		beq	.L266
1640:Drivers/STM32H7xx_HAL_Driver/Src/stm32h7xx_ll_usb.c ****   {
1641:Drivers/STM32H7xx_HAL_Driver/Src/stm32h7xx_ll_usb.c ****     HCcharLowSpeed = (0x1U << 17) & USB_OTG_HCCHAR_LSDEV;
1642:Drivers/STM32H7xx_HAL_Driver/Src/stm32h7xx_ll_usb.c ****   }
1643:Drivers/STM32H7xx_HAL_Driver/Src/stm32h7xx_ll_usb.c ****   else
1644:Drivers/STM32H7xx_HAL_Driver/Src/stm32h7xx_ll_usb.c ****   {
1645:Drivers/STM32H7xx_HAL_Driver/Src/stm32h7xx_ll_usb.c ****     HCcharLowSpeed = 0U;
 3959              		.loc 1 1645 20 view .LVU1212
 3960 008e 0021     		movs	r1, #0
 3961              	.L254:
 3962              	.LVL317:
1646:Drivers/STM32H7xx_HAL_Driver/Src/stm32h7xx_ll_usb.c ****   }
1647:Drivers/STM32H7xx_HAL_Driver/Src/stm32h7xx_ll_usb.c **** 
1648:Drivers/STM32H7xx_HAL_Driver/Src/stm32h7xx_ll_usb.c ****   USBx_HC((uint32_t)ch_num)->HCCHAR = (((uint32_t)dev_address << 22) & USB_OTG_HCCHAR_DAD) |
 3963              		.loc 1 1648 3 is_stmt 1 view .LVU1213
 3964              		.loc 1 1648 63 is_stmt 0 view .LVU1214
 3965 0090 9B05     		lsls	r3, r3, #22
 3966              	.LVL318:
 3967              		.loc 1 1648 70 view .LVU1215
 3968 0092 03F0FE53 		and	r3, r3, #532676608
ARM GAS  /tmp/cc0TWTOC.s 			page 117


1649:Drivers/STM32H7xx_HAL_Driver/Src/stm32h7xx_ll_usb.c ****                                       ((((uint32_t)epnum & 0x7FU) << 11) & USB_OTG_HCCHAR_EPNUM) |
 3969              		.loc 1 1649 67 view .LVU1216
 3970 0096 D202     		lsls	r2, r2, #11
 3971              	.LVL319:
 3972              		.loc 1 1649 74 view .LVU1217
 3973 0098 02F4F042 		and	r2, r2, #30720
1648:Drivers/STM32H7xx_HAL_Driver/Src/stm32h7xx_ll_usb.c ****                                       ((((uint32_t)epnum & 0x7FU) << 11) & USB_OTG_HCCHAR_EPNUM) |
 3974              		.loc 1 1648 92 view .LVU1218
 3975 009c 1343     		orrs	r3, r3, r2
1650:Drivers/STM32H7xx_HAL_Driver/Src/stm32h7xx_ll_usb.c ****                                       (((uint32_t)ep_type << 18) & USB_OTG_HCCHAR_EPTYP) |
 3976              		.loc 1 1650 59 view .LVU1219
 3977 009e A204     		lsls	r2, r4, #18
 3978              		.loc 1 1650 66 view .LVU1220
 3979 00a0 02F44022 		and	r2, r2, #786432
1649:Drivers/STM32H7xx_HAL_Driver/Src/stm32h7xx_ll_usb.c ****                                       ((((uint32_t)epnum & 0x7FU) << 11) & USB_OTG_HCCHAR_EPNUM) |
 3980              		.loc 1 1649 98 view .LVU1221
 3981 00a4 1343     		orrs	r3, r3, r2
1651:Drivers/STM32H7xx_HAL_Driver/Src/stm32h7xx_ll_usb.c ****                                       ((uint32_t)mps & USB_OTG_HCCHAR_MPSIZ) | HCcharEpDir | HCchar
 3982              		.loc 1 1651 54 view .LVU1222
 3983 00a6 BDF81C20 		ldrh	r2, [sp, #28]
 3984 00aa C2F30A02 		ubfx	r2, r2, #0, #11
1650:Drivers/STM32H7xx_HAL_Driver/Src/stm32h7xx_ll_usb.c ****                                       (((uint32_t)ep_type << 18) & USB_OTG_HCCHAR_EPTYP) |
 3985              		.loc 1 1650 90 view .LVU1223
 3986 00ae 1343     		orrs	r3, r3, r2
 3987              		.loc 1 1651 78 view .LVU1224
 3988 00b0 3343     		orrs	r3, r3, r6
 3989              		.loc 1 1651 92 view .LVU1225
 3990 00b2 0B43     		orrs	r3, r3, r1
1648:Drivers/STM32H7xx_HAL_Driver/Src/stm32h7xx_ll_usb.c ****                                       ((((uint32_t)epnum & 0x7FU) << 11) & USB_OTG_HCCHAR_EPNUM) |
 3991              		.loc 1 1648 37 view .LVU1226
 3992 00b4 C5F80035 		str	r3, [r5, #1280]
1652:Drivers/STM32H7xx_HAL_Driver/Src/stm32h7xx_ll_usb.c **** 
1653:Drivers/STM32H7xx_HAL_Driver/Src/stm32h7xx_ll_usb.c ****   if (ep_type == EP_TYPE_INTR)
 3993              		.loc 1 1653 3 is_stmt 1 view .LVU1227
 3994              		.loc 1 1653 6 is_stmt 0 view .LVU1228
 3995 00b8 032C     		cmp	r4, #3
 3996 00ba 1ED0     		beq	.L267
 3997              	.L255:
1654:Drivers/STM32H7xx_HAL_Driver/Src/stm32h7xx_ll_usb.c ****   {
1655:Drivers/STM32H7xx_HAL_Driver/Src/stm32h7xx_ll_usb.c ****     USBx_HC((uint32_t)ch_num)->HCCHAR |= USB_OTG_HCCHAR_ODDFRM ;
1656:Drivers/STM32H7xx_HAL_Driver/Src/stm32h7xx_ll_usb.c ****   }
1657:Drivers/STM32H7xx_HAL_Driver/Src/stm32h7xx_ll_usb.c **** 
1658:Drivers/STM32H7xx_HAL_Driver/Src/stm32h7xx_ll_usb.c ****   return ret;
 3998              		.loc 1 1658 3 is_stmt 1 view .LVU1229
1659:Drivers/STM32H7xx_HAL_Driver/Src/stm32h7xx_ll_usb.c **** }
 3999              		.loc 1 1659 1 is_stmt 0 view .LVU1230
 4000 00bc F0BD     		pop	{r4, r5, r6, r7, pc}
 4001              	.LVL320:
 4002              	.L264:
1601:Drivers/STM32H7xx_HAL_Driver/Src/stm32h7xx_ll_usb.c ****       }
 4003              		.loc 1 1601 9 is_stmt 1 view .LVU1231
1601:Drivers/STM32H7xx_HAL_Driver/Src/stm32h7xx_ll_usb.c ****       }
 4004              		.loc 1 1601 45 is_stmt 0 view .LVU1232
 4005 00be C768     		ldr	r7, [r0, #12]
 4006 00c0 47F48077 		orr	r7, r7, #256
 4007 00c4 C760     		str	r7, [r0, #12]
1558:Drivers/STM32H7xx_HAL_Driver/Src/stm32h7xx_ll_usb.c ****   uint32_t USBx_BASE = (uint32_t)USBx;
ARM GAS  /tmp/cc0TWTOC.s 			page 118


 4008              		.loc 1 1558 21 view .LVU1233
 4009 00c6 0020     		movs	r0, #0
 4010 00c8 C8E7     		b	.L247
 4011              	.L251:
1607:Drivers/STM32H7xx_HAL_Driver/Src/stm32h7xx_ll_usb.c ****                                             USB_OTG_HCINTMSK_ACKM   |
 4012              		.loc 1 1607 7 is_stmt 1 view .LVU1234
1607:Drivers/STM32H7xx_HAL_Driver/Src/stm32h7xx_ll_usb.c ****                                             USB_OTG_HCINTMSK_ACKM   |
 4013              		.loc 1 1607 43 is_stmt 0 view .LVU1235
 4014 00ca 40F22527 		movw	r7, #549
 4015 00ce C760     		str	r7, [r0, #12]
1612:Drivers/STM32H7xx_HAL_Driver/Src/stm32h7xx_ll_usb.c ****       {
 4016              		.loc 1 1612 7 is_stmt 1 view .LVU1236
1612:Drivers/STM32H7xx_HAL_Driver/Src/stm32h7xx_ll_usb.c ****       {
 4017              		.loc 1 1612 10 is_stmt 0 view .LVU1237
 4018 00d0 12F0800F 		tst	r2, #128
 4019 00d4 01D1     		bne	.L268
1558:Drivers/STM32H7xx_HAL_Driver/Src/stm32h7xx_ll_usb.c ****   uint32_t USBx_BASE = (uint32_t)USBx;
 4020              		.loc 1 1558 21 view .LVU1238
 4021 00d6 0020     		movs	r0, #0
 4022 00d8 C0E7     		b	.L247
 4023              	.L268:
1614:Drivers/STM32H7xx_HAL_Driver/Src/stm32h7xx_ll_usb.c ****       }
 4024              		.loc 1 1614 9 is_stmt 1 view .LVU1239
1614:Drivers/STM32H7xx_HAL_Driver/Src/stm32h7xx_ll_usb.c ****       }
 4025              		.loc 1 1614 45 is_stmt 0 view .LVU1240
 4026 00da C768     		ldr	r7, [r0, #12]
 4027 00dc 47F4C077 		orr	r7, r7, #384
 4028 00e0 C760     		str	r7, [r0, #12]
1558:Drivers/STM32H7xx_HAL_Driver/Src/stm32h7xx_ll_usb.c ****   uint32_t USBx_BASE = (uint32_t)USBx;
 4029              		.loc 1 1558 21 view .LVU1241
 4030 00e2 0020     		movs	r0, #0
 4031 00e4 BAE7     		b	.L247
 4032              	.L256:
1563:Drivers/STM32H7xx_HAL_Driver/Src/stm32h7xx_ll_usb.c **** 
 4033              		.loc 1 1563 36 view .LVU1242
 4034 00e6 0120     		movs	r0, #1
 4035 00e8 B8E7     		b	.L247
 4036              	.L257:
1558:Drivers/STM32H7xx_HAL_Driver/Src/stm32h7xx_ll_usb.c ****   uint32_t USBx_BASE = (uint32_t)USBx;
 4037              		.loc 1 1558 21 view .LVU1243
 4038 00ea 0020     		movs	r0, #0
 4039 00ec B6E7     		b	.L247
 4040              	.LVL321:
 4041              	.L265:
1632:Drivers/STM32H7xx_HAL_Driver/Src/stm32h7xx_ll_usb.c ****   }
 4042              		.loc 1 1632 17 view .LVU1244
 4043 00ee 4FF40046 		mov	r6, #32768
 4044              	.LVL322:
1632:Drivers/STM32H7xx_HAL_Driver/Src/stm32h7xx_ll_usb.c ****   }
 4045              		.loc 1 1632 17 view .LVU1245
 4046 00f2 C8E7     		b	.L253
 4047              	.LVL323:
 4048              	.L266:
1641:Drivers/STM32H7xx_HAL_Driver/Src/stm32h7xx_ll_usb.c ****   }
 4049              		.loc 1 1641 20 view .LVU1246
 4050 00f4 4FF40031 		mov	r1, #131072
 4051 00f8 CAE7     		b	.L254
ARM GAS  /tmp/cc0TWTOC.s 			page 119


 4052              	.LVL324:
 4053              	.L267:
1655:Drivers/STM32H7xx_HAL_Driver/Src/stm32h7xx_ll_usb.c ****   }
 4054              		.loc 1 1655 5 is_stmt 1 view .LVU1247
1655:Drivers/STM32H7xx_HAL_Driver/Src/stm32h7xx_ll_usb.c ****   }
 4055              		.loc 1 1655 39 is_stmt 0 view .LVU1248
 4056 00fa D5F80035 		ldr	r3, [r5, #1280]
 4057 00fe 43F00053 		orr	r3, r3, #536870912
 4058 0102 C5F80035 		str	r3, [r5, #1280]
 4059 0106 D9E7     		b	.L255
 4060              		.cfi_endproc
 4061              	.LFE181:
 4063              		.section	.text.USB_HC_ReadInterrupt,"ax",%progbits
 4064              		.align	1
 4065              		.global	USB_HC_ReadInterrupt
 4066              		.syntax unified
 4067              		.thumb
 4068              		.thumb_func
 4069              		.fpu fpv5-d16
 4071              	USB_HC_ReadInterrupt:
 4072              	.LVL325:
 4073              	.LFB183:
1660:Drivers/STM32H7xx_HAL_Driver/Src/stm32h7xx_ll_usb.c **** 
1661:Drivers/STM32H7xx_HAL_Driver/Src/stm32h7xx_ll_usb.c **** /**
1662:Drivers/STM32H7xx_HAL_Driver/Src/stm32h7xx_ll_usb.c ****   * @brief  Start a transfer over a host channel
1663:Drivers/STM32H7xx_HAL_Driver/Src/stm32h7xx_ll_usb.c ****   * @param  USBx  Selected device
1664:Drivers/STM32H7xx_HAL_Driver/Src/stm32h7xx_ll_usb.c ****   * @param  hc  pointer to host channel structure
1665:Drivers/STM32H7xx_HAL_Driver/Src/stm32h7xx_ll_usb.c ****   * @param  dma USB dma enabled or disabled
1666:Drivers/STM32H7xx_HAL_Driver/Src/stm32h7xx_ll_usb.c ****   *          This parameter can be one of these values:
1667:Drivers/STM32H7xx_HAL_Driver/Src/stm32h7xx_ll_usb.c ****   *           0 : DMA feature not used
1668:Drivers/STM32H7xx_HAL_Driver/Src/stm32h7xx_ll_usb.c ****   *           1 : DMA feature used
1669:Drivers/STM32H7xx_HAL_Driver/Src/stm32h7xx_ll_usb.c ****   * @retval HAL state
1670:Drivers/STM32H7xx_HAL_Driver/Src/stm32h7xx_ll_usb.c ****   */
1671:Drivers/STM32H7xx_HAL_Driver/Src/stm32h7xx_ll_usb.c **** HAL_StatusTypeDef USB_HC_StartXfer(USB_OTG_GlobalTypeDef *USBx, USB_OTG_HCTypeDef *hc, uint8_t dma)
1672:Drivers/STM32H7xx_HAL_Driver/Src/stm32h7xx_ll_usb.c **** {
1673:Drivers/STM32H7xx_HAL_Driver/Src/stm32h7xx_ll_usb.c ****   uint32_t USBx_BASE = (uint32_t)USBx;
1674:Drivers/STM32H7xx_HAL_Driver/Src/stm32h7xx_ll_usb.c ****   uint32_t ch_num = (uint32_t)hc->ch_num;
1675:Drivers/STM32H7xx_HAL_Driver/Src/stm32h7xx_ll_usb.c ****   static __IO uint32_t tmpreg = 0U;
1676:Drivers/STM32H7xx_HAL_Driver/Src/stm32h7xx_ll_usb.c ****   uint8_t  is_oddframe;
1677:Drivers/STM32H7xx_HAL_Driver/Src/stm32h7xx_ll_usb.c ****   uint16_t len_words;
1678:Drivers/STM32H7xx_HAL_Driver/Src/stm32h7xx_ll_usb.c ****   uint16_t num_packets;
1679:Drivers/STM32H7xx_HAL_Driver/Src/stm32h7xx_ll_usb.c ****   uint16_t max_hc_pkt_count = 256U;
1680:Drivers/STM32H7xx_HAL_Driver/Src/stm32h7xx_ll_usb.c **** 
1681:Drivers/STM32H7xx_HAL_Driver/Src/stm32h7xx_ll_usb.c ****   if (((USBx->CID & (0x1U << 8)) != 0U) && (hc->speed == USBH_HS_SPEED))
1682:Drivers/STM32H7xx_HAL_Driver/Src/stm32h7xx_ll_usb.c ****   {
1683:Drivers/STM32H7xx_HAL_Driver/Src/stm32h7xx_ll_usb.c ****     if ((dma == 0U) && (hc->do_ping == 1U))
1684:Drivers/STM32H7xx_HAL_Driver/Src/stm32h7xx_ll_usb.c ****     {
1685:Drivers/STM32H7xx_HAL_Driver/Src/stm32h7xx_ll_usb.c ****       (void)USB_DoPing(USBx, hc->ch_num);
1686:Drivers/STM32H7xx_HAL_Driver/Src/stm32h7xx_ll_usb.c ****       return HAL_OK;
1687:Drivers/STM32H7xx_HAL_Driver/Src/stm32h7xx_ll_usb.c ****     }
1688:Drivers/STM32H7xx_HAL_Driver/Src/stm32h7xx_ll_usb.c ****     else if (dma == 1U)
1689:Drivers/STM32H7xx_HAL_Driver/Src/stm32h7xx_ll_usb.c ****     {
1690:Drivers/STM32H7xx_HAL_Driver/Src/stm32h7xx_ll_usb.c ****       USBx_HC(ch_num)->HCINTMSK &= ~(USB_OTG_HCINTMSK_NYET | USB_OTG_HCINTMSK_ACKM);
1691:Drivers/STM32H7xx_HAL_Driver/Src/stm32h7xx_ll_usb.c ****       hc->do_ping = 0U;
1692:Drivers/STM32H7xx_HAL_Driver/Src/stm32h7xx_ll_usb.c ****     }
1693:Drivers/STM32H7xx_HAL_Driver/Src/stm32h7xx_ll_usb.c ****     else
1694:Drivers/STM32H7xx_HAL_Driver/Src/stm32h7xx_ll_usb.c ****     {
ARM GAS  /tmp/cc0TWTOC.s 			page 120


1695:Drivers/STM32H7xx_HAL_Driver/Src/stm32h7xx_ll_usb.c ****       /* ... */
1696:Drivers/STM32H7xx_HAL_Driver/Src/stm32h7xx_ll_usb.c ****     }
1697:Drivers/STM32H7xx_HAL_Driver/Src/stm32h7xx_ll_usb.c ****   }
1698:Drivers/STM32H7xx_HAL_Driver/Src/stm32h7xx_ll_usb.c **** 
1699:Drivers/STM32H7xx_HAL_Driver/Src/stm32h7xx_ll_usb.c ****   /* Compute the expected number of packets associated to the transfer */
1700:Drivers/STM32H7xx_HAL_Driver/Src/stm32h7xx_ll_usb.c ****   if (hc->xfer_len > 0U)
1701:Drivers/STM32H7xx_HAL_Driver/Src/stm32h7xx_ll_usb.c ****   {
1702:Drivers/STM32H7xx_HAL_Driver/Src/stm32h7xx_ll_usb.c ****     num_packets = (uint16_t)((hc->xfer_len + hc->max_packet - 1U) / hc->max_packet);
1703:Drivers/STM32H7xx_HAL_Driver/Src/stm32h7xx_ll_usb.c **** 
1704:Drivers/STM32H7xx_HAL_Driver/Src/stm32h7xx_ll_usb.c ****     if (num_packets > max_hc_pkt_count)
1705:Drivers/STM32H7xx_HAL_Driver/Src/stm32h7xx_ll_usb.c ****     {
1706:Drivers/STM32H7xx_HAL_Driver/Src/stm32h7xx_ll_usb.c ****       num_packets = max_hc_pkt_count;
1707:Drivers/STM32H7xx_HAL_Driver/Src/stm32h7xx_ll_usb.c ****       hc->xfer_len = (uint32_t)num_packets * hc->max_packet;
1708:Drivers/STM32H7xx_HAL_Driver/Src/stm32h7xx_ll_usb.c ****     }
1709:Drivers/STM32H7xx_HAL_Driver/Src/stm32h7xx_ll_usb.c ****   }
1710:Drivers/STM32H7xx_HAL_Driver/Src/stm32h7xx_ll_usb.c ****   else
1711:Drivers/STM32H7xx_HAL_Driver/Src/stm32h7xx_ll_usb.c ****   {
1712:Drivers/STM32H7xx_HAL_Driver/Src/stm32h7xx_ll_usb.c ****     num_packets = 1U;
1713:Drivers/STM32H7xx_HAL_Driver/Src/stm32h7xx_ll_usb.c ****   }
1714:Drivers/STM32H7xx_HAL_Driver/Src/stm32h7xx_ll_usb.c ****   if (hc->ep_is_in != 0U)
1715:Drivers/STM32H7xx_HAL_Driver/Src/stm32h7xx_ll_usb.c ****   {
1716:Drivers/STM32H7xx_HAL_Driver/Src/stm32h7xx_ll_usb.c ****     hc->xfer_len = (uint32_t)num_packets * hc->max_packet;
1717:Drivers/STM32H7xx_HAL_Driver/Src/stm32h7xx_ll_usb.c ****   }
1718:Drivers/STM32H7xx_HAL_Driver/Src/stm32h7xx_ll_usb.c **** 
1719:Drivers/STM32H7xx_HAL_Driver/Src/stm32h7xx_ll_usb.c ****   /* Initialize the HCTSIZn register */
1720:Drivers/STM32H7xx_HAL_Driver/Src/stm32h7xx_ll_usb.c ****   USBx_HC(ch_num)->HCTSIZ = (hc->xfer_len & USB_OTG_HCTSIZ_XFRSIZ) |
1721:Drivers/STM32H7xx_HAL_Driver/Src/stm32h7xx_ll_usb.c ****                             (((uint32_t)num_packets << 19) & USB_OTG_HCTSIZ_PKTCNT) |
1722:Drivers/STM32H7xx_HAL_Driver/Src/stm32h7xx_ll_usb.c ****                             (((uint32_t)hc->data_pid << 29) & USB_OTG_HCTSIZ_DPID);
1723:Drivers/STM32H7xx_HAL_Driver/Src/stm32h7xx_ll_usb.c **** 
1724:Drivers/STM32H7xx_HAL_Driver/Src/stm32h7xx_ll_usb.c ****   if (dma != 0U)
1725:Drivers/STM32H7xx_HAL_Driver/Src/stm32h7xx_ll_usb.c ****   {
1726:Drivers/STM32H7xx_HAL_Driver/Src/stm32h7xx_ll_usb.c ****     /* xfer_buff MUST be 32-bits aligned */
1727:Drivers/STM32H7xx_HAL_Driver/Src/stm32h7xx_ll_usb.c ****     USBx_HC(ch_num)->HCDMA = (uint32_t)hc->xfer_buff;
1728:Drivers/STM32H7xx_HAL_Driver/Src/stm32h7xx_ll_usb.c ****   }
1729:Drivers/STM32H7xx_HAL_Driver/Src/stm32h7xx_ll_usb.c **** 
1730:Drivers/STM32H7xx_HAL_Driver/Src/stm32h7xx_ll_usb.c ****   is_oddframe = (((uint32_t)USBx_HOST->HFNUM & 0x01U) != 0U) ? 0U : 1U;
1731:Drivers/STM32H7xx_HAL_Driver/Src/stm32h7xx_ll_usb.c ****   USBx_HC(ch_num)->HCCHAR &= ~USB_OTG_HCCHAR_ODDFRM;
1732:Drivers/STM32H7xx_HAL_Driver/Src/stm32h7xx_ll_usb.c ****   USBx_HC(ch_num)->HCCHAR |= (uint32_t)is_oddframe << 29;
1733:Drivers/STM32H7xx_HAL_Driver/Src/stm32h7xx_ll_usb.c **** 
1734:Drivers/STM32H7xx_HAL_Driver/Src/stm32h7xx_ll_usb.c ****   /* Set host channel enable */
1735:Drivers/STM32H7xx_HAL_Driver/Src/stm32h7xx_ll_usb.c ****   tmpreg = USBx_HC(ch_num)->HCCHAR;
1736:Drivers/STM32H7xx_HAL_Driver/Src/stm32h7xx_ll_usb.c ****   tmpreg &= ~USB_OTG_HCCHAR_CHDIS;
1737:Drivers/STM32H7xx_HAL_Driver/Src/stm32h7xx_ll_usb.c **** 
1738:Drivers/STM32H7xx_HAL_Driver/Src/stm32h7xx_ll_usb.c ****   /* make sure to set the correct ep direction */
1739:Drivers/STM32H7xx_HAL_Driver/Src/stm32h7xx_ll_usb.c ****   if (hc->ep_is_in != 0U)
1740:Drivers/STM32H7xx_HAL_Driver/Src/stm32h7xx_ll_usb.c ****   {
1741:Drivers/STM32H7xx_HAL_Driver/Src/stm32h7xx_ll_usb.c ****     tmpreg |= USB_OTG_HCCHAR_EPDIR;
1742:Drivers/STM32H7xx_HAL_Driver/Src/stm32h7xx_ll_usb.c ****   }
1743:Drivers/STM32H7xx_HAL_Driver/Src/stm32h7xx_ll_usb.c ****   else
1744:Drivers/STM32H7xx_HAL_Driver/Src/stm32h7xx_ll_usb.c ****   {
1745:Drivers/STM32H7xx_HAL_Driver/Src/stm32h7xx_ll_usb.c ****     tmpreg &= ~USB_OTG_HCCHAR_EPDIR;
1746:Drivers/STM32H7xx_HAL_Driver/Src/stm32h7xx_ll_usb.c ****   }
1747:Drivers/STM32H7xx_HAL_Driver/Src/stm32h7xx_ll_usb.c ****   tmpreg |= USB_OTG_HCCHAR_CHENA;
1748:Drivers/STM32H7xx_HAL_Driver/Src/stm32h7xx_ll_usb.c ****   USBx_HC(ch_num)->HCCHAR = tmpreg;
1749:Drivers/STM32H7xx_HAL_Driver/Src/stm32h7xx_ll_usb.c **** 
1750:Drivers/STM32H7xx_HAL_Driver/Src/stm32h7xx_ll_usb.c ****   if (dma == 0U) /* Slave mode */
1751:Drivers/STM32H7xx_HAL_Driver/Src/stm32h7xx_ll_usb.c ****   {
ARM GAS  /tmp/cc0TWTOC.s 			page 121


1752:Drivers/STM32H7xx_HAL_Driver/Src/stm32h7xx_ll_usb.c ****     if ((hc->ep_is_in == 0U) && (hc->xfer_len > 0U))
1753:Drivers/STM32H7xx_HAL_Driver/Src/stm32h7xx_ll_usb.c ****     {
1754:Drivers/STM32H7xx_HAL_Driver/Src/stm32h7xx_ll_usb.c ****       switch (hc->ep_type)
1755:Drivers/STM32H7xx_HAL_Driver/Src/stm32h7xx_ll_usb.c ****       {
1756:Drivers/STM32H7xx_HAL_Driver/Src/stm32h7xx_ll_usb.c ****         /* Non periodic transfer */
1757:Drivers/STM32H7xx_HAL_Driver/Src/stm32h7xx_ll_usb.c ****         case EP_TYPE_CTRL:
1758:Drivers/STM32H7xx_HAL_Driver/Src/stm32h7xx_ll_usb.c ****         case EP_TYPE_BULK:
1759:Drivers/STM32H7xx_HAL_Driver/Src/stm32h7xx_ll_usb.c **** 
1760:Drivers/STM32H7xx_HAL_Driver/Src/stm32h7xx_ll_usb.c ****           len_words = (uint16_t)((hc->xfer_len + 3U) / 4U);
1761:Drivers/STM32H7xx_HAL_Driver/Src/stm32h7xx_ll_usb.c **** 
1762:Drivers/STM32H7xx_HAL_Driver/Src/stm32h7xx_ll_usb.c ****           /* check if there is enough space in FIFO space */
1763:Drivers/STM32H7xx_HAL_Driver/Src/stm32h7xx_ll_usb.c ****           if (len_words > (USBx->HNPTXSTS & 0xFFFFU))
1764:Drivers/STM32H7xx_HAL_Driver/Src/stm32h7xx_ll_usb.c ****           {
1765:Drivers/STM32H7xx_HAL_Driver/Src/stm32h7xx_ll_usb.c ****             /* need to process data in nptxfempty interrupt */
1766:Drivers/STM32H7xx_HAL_Driver/Src/stm32h7xx_ll_usb.c ****             USBx->GINTMSK |= USB_OTG_GINTMSK_NPTXFEM;
1767:Drivers/STM32H7xx_HAL_Driver/Src/stm32h7xx_ll_usb.c ****           }
1768:Drivers/STM32H7xx_HAL_Driver/Src/stm32h7xx_ll_usb.c ****           break;
1769:Drivers/STM32H7xx_HAL_Driver/Src/stm32h7xx_ll_usb.c **** 
1770:Drivers/STM32H7xx_HAL_Driver/Src/stm32h7xx_ll_usb.c ****         /* Periodic transfer */
1771:Drivers/STM32H7xx_HAL_Driver/Src/stm32h7xx_ll_usb.c ****         case EP_TYPE_INTR:
1772:Drivers/STM32H7xx_HAL_Driver/Src/stm32h7xx_ll_usb.c ****         case EP_TYPE_ISOC:
1773:Drivers/STM32H7xx_HAL_Driver/Src/stm32h7xx_ll_usb.c ****           len_words = (uint16_t)((hc->xfer_len + 3U) / 4U);
1774:Drivers/STM32H7xx_HAL_Driver/Src/stm32h7xx_ll_usb.c ****           /* check if there is enough space in FIFO space */
1775:Drivers/STM32H7xx_HAL_Driver/Src/stm32h7xx_ll_usb.c ****           if (len_words > (USBx_HOST->HPTXSTS & 0xFFFFU)) /* split the transfer */
1776:Drivers/STM32H7xx_HAL_Driver/Src/stm32h7xx_ll_usb.c ****           {
1777:Drivers/STM32H7xx_HAL_Driver/Src/stm32h7xx_ll_usb.c ****             /* need to process data in ptxfempty interrupt */
1778:Drivers/STM32H7xx_HAL_Driver/Src/stm32h7xx_ll_usb.c ****             USBx->GINTMSK |= USB_OTG_GINTMSK_PTXFEM;
1779:Drivers/STM32H7xx_HAL_Driver/Src/stm32h7xx_ll_usb.c ****           }
1780:Drivers/STM32H7xx_HAL_Driver/Src/stm32h7xx_ll_usb.c ****           break;
1781:Drivers/STM32H7xx_HAL_Driver/Src/stm32h7xx_ll_usb.c **** 
1782:Drivers/STM32H7xx_HAL_Driver/Src/stm32h7xx_ll_usb.c ****         default:
1783:Drivers/STM32H7xx_HAL_Driver/Src/stm32h7xx_ll_usb.c ****           break;
1784:Drivers/STM32H7xx_HAL_Driver/Src/stm32h7xx_ll_usb.c ****       }
1785:Drivers/STM32H7xx_HAL_Driver/Src/stm32h7xx_ll_usb.c **** 
1786:Drivers/STM32H7xx_HAL_Driver/Src/stm32h7xx_ll_usb.c ****       /* Write packet into the Tx FIFO. */
1787:Drivers/STM32H7xx_HAL_Driver/Src/stm32h7xx_ll_usb.c ****       (void)USB_WritePacket(USBx, hc->xfer_buff, hc->ch_num, (uint16_t)hc->xfer_len, 0);
1788:Drivers/STM32H7xx_HAL_Driver/Src/stm32h7xx_ll_usb.c ****     }
1789:Drivers/STM32H7xx_HAL_Driver/Src/stm32h7xx_ll_usb.c ****   }
1790:Drivers/STM32H7xx_HAL_Driver/Src/stm32h7xx_ll_usb.c **** 
1791:Drivers/STM32H7xx_HAL_Driver/Src/stm32h7xx_ll_usb.c ****   return HAL_OK;
1792:Drivers/STM32H7xx_HAL_Driver/Src/stm32h7xx_ll_usb.c **** }
1793:Drivers/STM32H7xx_HAL_Driver/Src/stm32h7xx_ll_usb.c **** 
1794:Drivers/STM32H7xx_HAL_Driver/Src/stm32h7xx_ll_usb.c **** /**
1795:Drivers/STM32H7xx_HAL_Driver/Src/stm32h7xx_ll_usb.c ****   * @brief Read all host channel interrupts status
1796:Drivers/STM32H7xx_HAL_Driver/Src/stm32h7xx_ll_usb.c ****   * @param  USBx  Selected device
1797:Drivers/STM32H7xx_HAL_Driver/Src/stm32h7xx_ll_usb.c ****   * @retval HAL state
1798:Drivers/STM32H7xx_HAL_Driver/Src/stm32h7xx_ll_usb.c ****   */
1799:Drivers/STM32H7xx_HAL_Driver/Src/stm32h7xx_ll_usb.c **** uint32_t USB_HC_ReadInterrupt(USB_OTG_GlobalTypeDef *USBx)
1800:Drivers/STM32H7xx_HAL_Driver/Src/stm32h7xx_ll_usb.c **** {
 4074              		.loc 1 1800 1 is_stmt 1 view -0
 4075              		.cfi_startproc
 4076              		@ args = 0, pretend = 0, frame = 0
 4077              		@ frame_needed = 0, uses_anonymous_args = 0
 4078              		@ link register save eliminated.
1801:Drivers/STM32H7xx_HAL_Driver/Src/stm32h7xx_ll_usb.c ****   uint32_t USBx_BASE = (uint32_t)USBx;
 4079              		.loc 1 1801 3 view .LVU1250
1802:Drivers/STM32H7xx_HAL_Driver/Src/stm32h7xx_ll_usb.c **** 
ARM GAS  /tmp/cc0TWTOC.s 			page 122


1803:Drivers/STM32H7xx_HAL_Driver/Src/stm32h7xx_ll_usb.c ****   return ((USBx_HOST->HAINT) & 0xFFFFU);
 4080              		.loc 1 1803 3 view .LVU1251
 4081              		.loc 1 1803 12 is_stmt 0 view .LVU1252
 4082 0000 00F58060 		add	r0, r0, #1024
 4083              	.LVL326:
 4084              		.loc 1 1803 21 view .LVU1253
 4085 0004 4069     		ldr	r0, [r0, #20]
 4086              	.LVL327:
1804:Drivers/STM32H7xx_HAL_Driver/Src/stm32h7xx_ll_usb.c **** }
 4087              		.loc 1 1804 1 view .LVU1254
 4088 0006 80B2     		uxth	r0, r0
 4089 0008 7047     		bx	lr
 4090              		.cfi_endproc
 4091              	.LFE183:
 4093              		.section	.text.USB_HC_Halt,"ax",%progbits
 4094              		.align	1
 4095              		.global	USB_HC_Halt
 4096              		.syntax unified
 4097              		.thumb
 4098              		.thumb_func
 4099              		.fpu fpv5-d16
 4101              	USB_HC_Halt:
 4102              	.LVL328:
 4103              	.LFB184:
1805:Drivers/STM32H7xx_HAL_Driver/Src/stm32h7xx_ll_usb.c **** 
1806:Drivers/STM32H7xx_HAL_Driver/Src/stm32h7xx_ll_usb.c **** /**
1807:Drivers/STM32H7xx_HAL_Driver/Src/stm32h7xx_ll_usb.c ****   * @brief  Halt a host channel
1808:Drivers/STM32H7xx_HAL_Driver/Src/stm32h7xx_ll_usb.c ****   * @param  USBx  Selected device
1809:Drivers/STM32H7xx_HAL_Driver/Src/stm32h7xx_ll_usb.c ****   * @param  hc_num  Host Channel number
1810:Drivers/STM32H7xx_HAL_Driver/Src/stm32h7xx_ll_usb.c ****   *         This parameter can be a value from 1 to 15
1811:Drivers/STM32H7xx_HAL_Driver/Src/stm32h7xx_ll_usb.c ****   * @retval HAL state
1812:Drivers/STM32H7xx_HAL_Driver/Src/stm32h7xx_ll_usb.c ****   */
1813:Drivers/STM32H7xx_HAL_Driver/Src/stm32h7xx_ll_usb.c **** HAL_StatusTypeDef USB_HC_Halt(USB_OTG_GlobalTypeDef *USBx, uint8_t hc_num)
1814:Drivers/STM32H7xx_HAL_Driver/Src/stm32h7xx_ll_usb.c **** {
 4104              		.loc 1 1814 1 is_stmt 1 view -0
 4105              		.cfi_startproc
 4106              		@ args = 0, pretend = 0, frame = 0
 4107              		@ frame_needed = 0, uses_anonymous_args = 0
 4108              		@ link register save eliminated.
 4109              		.loc 1 1814 1 is_stmt 0 view .LVU1256
 4110 0000 30B4     		push	{r4, r5}
 4111              	.LCFI56:
 4112              		.cfi_def_cfa_offset 8
 4113              		.cfi_offset 4, -8
 4114              		.cfi_offset 5, -4
1815:Drivers/STM32H7xx_HAL_Driver/Src/stm32h7xx_ll_usb.c ****   uint32_t USBx_BASE = (uint32_t)USBx;
 4115              		.loc 1 1815 3 is_stmt 1 view .LVU1257
 4116              	.LVL329:
1816:Drivers/STM32H7xx_HAL_Driver/Src/stm32h7xx_ll_usb.c ****   uint32_t hcnum = (uint32_t)hc_num;
 4117              		.loc 1 1816 3 view .LVU1258
1817:Drivers/STM32H7xx_HAL_Driver/Src/stm32h7xx_ll_usb.c ****   uint32_t count = 0U;
 4118              		.loc 1 1817 3 view .LVU1259
1818:Drivers/STM32H7xx_HAL_Driver/Src/stm32h7xx_ll_usb.c ****   uint32_t HcEpType = (USBx_HC(hcnum)->HCCHAR & USB_OTG_HCCHAR_EPTYP) >> 18;
 4119              		.loc 1 1818 3 view .LVU1260
 4120              		.loc 1 1818 24 is_stmt 0 view .LVU1261
 4121 0002 00EB4111 		add	r1, r0, r1, lsl #5
 4122              	.LVL330:
ARM GAS  /tmp/cc0TWTOC.s 			page 123


 4123              		.loc 1 1818 24 view .LVU1262
 4124 0006 01F5A065 		add	r5, r1, #1280
 4125              		.loc 1 1818 38 view .LVU1263
 4126 000a D1F80025 		ldr	r2, [r1, #1280]
 4127              		.loc 1 1818 12 view .LVU1264
 4128 000e C2F38144 		ubfx	r4, r2, #18, #2
 4129              	.LVL331:
1819:Drivers/STM32H7xx_HAL_Driver/Src/stm32h7xx_ll_usb.c **** 
1820:Drivers/STM32H7xx_HAL_Driver/Src/stm32h7xx_ll_usb.c ****   /* Check for space in the request queue to issue the halt. */
1821:Drivers/STM32H7xx_HAL_Driver/Src/stm32h7xx_ll_usb.c ****   if ((HcEpType == HCCHAR_CTRL) || (HcEpType == HCCHAR_BULK))
 4130              		.loc 1 1821 3 is_stmt 1 view .LVU1265
 4131              		.loc 1 1821 17 is_stmt 0 view .LVU1266
 4132 0012 12F4402F 		tst	r2, #786432
 4133 0016 0CBF     		ite	eq
 4134 0018 0123     		moveq	r3, #1
 4135 001a 0023     		movne	r3, #0
 4136              		.loc 1 1821 33 view .LVU1267
 4137 001c 022C     		cmp	r4, #2
 4138 001e 08BF     		it	eq
 4139 0020 43F00103 		orreq	r3, r3, #1
 4140              		.loc 1 1821 6 view .LVU1268
 4141 0024 63B3     		cbz	r3, .L271
1822:Drivers/STM32H7xx_HAL_Driver/Src/stm32h7xx_ll_usb.c ****   {
1823:Drivers/STM32H7xx_HAL_Driver/Src/stm32h7xx_ll_usb.c ****     USBx_HC(hcnum)->HCCHAR |= USB_OTG_HCCHAR_CHDIS;
 4142              		.loc 1 1823 5 is_stmt 1 view .LVU1269
 4143              		.loc 1 1823 28 is_stmt 0 view .LVU1270
 4144 0026 D1F80035 		ldr	r3, [r1, #1280]
 4145 002a 43F08043 		orr	r3, r3, #1073741824
 4146 002e C1F80035 		str	r3, [r1, #1280]
1824:Drivers/STM32H7xx_HAL_Driver/Src/stm32h7xx_ll_usb.c **** 
1825:Drivers/STM32H7xx_HAL_Driver/Src/stm32h7xx_ll_usb.c ****     if ((USBx->HNPTXSTS & (0xFFU << 16)) == 0U)
 4147              		.loc 1 1825 5 is_stmt 1 view .LVU1271
 4148              		.loc 1 1825 14 is_stmt 0 view .LVU1272
 4149 0032 C36A     		ldr	r3, [r0, #44]
 4150              		.loc 1 1825 8 view .LVU1273
 4151 0034 13F47F03 		ands	r3, r3, #16711680
 4152 0038 19D1     		bne	.L272
1826:Drivers/STM32H7xx_HAL_Driver/Src/stm32h7xx_ll_usb.c ****     {
1827:Drivers/STM32H7xx_HAL_Driver/Src/stm32h7xx_ll_usb.c ****       USBx_HC(hcnum)->HCCHAR &= ~USB_OTG_HCCHAR_CHENA;
 4153              		.loc 1 1827 7 is_stmt 1 view .LVU1274
 4154              		.loc 1 1827 30 is_stmt 0 view .LVU1275
 4155 003a D1F80025 		ldr	r2, [r1, #1280]
 4156 003e 22F00042 		bic	r2, r2, #-2147483648
 4157 0042 C1F80025 		str	r2, [r1, #1280]
1828:Drivers/STM32H7xx_HAL_Driver/Src/stm32h7xx_ll_usb.c ****       USBx_HC(hcnum)->HCCHAR |= USB_OTG_HCCHAR_CHENA;
 4158              		.loc 1 1828 7 is_stmt 1 view .LVU1276
 4159              		.loc 1 1828 30 is_stmt 0 view .LVU1277
 4160 0046 D1F80025 		ldr	r2, [r1, #1280]
 4161 004a 42F00042 		orr	r2, r2, #-2147483648
 4162 004e C1F80025 		str	r2, [r1, #1280]
1829:Drivers/STM32H7xx_HAL_Driver/Src/stm32h7xx_ll_usb.c ****       USBx_HC(hcnum)->HCCHAR &= ~USB_OTG_HCCHAR_EPDIR;
 4163              		.loc 1 1829 7 is_stmt 1 view .LVU1278
 4164              		.loc 1 1829 30 is_stmt 0 view .LVU1279
 4165 0052 D1F80025 		ldr	r2, [r1, #1280]
 4166 0056 22F40042 		bic	r2, r2, #32768
 4167 005a C1F80025 		str	r2, [r1, #1280]
 4168              	.LVL332:
ARM GAS  /tmp/cc0TWTOC.s 			page 124


 4169              	.L274:
1830:Drivers/STM32H7xx_HAL_Driver/Src/stm32h7xx_ll_usb.c ****       do
 4170              		.loc 1 1830 7 is_stmt 1 view .LVU1280
1831:Drivers/STM32H7xx_HAL_Driver/Src/stm32h7xx_ll_usb.c ****       {
1832:Drivers/STM32H7xx_HAL_Driver/Src/stm32h7xx_ll_usb.c ****         if (++count > 1000U)
 4171              		.loc 1 1832 9 view .LVU1281
 4172              		.loc 1 1832 12 is_stmt 0 view .LVU1282
 4173 005e 0133     		adds	r3, r3, #1
 4174              	.LVL333:
 4175              		.loc 1 1832 12 view .LVU1283
 4176 0060 B3F57A7F 		cmp	r3, #1000
 4177 0064 09D8     		bhi	.L273
1833:Drivers/STM32H7xx_HAL_Driver/Src/stm32h7xx_ll_usb.c ****         {
1834:Drivers/STM32H7xx_HAL_Driver/Src/stm32h7xx_ll_usb.c ****           break;
1835:Drivers/STM32H7xx_HAL_Driver/Src/stm32h7xx_ll_usb.c ****         }
1836:Drivers/STM32H7xx_HAL_Driver/Src/stm32h7xx_ll_usb.c ****       }
1837:Drivers/STM32H7xx_HAL_Driver/Src/stm32h7xx_ll_usb.c ****       while ((USBx_HC(hcnum)->HCCHAR & USB_OTG_HCCHAR_CHENA) == USB_OTG_HCCHAR_CHENA);
 4178              		.loc 1 1837 29 view .LVU1284
 4179 0066 2A68     		ldr	r2, [r5]
 4180              		.loc 1 1837 7 view .LVU1285
 4181 0068 002A     		cmp	r2, #0
 4182 006a F8DB     		blt	.L274
 4183 006c 05E0     		b	.L273
 4184              	.LVL334:
 4185              	.L272:
1838:Drivers/STM32H7xx_HAL_Driver/Src/stm32h7xx_ll_usb.c ****     }
1839:Drivers/STM32H7xx_HAL_Driver/Src/stm32h7xx_ll_usb.c ****     else
1840:Drivers/STM32H7xx_HAL_Driver/Src/stm32h7xx_ll_usb.c ****     {
1841:Drivers/STM32H7xx_HAL_Driver/Src/stm32h7xx_ll_usb.c ****       USBx_HC(hcnum)->HCCHAR |= USB_OTG_HCCHAR_CHENA;
 4186              		.loc 1 1841 7 is_stmt 1 view .LVU1286
 4187              		.loc 1 1841 30 is_stmt 0 view .LVU1287
 4188 006e D1F80035 		ldr	r3, [r1, #1280]
 4189 0072 43F00043 		orr	r3, r3, #-2147483648
 4190 0076 C1F80035 		str	r3, [r1, #1280]
 4191              	.LVL335:
 4192              	.L273:
1842:Drivers/STM32H7xx_HAL_Driver/Src/stm32h7xx_ll_usb.c ****     }
1843:Drivers/STM32H7xx_HAL_Driver/Src/stm32h7xx_ll_usb.c ****   }
1844:Drivers/STM32H7xx_HAL_Driver/Src/stm32h7xx_ll_usb.c ****   else
1845:Drivers/STM32H7xx_HAL_Driver/Src/stm32h7xx_ll_usb.c ****   {
1846:Drivers/STM32H7xx_HAL_Driver/Src/stm32h7xx_ll_usb.c ****     USBx_HC(hcnum)->HCCHAR |= USB_OTG_HCCHAR_CHDIS;
1847:Drivers/STM32H7xx_HAL_Driver/Src/stm32h7xx_ll_usb.c **** 
1848:Drivers/STM32H7xx_HAL_Driver/Src/stm32h7xx_ll_usb.c ****     if ((USBx_HOST->HPTXSTS & (0xFFU << 16)) == 0U)
1849:Drivers/STM32H7xx_HAL_Driver/Src/stm32h7xx_ll_usb.c ****     {
1850:Drivers/STM32H7xx_HAL_Driver/Src/stm32h7xx_ll_usb.c ****       USBx_HC(hcnum)->HCCHAR &= ~USB_OTG_HCCHAR_CHENA;
1851:Drivers/STM32H7xx_HAL_Driver/Src/stm32h7xx_ll_usb.c ****       USBx_HC(hcnum)->HCCHAR |= USB_OTG_HCCHAR_CHENA;
1852:Drivers/STM32H7xx_HAL_Driver/Src/stm32h7xx_ll_usb.c ****       USBx_HC(hcnum)->HCCHAR &= ~USB_OTG_HCCHAR_EPDIR;
1853:Drivers/STM32H7xx_HAL_Driver/Src/stm32h7xx_ll_usb.c ****       do
1854:Drivers/STM32H7xx_HAL_Driver/Src/stm32h7xx_ll_usb.c ****       {
1855:Drivers/STM32H7xx_HAL_Driver/Src/stm32h7xx_ll_usb.c ****         if (++count > 1000U)
1856:Drivers/STM32H7xx_HAL_Driver/Src/stm32h7xx_ll_usb.c ****         {
1857:Drivers/STM32H7xx_HAL_Driver/Src/stm32h7xx_ll_usb.c ****           break;
1858:Drivers/STM32H7xx_HAL_Driver/Src/stm32h7xx_ll_usb.c ****         }
1859:Drivers/STM32H7xx_HAL_Driver/Src/stm32h7xx_ll_usb.c ****       }
1860:Drivers/STM32H7xx_HAL_Driver/Src/stm32h7xx_ll_usb.c ****       while ((USBx_HC(hcnum)->HCCHAR & USB_OTG_HCCHAR_CHENA) == USB_OTG_HCCHAR_CHENA);
1861:Drivers/STM32H7xx_HAL_Driver/Src/stm32h7xx_ll_usb.c ****     }
1862:Drivers/STM32H7xx_HAL_Driver/Src/stm32h7xx_ll_usb.c ****     else
ARM GAS  /tmp/cc0TWTOC.s 			page 125


1863:Drivers/STM32H7xx_HAL_Driver/Src/stm32h7xx_ll_usb.c ****     {
1864:Drivers/STM32H7xx_HAL_Driver/Src/stm32h7xx_ll_usb.c ****       USBx_HC(hcnum)->HCCHAR |= USB_OTG_HCCHAR_CHENA;
1865:Drivers/STM32H7xx_HAL_Driver/Src/stm32h7xx_ll_usb.c ****     }
1866:Drivers/STM32H7xx_HAL_Driver/Src/stm32h7xx_ll_usb.c ****   }
1867:Drivers/STM32H7xx_HAL_Driver/Src/stm32h7xx_ll_usb.c **** 
1868:Drivers/STM32H7xx_HAL_Driver/Src/stm32h7xx_ll_usb.c ****   return HAL_OK;
 4193              		.loc 1 1868 3 is_stmt 1 view .LVU1288
1869:Drivers/STM32H7xx_HAL_Driver/Src/stm32h7xx_ll_usb.c **** }
 4194              		.loc 1 1869 1 is_stmt 0 view .LVU1289
 4195 007a 0020     		movs	r0, #0
 4196              	.LVL336:
 4197              		.loc 1 1869 1 view .LVU1290
 4198 007c 30BC     		pop	{r4, r5}
 4199              	.LCFI57:
 4200              		.cfi_remember_state
 4201              		.cfi_restore 5
 4202              		.cfi_restore 4
 4203              		.cfi_def_cfa_offset 0
 4204              	.LVL337:
 4205              		.loc 1 1869 1 view .LVU1291
 4206 007e 7047     		bx	lr
 4207              	.LVL338:
 4208              	.L271:
 4209              	.LCFI58:
 4210              		.cfi_restore_state
1846:Drivers/STM32H7xx_HAL_Driver/Src/stm32h7xx_ll_usb.c **** 
 4211              		.loc 1 1846 5 is_stmt 1 view .LVU1292
1846:Drivers/STM32H7xx_HAL_Driver/Src/stm32h7xx_ll_usb.c **** 
 4212              		.loc 1 1846 28 is_stmt 0 view .LVU1293
 4213 0080 D1F80035 		ldr	r3, [r1, #1280]
 4214 0084 43F08043 		orr	r3, r3, #1073741824
 4215 0088 C1F80035 		str	r3, [r1, #1280]
1848:Drivers/STM32H7xx_HAL_Driver/Src/stm32h7xx_ll_usb.c ****     {
 4216              		.loc 1 1848 5 is_stmt 1 view .LVU1294
1848:Drivers/STM32H7xx_HAL_Driver/Src/stm32h7xx_ll_usb.c ****     {
 4217              		.loc 1 1848 19 is_stmt 0 view .LVU1295
 4218 008c D0F81034 		ldr	r3, [r0, #1040]
1848:Drivers/STM32H7xx_HAL_Driver/Src/stm32h7xx_ll_usb.c ****     {
 4219              		.loc 1 1848 8 view .LVU1296
 4220 0090 13F47F03 		ands	r3, r3, #16711680
 4221 0094 19D1     		bne	.L275
1850:Drivers/STM32H7xx_HAL_Driver/Src/stm32h7xx_ll_usb.c ****       USBx_HC(hcnum)->HCCHAR |= USB_OTG_HCCHAR_CHENA;
 4222              		.loc 1 1850 7 is_stmt 1 view .LVU1297
1850:Drivers/STM32H7xx_HAL_Driver/Src/stm32h7xx_ll_usb.c ****       USBx_HC(hcnum)->HCCHAR |= USB_OTG_HCCHAR_CHENA;
 4223              		.loc 1 1850 30 is_stmt 0 view .LVU1298
 4224 0096 D1F80025 		ldr	r2, [r1, #1280]
 4225 009a 22F00042 		bic	r2, r2, #-2147483648
 4226 009e C1F80025 		str	r2, [r1, #1280]
1851:Drivers/STM32H7xx_HAL_Driver/Src/stm32h7xx_ll_usb.c ****       USBx_HC(hcnum)->HCCHAR &= ~USB_OTG_HCCHAR_EPDIR;
 4227              		.loc 1 1851 7 is_stmt 1 view .LVU1299
1851:Drivers/STM32H7xx_HAL_Driver/Src/stm32h7xx_ll_usb.c ****       USBx_HC(hcnum)->HCCHAR &= ~USB_OTG_HCCHAR_EPDIR;
 4228              		.loc 1 1851 30 is_stmt 0 view .LVU1300
 4229 00a2 D1F80025 		ldr	r2, [r1, #1280]
 4230 00a6 42F00042 		orr	r2, r2, #-2147483648
 4231 00aa C1F80025 		str	r2, [r1, #1280]
1852:Drivers/STM32H7xx_HAL_Driver/Src/stm32h7xx_ll_usb.c ****       do
 4232              		.loc 1 1852 7 is_stmt 1 view .LVU1301
ARM GAS  /tmp/cc0TWTOC.s 			page 126


1852:Drivers/STM32H7xx_HAL_Driver/Src/stm32h7xx_ll_usb.c ****       do
 4233              		.loc 1 1852 30 is_stmt 0 view .LVU1302
 4234 00ae D1F80025 		ldr	r2, [r1, #1280]
 4235 00b2 22F40042 		bic	r2, r2, #32768
 4236 00b6 C1F80025 		str	r2, [r1, #1280]
 4237              	.LVL339:
 4238              	.L276:
1853:Drivers/STM32H7xx_HAL_Driver/Src/stm32h7xx_ll_usb.c ****       {
 4239              		.loc 1 1853 7 is_stmt 1 view .LVU1303
1855:Drivers/STM32H7xx_HAL_Driver/Src/stm32h7xx_ll_usb.c ****         {
 4240              		.loc 1 1855 9 view .LVU1304
1855:Drivers/STM32H7xx_HAL_Driver/Src/stm32h7xx_ll_usb.c ****         {
 4241              		.loc 1 1855 12 is_stmt 0 view .LVU1305
 4242 00ba 0133     		adds	r3, r3, #1
 4243              	.LVL340:
1855:Drivers/STM32H7xx_HAL_Driver/Src/stm32h7xx_ll_usb.c ****         {
 4244              		.loc 1 1855 12 view .LVU1306
 4245 00bc B3F57A7F 		cmp	r3, #1000
 4246 00c0 DBD8     		bhi	.L273
1860:Drivers/STM32H7xx_HAL_Driver/Src/stm32h7xx_ll_usb.c ****     }
 4247              		.loc 1 1860 29 view .LVU1307
 4248 00c2 2A68     		ldr	r2, [r5]
1860:Drivers/STM32H7xx_HAL_Driver/Src/stm32h7xx_ll_usb.c ****     }
 4249              		.loc 1 1860 7 view .LVU1308
 4250 00c4 002A     		cmp	r2, #0
 4251 00c6 F8DB     		blt	.L276
 4252 00c8 D7E7     		b	.L273
 4253              	.LVL341:
 4254              	.L275:
1864:Drivers/STM32H7xx_HAL_Driver/Src/stm32h7xx_ll_usb.c ****     }
 4255              		.loc 1 1864 7 is_stmt 1 view .LVU1309
1864:Drivers/STM32H7xx_HAL_Driver/Src/stm32h7xx_ll_usb.c ****     }
 4256              		.loc 1 1864 30 is_stmt 0 view .LVU1310
 4257 00ca D1F80035 		ldr	r3, [r1, #1280]
 4258 00ce 43F00043 		orr	r3, r3, #-2147483648
 4259 00d2 C1F80035 		str	r3, [r1, #1280]
 4260 00d6 D0E7     		b	.L273
 4261              		.cfi_endproc
 4262              	.LFE184:
 4264              		.section	.text.USB_DoPing,"ax",%progbits
 4265              		.align	1
 4266              		.global	USB_DoPing
 4267              		.syntax unified
 4268              		.thumb
 4269              		.thumb_func
 4270              		.fpu fpv5-d16
 4272              	USB_DoPing:
 4273              	.LVL342:
 4274              	.LFB185:
1870:Drivers/STM32H7xx_HAL_Driver/Src/stm32h7xx_ll_usb.c **** 
1871:Drivers/STM32H7xx_HAL_Driver/Src/stm32h7xx_ll_usb.c **** /**
1872:Drivers/STM32H7xx_HAL_Driver/Src/stm32h7xx_ll_usb.c ****   * @brief  Initiate Do Ping protocol
1873:Drivers/STM32H7xx_HAL_Driver/Src/stm32h7xx_ll_usb.c ****   * @param  USBx  Selected device
1874:Drivers/STM32H7xx_HAL_Driver/Src/stm32h7xx_ll_usb.c ****   * @param  hc_num  Host Channel number
1875:Drivers/STM32H7xx_HAL_Driver/Src/stm32h7xx_ll_usb.c ****   *         This parameter can be a value from 1 to 15
1876:Drivers/STM32H7xx_HAL_Driver/Src/stm32h7xx_ll_usb.c ****   * @retval HAL state
1877:Drivers/STM32H7xx_HAL_Driver/Src/stm32h7xx_ll_usb.c ****   */
ARM GAS  /tmp/cc0TWTOC.s 			page 127


1878:Drivers/STM32H7xx_HAL_Driver/Src/stm32h7xx_ll_usb.c **** HAL_StatusTypeDef USB_DoPing(USB_OTG_GlobalTypeDef *USBx, uint8_t ch_num)
1879:Drivers/STM32H7xx_HAL_Driver/Src/stm32h7xx_ll_usb.c **** {
 4275              		.loc 1 1879 1 is_stmt 1 view -0
 4276              		.cfi_startproc
 4277              		@ args = 0, pretend = 0, frame = 0
 4278              		@ frame_needed = 0, uses_anonymous_args = 0
 4279              		@ link register save eliminated.
1880:Drivers/STM32H7xx_HAL_Driver/Src/stm32h7xx_ll_usb.c ****   uint32_t USBx_BASE = (uint32_t)USBx;
 4280              		.loc 1 1880 3 view .LVU1312
1881:Drivers/STM32H7xx_HAL_Driver/Src/stm32h7xx_ll_usb.c ****   uint32_t chnum = (uint32_t)ch_num;
 4281              		.loc 1 1881 3 view .LVU1313
1882:Drivers/STM32H7xx_HAL_Driver/Src/stm32h7xx_ll_usb.c ****   uint32_t num_packets = 1U;
 4282              		.loc 1 1882 3 view .LVU1314
1883:Drivers/STM32H7xx_HAL_Driver/Src/stm32h7xx_ll_usb.c ****   uint32_t tmpreg;
 4283              		.loc 1 1883 3 view .LVU1315
1884:Drivers/STM32H7xx_HAL_Driver/Src/stm32h7xx_ll_usb.c **** 
1885:Drivers/STM32H7xx_HAL_Driver/Src/stm32h7xx_ll_usb.c ****   USBx_HC(chnum)->HCTSIZ = ((num_packets << 19) & USB_OTG_HCTSIZ_PKTCNT) |
 4284              		.loc 1 1885 3 view .LVU1316
 4285 0000 00EB4111 		add	r1, r0, r1, lsl #5
 4286              	.LVL343:
 4287              		.loc 1 1885 26 is_stmt 0 view .LVU1317
 4288 0004 064A     		ldr	r2, .L279
 4289 0006 C1F81025 		str	r2, [r1, #1296]
1886:Drivers/STM32H7xx_HAL_Driver/Src/stm32h7xx_ll_usb.c ****                            USB_OTG_HCTSIZ_DOPING;
1887:Drivers/STM32H7xx_HAL_Driver/Src/stm32h7xx_ll_usb.c **** 
1888:Drivers/STM32H7xx_HAL_Driver/Src/stm32h7xx_ll_usb.c ****   /* Set host channel enable */
1889:Drivers/STM32H7xx_HAL_Driver/Src/stm32h7xx_ll_usb.c ****   tmpreg = USBx_HC(chnum)->HCCHAR;
 4290              		.loc 1 1889 3 is_stmt 1 view .LVU1318
 4291              		.loc 1 1889 10 is_stmt 0 view .LVU1319
 4292 000a D1F80035 		ldr	r3, [r1, #1280]
 4293              	.LVL344:
1890:Drivers/STM32H7xx_HAL_Driver/Src/stm32h7xx_ll_usb.c ****   tmpreg &= ~USB_OTG_HCCHAR_CHDIS;
 4294              		.loc 1 1890 3 is_stmt 1 view .LVU1320
 4295              		.loc 1 1890 10 is_stmt 0 view .LVU1321
 4296 000e 23F08043 		bic	r3, r3, #1073741824
 4297              	.LVL345:
1891:Drivers/STM32H7xx_HAL_Driver/Src/stm32h7xx_ll_usb.c ****   tmpreg |= USB_OTG_HCCHAR_CHENA;
 4298              		.loc 1 1891 3 is_stmt 1 view .LVU1322
 4299              		.loc 1 1891 10 is_stmt 0 view .LVU1323
 4300 0012 43F00043 		orr	r3, r3, #-2147483648
 4301              	.LVL346:
1892:Drivers/STM32H7xx_HAL_Driver/Src/stm32h7xx_ll_usb.c ****   USBx_HC(chnum)->HCCHAR = tmpreg;
 4302              		.loc 1 1892 3 is_stmt 1 view .LVU1324
 4303              		.loc 1 1892 26 is_stmt 0 view .LVU1325
 4304 0016 C1F80035 		str	r3, [r1, #1280]
1893:Drivers/STM32H7xx_HAL_Driver/Src/stm32h7xx_ll_usb.c **** 
1894:Drivers/STM32H7xx_HAL_Driver/Src/stm32h7xx_ll_usb.c ****   return HAL_OK;
 4305              		.loc 1 1894 3 is_stmt 1 view .LVU1326
1895:Drivers/STM32H7xx_HAL_Driver/Src/stm32h7xx_ll_usb.c **** }
 4306              		.loc 1 1895 1 is_stmt 0 view .LVU1327
 4307 001a 0020     		movs	r0, #0
 4308              	.LVL347:
 4309              		.loc 1 1895 1 view .LVU1328
 4310 001c 7047     		bx	lr
 4311              	.L280:
 4312 001e 00BF     		.align	2
 4313              	.L279:
ARM GAS  /tmp/cc0TWTOC.s 			page 128


 4314 0020 00000880 		.word	-2146959360
 4315              		.cfi_endproc
 4316              	.LFE185:
 4318              		.section	.text.USB_HC_StartXfer,"ax",%progbits
 4319              		.align	1
 4320              		.global	USB_HC_StartXfer
 4321              		.syntax unified
 4322              		.thumb
 4323              		.thumb_func
 4324              		.fpu fpv5-d16
 4326              	USB_HC_StartXfer:
 4327              	.LVL348:
 4328              	.LFB182:
1672:Drivers/STM32H7xx_HAL_Driver/Src/stm32h7xx_ll_usb.c ****   uint32_t USBx_BASE = (uint32_t)USBx;
 4329              		.loc 1 1672 1 is_stmt 1 view -0
 4330              		.cfi_startproc
 4331              		@ args = 0, pretend = 0, frame = 0
 4332              		@ frame_needed = 0, uses_anonymous_args = 0
1672:Drivers/STM32H7xx_HAL_Driver/Src/stm32h7xx_ll_usb.c ****   uint32_t USBx_BASE = (uint32_t)USBx;
 4333              		.loc 1 1672 1 is_stmt 0 view .LVU1330
 4334 0000 70B5     		push	{r4, r5, r6, lr}
 4335              	.LCFI59:
 4336              		.cfi_def_cfa_offset 16
 4337              		.cfi_offset 4, -16
 4338              		.cfi_offset 5, -12
 4339              		.cfi_offset 6, -8
 4340              		.cfi_offset 14, -4
 4341 0002 82B0     		sub	sp, sp, #8
 4342              	.LCFI60:
 4343              		.cfi_def_cfa_offset 24
1673:Drivers/STM32H7xx_HAL_Driver/Src/stm32h7xx_ll_usb.c ****   uint32_t ch_num = (uint32_t)hc->ch_num;
 4344              		.loc 1 1673 3 is_stmt 1 view .LVU1331
 4345              	.LVL349:
1674:Drivers/STM32H7xx_HAL_Driver/Src/stm32h7xx_ll_usb.c ****   static __IO uint32_t tmpreg = 0U;
 4346              		.loc 1 1674 3 view .LVU1332
1674:Drivers/STM32H7xx_HAL_Driver/Src/stm32h7xx_ll_usb.c ****   static __IO uint32_t tmpreg = 0U;
 4347              		.loc 1 1674 33 is_stmt 0 view .LVU1333
 4348 0004 4C78     		ldrb	r4, [r1, #1]	@ zero_extendqisi2
 4349              	.LVL350:
1675:Drivers/STM32H7xx_HAL_Driver/Src/stm32h7xx_ll_usb.c ****   uint8_t  is_oddframe;
 4350              		.loc 1 1675 3 is_stmt 1 view .LVU1334
1676:Drivers/STM32H7xx_HAL_Driver/Src/stm32h7xx_ll_usb.c ****   uint16_t len_words;
 4351              		.loc 1 1676 3 view .LVU1335
1677:Drivers/STM32H7xx_HAL_Driver/Src/stm32h7xx_ll_usb.c ****   uint16_t num_packets;
 4352              		.loc 1 1677 3 view .LVU1336
1678:Drivers/STM32H7xx_HAL_Driver/Src/stm32h7xx_ll_usb.c ****   uint16_t max_hc_pkt_count = 256U;
 4353              		.loc 1 1678 3 view .LVU1337
1679:Drivers/STM32H7xx_HAL_Driver/Src/stm32h7xx_ll_usb.c **** 
 4354              		.loc 1 1679 3 view .LVU1338
1681:Drivers/STM32H7xx_HAL_Driver/Src/stm32h7xx_ll_usb.c ****   {
 4355              		.loc 1 1681 3 view .LVU1339
1681:Drivers/STM32H7xx_HAL_Driver/Src/stm32h7xx_ll_usb.c ****   {
 4356              		.loc 1 1681 13 is_stmt 0 view .LVU1340
 4357 0006 C36B     		ldr	r3, [r0, #60]
1681:Drivers/STM32H7xx_HAL_Driver/Src/stm32h7xx_ll_usb.c ****   {
 4358              		.loc 1 1681 6 view .LVU1341
 4359 0008 13F4807F 		tst	r3, #256
ARM GAS  /tmp/cc0TWTOC.s 			page 129


 4360 000c 07D0     		beq	.L282
1681:Drivers/STM32H7xx_HAL_Driver/Src/stm32h7xx_ll_usb.c ****   {
 4361              		.loc 1 1681 47 discriminator 1 view .LVU1342
 4362 000e 0B79     		ldrb	r3, [r1, #4]	@ zero_extendqisi2
1681:Drivers/STM32H7xx_HAL_Driver/Src/stm32h7xx_ll_usb.c ****   {
 4363              		.loc 1 1681 41 discriminator 1 view .LVU1343
 4364 0010 2BB9     		cbnz	r3, .L282
1683:Drivers/STM32H7xx_HAL_Driver/Src/stm32h7xx_ll_usb.c ****     {
 4365              		.loc 1 1683 5 is_stmt 1 view .LVU1344
1683:Drivers/STM32H7xx_HAL_Driver/Src/stm32h7xx_ll_usb.c ****     {
 4366              		.loc 1 1683 8 is_stmt 0 view .LVU1345
 4367 0012 12B9     		cbnz	r2, .L283
1683:Drivers/STM32H7xx_HAL_Driver/Src/stm32h7xx_ll_usb.c ****     {
 4368              		.loc 1 1683 27 discriminator 1 view .LVU1346
 4369 0014 4B79     		ldrb	r3, [r1, #5]	@ zero_extendqisi2
1683:Drivers/STM32H7xx_HAL_Driver/Src/stm32h7xx_ll_usb.c ****     {
 4370              		.loc 1 1683 21 discriminator 1 view .LVU1347
 4371 0016 012B     		cmp	r3, #1
 4372 0018 11D0     		beq	.L296
 4373              	.L283:
1688:Drivers/STM32H7xx_HAL_Driver/Src/stm32h7xx_ll_usb.c ****     {
 4374              		.loc 1 1688 10 is_stmt 1 view .LVU1348
1688:Drivers/STM32H7xx_HAL_Driver/Src/stm32h7xx_ll_usb.c ****     {
 4375              		.loc 1 1688 13 is_stmt 0 view .LVU1349
 4376 001a 012A     		cmp	r2, #1
 4377 001c 13D0     		beq	.L297
 4378              	.L282:
1696:Drivers/STM32H7xx_HAL_Driver/Src/stm32h7xx_ll_usb.c ****   }
 4379              		.loc 1 1696 5 is_stmt 1 view .LVU1350
1700:Drivers/STM32H7xx_HAL_Driver/Src/stm32h7xx_ll_usb.c ****   {
 4380              		.loc 1 1700 3 view .LVU1351
1700:Drivers/STM32H7xx_HAL_Driver/Src/stm32h7xx_ll_usb.c ****   {
 4381              		.loc 1 1700 9 is_stmt 0 view .LVU1352
 4382 001e 0B69     		ldr	r3, [r1, #16]
1700:Drivers/STM32H7xx_HAL_Driver/Src/stm32h7xx_ll_usb.c ****   {
 4383              		.loc 1 1700 6 view .LVU1353
 4384 0020 E3B1     		cbz	r3, .L294
1702:Drivers/STM32H7xx_HAL_Driver/Src/stm32h7xx_ll_usb.c **** 
 4385              		.loc 1 1702 5 is_stmt 1 view .LVU1354
1702:Drivers/STM32H7xx_HAL_Driver/Src/stm32h7xx_ll_usb.c **** 
 4386              		.loc 1 1702 48 is_stmt 0 view .LVU1355
 4387 0022 0D89     		ldrh	r5, [r1, #8]
1702:Drivers/STM32H7xx_HAL_Driver/Src/stm32h7xx_ll_usb.c **** 
 4388              		.loc 1 1702 44 view .LVU1356
 4389 0024 2B44     		add	r3, r3, r5
1702:Drivers/STM32H7xx_HAL_Driver/Src/stm32h7xx_ll_usb.c **** 
 4390              		.loc 1 1702 61 view .LVU1357
 4391 0026 013B     		subs	r3, r3, #1
1702:Drivers/STM32H7xx_HAL_Driver/Src/stm32h7xx_ll_usb.c **** 
 4392              		.loc 1 1702 67 view .LVU1358
 4393 0028 B3FBF5F3 		udiv	r3, r3, r5
1702:Drivers/STM32H7xx_HAL_Driver/Src/stm32h7xx_ll_usb.c **** 
 4394              		.loc 1 1702 17 view .LVU1359
 4395 002c 9BB2     		uxth	r3, r3
 4396              	.LVL351:
1704:Drivers/STM32H7xx_HAL_Driver/Src/stm32h7xx_ll_usb.c ****     {
 4397              		.loc 1 1704 5 is_stmt 1 view .LVU1360
ARM GAS  /tmp/cc0TWTOC.s 			page 130


1704:Drivers/STM32H7xx_HAL_Driver/Src/stm32h7xx_ll_usb.c ****     {
 4398              		.loc 1 1704 8 is_stmt 0 view .LVU1361
 4399 002e B3F5807F 		cmp	r3, #256
 4400 0032 14D9     		bls	.L285
1706:Drivers/STM32H7xx_HAL_Driver/Src/stm32h7xx_ll_usb.c ****       hc->xfer_len = (uint32_t)num_packets * hc->max_packet;
 4401              		.loc 1 1706 7 is_stmt 1 view .LVU1362
 4402              	.LVL352:
1707:Drivers/STM32H7xx_HAL_Driver/Src/stm32h7xx_ll_usb.c ****     }
 4403              		.loc 1 1707 7 view .LVU1363
1707:Drivers/STM32H7xx_HAL_Driver/Src/stm32h7xx_ll_usb.c ****     }
 4404              		.loc 1 1707 44 is_stmt 0 view .LVU1364
 4405 0034 2D02     		lsls	r5, r5, #8
1707:Drivers/STM32H7xx_HAL_Driver/Src/stm32h7xx_ll_usb.c ****     }
 4406              		.loc 1 1707 20 view .LVU1365
 4407 0036 0D61     		str	r5, [r1, #16]
1706:Drivers/STM32H7xx_HAL_Driver/Src/stm32h7xx_ll_usb.c ****       hc->xfer_len = (uint32_t)num_packets * hc->max_packet;
 4408              		.loc 1 1706 19 view .LVU1366
 4409 0038 4FF48073 		mov	r3, #256
 4410 003c 0FE0     		b	.L285
 4411              	.LVL353:
 4412              	.L296:
1685:Drivers/STM32H7xx_HAL_Driver/Src/stm32h7xx_ll_usb.c ****       return HAL_OK;
 4413              		.loc 1 1685 7 is_stmt 1 view .LVU1367
1685:Drivers/STM32H7xx_HAL_Driver/Src/stm32h7xx_ll_usb.c ****       return HAL_OK;
 4414              		.loc 1 1685 13 is_stmt 0 view .LVU1368
 4415 003e 2146     		mov	r1, r4
 4416              	.LVL354:
1685:Drivers/STM32H7xx_HAL_Driver/Src/stm32h7xx_ll_usb.c ****       return HAL_OK;
 4417              		.loc 1 1685 13 view .LVU1369
 4418 0040 FFF7FEFF 		bl	USB_DoPing
 4419              	.LVL355:
1686:Drivers/STM32H7xx_HAL_Driver/Src/stm32h7xx_ll_usb.c ****     }
 4420              		.loc 1 1686 7 is_stmt 1 view .LVU1370
1686:Drivers/STM32H7xx_HAL_Driver/Src/stm32h7xx_ll_usb.c ****     }
 4421              		.loc 1 1686 14 is_stmt 0 view .LVU1371
 4422 0044 74E0     		b	.L284
 4423              	.LVL356:
 4424              	.L297:
1690:Drivers/STM32H7xx_HAL_Driver/Src/stm32h7xx_ll_usb.c ****       hc->do_ping = 0U;
 4425              		.loc 1 1690 7 is_stmt 1 view .LVU1372
1690:Drivers/STM32H7xx_HAL_Driver/Src/stm32h7xx_ll_usb.c ****       hc->do_ping = 0U;
 4426              		.loc 1 1690 33 is_stmt 0 view .LVU1373
 4427 0046 00EB4413 		add	r3, r0, r4, lsl #5
 4428 004a D3F80C55 		ldr	r5, [r3, #1292]
 4429 004e 25F06005 		bic	r5, r5, #96
 4430 0052 C3F80C55 		str	r5, [r3, #1292]
1691:Drivers/STM32H7xx_HAL_Driver/Src/stm32h7xx_ll_usb.c ****     }
 4431              		.loc 1 1691 7 is_stmt 1 view .LVU1374
1691:Drivers/STM32H7xx_HAL_Driver/Src/stm32h7xx_ll_usb.c ****     }
 4432              		.loc 1 1691 19 is_stmt 0 view .LVU1375
 4433 0056 0023     		movs	r3, #0
 4434 0058 4B71     		strb	r3, [r1, #5]
 4435 005a E0E7     		b	.L282
 4436              	.L294:
1712:Drivers/STM32H7xx_HAL_Driver/Src/stm32h7xx_ll_usb.c ****   }
 4437              		.loc 1 1712 17 view .LVU1376
 4438 005c 0123     		movs	r3, #1
ARM GAS  /tmp/cc0TWTOC.s 			page 131


 4439              	.L285:
 4440              	.LVL357:
1714:Drivers/STM32H7xx_HAL_Driver/Src/stm32h7xx_ll_usb.c ****   {
 4441              		.loc 1 1714 3 is_stmt 1 view .LVU1377
1714:Drivers/STM32H7xx_HAL_Driver/Src/stm32h7xx_ll_usb.c ****   {
 4442              		.loc 1 1714 9 is_stmt 0 view .LVU1378
 4443 005e CD78     		ldrb	r5, [r1, #3]	@ zero_extendqisi2
1714:Drivers/STM32H7xx_HAL_Driver/Src/stm32h7xx_ll_usb.c ****   {
 4444              		.loc 1 1714 6 view .LVU1379
 4445 0060 1DB1     		cbz	r5, .L286
1716:Drivers/STM32H7xx_HAL_Driver/Src/stm32h7xx_ll_usb.c ****   }
 4446              		.loc 1 1716 5 is_stmt 1 view .LVU1380
1716:Drivers/STM32H7xx_HAL_Driver/Src/stm32h7xx_ll_usb.c ****   }
 4447              		.loc 1 1716 46 is_stmt 0 view .LVU1381
 4448 0062 0D89     		ldrh	r5, [r1, #8]
1716:Drivers/STM32H7xx_HAL_Driver/Src/stm32h7xx_ll_usb.c ****   }
 4449              		.loc 1 1716 42 view .LVU1382
 4450 0064 05FB03F5 		mul	r5, r5, r3
1716:Drivers/STM32H7xx_HAL_Driver/Src/stm32h7xx_ll_usb.c ****   }
 4451              		.loc 1 1716 18 view .LVU1383
 4452 0068 0D61     		str	r5, [r1, #16]
 4453              	.L286:
1720:Drivers/STM32H7xx_HAL_Driver/Src/stm32h7xx_ll_usb.c ****                             (((uint32_t)num_packets << 19) & USB_OTG_HCTSIZ_PKTCNT) |
 4454              		.loc 1 1720 3 is_stmt 1 view .LVU1384
1720:Drivers/STM32H7xx_HAL_Driver/Src/stm32h7xx_ll_usb.c ****                             (((uint32_t)num_packets << 19) & USB_OTG_HCTSIZ_PKTCNT) |
 4455              		.loc 1 1720 32 is_stmt 0 view .LVU1385
 4456 006a 0D69     		ldr	r5, [r1, #16]
1720:Drivers/STM32H7xx_HAL_Driver/Src/stm32h7xx_ll_usb.c ****                             (((uint32_t)num_packets << 19) & USB_OTG_HCTSIZ_PKTCNT) |
 4457              		.loc 1 1720 43 view .LVU1386
 4458 006c C5F31205 		ubfx	r5, r5, #0, #19
1721:Drivers/STM32H7xx_HAL_Driver/Src/stm32h7xx_ll_usb.c ****                             (((uint32_t)hc->data_pid << 29) & USB_OTG_HCTSIZ_DPID);
 4459              		.loc 1 1721 60 view .LVU1387
 4460 0070 374E     		ldr	r6, .L298
 4461 0072 06EAC343 		and	r3, r6, r3, lsl #19
 4462              	.LVL358:
1720:Drivers/STM32H7xx_HAL_Driver/Src/stm32h7xx_ll_usb.c ****                             (((uint32_t)num_packets << 19) & USB_OTG_HCTSIZ_PKTCNT) |
 4463              		.loc 1 1720 68 view .LVU1388
 4464 0076 1D43     		orrs	r5, r5, r3
1722:Drivers/STM32H7xx_HAL_Driver/Src/stm32h7xx_ll_usb.c **** 
 4465              		.loc 1 1722 43 view .LVU1389
 4466 0078 8B7A     		ldrb	r3, [r1, #10]	@ zero_extendqisi2
1722:Drivers/STM32H7xx_HAL_Driver/Src/stm32h7xx_ll_usb.c **** 
 4467              		.loc 1 1722 54 view .LVU1390
 4468 007a 5B07     		lsls	r3, r3, #29
1722:Drivers/STM32H7xx_HAL_Driver/Src/stm32h7xx_ll_usb.c **** 
 4469              		.loc 1 1722 61 view .LVU1391
 4470 007c 03F0C043 		and	r3, r3, #1610612736
1720:Drivers/STM32H7xx_HAL_Driver/Src/stm32h7xx_ll_usb.c ****                             (((uint32_t)num_packets << 19) & USB_OTG_HCTSIZ_PKTCNT) |
 4471              		.loc 1 1720 3 view .LVU1392
 4472 0080 00EB4414 		add	r4, r0, r4, lsl #5
 4473              	.LVL359:
1721:Drivers/STM32H7xx_HAL_Driver/Src/stm32h7xx_ll_usb.c ****                             (((uint32_t)hc->data_pid << 29) & USB_OTG_HCTSIZ_DPID);
 4474              		.loc 1 1721 85 view .LVU1393
 4475 0084 1D43     		orrs	r5, r5, r3
1720:Drivers/STM32H7xx_HAL_Driver/Src/stm32h7xx_ll_usb.c ****                             (((uint32_t)num_packets << 19) & USB_OTG_HCTSIZ_PKTCNT) |
 4476              		.loc 1 1720 27 view .LVU1394
 4477 0086 C4F81055 		str	r5, [r4, #1296]
ARM GAS  /tmp/cc0TWTOC.s 			page 132


1724:Drivers/STM32H7xx_HAL_Driver/Src/stm32h7xx_ll_usb.c ****   {
 4478              		.loc 1 1724 3 is_stmt 1 view .LVU1395
1724:Drivers/STM32H7xx_HAL_Driver/Src/stm32h7xx_ll_usb.c ****   {
 4479              		.loc 1 1724 6 is_stmt 0 view .LVU1396
 4480 008a 12B1     		cbz	r2, .L287
1727:Drivers/STM32H7xx_HAL_Driver/Src/stm32h7xx_ll_usb.c ****   }
 4481              		.loc 1 1727 5 is_stmt 1 view .LVU1397
1727:Drivers/STM32H7xx_HAL_Driver/Src/stm32h7xx_ll_usb.c ****   }
 4482              		.loc 1 1727 42 is_stmt 0 view .LVU1398
 4483 008c CB68     		ldr	r3, [r1, #12]
1727:Drivers/STM32H7xx_HAL_Driver/Src/stm32h7xx_ll_usb.c ****   }
 4484              		.loc 1 1727 28 view .LVU1399
 4485 008e C4F81435 		str	r3, [r4, #1300]
 4486              	.L287:
1730:Drivers/STM32H7xx_HAL_Driver/Src/stm32h7xx_ll_usb.c ****   USBx_HC(ch_num)->HCCHAR &= ~USB_OTG_HCCHAR_ODDFRM;
 4487              		.loc 1 1730 3 is_stmt 1 view .LVU1400
1730:Drivers/STM32H7xx_HAL_Driver/Src/stm32h7xx_ll_usb.c ****   USBx_HC(ch_num)->HCCHAR &= ~USB_OTG_HCCHAR_ODDFRM;
 4488              		.loc 1 1730 29 is_stmt 0 view .LVU1401
 4489 0092 00F58066 		add	r6, r0, #1024
1730:Drivers/STM32H7xx_HAL_Driver/Src/stm32h7xx_ll_usb.c ****   USBx_HC(ch_num)->HCCHAR &= ~USB_OTG_HCCHAR_ODDFRM;
 4490              		.loc 1 1730 38 view .LVU1402
 4491 0096 B368     		ldr	r3, [r6, #8]
1730:Drivers/STM32H7xx_HAL_Driver/Src/stm32h7xx_ll_usb.c ****   USBx_HC(ch_num)->HCCHAR &= ~USB_OTG_HCCHAR_ODDFRM;
 4492              		.loc 1 1730 67 view .LVU1403
 4493 0098 13F0010F 		tst	r3, #1
 4494              	.LVL360:
1731:Drivers/STM32H7xx_HAL_Driver/Src/stm32h7xx_ll_usb.c ****   USBx_HC(ch_num)->HCCHAR |= (uint32_t)is_oddframe << 29;
 4495              		.loc 1 1731 3 is_stmt 1 view .LVU1404
1731:Drivers/STM32H7xx_HAL_Driver/Src/stm32h7xx_ll_usb.c ****   USBx_HC(ch_num)->HCCHAR |= (uint32_t)is_oddframe << 29;
 4496              		.loc 1 1731 27 is_stmt 0 view .LVU1405
 4497 009c D4F80035 		ldr	r3, [r4, #1280]
 4498 00a0 23F00053 		bic	r3, r3, #536870912
 4499 00a4 C4F80035 		str	r3, [r4, #1280]
1732:Drivers/STM32H7xx_HAL_Driver/Src/stm32h7xx_ll_usb.c **** 
 4500              		.loc 1 1732 3 is_stmt 1 view .LVU1406
1732:Drivers/STM32H7xx_HAL_Driver/Src/stm32h7xx_ll_usb.c **** 
 4501              		.loc 1 1732 27 is_stmt 0 view .LVU1407
 4502 00a8 D4F80035 		ldr	r3, [r4, #1280]
1732:Drivers/STM32H7xx_HAL_Driver/Src/stm32h7xx_ll_usb.c **** 
 4503              		.loc 1 1732 52 view .LVU1408
 4504 00ac 0CBF     		ite	eq
 4505 00ae 4FF00055 		moveq	r5, #536870912
 4506 00b2 0025     		movne	r5, #0
1732:Drivers/STM32H7xx_HAL_Driver/Src/stm32h7xx_ll_usb.c **** 
 4507              		.loc 1 1732 27 view .LVU1409
 4508 00b4 2B43     		orrs	r3, r3, r5
 4509 00b6 C4F80035 		str	r3, [r4, #1280]
1735:Drivers/STM32H7xx_HAL_Driver/Src/stm32h7xx_ll_usb.c ****   tmpreg &= ~USB_OTG_HCCHAR_CHDIS;
 4510              		.loc 1 1735 3 is_stmt 1 view .LVU1410
1735:Drivers/STM32H7xx_HAL_Driver/Src/stm32h7xx_ll_usb.c ****   tmpreg &= ~USB_OTG_HCCHAR_CHDIS;
 4511              		.loc 1 1735 27 is_stmt 0 view .LVU1411
 4512 00ba D4F80055 		ldr	r5, [r4, #1280]
1735:Drivers/STM32H7xx_HAL_Driver/Src/stm32h7xx_ll_usb.c ****   tmpreg &= ~USB_OTG_HCCHAR_CHDIS;
 4513              		.loc 1 1735 10 view .LVU1412
 4514 00be 254B     		ldr	r3, .L298+4
 4515 00c0 1D60     		str	r5, [r3]
1736:Drivers/STM32H7xx_HAL_Driver/Src/stm32h7xx_ll_usb.c **** 
ARM GAS  /tmp/cc0TWTOC.s 			page 133


 4516              		.loc 1 1736 3 is_stmt 1 view .LVU1413
1736:Drivers/STM32H7xx_HAL_Driver/Src/stm32h7xx_ll_usb.c **** 
 4517              		.loc 1 1736 10 is_stmt 0 view .LVU1414
 4518 00c2 1D68     		ldr	r5, [r3]
 4519 00c4 25F08045 		bic	r5, r5, #1073741824
 4520 00c8 1D60     		str	r5, [r3]
1739:Drivers/STM32H7xx_HAL_Driver/Src/stm32h7xx_ll_usb.c ****   {
 4521              		.loc 1 1739 3 is_stmt 1 view .LVU1415
1739:Drivers/STM32H7xx_HAL_Driver/Src/stm32h7xx_ll_usb.c ****   {
 4522              		.loc 1 1739 9 is_stmt 0 view .LVU1416
 4523 00ca CB78     		ldrb	r3, [r1, #3]	@ zero_extendqisi2
1739:Drivers/STM32H7xx_HAL_Driver/Src/stm32h7xx_ll_usb.c ****   {
 4524              		.loc 1 1739 6 view .LVU1417
 4525 00cc C3B1     		cbz	r3, .L288
 4526              	.LVL361:
1741:Drivers/STM32H7xx_HAL_Driver/Src/stm32h7xx_ll_usb.c ****   }
 4527              		.loc 1 1741 5 is_stmt 1 view .LVU1418
1741:Drivers/STM32H7xx_HAL_Driver/Src/stm32h7xx_ll_usb.c ****   }
 4528              		.loc 1 1741 12 is_stmt 0 view .LVU1419
 4529 00ce 214D     		ldr	r5, .L298+4
 4530 00d0 2B68     		ldr	r3, [r5]
 4531 00d2 43F40043 		orr	r3, r3, #32768
 4532 00d6 2B60     		str	r3, [r5]
 4533              	.L289:
1747:Drivers/STM32H7xx_HAL_Driver/Src/stm32h7xx_ll_usb.c ****   USBx_HC(ch_num)->HCCHAR = tmpreg;
 4534              		.loc 1 1747 3 is_stmt 1 view .LVU1420
1747:Drivers/STM32H7xx_HAL_Driver/Src/stm32h7xx_ll_usb.c ****   USBx_HC(ch_num)->HCCHAR = tmpreg;
 4535              		.loc 1 1747 10 is_stmt 0 view .LVU1421
 4536 00d8 1E4B     		ldr	r3, .L298+4
 4537 00da 1D68     		ldr	r5, [r3]
 4538 00dc 45F00045 		orr	r5, r5, #-2147483648
 4539 00e0 1D60     		str	r5, [r3]
1748:Drivers/STM32H7xx_HAL_Driver/Src/stm32h7xx_ll_usb.c **** 
 4540              		.loc 1 1748 3 is_stmt 1 view .LVU1422
1748:Drivers/STM32H7xx_HAL_Driver/Src/stm32h7xx_ll_usb.c **** 
 4541              		.loc 1 1748 27 is_stmt 0 view .LVU1423
 4542 00e2 1B68     		ldr	r3, [r3]
 4543 00e4 C4F80035 		str	r3, [r4, #1280]
1750:Drivers/STM32H7xx_HAL_Driver/Src/stm32h7xx_ll_usb.c ****   {
 4544              		.loc 1 1750 3 is_stmt 1 view .LVU1424
1750:Drivers/STM32H7xx_HAL_Driver/Src/stm32h7xx_ll_usb.c ****   {
 4545              		.loc 1 1750 6 is_stmt 0 view .LVU1425
 4546 00e8 12BB     		cbnz	r2, .L284
1752:Drivers/STM32H7xx_HAL_Driver/Src/stm32h7xx_ll_usb.c ****     {
 4547              		.loc 1 1752 5 is_stmt 1 view .LVU1426
1752:Drivers/STM32H7xx_HAL_Driver/Src/stm32h7xx_ll_usb.c ****     {
 4548              		.loc 1 1752 12 is_stmt 0 view .LVU1427
 4549 00ea CB78     		ldrb	r3, [r1, #3]	@ zero_extendqisi2
1752:Drivers/STM32H7xx_HAL_Driver/Src/stm32h7xx_ll_usb.c ****     {
 4550              		.loc 1 1752 8 view .LVU1428
 4551 00ec 03BB     		cbnz	r3, .L284
1752:Drivers/STM32H7xx_HAL_Driver/Src/stm32h7xx_ll_usb.c ****     {
 4552              		.loc 1 1752 36 discriminator 1 view .LVU1429
 4553 00ee 0B69     		ldr	r3, [r1, #16]
1752:Drivers/STM32H7xx_HAL_Driver/Src/stm32h7xx_ll_usb.c ****     {
 4554              		.loc 1 1752 30 discriminator 1 view .LVU1430
 4555 00f0 F3B1     		cbz	r3, .L284
ARM GAS  /tmp/cc0TWTOC.s 			page 134


1754:Drivers/STM32H7xx_HAL_Driver/Src/stm32h7xx_ll_usb.c ****       {
 4556              		.loc 1 1754 7 is_stmt 1 view .LVU1431
1754:Drivers/STM32H7xx_HAL_Driver/Src/stm32h7xx_ll_usb.c ****       {
 4557              		.loc 1 1754 17 is_stmt 0 view .LVU1432
 4558 00f2 CA79     		ldrb	r2, [r1, #7]	@ zero_extendqisi2
 4559              	.LVL362:
1754:Drivers/STM32H7xx_HAL_Driver/Src/stm32h7xx_ll_usb.c ****       {
 4560              		.loc 1 1754 17 view .LVU1433
 4561 00f4 032A     		cmp	r2, #3
 4562 00f6 14D8     		bhi	.L290
 4563 00f8 DFE802F0 		tbb	[pc, r2]
 4564              	.L292:
 4565 00fc 08       		.byte	(.L293-.L292)/2
 4566 00fd 1D       		.byte	(.L291-.L292)/2
 4567 00fe 08       		.byte	(.L293-.L292)/2
 4568 00ff 1D       		.byte	(.L291-.L292)/2
 4569              	.LVL363:
 4570              		.p2align 1
 4571              	.L288:
1745:Drivers/STM32H7xx_HAL_Driver/Src/stm32h7xx_ll_usb.c ****   }
 4572              		.loc 1 1745 5 is_stmt 1 view .LVU1434
1745:Drivers/STM32H7xx_HAL_Driver/Src/stm32h7xx_ll_usb.c ****   }
 4573              		.loc 1 1745 12 is_stmt 0 view .LVU1435
 4574 0100 144D     		ldr	r5, .L298+4
 4575 0102 2B68     		ldr	r3, [r5]
 4576 0104 23F40043 		bic	r3, r3, #32768
 4577 0108 2B60     		str	r3, [r5]
 4578 010a E5E7     		b	.L289
 4579              	.LVL364:
 4580              	.L293:
1760:Drivers/STM32H7xx_HAL_Driver/Src/stm32h7xx_ll_usb.c **** 
 4581              		.loc 1 1760 11 is_stmt 1 view .LVU1436
1760:Drivers/STM32H7xx_HAL_Driver/Src/stm32h7xx_ll_usb.c **** 
 4582              		.loc 1 1760 48 is_stmt 0 view .LVU1437
 4583 010c 0333     		adds	r3, r3, #3
 4584              	.LVL365:
1763:Drivers/STM32H7xx_HAL_Driver/Src/stm32h7xx_ll_usb.c ****           {
 4585              		.loc 1 1763 11 is_stmt 1 view .LVU1438
1763:Drivers/STM32H7xx_HAL_Driver/Src/stm32h7xx_ll_usb.c ****           {
 4586              		.loc 1 1763 32 is_stmt 0 view .LVU1439
 4587 010e C26A     		ldr	r2, [r0, #44]
1763:Drivers/STM32H7xx_HAL_Driver/Src/stm32h7xx_ll_usb.c ****           {
 4588              		.loc 1 1763 43 view .LVU1440
 4589 0110 92B2     		uxth	r2, r2
1763:Drivers/STM32H7xx_HAL_Driver/Src/stm32h7xx_ll_usb.c ****           {
 4590              		.loc 1 1763 14 view .LVU1441
 4591 0112 C3F38F03 		ubfx	r3, r3, #2, #16
 4592              	.LVL366:
1763:Drivers/STM32H7xx_HAL_Driver/Src/stm32h7xx_ll_usb.c ****           {
 4593              		.loc 1 1763 14 view .LVU1442
 4594 0116 9A42     		cmp	r2, r3
 4595 0118 03D2     		bcs	.L290
1766:Drivers/STM32H7xx_HAL_Driver/Src/stm32h7xx_ll_usb.c ****           }
 4596              		.loc 1 1766 13 is_stmt 1 view .LVU1443
1766:Drivers/STM32H7xx_HAL_Driver/Src/stm32h7xx_ll_usb.c ****           }
 4597              		.loc 1 1766 27 is_stmt 0 view .LVU1444
 4598 011a 8369     		ldr	r3, [r0, #24]
ARM GAS  /tmp/cc0TWTOC.s 			page 135


 4599 011c 43F02003 		orr	r3, r3, #32
 4600 0120 8361     		str	r3, [r0, #24]
 4601              	.LVL367:
 4602              	.L290:
1787:Drivers/STM32H7xx_HAL_Driver/Src/stm32h7xx_ll_usb.c ****     }
 4603              		.loc 1 1787 7 is_stmt 1 view .LVU1445
1787:Drivers/STM32H7xx_HAL_Driver/Src/stm32h7xx_ll_usb.c ****     }
 4604              		.loc 1 1787 13 is_stmt 0 view .LVU1446
 4605 0122 0023     		movs	r3, #0
 4606 0124 0093     		str	r3, [sp]
 4607 0126 0B8A     		ldrh	r3, [r1, #16]
 4608 0128 4A78     		ldrb	r2, [r1, #1]	@ zero_extendqisi2
 4609 012a C968     		ldr	r1, [r1, #12]
 4610              	.LVL368:
1787:Drivers/STM32H7xx_HAL_Driver/Src/stm32h7xx_ll_usb.c ****     }
 4611              		.loc 1 1787 13 view .LVU1447
 4612 012c FFF7FEFF 		bl	USB_WritePacket
 4613              	.LVL369:
 4614              	.L284:
1792:Drivers/STM32H7xx_HAL_Driver/Src/stm32h7xx_ll_usb.c **** 
 4615              		.loc 1 1792 1 view .LVU1448
 4616 0130 0020     		movs	r0, #0
 4617 0132 02B0     		add	sp, sp, #8
 4618              	.LCFI61:
 4619              		.cfi_remember_state
 4620              		.cfi_def_cfa_offset 16
 4621              		@ sp needed
 4622 0134 70BD     		pop	{r4, r5, r6, pc}
 4623              	.LVL370:
 4624              	.L291:
 4625              	.LCFI62:
 4626              		.cfi_restore_state
1773:Drivers/STM32H7xx_HAL_Driver/Src/stm32h7xx_ll_usb.c ****           /* check if there is enough space in FIFO space */
 4627              		.loc 1 1773 11 is_stmt 1 view .LVU1449
1773:Drivers/STM32H7xx_HAL_Driver/Src/stm32h7xx_ll_usb.c ****           /* check if there is enough space in FIFO space */
 4628              		.loc 1 1773 48 is_stmt 0 view .LVU1450
 4629 0136 0333     		adds	r3, r3, #3
 4630              	.LVL371:
1775:Drivers/STM32H7xx_HAL_Driver/Src/stm32h7xx_ll_usb.c ****           {
 4631              		.loc 1 1775 11 is_stmt 1 view .LVU1451
1775:Drivers/STM32H7xx_HAL_Driver/Src/stm32h7xx_ll_usb.c ****           {
 4632              		.loc 1 1775 37 is_stmt 0 view .LVU1452
 4633 0138 3269     		ldr	r2, [r6, #16]
1775:Drivers/STM32H7xx_HAL_Driver/Src/stm32h7xx_ll_usb.c ****           {
 4634              		.loc 1 1775 47 view .LVU1453
 4635 013a 92B2     		uxth	r2, r2
1775:Drivers/STM32H7xx_HAL_Driver/Src/stm32h7xx_ll_usb.c ****           {
 4636              		.loc 1 1775 14 view .LVU1454
 4637 013c C3F38F03 		ubfx	r3, r3, #2, #16
 4638              	.LVL372:
1775:Drivers/STM32H7xx_HAL_Driver/Src/stm32h7xx_ll_usb.c ****           {
 4639              		.loc 1 1775 14 view .LVU1455
 4640 0140 9A42     		cmp	r2, r3
 4641 0142 EED2     		bcs	.L290
1778:Drivers/STM32H7xx_HAL_Driver/Src/stm32h7xx_ll_usb.c ****           }
 4642              		.loc 1 1778 13 is_stmt 1 view .LVU1456
1778:Drivers/STM32H7xx_HAL_Driver/Src/stm32h7xx_ll_usb.c ****           }
ARM GAS  /tmp/cc0TWTOC.s 			page 136


 4643              		.loc 1 1778 27 is_stmt 0 view .LVU1457
 4644 0144 8369     		ldr	r3, [r0, #24]
 4645 0146 43F08063 		orr	r3, r3, #67108864
 4646 014a 8361     		str	r3, [r0, #24]
 4647              	.LVL373:
1778:Drivers/STM32H7xx_HAL_Driver/Src/stm32h7xx_ll_usb.c ****           }
 4648              		.loc 1 1778 27 view .LVU1458
 4649 014c E9E7     		b	.L290
 4650              	.L299:
 4651 014e 00BF     		.align	2
 4652              	.L298:
 4653 0150 0000F81F 		.word	536346624
 4654 0154 00000000 		.word	.LANCHOR0
 4655              		.cfi_endproc
 4656              	.LFE182:
 4658              		.section	.text.USB_StopHost,"ax",%progbits
 4659              		.align	1
 4660              		.global	USB_StopHost
 4661              		.syntax unified
 4662              		.thumb
 4663              		.thumb_func
 4664              		.fpu fpv5-d16
 4666              	USB_StopHost:
 4667              	.LVL374:
 4668              	.LFB186:
1896:Drivers/STM32H7xx_HAL_Driver/Src/stm32h7xx_ll_usb.c **** 
1897:Drivers/STM32H7xx_HAL_Driver/Src/stm32h7xx_ll_usb.c **** /**
1898:Drivers/STM32H7xx_HAL_Driver/Src/stm32h7xx_ll_usb.c ****   * @brief  Stop Host Core
1899:Drivers/STM32H7xx_HAL_Driver/Src/stm32h7xx_ll_usb.c ****   * @param  USBx  Selected device
1900:Drivers/STM32H7xx_HAL_Driver/Src/stm32h7xx_ll_usb.c ****   * @retval HAL state
1901:Drivers/STM32H7xx_HAL_Driver/Src/stm32h7xx_ll_usb.c ****   */
1902:Drivers/STM32H7xx_HAL_Driver/Src/stm32h7xx_ll_usb.c **** HAL_StatusTypeDef USB_StopHost(USB_OTG_GlobalTypeDef *USBx)
1903:Drivers/STM32H7xx_HAL_Driver/Src/stm32h7xx_ll_usb.c **** {
 4669              		.loc 1 1903 1 is_stmt 1 view -0
 4670              		.cfi_startproc
 4671              		@ args = 0, pretend = 0, frame = 0
 4672              		@ frame_needed = 0, uses_anonymous_args = 0
 4673              		.loc 1 1903 1 is_stmt 0 view .LVU1460
 4674 0000 70B5     		push	{r4, r5, r6, lr}
 4675              	.LCFI63:
 4676              		.cfi_def_cfa_offset 16
 4677              		.cfi_offset 4, -16
 4678              		.cfi_offset 5, -12
 4679              		.cfi_offset 6, -8
 4680              		.cfi_offset 14, -4
 4681 0002 0546     		mov	r5, r0
1904:Drivers/STM32H7xx_HAL_Driver/Src/stm32h7xx_ll_usb.c ****   uint32_t USBx_BASE = (uint32_t)USBx;
 4682              		.loc 1 1904 3 is_stmt 1 view .LVU1461
 4683              		.loc 1 1904 12 is_stmt 0 view .LVU1462
 4684 0004 0446     		mov	r4, r0
 4685              	.LVL375:
1905:Drivers/STM32H7xx_HAL_Driver/Src/stm32h7xx_ll_usb.c ****   uint32_t count = 0U;
 4686              		.loc 1 1905 3 is_stmt 1 view .LVU1463
1906:Drivers/STM32H7xx_HAL_Driver/Src/stm32h7xx_ll_usb.c ****   uint32_t value;
 4687              		.loc 1 1906 3 view .LVU1464
1907:Drivers/STM32H7xx_HAL_Driver/Src/stm32h7xx_ll_usb.c ****   uint32_t i;
 4688              		.loc 1 1907 3 view .LVU1465
ARM GAS  /tmp/cc0TWTOC.s 			page 137


1908:Drivers/STM32H7xx_HAL_Driver/Src/stm32h7xx_ll_usb.c **** 
1909:Drivers/STM32H7xx_HAL_Driver/Src/stm32h7xx_ll_usb.c ****   (void)USB_DisableGlobalInt(USBx);
 4689              		.loc 1 1909 3 view .LVU1466
 4690              		.loc 1 1909 9 is_stmt 0 view .LVU1467
 4691 0006 FFF7FEFF 		bl	USB_DisableGlobalInt
 4692              	.LVL376:
1910:Drivers/STM32H7xx_HAL_Driver/Src/stm32h7xx_ll_usb.c **** 
1911:Drivers/STM32H7xx_HAL_Driver/Src/stm32h7xx_ll_usb.c ****   /* Flush FIFO */
1912:Drivers/STM32H7xx_HAL_Driver/Src/stm32h7xx_ll_usb.c ****   (void)USB_FlushTxFifo(USBx, 0x10U);
 4693              		.loc 1 1912 3 is_stmt 1 view .LVU1468
 4694              		.loc 1 1912 9 is_stmt 0 view .LVU1469
 4695 000a 1021     		movs	r1, #16
 4696 000c 2846     		mov	r0, r5
 4697 000e FFF7FEFF 		bl	USB_FlushTxFifo
 4698              	.LVL377:
1913:Drivers/STM32H7xx_HAL_Driver/Src/stm32h7xx_ll_usb.c ****   (void)USB_FlushRxFifo(USBx);
 4699              		.loc 1 1913 3 is_stmt 1 view .LVU1470
 4700              		.loc 1 1913 9 is_stmt 0 view .LVU1471
 4701 0012 2846     		mov	r0, r5
 4702 0014 FFF7FEFF 		bl	USB_FlushRxFifo
 4703              	.LVL378:
1914:Drivers/STM32H7xx_HAL_Driver/Src/stm32h7xx_ll_usb.c **** 
1915:Drivers/STM32H7xx_HAL_Driver/Src/stm32h7xx_ll_usb.c ****   /* Flush out any leftover queued requests. */
1916:Drivers/STM32H7xx_HAL_Driver/Src/stm32h7xx_ll_usb.c ****   for (i = 0U; i <= 15U; i++)
 4704              		.loc 1 1916 3 is_stmt 1 view .LVU1472
 4705              		.loc 1 1916 10 is_stmt 0 view .LVU1473
 4706 0018 0022     		movs	r2, #0
 4707              		.loc 1 1916 3 view .LVU1474
 4708 001a 0AE0     		b	.L301
 4709              	.LVL379:
 4710              	.L302:
1917:Drivers/STM32H7xx_HAL_Driver/Src/stm32h7xx_ll_usb.c ****   {
1918:Drivers/STM32H7xx_HAL_Driver/Src/stm32h7xx_ll_usb.c ****     value = USBx_HC(i)->HCCHAR;
 4711              		.loc 1 1918 5 is_stmt 1 discriminator 3 view .LVU1475
 4712              		.loc 1 1918 13 is_stmt 0 discriminator 3 view .LVU1476
 4713 001c 04EB4211 		add	r1, r4, r2, lsl #5
 4714              		.loc 1 1918 11 discriminator 3 view .LVU1477
 4715 0020 D1F80035 		ldr	r3, [r1, #1280]
 4716              	.LVL380:
1919:Drivers/STM32H7xx_HAL_Driver/Src/stm32h7xx_ll_usb.c ****     value |=  USB_OTG_HCCHAR_CHDIS;
 4717              		.loc 1 1919 5 is_stmt 1 discriminator 3 view .LVU1478
1920:Drivers/STM32H7xx_HAL_Driver/Src/stm32h7xx_ll_usb.c ****     value &= ~USB_OTG_HCCHAR_CHENA;
 4718              		.loc 1 1920 5 discriminator 3 view .LVU1479
1921:Drivers/STM32H7xx_HAL_Driver/Src/stm32h7xx_ll_usb.c ****     value &= ~USB_OTG_HCCHAR_EPDIR;
 4719              		.loc 1 1921 5 discriminator 3 view .LVU1480
 4720 0024 23F08023 		bic	r3, r3, #-2147450880
 4721              	.LVL381:
 4722              		.loc 1 1921 11 is_stmt 0 discriminator 3 view .LVU1481
 4723 0028 43F08043 		orr	r3, r3, #1073741824
 4724              	.LVL382:
1922:Drivers/STM32H7xx_HAL_Driver/Src/stm32h7xx_ll_usb.c ****     USBx_HC(i)->HCCHAR = value;
 4725              		.loc 1 1922 5 is_stmt 1 discriminator 3 view .LVU1482
 4726              		.loc 1 1922 24 is_stmt 0 discriminator 3 view .LVU1483
 4727 002c C1F80035 		str	r3, [r1, #1280]
1916:Drivers/STM32H7xx_HAL_Driver/Src/stm32h7xx_ll_usb.c ****   {
 4728              		.loc 1 1916 27 discriminator 3 view .LVU1484
 4729 0030 0132     		adds	r2, r2, #1
ARM GAS  /tmp/cc0TWTOC.s 			page 138


 4730              	.LVL383:
 4731              	.L301:
1916:Drivers/STM32H7xx_HAL_Driver/Src/stm32h7xx_ll_usb.c ****   {
 4732              		.loc 1 1916 3 discriminator 1 view .LVU1485
 4733 0032 0F2A     		cmp	r2, #15
 4734 0034 F2D9     		bls	.L302
1923:Drivers/STM32H7xx_HAL_Driver/Src/stm32h7xx_ll_usb.c ****   }
1924:Drivers/STM32H7xx_HAL_Driver/Src/stm32h7xx_ll_usb.c **** 
1925:Drivers/STM32H7xx_HAL_Driver/Src/stm32h7xx_ll_usb.c ****   /* Halt all channels to put them into a known state. */
1926:Drivers/STM32H7xx_HAL_Driver/Src/stm32h7xx_ll_usb.c ****   for (i = 0U; i <= 15U; i++)
 4735              		.loc 1 1926 10 view .LVU1486
 4736 0036 0020     		movs	r0, #0
1905:Drivers/STM32H7xx_HAL_Driver/Src/stm32h7xx_ll_usb.c ****   uint32_t value;
 4737              		.loc 1 1905 12 view .LVU1487
 4738 0038 0346     		mov	r3, r0
 4739 003a 00E0     		b	.L303
 4740              	.LVL384:
 4741              	.L304:
 4742              		.loc 1 1926 27 discriminator 2 view .LVU1488
 4743 003c 0130     		adds	r0, r0, #1
 4744              	.LVL385:
 4745              	.L303:
 4746              		.loc 1 1926 3 discriminator 1 view .LVU1489
 4747 003e 0F28     		cmp	r0, #15
 4748 0040 13D8     		bhi	.L308
1927:Drivers/STM32H7xx_HAL_Driver/Src/stm32h7xx_ll_usb.c ****   {
1928:Drivers/STM32H7xx_HAL_Driver/Src/stm32h7xx_ll_usb.c ****     value = USBx_HC(i)->HCCHAR;
 4749              		.loc 1 1928 5 is_stmt 1 view .LVU1490
 4750              		.loc 1 1928 13 is_stmt 0 view .LVU1491
 4751 0042 04EB4016 		add	r6, r4, r0, lsl #5
 4752 0046 06F5A061 		add	r1, r6, #1280
 4753              		.loc 1 1928 11 view .LVU1492
 4754 004a D6F80025 		ldr	r2, [r6, #1280]
 4755              	.LVL386:
1929:Drivers/STM32H7xx_HAL_Driver/Src/stm32h7xx_ll_usb.c ****     value |= USB_OTG_HCCHAR_CHDIS;
 4756              		.loc 1 1929 5 is_stmt 1 view .LVU1493
1930:Drivers/STM32H7xx_HAL_Driver/Src/stm32h7xx_ll_usb.c ****     value |= USB_OTG_HCCHAR_CHENA;
 4757              		.loc 1 1930 5 view .LVU1494
1931:Drivers/STM32H7xx_HAL_Driver/Src/stm32h7xx_ll_usb.c ****     value &= ~USB_OTG_HCCHAR_EPDIR;
 4758              		.loc 1 1931 5 view .LVU1495
 4759 004e 22F40042 		bic	r2, r2, #32768
 4760              	.LVL387:
 4761              		.loc 1 1931 11 is_stmt 0 view .LVU1496
 4762 0052 42F04042 		orr	r2, r2, #-1073741824
 4763              	.LVL388:
1932:Drivers/STM32H7xx_HAL_Driver/Src/stm32h7xx_ll_usb.c ****     USBx_HC(i)->HCCHAR = value;
 4764              		.loc 1 1932 5 is_stmt 1 view .LVU1497
 4765              		.loc 1 1932 24 is_stmt 0 view .LVU1498
 4766 0056 C6F80025 		str	r2, [r6, #1280]
 4767              	.LVL389:
 4768              	.L305:
1933:Drivers/STM32H7xx_HAL_Driver/Src/stm32h7xx_ll_usb.c **** 
1934:Drivers/STM32H7xx_HAL_Driver/Src/stm32h7xx_ll_usb.c ****     do
 4769              		.loc 1 1934 5 is_stmt 1 view .LVU1499
1935:Drivers/STM32H7xx_HAL_Driver/Src/stm32h7xx_ll_usb.c ****     {
1936:Drivers/STM32H7xx_HAL_Driver/Src/stm32h7xx_ll_usb.c ****       if (++count > 1000U)
 4770              		.loc 1 1936 7 view .LVU1500
ARM GAS  /tmp/cc0TWTOC.s 			page 139


 4771              		.loc 1 1936 10 is_stmt 0 view .LVU1501
 4772 005a 0133     		adds	r3, r3, #1
 4773              	.LVL390:
 4774              		.loc 1 1936 10 view .LVU1502
 4775 005c B3F57A7F 		cmp	r3, #1000
 4776 0060 ECD8     		bhi	.L304
1937:Drivers/STM32H7xx_HAL_Driver/Src/stm32h7xx_ll_usb.c ****       {
1938:Drivers/STM32H7xx_HAL_Driver/Src/stm32h7xx_ll_usb.c ****         break;
1939:Drivers/STM32H7xx_HAL_Driver/Src/stm32h7xx_ll_usb.c ****       }
1940:Drivers/STM32H7xx_HAL_Driver/Src/stm32h7xx_ll_usb.c ****     }
1941:Drivers/STM32H7xx_HAL_Driver/Src/stm32h7xx_ll_usb.c ****     while ((USBx_HC(i)->HCCHAR & USB_OTG_HCCHAR_CHENA) == USB_OTG_HCCHAR_CHENA);
 4777              		.loc 1 1941 23 view .LVU1503
 4778 0062 0A68     		ldr	r2, [r1]
 4779              		.loc 1 1941 5 view .LVU1504
 4780 0064 002A     		cmp	r2, #0
 4781 0066 F8DB     		blt	.L305
 4782 0068 E8E7     		b	.L304
 4783              	.LVL391:
 4784              	.L308:
1942:Drivers/STM32H7xx_HAL_Driver/Src/stm32h7xx_ll_usb.c ****   }
1943:Drivers/STM32H7xx_HAL_Driver/Src/stm32h7xx_ll_usb.c **** 
1944:Drivers/STM32H7xx_HAL_Driver/Src/stm32h7xx_ll_usb.c ****   /* Clear any pending Host interrupts */
1945:Drivers/STM32H7xx_HAL_Driver/Src/stm32h7xx_ll_usb.c ****   USBx_HOST->HAINT = 0xFFFFFFFFU;
 4785              		.loc 1 1945 3 is_stmt 1 view .LVU1505
 4786              		.loc 1 1945 20 is_stmt 0 view .LVU1506
 4787 006a 4FF0FF33 		mov	r3, #-1
 4788              	.LVL392:
 4789              		.loc 1 1945 20 view .LVU1507
 4790 006e C5F81434 		str	r3, [r5, #1044]
1946:Drivers/STM32H7xx_HAL_Driver/Src/stm32h7xx_ll_usb.c ****   USBx->GINTSTS = 0xFFFFFFFFU;
 4791              		.loc 1 1946 3 is_stmt 1 view .LVU1508
 4792              		.loc 1 1946 17 is_stmt 0 view .LVU1509
 4793 0072 6B61     		str	r3, [r5, #20]
1947:Drivers/STM32H7xx_HAL_Driver/Src/stm32h7xx_ll_usb.c **** 
1948:Drivers/STM32H7xx_HAL_Driver/Src/stm32h7xx_ll_usb.c ****   (void)USB_EnableGlobalInt(USBx);
 4794              		.loc 1 1948 3 is_stmt 1 view .LVU1510
 4795              		.loc 1 1948 9 is_stmt 0 view .LVU1511
 4796 0074 2846     		mov	r0, r5
 4797              	.LVL393:
 4798              		.loc 1 1948 9 view .LVU1512
 4799 0076 FFF7FEFF 		bl	USB_EnableGlobalInt
 4800              	.LVL394:
1949:Drivers/STM32H7xx_HAL_Driver/Src/stm32h7xx_ll_usb.c **** 
1950:Drivers/STM32H7xx_HAL_Driver/Src/stm32h7xx_ll_usb.c ****   return HAL_OK;
 4801              		.loc 1 1950 3 is_stmt 1 view .LVU1513
1951:Drivers/STM32H7xx_HAL_Driver/Src/stm32h7xx_ll_usb.c **** }
 4802              		.loc 1 1951 1 is_stmt 0 view .LVU1514
 4803 007a 0020     		movs	r0, #0
 4804 007c 70BD     		pop	{r4, r5, r6, pc}
 4805              		.loc 1 1951 1 view .LVU1515
 4806              		.cfi_endproc
 4807              	.LFE186:
 4809              		.section	.text.USB_ActivateRemoteWakeup,"ax",%progbits
 4810              		.align	1
 4811              		.global	USB_ActivateRemoteWakeup
 4812              		.syntax unified
 4813              		.thumb
ARM GAS  /tmp/cc0TWTOC.s 			page 140


 4814              		.thumb_func
 4815              		.fpu fpv5-d16
 4817              	USB_ActivateRemoteWakeup:
 4818              	.LVL395:
 4819              	.LFB187:
1952:Drivers/STM32H7xx_HAL_Driver/Src/stm32h7xx_ll_usb.c **** 
1953:Drivers/STM32H7xx_HAL_Driver/Src/stm32h7xx_ll_usb.c **** /**
1954:Drivers/STM32H7xx_HAL_Driver/Src/stm32h7xx_ll_usb.c ****   * @brief  USB_ActivateRemoteWakeup active remote wakeup signalling
1955:Drivers/STM32H7xx_HAL_Driver/Src/stm32h7xx_ll_usb.c ****   * @param  USBx Selected device
1956:Drivers/STM32H7xx_HAL_Driver/Src/stm32h7xx_ll_usb.c ****   * @retval HAL status
1957:Drivers/STM32H7xx_HAL_Driver/Src/stm32h7xx_ll_usb.c ****   */
1958:Drivers/STM32H7xx_HAL_Driver/Src/stm32h7xx_ll_usb.c **** HAL_StatusTypeDef USB_ActivateRemoteWakeup(USB_OTG_GlobalTypeDef *USBx)
1959:Drivers/STM32H7xx_HAL_Driver/Src/stm32h7xx_ll_usb.c **** {
 4820              		.loc 1 1959 1 is_stmt 1 view -0
 4821              		.cfi_startproc
 4822              		@ args = 0, pretend = 0, frame = 0
 4823              		@ frame_needed = 0, uses_anonymous_args = 0
 4824              		@ link register save eliminated.
1960:Drivers/STM32H7xx_HAL_Driver/Src/stm32h7xx_ll_usb.c ****   uint32_t USBx_BASE = (uint32_t)USBx;
 4825              		.loc 1 1960 3 view .LVU1517
1961:Drivers/STM32H7xx_HAL_Driver/Src/stm32h7xx_ll_usb.c **** 
1962:Drivers/STM32H7xx_HAL_Driver/Src/stm32h7xx_ll_usb.c ****   if ((USBx_DEVICE->DSTS & USB_OTG_DSTS_SUSPSTS) == USB_OTG_DSTS_SUSPSTS)
 4826              		.loc 1 1962 3 view .LVU1518
 4827              		.loc 1 1962 19 is_stmt 0 view .LVU1519
 4828 0000 D0F80838 		ldr	r3, [r0, #2056]
 4829              		.loc 1 1962 8 view .LVU1520
 4830 0004 00F50060 		add	r0, r0, #2048
 4831              	.LVL396:
 4832              		.loc 1 1962 6 view .LVU1521
 4833 0008 13F0010F 		tst	r3, #1
 4834 000c 03D0     		beq	.L310
1963:Drivers/STM32H7xx_HAL_Driver/Src/stm32h7xx_ll_usb.c ****   {
1964:Drivers/STM32H7xx_HAL_Driver/Src/stm32h7xx_ll_usb.c ****     /* active Remote wakeup signalling */
1965:Drivers/STM32H7xx_HAL_Driver/Src/stm32h7xx_ll_usb.c ****     USBx_DEVICE->DCTL |= USB_OTG_DCTL_RWUSIG;
 4835              		.loc 1 1965 5 is_stmt 1 view .LVU1522
 4836              		.loc 1 1965 23 is_stmt 0 view .LVU1523
 4837 000e 4368     		ldr	r3, [r0, #4]
 4838 0010 43F00103 		orr	r3, r3, #1
 4839 0014 4360     		str	r3, [r0, #4]
 4840              	.L310:
1966:Drivers/STM32H7xx_HAL_Driver/Src/stm32h7xx_ll_usb.c ****   }
1967:Drivers/STM32H7xx_HAL_Driver/Src/stm32h7xx_ll_usb.c **** 
1968:Drivers/STM32H7xx_HAL_Driver/Src/stm32h7xx_ll_usb.c ****   return HAL_OK;
 4841              		.loc 1 1968 3 is_stmt 1 view .LVU1524
1969:Drivers/STM32H7xx_HAL_Driver/Src/stm32h7xx_ll_usb.c **** }
 4842              		.loc 1 1969 1 is_stmt 0 view .LVU1525
 4843 0016 0020     		movs	r0, #0
 4844              	.LVL397:
 4845              		.loc 1 1969 1 view .LVU1526
 4846 0018 7047     		bx	lr
 4847              		.cfi_endproc
 4848              	.LFE187:
 4850              		.section	.text.USB_DeActivateRemoteWakeup,"ax",%progbits
 4851              		.align	1
 4852              		.global	USB_DeActivateRemoteWakeup
 4853              		.syntax unified
 4854              		.thumb
ARM GAS  /tmp/cc0TWTOC.s 			page 141


 4855              		.thumb_func
 4856              		.fpu fpv5-d16
 4858              	USB_DeActivateRemoteWakeup:
 4859              	.LVL398:
 4860              	.LFB188:
1970:Drivers/STM32H7xx_HAL_Driver/Src/stm32h7xx_ll_usb.c **** 
1971:Drivers/STM32H7xx_HAL_Driver/Src/stm32h7xx_ll_usb.c **** /**
1972:Drivers/STM32H7xx_HAL_Driver/Src/stm32h7xx_ll_usb.c ****   * @brief  USB_DeActivateRemoteWakeup de-active remote wakeup signalling
1973:Drivers/STM32H7xx_HAL_Driver/Src/stm32h7xx_ll_usb.c ****   * @param  USBx Selected device
1974:Drivers/STM32H7xx_HAL_Driver/Src/stm32h7xx_ll_usb.c ****   * @retval HAL status
1975:Drivers/STM32H7xx_HAL_Driver/Src/stm32h7xx_ll_usb.c ****   */
1976:Drivers/STM32H7xx_HAL_Driver/Src/stm32h7xx_ll_usb.c **** HAL_StatusTypeDef USB_DeActivateRemoteWakeup(USB_OTG_GlobalTypeDef *USBx)
1977:Drivers/STM32H7xx_HAL_Driver/Src/stm32h7xx_ll_usb.c **** {
 4861              		.loc 1 1977 1 is_stmt 1 view -0
 4862              		.cfi_startproc
 4863              		@ args = 0, pretend = 0, frame = 0
 4864              		@ frame_needed = 0, uses_anonymous_args = 0
 4865              		@ link register save eliminated.
1978:Drivers/STM32H7xx_HAL_Driver/Src/stm32h7xx_ll_usb.c ****   uint32_t USBx_BASE = (uint32_t)USBx;
 4866              		.loc 1 1978 3 view .LVU1528
1979:Drivers/STM32H7xx_HAL_Driver/Src/stm32h7xx_ll_usb.c **** 
1980:Drivers/STM32H7xx_HAL_Driver/Src/stm32h7xx_ll_usb.c ****   /* active Remote wakeup signalling */
1981:Drivers/STM32H7xx_HAL_Driver/Src/stm32h7xx_ll_usb.c ****   USBx_DEVICE->DCTL &= ~(USB_OTG_DCTL_RWUSIG);
 4867              		.loc 1 1981 3 view .LVU1529
 4868              		.loc 1 1981 21 is_stmt 0 view .LVU1530
 4869 0000 D0F80438 		ldr	r3, [r0, #2052]
 4870 0004 23F00103 		bic	r3, r3, #1
 4871 0008 C0F80438 		str	r3, [r0, #2052]
1982:Drivers/STM32H7xx_HAL_Driver/Src/stm32h7xx_ll_usb.c **** 
1983:Drivers/STM32H7xx_HAL_Driver/Src/stm32h7xx_ll_usb.c ****   return HAL_OK;
 4872              		.loc 1 1983 3 is_stmt 1 view .LVU1531
1984:Drivers/STM32H7xx_HAL_Driver/Src/stm32h7xx_ll_usb.c **** }
 4873              		.loc 1 1984 1 is_stmt 0 view .LVU1532
 4874 000c 0020     		movs	r0, #0
 4875              	.LVL399:
 4876              		.loc 1 1984 1 view .LVU1533
 4877 000e 7047     		bx	lr
 4878              		.cfi_endproc
 4879              	.LFE188:
 4881              		.section	.bss.tmpreg.11686,"aw",%nobits
 4882              		.align	2
 4883              		.set	.LANCHOR0,. + 0
 4886              	tmpreg.11686:
 4887 0000 00000000 		.space	4
 4888              		.text
 4889              	.Letext0:
 4890              		.file 2 "/usr/arm-none-eabi/include/machine/_default_types.h"
 4891              		.file 3 "/usr/arm-none-eabi/include/sys/_stdint.h"
 4892              		.file 4 "Drivers/CMSIS/Include/cmsis_gcc.h"
 4893              		.file 5 "Drivers/CMSIS/Include/core_cm7.h"
 4894              		.file 6 "Drivers/CMSIS/Device/ST/STM32H7xx/Include/system_stm32h7xx.h"
 4895              		.file 7 "Drivers/CMSIS/Device/ST/STM32H7xx/Include/stm32h743xx.h"
 4896              		.file 8 "/usr/arm-none-eabi/include/sys/lock.h"
 4897              		.file 9 "/usr/arm-none-eabi/include/sys/_types.h"
 4898              		.file 10 "/usr/lib/gcc/arm-none-eabi/9.1.0/include/stddef.h"
 4899              		.file 11 "/usr/arm-none-eabi/include/sys/reent.h"
 4900              		.file 12 "/usr/arm-none-eabi/include/math.h"
ARM GAS  /tmp/cc0TWTOC.s 			page 142


 4901              		.file 13 "Drivers/STM32H7xx_HAL_Driver/Inc/stm32h7xx_hal_def.h"
 4902              		.file 14 "Drivers/STM32H7xx_HAL_Driver/Inc/stm32h7xx_hal_flash.h"
 4903              		.file 15 "Drivers/STM32H7xx_HAL_Driver/Inc/stm32h7xx_ll_usb.h"
 4904              		.file 16 "Drivers/STM32H7xx_HAL_Driver/Inc/stm32h7xx_hal.h"
ARM GAS  /tmp/cc0TWTOC.s 			page 143


DEFINED SYMBOLS
                            *ABS*:0000000000000000 stm32h7xx_ll_usb.c
     /tmp/cc0TWTOC.s:17     .text.USB_CoreReset:0000000000000000 $t
     /tmp/cc0TWTOC.s:24     .text.USB_CoreReset:0000000000000000 USB_CoreReset
     /tmp/cc0TWTOC.s:99     .text.USB_CoreReset:0000000000000038 $d
     /tmp/cc0TWTOC.s:104    .text.USB_CoreInit:0000000000000000 $t
     /tmp/cc0TWTOC.s:111    .text.USB_CoreInit:0000000000000000 USB_CoreInit
     /tmp/cc0TWTOC.s:243    .text.USB_CoreInit:0000000000000088 $d
     /tmp/cc0TWTOC.s:248    .text.USB_SetTurnaroundTime:0000000000000000 $t
     /tmp/cc0TWTOC.s:255    .text.USB_SetTurnaroundTime:0000000000000000 USB_SetTurnaroundTime
     /tmp/cc0TWTOC.s:435    .text.USB_SetTurnaroundTime:000000000000009c $d
     /tmp/cc0TWTOC.s:457    .text.USB_EnableGlobalInt:0000000000000000 $t
     /tmp/cc0TWTOC.s:464    .text.USB_EnableGlobalInt:0000000000000000 USB_EnableGlobalInt
     /tmp/cc0TWTOC.s:487    .text.USB_DisableGlobalInt:0000000000000000 $t
     /tmp/cc0TWTOC.s:494    .text.USB_DisableGlobalInt:0000000000000000 USB_DisableGlobalInt
     /tmp/cc0TWTOC.s:517    .text.USB_SetCurrentMode:0000000000000000 $t
     /tmp/cc0TWTOC.s:524    .text.USB_SetCurrentMode:0000000000000000 USB_SetCurrentMode
     /tmp/cc0TWTOC.s:585    .text.USB_FlushTxFifo:0000000000000000 $t
     /tmp/cc0TWTOC.s:592    .text.USB_FlushTxFifo:0000000000000000 USB_FlushTxFifo
     /tmp/cc0TWTOC.s:642    .text.USB_FlushTxFifo:0000000000000024 $d
     /tmp/cc0TWTOC.s:647    .text.USB_FlushRxFifo:0000000000000000 $t
     /tmp/cc0TWTOC.s:654    .text.USB_FlushRxFifo:0000000000000000 USB_FlushRxFifo
     /tmp/cc0TWTOC.s:700    .text.USB_FlushRxFifo:0000000000000020 $d
     /tmp/cc0TWTOC.s:705    .text.USB_SetDevSpeed:0000000000000000 $t
     /tmp/cc0TWTOC.s:712    .text.USB_SetDevSpeed:0000000000000000 USB_SetDevSpeed
     /tmp/cc0TWTOC.s:738    .text.USB_DevInit:0000000000000000 $t
     /tmp/cc0TWTOC.s:745    .text.USB_DevInit:0000000000000000 USB_DevInit
     /tmp/cc0TWTOC.s:1108   .text.USB_DevInit:0000000000000184 $d
     /tmp/cc0TWTOC.s:1116   .text.USB_GetDevSpeed:0000000000000000 $t
     /tmp/cc0TWTOC.s:1123   .text.USB_GetDevSpeed:0000000000000000 USB_GetDevSpeed
     /tmp/cc0TWTOC.s:1173   .text.USB_ActivateEndpoint:0000000000000000 $t
     /tmp/cc0TWTOC.s:1180   .text.USB_ActivateEndpoint:0000000000000000 USB_ActivateEndpoint
     /tmp/cc0TWTOC.s:1306   .text.USB_ActivateEndpoint:000000000000008c $d
     /tmp/cc0TWTOC.s:1311   .text.USB_ActivateDedicatedEndpoint:0000000000000000 $t
     /tmp/cc0TWTOC.s:1318   .text.USB_ActivateDedicatedEndpoint:0000000000000000 USB_ActivateDedicatedEndpoint
     /tmp/cc0TWTOC.s:1452   .text.USB_ActivateDedicatedEndpoint:0000000000000098 $d
     /tmp/cc0TWTOC.s:1457   .text.USB_DeactivateEndpoint:0000000000000000 $t
     /tmp/cc0TWTOC.s:1464   .text.USB_DeactivateEndpoint:0000000000000000 USB_DeactivateEndpoint
     /tmp/cc0TWTOC.s:1584   .text.USB_DeactivateEndpoint:0000000000000088 $d
     /tmp/cc0TWTOC.s:1590   .text.USB_DeactivateDedicatedEndpoint:0000000000000000 $t
     /tmp/cc0TWTOC.s:1597   .text.USB_DeactivateDedicatedEndpoint:0000000000000000 USB_DeactivateDedicatedEndpoint
     /tmp/cc0TWTOC.s:1678   .text.USB_EP0StartXfer:0000000000000000 $t
     /tmp/cc0TWTOC.s:1685   .text.USB_EP0StartXfer:0000000000000000 USB_EP0StartXfer
     /tmp/cc0TWTOC.s:1926   .text.USB_EP0StartXfer:0000000000000110 $d
     /tmp/cc0TWTOC.s:1932   .text.USB_WritePacket:0000000000000000 $t
     /tmp/cc0TWTOC.s:1939   .text.USB_WritePacket:0000000000000000 USB_WritePacket
     /tmp/cc0TWTOC.s:2009   .text.USB_EPStartXfer:0000000000000000 $t
     /tmp/cc0TWTOC.s:2016   .text.USB_EPStartXfer:0000000000000000 USB_EPStartXfer
     /tmp/cc0TWTOC.s:2411   .text.USB_EPStartXfer:0000000000000208 $d
     /tmp/cc0TWTOC.s:2418   .text.USB_ReadPacket:0000000000000000 $t
     /tmp/cc0TWTOC.s:2425   .text.USB_ReadPacket:0000000000000000 USB_ReadPacket
     /tmp/cc0TWTOC.s:2485   .text.USB_EPSetStall:0000000000000000 $t
     /tmp/cc0TWTOC.s:2492   .text.USB_EPSetStall:0000000000000000 USB_EPSetStall
     /tmp/cc0TWTOC.s:2573   .text.USB_EPClearStall:0000000000000000 $t
     /tmp/cc0TWTOC.s:2580   .text.USB_EPClearStall:0000000000000000 USB_EPClearStall
     /tmp/cc0TWTOC.s:2663   .text.USB_StopDevice:0000000000000000 $t
     /tmp/cc0TWTOC.s:2670   .text.USB_StopDevice:0000000000000000 USB_StopDevice
ARM GAS  /tmp/cc0TWTOC.s 			page 144


     /tmp/cc0TWTOC.s:2755   .text.USB_SetDevAddress:0000000000000000 $t
     /tmp/cc0TWTOC.s:2762   .text.USB_SetDevAddress:0000000000000000 USB_SetDevAddress
     /tmp/cc0TWTOC.s:2797   .text.USB_DevConnect:0000000000000000 $t
     /tmp/cc0TWTOC.s:2804   .text.USB_DevConnect:0000000000000000 USB_DevConnect
     /tmp/cc0TWTOC.s:2838   .text.USB_DevDisconnect:0000000000000000 $t
     /tmp/cc0TWTOC.s:2845   .text.USB_DevDisconnect:0000000000000000 USB_DevDisconnect
     /tmp/cc0TWTOC.s:2879   .text.USB_ReadInterrupts:0000000000000000 $t
     /tmp/cc0TWTOC.s:2886   .text.USB_ReadInterrupts:0000000000000000 USB_ReadInterrupts
     /tmp/cc0TWTOC.s:2913   .text.USB_ReadDevAllOutEpInterrupt:0000000000000000 $t
     /tmp/cc0TWTOC.s:2920   .text.USB_ReadDevAllOutEpInterrupt:0000000000000000 USB_ReadDevAllOutEpInterrupt
     /tmp/cc0TWTOC.s:2953   .text.USB_ReadDevAllInEpInterrupt:0000000000000000 $t
     /tmp/cc0TWTOC.s:2960   .text.USB_ReadDevAllInEpInterrupt:0000000000000000 USB_ReadDevAllInEpInterrupt
     /tmp/cc0TWTOC.s:2993   .text.USB_ReadDevOutEPInterrupt:0000000000000000 $t
     /tmp/cc0TWTOC.s:3000   .text.USB_ReadDevOutEPInterrupt:0000000000000000 USB_ReadDevOutEPInterrupt
     /tmp/cc0TWTOC.s:3034   .text.USB_ReadDevInEPInterrupt:0000000000000000 $t
     /tmp/cc0TWTOC.s:3041   .text.USB_ReadDevInEPInterrupt:0000000000000000 USB_ReadDevInEPInterrupt
     /tmp/cc0TWTOC.s:3100   .text.USB_ClearInterrupts:0000000000000000 $t
     /tmp/cc0TWTOC.s:3107   .text.USB_ClearInterrupts:0000000000000000 USB_ClearInterrupts
     /tmp/cc0TWTOC.s:3126   .text.USB_GetMode:0000000000000000 $t
     /tmp/cc0TWTOC.s:3133   .text.USB_GetMode:0000000000000000 USB_GetMode
     /tmp/cc0TWTOC.s:3152   .text.USB_ActivateSetup:0000000000000000 $t
     /tmp/cc0TWTOC.s:3159   .text.USB_ActivateSetup:0000000000000000 USB_ActivateSetup
     /tmp/cc0TWTOC.s:3207   .text.USB_ActivateSetup:0000000000000034 $d
     /tmp/cc0TWTOC.s:3212   .text.USB_EP0_OutStart:0000000000000000 $t
     /tmp/cc0TWTOC.s:3219   .text.USB_EP0_OutStart:0000000000000000 USB_EP0_OutStart
     /tmp/cc0TWTOC.s:3302   .text.USB_EP0_OutStart:000000000000005c $d
     /tmp/cc0TWTOC.s:3307   .text.USB_InitFSLSPClkSel:0000000000000000 $t
     /tmp/cc0TWTOC.s:3314   .text.USB_InitFSLSPClkSel:0000000000000000 USB_InitFSLSPClkSel
     /tmp/cc0TWTOC.s:3385   .text.USB_ResetPort:0000000000000000 $t
     /tmp/cc0TWTOC.s:3392   .text.USB_ResetPort:0000000000000000 USB_ResetPort
     /tmp/cc0TWTOC.s:3461   .text.USB_DriveVbus:0000000000000000 $t
     /tmp/cc0TWTOC.s:3468   .text.USB_DriveVbus:0000000000000000 USB_DriveVbus
     /tmp/cc0TWTOC.s:3547   .text.USB_HostInit:0000000000000000 $t
     /tmp/cc0TWTOC.s:3554   .text.USB_HostInit:0000000000000000 USB_HostInit
     /tmp/cc0TWTOC.s:3755   .text.USB_HostInit:00000000000000e8 $d
     /tmp/cc0TWTOC.s:3762   .text.USB_GetHostSpeed:0000000000000000 $t
     /tmp/cc0TWTOC.s:3769   .text.USB_GetHostSpeed:0000000000000000 USB_GetHostSpeed
     /tmp/cc0TWTOC.s:3807   .text.USB_GetCurrentFrame:0000000000000000 $t
     /tmp/cc0TWTOC.s:3814   .text.USB_GetCurrentFrame:0000000000000000 USB_GetCurrentFrame
     /tmp/cc0TWTOC.s:3837   .text.USB_HC_Init:0000000000000000 $t
     /tmp/cc0TWTOC.s:3844   .text.USB_HC_Init:0000000000000000 USB_HC_Init
     /tmp/cc0TWTOC.s:3878   .text.USB_HC_Init:000000000000001e $d
     /tmp/cc0TWTOC.s:3882   .text.USB_HC_Init:0000000000000022 $t
     /tmp/cc0TWTOC.s:4064   .text.USB_HC_ReadInterrupt:0000000000000000 $t
     /tmp/cc0TWTOC.s:4071   .text.USB_HC_ReadInterrupt:0000000000000000 USB_HC_ReadInterrupt
     /tmp/cc0TWTOC.s:4094   .text.USB_HC_Halt:0000000000000000 $t
     /tmp/cc0TWTOC.s:4101   .text.USB_HC_Halt:0000000000000000 USB_HC_Halt
     /tmp/cc0TWTOC.s:4265   .text.USB_DoPing:0000000000000000 $t
     /tmp/cc0TWTOC.s:4272   .text.USB_DoPing:0000000000000000 USB_DoPing
     /tmp/cc0TWTOC.s:4314   .text.USB_DoPing:0000000000000020 $d
     /tmp/cc0TWTOC.s:4319   .text.USB_HC_StartXfer:0000000000000000 $t
     /tmp/cc0TWTOC.s:4326   .text.USB_HC_StartXfer:0000000000000000 USB_HC_StartXfer
     /tmp/cc0TWTOC.s:4565   .text.USB_HC_StartXfer:00000000000000fc $d
     /tmp/cc0TWTOC.s:4570   .text.USB_HC_StartXfer:0000000000000100 $t
     /tmp/cc0TWTOC.s:4653   .text.USB_HC_StartXfer:0000000000000150 $d
     /tmp/cc0TWTOC.s:4659   .text.USB_StopHost:0000000000000000 $t
     /tmp/cc0TWTOC.s:4666   .text.USB_StopHost:0000000000000000 USB_StopHost
ARM GAS  /tmp/cc0TWTOC.s 			page 145


     /tmp/cc0TWTOC.s:4810   .text.USB_ActivateRemoteWakeup:0000000000000000 $t
     /tmp/cc0TWTOC.s:4817   .text.USB_ActivateRemoteWakeup:0000000000000000 USB_ActivateRemoteWakeup
     /tmp/cc0TWTOC.s:4851   .text.USB_DeActivateRemoteWakeup:0000000000000000 $t
     /tmp/cc0TWTOC.s:4858   .text.USB_DeActivateRemoteWakeup:0000000000000000 USB_DeActivateRemoteWakeup
     /tmp/cc0TWTOC.s:4882   .bss.tmpreg.11686:0000000000000000 $d
     /tmp/cc0TWTOC.s:4886   .bss.tmpreg.11686:0000000000000000 tmpreg.11686

UNDEFINED SYMBOLS
HAL_Delay
