ARM GAS  /tmp/ccpdh2Ug.s 			page 1


   1              		.cpu cortex-m7
   2              		.eabi_attribute 28, 1
   3              		.eabi_attribute 20, 1
   4              		.eabi_attribute 21, 1
   5              		.eabi_attribute 23, 3
   6              		.eabi_attribute 24, 1
   7              		.eabi_attribute 25, 1
   8              		.eabi_attribute 26, 1
   9              		.eabi_attribute 30, 1
  10              		.eabi_attribute 34, 1
  11              		.eabi_attribute 18, 4
  12              		.file	"stm32h7xx_hal_pwr.c"
  13              		.text
  14              	.Ltext0:
  15              		.cfi_sections	.debug_frame
  16              		.section	.text.HAL_PWR_DeInit,"ax",%progbits
  17              		.align	1
  18              		.global	HAL_PWR_DeInit
  19              		.arch armv7e-m
  20              		.syntax unified
  21              		.thumb
  22              		.thumb_func
  23              		.fpu fpv5-d16
  25              	HAL_PWR_DeInit:
  26              	.LFB141:
  27              		.file 1 "Drivers/STM32H7xx_HAL_Driver/Src/stm32h7xx_hal_pwr.c"
   1:Drivers/STM32H7xx_HAL_Driver/Src/stm32h7xx_hal_pwr.c **** /**
   2:Drivers/STM32H7xx_HAL_Driver/Src/stm32h7xx_hal_pwr.c ****   ******************************************************************************
   3:Drivers/STM32H7xx_HAL_Driver/Src/stm32h7xx_hal_pwr.c ****   * @file    stm32h7xx_hal_pwr.c
   4:Drivers/STM32H7xx_HAL_Driver/Src/stm32h7xx_hal_pwr.c ****   * @author  MCD Application Team
   5:Drivers/STM32H7xx_HAL_Driver/Src/stm32h7xx_hal_pwr.c ****   * @brief   PWR HAL module driver.
   6:Drivers/STM32H7xx_HAL_Driver/Src/stm32h7xx_hal_pwr.c ****   *          This file provides firmware functions to manage the following
   7:Drivers/STM32H7xx_HAL_Driver/Src/stm32h7xx_hal_pwr.c ****   *          functionalities of the Power Controller (PWR) peripheral:
   8:Drivers/STM32H7xx_HAL_Driver/Src/stm32h7xx_hal_pwr.c ****   *           + Initialization and de-initialization functions
   9:Drivers/STM32H7xx_HAL_Driver/Src/stm32h7xx_hal_pwr.c ****   *           + Peripheral Control functions
  10:Drivers/STM32H7xx_HAL_Driver/Src/stm32h7xx_hal_pwr.c ****   *
  11:Drivers/STM32H7xx_HAL_Driver/Src/stm32h7xx_hal_pwr.c ****   ******************************************************************************
  12:Drivers/STM32H7xx_HAL_Driver/Src/stm32h7xx_hal_pwr.c ****   * @attention
  13:Drivers/STM32H7xx_HAL_Driver/Src/stm32h7xx_hal_pwr.c ****   *
  14:Drivers/STM32H7xx_HAL_Driver/Src/stm32h7xx_hal_pwr.c ****   * <h2><center>&copy; COPYRIGHT(c) 2017 STMicroelectronics.
  15:Drivers/STM32H7xx_HAL_Driver/Src/stm32h7xx_hal_pwr.c ****   * All rights reserved.</center></h2>
  16:Drivers/STM32H7xx_HAL_Driver/Src/stm32h7xx_hal_pwr.c ****   *
  17:Drivers/STM32H7xx_HAL_Driver/Src/stm32h7xx_hal_pwr.c ****   * This software component is licensed by ST under BSD 3-Clause license,
  18:Drivers/STM32H7xx_HAL_Driver/Src/stm32h7xx_hal_pwr.c ****   * the "License"; You may not use this file except in compliance with the
  19:Drivers/STM32H7xx_HAL_Driver/Src/stm32h7xx_hal_pwr.c ****   * License. You may obtain a copy of the License at:
  20:Drivers/STM32H7xx_HAL_Driver/Src/stm32h7xx_hal_pwr.c ****   *                        opensource.org/licenses/BSD-3-Clause
  21:Drivers/STM32H7xx_HAL_Driver/Src/stm32h7xx_hal_pwr.c ****   *
  22:Drivers/STM32H7xx_HAL_Driver/Src/stm32h7xx_hal_pwr.c ****   ******************************************************************************
  23:Drivers/STM32H7xx_HAL_Driver/Src/stm32h7xx_hal_pwr.c ****   */
  24:Drivers/STM32H7xx_HAL_Driver/Src/stm32h7xx_hal_pwr.c **** 
  25:Drivers/STM32H7xx_HAL_Driver/Src/stm32h7xx_hal_pwr.c **** /* Includes ------------------------------------------------------------------*/
  26:Drivers/STM32H7xx_HAL_Driver/Src/stm32h7xx_hal_pwr.c **** #include "stm32h7xx_hal.h"
  27:Drivers/STM32H7xx_HAL_Driver/Src/stm32h7xx_hal_pwr.c **** 
  28:Drivers/STM32H7xx_HAL_Driver/Src/stm32h7xx_hal_pwr.c **** /** @addtogroup STM32H7xx_HAL_Driver
  29:Drivers/STM32H7xx_HAL_Driver/Src/stm32h7xx_hal_pwr.c ****   * @{
  30:Drivers/STM32H7xx_HAL_Driver/Src/stm32h7xx_hal_pwr.c ****   */
  31:Drivers/STM32H7xx_HAL_Driver/Src/stm32h7xx_hal_pwr.c **** 
ARM GAS  /tmp/ccpdh2Ug.s 			page 2


  32:Drivers/STM32H7xx_HAL_Driver/Src/stm32h7xx_hal_pwr.c **** /** @defgroup PWR PWR
  33:Drivers/STM32H7xx_HAL_Driver/Src/stm32h7xx_hal_pwr.c ****   * @brief PWR HAL module driver
  34:Drivers/STM32H7xx_HAL_Driver/Src/stm32h7xx_hal_pwr.c ****   * @{
  35:Drivers/STM32H7xx_HAL_Driver/Src/stm32h7xx_hal_pwr.c ****   */
  36:Drivers/STM32H7xx_HAL_Driver/Src/stm32h7xx_hal_pwr.c **** 
  37:Drivers/STM32H7xx_HAL_Driver/Src/stm32h7xx_hal_pwr.c **** #ifdef HAL_PWR_MODULE_ENABLED
  38:Drivers/STM32H7xx_HAL_Driver/Src/stm32h7xx_hal_pwr.c **** 
  39:Drivers/STM32H7xx_HAL_Driver/Src/stm32h7xx_hal_pwr.c **** /* Private typedef -----------------------------------------------------------*/
  40:Drivers/STM32H7xx_HAL_Driver/Src/stm32h7xx_hal_pwr.c **** /* Private define ------------------------------------------------------------*/
  41:Drivers/STM32H7xx_HAL_Driver/Src/stm32h7xx_hal_pwr.c **** /** @addtogroup PWR_Private_Constants PWR Private Constants
  42:Drivers/STM32H7xx_HAL_Driver/Src/stm32h7xx_hal_pwr.c ****   * @{
  43:Drivers/STM32H7xx_HAL_Driver/Src/stm32h7xx_hal_pwr.c ****   */
  44:Drivers/STM32H7xx_HAL_Driver/Src/stm32h7xx_hal_pwr.c **** 
  45:Drivers/STM32H7xx_HAL_Driver/Src/stm32h7xx_hal_pwr.c **** /** @defgroup PWR_PVD_Mode_Mask PWR PVD Mode Mask
  46:Drivers/STM32H7xx_HAL_Driver/Src/stm32h7xx_hal_pwr.c ****   * @{
  47:Drivers/STM32H7xx_HAL_Driver/Src/stm32h7xx_hal_pwr.c ****   */
  48:Drivers/STM32H7xx_HAL_Driver/Src/stm32h7xx_hal_pwr.c **** #if !defined (DUAL_CORE)
  49:Drivers/STM32H7xx_HAL_Driver/Src/stm32h7xx_hal_pwr.c **** #define PVD_MODE_IT              ((uint32_t)0x00010000U)
  50:Drivers/STM32H7xx_HAL_Driver/Src/stm32h7xx_hal_pwr.c **** #define PVD_MODE_EVT             ((uint32_t)0x00020000U)
  51:Drivers/STM32H7xx_HAL_Driver/Src/stm32h7xx_hal_pwr.c **** #endif /* DUAL_CORE */
  52:Drivers/STM32H7xx_HAL_Driver/Src/stm32h7xx_hal_pwr.c **** #define PVD_RISING_EDGE          ((uint32_t)0x00000001U)
  53:Drivers/STM32H7xx_HAL_Driver/Src/stm32h7xx_hal_pwr.c **** #define PVD_FALLING_EDGE         ((uint32_t)0x00000002U)
  54:Drivers/STM32H7xx_HAL_Driver/Src/stm32h7xx_hal_pwr.c **** #define PVD_RISING_FALLING_EDGE  ((uint32_t)0x00000003U)
  55:Drivers/STM32H7xx_HAL_Driver/Src/stm32h7xx_hal_pwr.c **** /**
  56:Drivers/STM32H7xx_HAL_Driver/Src/stm32h7xx_hal_pwr.c ****   * @}
  57:Drivers/STM32H7xx_HAL_Driver/Src/stm32h7xx_hal_pwr.c ****   */
  58:Drivers/STM32H7xx_HAL_Driver/Src/stm32h7xx_hal_pwr.c **** 
  59:Drivers/STM32H7xx_HAL_Driver/Src/stm32h7xx_hal_pwr.c **** /**
  60:Drivers/STM32H7xx_HAL_Driver/Src/stm32h7xx_hal_pwr.c ****   * @}
  61:Drivers/STM32H7xx_HAL_Driver/Src/stm32h7xx_hal_pwr.c ****   */
  62:Drivers/STM32H7xx_HAL_Driver/Src/stm32h7xx_hal_pwr.c **** /* Private macro -------------------------------------------------------------*/
  63:Drivers/STM32H7xx_HAL_Driver/Src/stm32h7xx_hal_pwr.c **** /* Private variables ---------------------------------------------------------*/
  64:Drivers/STM32H7xx_HAL_Driver/Src/stm32h7xx_hal_pwr.c **** /* Private function prototypes -----------------------------------------------*/
  65:Drivers/STM32H7xx_HAL_Driver/Src/stm32h7xx_hal_pwr.c **** /* Private functions ---------------------------------------------------------*/
  66:Drivers/STM32H7xx_HAL_Driver/Src/stm32h7xx_hal_pwr.c **** 
  67:Drivers/STM32H7xx_HAL_Driver/Src/stm32h7xx_hal_pwr.c **** /** @defgroup PWR_Exported_Functions PWR Exported Functions
  68:Drivers/STM32H7xx_HAL_Driver/Src/stm32h7xx_hal_pwr.c ****   * @{
  69:Drivers/STM32H7xx_HAL_Driver/Src/stm32h7xx_hal_pwr.c ****   */
  70:Drivers/STM32H7xx_HAL_Driver/Src/stm32h7xx_hal_pwr.c **** 
  71:Drivers/STM32H7xx_HAL_Driver/Src/stm32h7xx_hal_pwr.c **** /** @defgroup PWR_Exported_Functions_Group1 Initialization and De-Initialization functions
  72:Drivers/STM32H7xx_HAL_Driver/Src/stm32h7xx_hal_pwr.c ****   *  @brief    Initialization and De-Initialization functions
  73:Drivers/STM32H7xx_HAL_Driver/Src/stm32h7xx_hal_pwr.c ****   *
  74:Drivers/STM32H7xx_HAL_Driver/Src/stm32h7xx_hal_pwr.c **** @verbatim
  75:Drivers/STM32H7xx_HAL_Driver/Src/stm32h7xx_hal_pwr.c ****  ===============================================================================
  76:Drivers/STM32H7xx_HAL_Driver/Src/stm32h7xx_hal_pwr.c ****               ##### Initialization and De-Initialization functions #####
  77:Drivers/STM32H7xx_HAL_Driver/Src/stm32h7xx_hal_pwr.c ****  ===============================================================================
  78:Drivers/STM32H7xx_HAL_Driver/Src/stm32h7xx_hal_pwr.c ****     [..]
  79:Drivers/STM32H7xx_HAL_Driver/Src/stm32h7xx_hal_pwr.c ****       After reset, the backup domain (RTC registers, RTC backup data
  80:Drivers/STM32H7xx_HAL_Driver/Src/stm32h7xx_hal_pwr.c ****       registers and backup SRAM) is protected against possible unwanted
  81:Drivers/STM32H7xx_HAL_Driver/Src/stm32h7xx_hal_pwr.c ****       write accesses.
  82:Drivers/STM32H7xx_HAL_Driver/Src/stm32h7xx_hal_pwr.c ****       To enable access to the RTC Domain and RTC registers, proceed as follows:
  83:Drivers/STM32H7xx_HAL_Driver/Src/stm32h7xx_hal_pwr.c ****         (+) Enable the Power Controller (PWR) APB1 interface clock using the
  84:Drivers/STM32H7xx_HAL_Driver/Src/stm32h7xx_hal_pwr.c ****             __HAL_RCC_PWR_CLK_ENABLE() macro.
  85:Drivers/STM32H7xx_HAL_Driver/Src/stm32h7xx_hal_pwr.c ****         (+) Enable access to RTC domain using the HAL_PWR_EnableBkUpAccess() function.
  86:Drivers/STM32H7xx_HAL_Driver/Src/stm32h7xx_hal_pwr.c **** 
  87:Drivers/STM32H7xx_HAL_Driver/Src/stm32h7xx_hal_pwr.c **** @endverbatim
  88:Drivers/STM32H7xx_HAL_Driver/Src/stm32h7xx_hal_pwr.c ****   * @{
ARM GAS  /tmp/ccpdh2Ug.s 			page 3


  89:Drivers/STM32H7xx_HAL_Driver/Src/stm32h7xx_hal_pwr.c ****   */
  90:Drivers/STM32H7xx_HAL_Driver/Src/stm32h7xx_hal_pwr.c **** 
  91:Drivers/STM32H7xx_HAL_Driver/Src/stm32h7xx_hal_pwr.c **** /**
  92:Drivers/STM32H7xx_HAL_Driver/Src/stm32h7xx_hal_pwr.c ****   * @brief  Deinitialize the HAL PWR peripheral registers to their default reset values.
  93:Drivers/STM32H7xx_HAL_Driver/Src/stm32h7xx_hal_pwr.c ****   * @note   This functionality is not available in this product.
  94:Drivers/STM32H7xx_HAL_Driver/Src/stm32h7xx_hal_pwr.c ****   *         The prototype is kept just to maintain compatibility with other products.
  95:Drivers/STM32H7xx_HAL_Driver/Src/stm32h7xx_hal_pwr.c ****   * @retval None
  96:Drivers/STM32H7xx_HAL_Driver/Src/stm32h7xx_hal_pwr.c ****   */
  97:Drivers/STM32H7xx_HAL_Driver/Src/stm32h7xx_hal_pwr.c **** void HAL_PWR_DeInit(void)
  98:Drivers/STM32H7xx_HAL_Driver/Src/stm32h7xx_hal_pwr.c **** {
  28              		.loc 1 98 1 view -0
  29              		.cfi_startproc
  30              		@ args = 0, pretend = 0, frame = 0
  31              		@ frame_needed = 0, uses_anonymous_args = 0
  32              		@ link register save eliminated.
  99:Drivers/STM32H7xx_HAL_Driver/Src/stm32h7xx_hal_pwr.c **** }
  33              		.loc 1 99 1 view .LVU1
  34 0000 7047     		bx	lr
  35              		.cfi_endproc
  36              	.LFE141:
  38              		.section	.text.HAL_PWR_EnableBkUpAccess,"ax",%progbits
  39              		.align	1
  40              		.global	HAL_PWR_EnableBkUpAccess
  41              		.syntax unified
  42              		.thumb
  43              		.thumb_func
  44              		.fpu fpv5-d16
  46              	HAL_PWR_EnableBkUpAccess:
  47              	.LFB142:
 100:Drivers/STM32H7xx_HAL_Driver/Src/stm32h7xx_hal_pwr.c **** 
 101:Drivers/STM32H7xx_HAL_Driver/Src/stm32h7xx_hal_pwr.c **** /**
 102:Drivers/STM32H7xx_HAL_Driver/Src/stm32h7xx_hal_pwr.c ****   * @brief  Enable access to the backup domain (RTC registers, RTC
 103:Drivers/STM32H7xx_HAL_Driver/Src/stm32h7xx_hal_pwr.c ****   *         backup data registers and backup SRAM).
 104:Drivers/STM32H7xx_HAL_Driver/Src/stm32h7xx_hal_pwr.c ****   * @note   If the HSE divided by 2, 3, ..31 is used as the RTC clock, the
 105:Drivers/STM32H7xx_HAL_Driver/Src/stm32h7xx_hal_pwr.c ****   *         Backup Domain Access should be kept enabled.
 106:Drivers/STM32H7xx_HAL_Driver/Src/stm32h7xx_hal_pwr.c ****   * @retval None
 107:Drivers/STM32H7xx_HAL_Driver/Src/stm32h7xx_hal_pwr.c ****   */
 108:Drivers/STM32H7xx_HAL_Driver/Src/stm32h7xx_hal_pwr.c **** void HAL_PWR_EnableBkUpAccess(void)
 109:Drivers/STM32H7xx_HAL_Driver/Src/stm32h7xx_hal_pwr.c **** {
  48              		.loc 1 109 1 view -0
  49              		.cfi_startproc
  50              		@ args = 0, pretend = 0, frame = 0
  51              		@ frame_needed = 0, uses_anonymous_args = 0
  52              		@ link register save eliminated.
 110:Drivers/STM32H7xx_HAL_Driver/Src/stm32h7xx_hal_pwr.c ****   /* Enable access to RTC and backup registers */
 111:Drivers/STM32H7xx_HAL_Driver/Src/stm32h7xx_hal_pwr.c ****   SET_BIT(PWR->CR1, PWR_CR1_DBP);
  53              		.loc 1 111 3 view .LVU3
  54 0000 024A     		ldr	r2, .L3
  55 0002 1368     		ldr	r3, [r2]
  56 0004 43F48073 		orr	r3, r3, #256
  57 0008 1360     		str	r3, [r2]
 112:Drivers/STM32H7xx_HAL_Driver/Src/stm32h7xx_hal_pwr.c **** }
  58              		.loc 1 112 1 is_stmt 0 view .LVU4
  59 000a 7047     		bx	lr
  60              	.L4:
  61              		.align	2
  62              	.L3:
ARM GAS  /tmp/ccpdh2Ug.s 			page 4


  63 000c 00480258 		.word	1476544512
  64              		.cfi_endproc
  65              	.LFE142:
  67              		.section	.text.HAL_PWR_DisableBkUpAccess,"ax",%progbits
  68              		.align	1
  69              		.global	HAL_PWR_DisableBkUpAccess
  70              		.syntax unified
  71              		.thumb
  72              		.thumb_func
  73              		.fpu fpv5-d16
  75              	HAL_PWR_DisableBkUpAccess:
  76              	.LFB143:
 113:Drivers/STM32H7xx_HAL_Driver/Src/stm32h7xx_hal_pwr.c **** 
 114:Drivers/STM32H7xx_HAL_Driver/Src/stm32h7xx_hal_pwr.c **** /**
 115:Drivers/STM32H7xx_HAL_Driver/Src/stm32h7xx_hal_pwr.c ****   * @brief  Disable access to the backup domain (RTC registers, RTC
 116:Drivers/STM32H7xx_HAL_Driver/Src/stm32h7xx_hal_pwr.c ****   *         backup data registers and backup SRAM).
 117:Drivers/STM32H7xx_HAL_Driver/Src/stm32h7xx_hal_pwr.c ****   * @note   If the HSE divided by 2, 3, ..31 is used as the RTC clock, the
 118:Drivers/STM32H7xx_HAL_Driver/Src/stm32h7xx_hal_pwr.c ****   *         Backup Domain Access should be kept enabled.
 119:Drivers/STM32H7xx_HAL_Driver/Src/stm32h7xx_hal_pwr.c ****   * @retval None
 120:Drivers/STM32H7xx_HAL_Driver/Src/stm32h7xx_hal_pwr.c ****   */
 121:Drivers/STM32H7xx_HAL_Driver/Src/stm32h7xx_hal_pwr.c **** void HAL_PWR_DisableBkUpAccess(void)
 122:Drivers/STM32H7xx_HAL_Driver/Src/stm32h7xx_hal_pwr.c **** {
  77              		.loc 1 122 1 is_stmt 1 view -0
  78              		.cfi_startproc
  79              		@ args = 0, pretend = 0, frame = 0
  80              		@ frame_needed = 0, uses_anonymous_args = 0
  81              		@ link register save eliminated.
 123:Drivers/STM32H7xx_HAL_Driver/Src/stm32h7xx_hal_pwr.c ****   /* Disable access to RTC and backup registers */
 124:Drivers/STM32H7xx_HAL_Driver/Src/stm32h7xx_hal_pwr.c ****   CLEAR_BIT(PWR->CR1, PWR_CR1_DBP);
  82              		.loc 1 124 3 view .LVU6
  83 0000 024A     		ldr	r2, .L6
  84 0002 1368     		ldr	r3, [r2]
  85 0004 23F48073 		bic	r3, r3, #256
  86 0008 1360     		str	r3, [r2]
 125:Drivers/STM32H7xx_HAL_Driver/Src/stm32h7xx_hal_pwr.c **** }
  87              		.loc 1 125 1 is_stmt 0 view .LVU7
  88 000a 7047     		bx	lr
  89              	.L7:
  90              		.align	2
  91              	.L6:
  92 000c 00480258 		.word	1476544512
  93              		.cfi_endproc
  94              	.LFE143:
  96              		.section	.text.HAL_PWR_ConfigPVD,"ax",%progbits
  97              		.align	1
  98              		.global	HAL_PWR_ConfigPVD
  99              		.syntax unified
 100              		.thumb
 101              		.thumb_func
 102              		.fpu fpv5-d16
 104              	HAL_PWR_ConfigPVD:
 105              	.LVL0:
 106              	.LFB144:
 126:Drivers/STM32H7xx_HAL_Driver/Src/stm32h7xx_hal_pwr.c **** 
 127:Drivers/STM32H7xx_HAL_Driver/Src/stm32h7xx_hal_pwr.c **** /**
 128:Drivers/STM32H7xx_HAL_Driver/Src/stm32h7xx_hal_pwr.c ****   * @}
 129:Drivers/STM32H7xx_HAL_Driver/Src/stm32h7xx_hal_pwr.c ****   */
ARM GAS  /tmp/ccpdh2Ug.s 			page 5


 130:Drivers/STM32H7xx_HAL_Driver/Src/stm32h7xx_hal_pwr.c **** 
 131:Drivers/STM32H7xx_HAL_Driver/Src/stm32h7xx_hal_pwr.c **** /** @defgroup PWR_Exported_Functions_Group2 Peripheral Control functions
 132:Drivers/STM32H7xx_HAL_Driver/Src/stm32h7xx_hal_pwr.c ****   *  @brief   Low Power modes configuration functions
 133:Drivers/STM32H7xx_HAL_Driver/Src/stm32h7xx_hal_pwr.c ****   *
 134:Drivers/STM32H7xx_HAL_Driver/Src/stm32h7xx_hal_pwr.c **** @verbatim
 135:Drivers/STM32H7xx_HAL_Driver/Src/stm32h7xx_hal_pwr.c **** 
 136:Drivers/STM32H7xx_HAL_Driver/Src/stm32h7xx_hal_pwr.c ****  ===============================================================================
 137:Drivers/STM32H7xx_HAL_Driver/Src/stm32h7xx_hal_pwr.c ****                  ##### Peripheral Control functions #####
 138:Drivers/STM32H7xx_HAL_Driver/Src/stm32h7xx_hal_pwr.c ****  ===============================================================================
 139:Drivers/STM32H7xx_HAL_Driver/Src/stm32h7xx_hal_pwr.c **** 
 140:Drivers/STM32H7xx_HAL_Driver/Src/stm32h7xx_hal_pwr.c ****     *** PVD configuration ***
 141:Drivers/STM32H7xx_HAL_Driver/Src/stm32h7xx_hal_pwr.c ****     =========================
 142:Drivers/STM32H7xx_HAL_Driver/Src/stm32h7xx_hal_pwr.c ****     [..]
 143:Drivers/STM32H7xx_HAL_Driver/Src/stm32h7xx_hal_pwr.c ****       (+) The PVD is used to monitor the VDD power supply by comparing it to a
 144:Drivers/STM32H7xx_HAL_Driver/Src/stm32h7xx_hal_pwr.c ****           threshold selected by the PVD Level (PLS[7:0] bits in the PWR_CR1 register).
 145:Drivers/STM32H7xx_HAL_Driver/Src/stm32h7xx_hal_pwr.c ****       (+) A PVDO flag is available to indicate if VDD is higher or lower
 146:Drivers/STM32H7xx_HAL_Driver/Src/stm32h7xx_hal_pwr.c ****           than the PVD threshold. This event is internally connected to the EXTI
 147:Drivers/STM32H7xx_HAL_Driver/Src/stm32h7xx_hal_pwr.c ****           line 16 to generate an interrupt if enabled.
 148:Drivers/STM32H7xx_HAL_Driver/Src/stm32h7xx_hal_pwr.c ****           It is configurable through __HAL_PWR_PVD_EXTI_ENABLE_IT() macro.
 149:Drivers/STM32H7xx_HAL_Driver/Src/stm32h7xx_hal_pwr.c ****       (+) The PVD is stopped in Standby mode.
 150:Drivers/STM32H7xx_HAL_Driver/Src/stm32h7xx_hal_pwr.c **** 
 151:Drivers/STM32H7xx_HAL_Driver/Src/stm32h7xx_hal_pwr.c ****     *** Wake-up pin configuration ***
 152:Drivers/STM32H7xx_HAL_Driver/Src/stm32h7xx_hal_pwr.c ****     ================================
 153:Drivers/STM32H7xx_HAL_Driver/Src/stm32h7xx_hal_pwr.c ****     [..]
 154:Drivers/STM32H7xx_HAL_Driver/Src/stm32h7xx_hal_pwr.c ****       (+) Wake-up pin is used to wake up the system from Standby mode.
 155:Drivers/STM32H7xx_HAL_Driver/Src/stm32h7xx_hal_pwr.c ****           The pin pull is configurable through the WKUPEPR register to be in No pull-up, Pull-up an
 156:Drivers/STM32H7xx_HAL_Driver/Src/stm32h7xx_hal_pwr.c ****           The pin polarity is configurable through the WKUPEPR register to be active on rising or f
 157:Drivers/STM32H7xx_HAL_Driver/Src/stm32h7xx_hal_pwr.c ****       (+) There are up to six Wake-up pin in the STM32H7 devices family.
 158:Drivers/STM32H7xx_HAL_Driver/Src/stm32h7xx_hal_pwr.c **** 
 159:Drivers/STM32H7xx_HAL_Driver/Src/stm32h7xx_hal_pwr.c ****     *** Low Power modes configuration ***
 160:Drivers/STM32H7xx_HAL_Driver/Src/stm32h7xx_hal_pwr.c ****     =====================================
 161:Drivers/STM32H7xx_HAL_Driver/Src/stm32h7xx_hal_pwr.c ****     [..]
 162:Drivers/STM32H7xx_HAL_Driver/Src/stm32h7xx_hal_pwr.c ****      The device present 3 principles low-power modes features:
 163:Drivers/STM32H7xx_HAL_Driver/Src/stm32h7xx_hal_pwr.c ****       (+) SLEEP mode: Cortex-M7 core stopped and D1, D2 and D3 peripherals kept running.
 164:Drivers/STM32H7xx_HAL_Driver/Src/stm32h7xx_hal_pwr.c ****       (+) STOP mode: all clocks are stopped and the regulator is running in main or low power mode.
 165:Drivers/STM32H7xx_HAL_Driver/Src/stm32h7xx_hal_pwr.c ****       (+) STANDBY mode: D1, D2 and D3 domains enter DSTANDBY mode and the VCORE supply
 166:Drivers/STM32H7xx_HAL_Driver/Src/stm32h7xx_hal_pwr.c ****                         regulator is powered off.
 167:Drivers/STM32H7xx_HAL_Driver/Src/stm32h7xx_hal_pwr.c **** 
 168:Drivers/STM32H7xx_HAL_Driver/Src/stm32h7xx_hal_pwr.c ****    *** SLEEP mode ***
 169:Drivers/STM32H7xx_HAL_Driver/Src/stm32h7xx_hal_pwr.c ****    ==================
 170:Drivers/STM32H7xx_HAL_Driver/Src/stm32h7xx_hal_pwr.c ****     [..]
 171:Drivers/STM32H7xx_HAL_Driver/Src/stm32h7xx_hal_pwr.c ****       (+) Entry:
 172:Drivers/STM32H7xx_HAL_Driver/Src/stm32h7xx_hal_pwr.c ****         The Sleep mode is entered by using the HAL_PWR_EnterSLEEPMode(Regulator, SLEEPEntry)
 173:Drivers/STM32H7xx_HAL_Driver/Src/stm32h7xx_hal_pwr.c ****         function.
 174:Drivers/STM32H7xx_HAL_Driver/Src/stm32h7xx_hal_pwr.c **** 
 175:Drivers/STM32H7xx_HAL_Driver/Src/stm32h7xx_hal_pwr.c ****           (++) PWR_SLEEPENTRY_WFI: enter SLEEP mode with WFI instruction
 176:Drivers/STM32H7xx_HAL_Driver/Src/stm32h7xx_hal_pwr.c ****           (++) PWR_SLEEPENTRY_WFE: enter SLEEP mode with WFE instruction
 177:Drivers/STM32H7xx_HAL_Driver/Src/stm32h7xx_hal_pwr.c **** 
 178:Drivers/STM32H7xx_HAL_Driver/Src/stm32h7xx_hal_pwr.c ****       -@@- The Regulator parameter is not used for the STM32H7 family
 179:Drivers/STM32H7xx_HAL_Driver/Src/stm32h7xx_hal_pwr.c ****               and is kept as parameter just to maintain compatibility with the
 180:Drivers/STM32H7xx_HAL_Driver/Src/stm32h7xx_hal_pwr.c ****               lower power families (STM32L).
 181:Drivers/STM32H7xx_HAL_Driver/Src/stm32h7xx_hal_pwr.c ****       (+) Exit:
 182:Drivers/STM32H7xx_HAL_Driver/Src/stm32h7xx_hal_pwr.c ****         Any peripheral interrupt acknowledged by the nested vectored interrupt
 183:Drivers/STM32H7xx_HAL_Driver/Src/stm32h7xx_hal_pwr.c ****         controller (NVIC) can wake up the device from Sleep mode.
 184:Drivers/STM32H7xx_HAL_Driver/Src/stm32h7xx_hal_pwr.c **** 
 185:Drivers/STM32H7xx_HAL_Driver/Src/stm32h7xx_hal_pwr.c ****    *** STOP mode ***
 186:Drivers/STM32H7xx_HAL_Driver/Src/stm32h7xx_hal_pwr.c ****    =================
ARM GAS  /tmp/ccpdh2Ug.s 			page 6


 187:Drivers/STM32H7xx_HAL_Driver/Src/stm32h7xx_hal_pwr.c ****     [..]
 188:Drivers/STM32H7xx_HAL_Driver/Src/stm32h7xx_hal_pwr.c ****       In system Stop mode, all clocks in the 1.2V domain are stopped, the PLL, the HSI,
 189:Drivers/STM32H7xx_HAL_Driver/Src/stm32h7xx_hal_pwr.c ****       and the HSE RC oscillators are disabled. Internal SRAM and register contents
 190:Drivers/STM32H7xx_HAL_Driver/Src/stm32h7xx_hal_pwr.c ****       are preserved.
 191:Drivers/STM32H7xx_HAL_Driver/Src/stm32h7xx_hal_pwr.c ****       The voltage regulator can be configured either in normal or low-power mode.
 192:Drivers/STM32H7xx_HAL_Driver/Src/stm32h7xx_hal_pwr.c ****       To minimize the consumption In Stop mode, FLASH can be powered off before
 193:Drivers/STM32H7xx_HAL_Driver/Src/stm32h7xx_hal_pwr.c ****       entering the Stop mode using the HAL_PWREx_EnableFlashPowerDown() function.
 194:Drivers/STM32H7xx_HAL_Driver/Src/stm32h7xx_hal_pwr.c ****       It can be switched on again by software after exiting the Stop mode using
 195:Drivers/STM32H7xx_HAL_Driver/Src/stm32h7xx_hal_pwr.c ****       the HAL_PWREx_DisableFlashPowerDown() function.
 196:Drivers/STM32H7xx_HAL_Driver/Src/stm32h7xx_hal_pwr.c **** 
 197:Drivers/STM32H7xx_HAL_Driver/Src/stm32h7xx_hal_pwr.c ****       (+) Entry:
 198:Drivers/STM32H7xx_HAL_Driver/Src/stm32h7xx_hal_pwr.c ****          The Stop mode is entered using the HAL_PWR_EnterSTOPMode(Regulator, STOPEntry)
 199:Drivers/STM32H7xx_HAL_Driver/Src/stm32h7xx_hal_pwr.c ****          function with:
 200:Drivers/STM32H7xx_HAL_Driver/Src/stm32h7xx_hal_pwr.c ****          (++) Regulator:
 201:Drivers/STM32H7xx_HAL_Driver/Src/stm32h7xx_hal_pwr.c ****           (+++) PWR_MAINREGULATOR_ON: Main regulator ON.
 202:Drivers/STM32H7xx_HAL_Driver/Src/stm32h7xx_hal_pwr.c ****           (+++) PWR_LOWPOWERREGULATOR_ON: Low Power regulator ON.
 203:Drivers/STM32H7xx_HAL_Driver/Src/stm32h7xx_hal_pwr.c ****          (++) STOPEntry:
 204:Drivers/STM32H7xx_HAL_Driver/Src/stm32h7xx_hal_pwr.c ****           (+++) PWR_STOPENTRY_WFI: enter STOP mode with WFI instruction
 205:Drivers/STM32H7xx_HAL_Driver/Src/stm32h7xx_hal_pwr.c ****           (+++) PWR_STOPENTRY_WFE: enter STOP mode with WFE instruction
 206:Drivers/STM32H7xx_HAL_Driver/Src/stm32h7xx_hal_pwr.c ****       (+) Exit:
 207:Drivers/STM32H7xx_HAL_Driver/Src/stm32h7xx_hal_pwr.c ****         Any EXTI Line (Internal or External) configured in Interrupt/Event mode.
 208:Drivers/STM32H7xx_HAL_Driver/Src/stm32h7xx_hal_pwr.c **** 
 209:Drivers/STM32H7xx_HAL_Driver/Src/stm32h7xx_hal_pwr.c ****    *** STANDBY mode ***
 210:Drivers/STM32H7xx_HAL_Driver/Src/stm32h7xx_hal_pwr.c ****    ====================
 211:Drivers/STM32H7xx_HAL_Driver/Src/stm32h7xx_hal_pwr.c ****     [..]
 212:Drivers/STM32H7xx_HAL_Driver/Src/stm32h7xx_hal_pwr.c ****     (+)
 213:Drivers/STM32H7xx_HAL_Driver/Src/stm32h7xx_hal_pwr.c ****       The system Standby mode allows to achieve the lowest power consumption. It is based
 214:Drivers/STM32H7xx_HAL_Driver/Src/stm32h7xx_hal_pwr.c ****       on the Cortex-M7 deep sleep mode, with the voltage regulator disabled.
 215:Drivers/STM32H7xx_HAL_Driver/Src/stm32h7xx_hal_pwr.c ****       The system is consequently powered off. The PLL, the HSI oscillator and
 216:Drivers/STM32H7xx_HAL_Driver/Src/stm32h7xx_hal_pwr.c ****       the HSE oscillator are also switched off. SRAM and register contents are lost
 217:Drivers/STM32H7xx_HAL_Driver/Src/stm32h7xx_hal_pwr.c ****       except for the RTC registers, RTC backup registers, backup SRAM and Standby
 218:Drivers/STM32H7xx_HAL_Driver/Src/stm32h7xx_hal_pwr.c ****       circuitry.
 219:Drivers/STM32H7xx_HAL_Driver/Src/stm32h7xx_hal_pwr.c ****     [..]
 220:Drivers/STM32H7xx_HAL_Driver/Src/stm32h7xx_hal_pwr.c ****       The voltage regulator is OFF.
 221:Drivers/STM32H7xx_HAL_Driver/Src/stm32h7xx_hal_pwr.c ****       (++) Entry:
 222:Drivers/STM32H7xx_HAL_Driver/Src/stm32h7xx_hal_pwr.c ****         (+++) The Standby mode is entered using the HAL_PWR_EnterSTANDBYMode() function.
 223:Drivers/STM32H7xx_HAL_Driver/Src/stm32h7xx_hal_pwr.c ****       (++) Exit:
 224:Drivers/STM32H7xx_HAL_Driver/Src/stm32h7xx_hal_pwr.c ****         (+++) WKUP pin rising or falling edge, RTC alarm (Alarm A and Alarm B), RTC
 225:Drivers/STM32H7xx_HAL_Driver/Src/stm32h7xx_hal_pwr.c ****               wakeup, tamper event, time stamp event, external reset in NRST pin, IWDG reset.
 226:Drivers/STM32H7xx_HAL_Driver/Src/stm32h7xx_hal_pwr.c **** 
 227:Drivers/STM32H7xx_HAL_Driver/Src/stm32h7xx_hal_pwr.c ****    *** Auto-wakeup (AWU) from low-power mode ***
 228:Drivers/STM32H7xx_HAL_Driver/Src/stm32h7xx_hal_pwr.c ****    =============================================
 229:Drivers/STM32H7xx_HAL_Driver/Src/stm32h7xx_hal_pwr.c ****     [..]
 230:Drivers/STM32H7xx_HAL_Driver/Src/stm32h7xx_hal_pwr.c ****      (+) The MCU can be woken up from low-power mode by an RTC Alarm event, an RTC
 231:Drivers/STM32H7xx_HAL_Driver/Src/stm32h7xx_hal_pwr.c ****       Wakeup event, a tamper event or a time-stamp event, without depending on
 232:Drivers/STM32H7xx_HAL_Driver/Src/stm32h7xx_hal_pwr.c ****       an external interrupt (Auto-wakeup mode).
 233:Drivers/STM32H7xx_HAL_Driver/Src/stm32h7xx_hal_pwr.c ****      (+) RTC auto-wakeup (AWU) from the STOP and STANDBY modes
 234:Drivers/STM32H7xx_HAL_Driver/Src/stm32h7xx_hal_pwr.c ****        (++) To wake up from the Stop mode with an RTC alarm event, it is necessary to
 235:Drivers/STM32H7xx_HAL_Driver/Src/stm32h7xx_hal_pwr.c ****             configure the RTC to generate the RTC alarm using the HAL_RTC_SetAlarm_IT() function.
 236:Drivers/STM32H7xx_HAL_Driver/Src/stm32h7xx_hal_pwr.c ****        (++) To wake up from the Stop mode with an RTC Tamper or time stamp event, it
 237:Drivers/STM32H7xx_HAL_Driver/Src/stm32h7xx_hal_pwr.c ****             is necessary to configure the RTC to detect the tamper or time stamp event using the
 238:Drivers/STM32H7xx_HAL_Driver/Src/stm32h7xx_hal_pwr.c ****             HAL_RTCEx_SetTimeStamp_IT() or HAL_RTCEx_SetTamper_IT() functions.
 239:Drivers/STM32H7xx_HAL_Driver/Src/stm32h7xx_hal_pwr.c ****        (++) To wake up from the Stop mode with an RTC WakeUp event, it is necessary to
 240:Drivers/STM32H7xx_HAL_Driver/Src/stm32h7xx_hal_pwr.c ****             configure the RTC to generate the RTC WakeUp event using the HAL_RTCEx_SetWakeUpTimer_I
 241:Drivers/STM32H7xx_HAL_Driver/Src/stm32h7xx_hal_pwr.c **** 
 242:Drivers/STM32H7xx_HAL_Driver/Src/stm32h7xx_hal_pwr.c **** @endverbatim
 243:Drivers/STM32H7xx_HAL_Driver/Src/stm32h7xx_hal_pwr.c ****   * @{
ARM GAS  /tmp/ccpdh2Ug.s 			page 7


 244:Drivers/STM32H7xx_HAL_Driver/Src/stm32h7xx_hal_pwr.c ****   */
 245:Drivers/STM32H7xx_HAL_Driver/Src/stm32h7xx_hal_pwr.c **** 
 246:Drivers/STM32H7xx_HAL_Driver/Src/stm32h7xx_hal_pwr.c **** /**
 247:Drivers/STM32H7xx_HAL_Driver/Src/stm32h7xx_hal_pwr.c ****   * @brief  Configure the voltage threshold detected by the Power Voltage Detector(PVD).
 248:Drivers/STM32H7xx_HAL_Driver/Src/stm32h7xx_hal_pwr.c ****   * @param  sConfigPVD: pointer to an PWR_PVDTypeDef structure that contains the configuration
 249:Drivers/STM32H7xx_HAL_Driver/Src/stm32h7xx_hal_pwr.c ****   *         information for the PVD.
 250:Drivers/STM32H7xx_HAL_Driver/Src/stm32h7xx_hal_pwr.c ****   * @note   Refer to the electrical characteristics of your device datasheet for
 251:Drivers/STM32H7xx_HAL_Driver/Src/stm32h7xx_hal_pwr.c ****   *         more details about the voltage threshold corresponding to each
 252:Drivers/STM32H7xx_HAL_Driver/Src/stm32h7xx_hal_pwr.c ****   *         detection level.
 253:Drivers/STM32H7xx_HAL_Driver/Src/stm32h7xx_hal_pwr.c ****   * @retval None
 254:Drivers/STM32H7xx_HAL_Driver/Src/stm32h7xx_hal_pwr.c ****   */
 255:Drivers/STM32H7xx_HAL_Driver/Src/stm32h7xx_hal_pwr.c **** void HAL_PWR_ConfigPVD(PWR_PVDTypeDef *sConfigPVD)
 256:Drivers/STM32H7xx_HAL_Driver/Src/stm32h7xx_hal_pwr.c **** {
 107              		.loc 1 256 1 is_stmt 1 view -0
 108              		.cfi_startproc
 109              		@ args = 0, pretend = 0, frame = 0
 110              		@ frame_needed = 0, uses_anonymous_args = 0
 111              		@ link register save eliminated.
 257:Drivers/STM32H7xx_HAL_Driver/Src/stm32h7xx_hal_pwr.c ****   /* Check the parameters */
 258:Drivers/STM32H7xx_HAL_Driver/Src/stm32h7xx_hal_pwr.c ****   assert_param(IS_PWR_PVD_LEVEL(sConfigPVD->PVDLevel));
 112              		.loc 1 258 3 view .LVU9
 259:Drivers/STM32H7xx_HAL_Driver/Src/stm32h7xx_hal_pwr.c ****   assert_param(IS_PWR_PVD_MODE(sConfigPVD->Mode));
 113              		.loc 1 259 3 view .LVU10
 260:Drivers/STM32H7xx_HAL_Driver/Src/stm32h7xx_hal_pwr.c **** 
 261:Drivers/STM32H7xx_HAL_Driver/Src/stm32h7xx_hal_pwr.c ****   /* Set PLS[7:5] bits according to PVDLevel value */
 262:Drivers/STM32H7xx_HAL_Driver/Src/stm32h7xx_hal_pwr.c ****   MODIFY_REG(PWR->CR1, PWR_CR1_PLS, sConfigPVD->PVDLevel);
 114              		.loc 1 262 3 view .LVU11
 115 0000 244A     		ldr	r2, .L13
 116 0002 1368     		ldr	r3, [r2]
 117 0004 23F0E003 		bic	r3, r3, #224
 118 0008 0168     		ldr	r1, [r0]
 119 000a 0B43     		orrs	r3, r3, r1
 120 000c 1360     		str	r3, [r2]
 263:Drivers/STM32H7xx_HAL_Driver/Src/stm32h7xx_hal_pwr.c **** 
 264:Drivers/STM32H7xx_HAL_Driver/Src/stm32h7xx_hal_pwr.c ****   /* Clear any previous config */
 265:Drivers/STM32H7xx_HAL_Driver/Src/stm32h7xx_hal_pwr.c **** #if !defined (DUAL_CORE)
 266:Drivers/STM32H7xx_HAL_Driver/Src/stm32h7xx_hal_pwr.c ****   __HAL_PWR_PVD_EXTI_DISABLE_EVENT();
 121              		.loc 1 266 3 view .LVU12
 122 000e 4FF0B043 		mov	r3, #1476395008
 123 0012 D3F88420 		ldr	r2, [r3, #132]
 124 0016 22F48032 		bic	r2, r2, #65536
 125 001a C3F88420 		str	r2, [r3, #132]
 267:Drivers/STM32H7xx_HAL_Driver/Src/stm32h7xx_hal_pwr.c ****   __HAL_PWR_PVD_EXTI_DISABLE_IT();
 126              		.loc 1 267 3 view .LVU13
 127 001e D3F88020 		ldr	r2, [r3, #128]
 128 0022 22F48032 		bic	r2, r2, #65536
 129 0026 C3F88020 		str	r2, [r3, #128]
 268:Drivers/STM32H7xx_HAL_Driver/Src/stm32h7xx_hal_pwr.c **** #endif /* DUAL_CORE */
 269:Drivers/STM32H7xx_HAL_Driver/Src/stm32h7xx_hal_pwr.c ****   __HAL_PWR_PVD_EXTI_DISABLE_RISING_EDGE();
 130              		.loc 1 269 3 view .LVU14
 131 002a 1A68     		ldr	r2, [r3]
 132 002c 22F48032 		bic	r2, r2, #65536
 133 0030 1A60     		str	r2, [r3]
 270:Drivers/STM32H7xx_HAL_Driver/Src/stm32h7xx_hal_pwr.c ****   __HAL_PWR_PVD_EXTI_DISABLE_FALLING_EDGE();
 134              		.loc 1 270 3 view .LVU15
 135 0032 5A68     		ldr	r2, [r3, #4]
 136 0034 22F48032 		bic	r2, r2, #65536
ARM GAS  /tmp/ccpdh2Ug.s 			page 8


 137 0038 5A60     		str	r2, [r3, #4]
 271:Drivers/STM32H7xx_HAL_Driver/Src/stm32h7xx_hal_pwr.c **** 
 272:Drivers/STM32H7xx_HAL_Driver/Src/stm32h7xx_hal_pwr.c **** #if !defined (DUAL_CORE)
 273:Drivers/STM32H7xx_HAL_Driver/Src/stm32h7xx_hal_pwr.c ****   /* Configure interrupt mode */
 274:Drivers/STM32H7xx_HAL_Driver/Src/stm32h7xx_hal_pwr.c ****   if((sConfigPVD->Mode & PVD_MODE_IT) == PVD_MODE_IT)
 138              		.loc 1 274 3 view .LVU16
 139              		.loc 1 274 17 is_stmt 0 view .LVU17
 140 003a 4368     		ldr	r3, [r0, #4]
 141              		.loc 1 274 5 view .LVU18
 142 003c 13F4803F 		tst	r3, #65536
 143 0040 07D0     		beq	.L9
 275:Drivers/STM32H7xx_HAL_Driver/Src/stm32h7xx_hal_pwr.c ****   {
 276:Drivers/STM32H7xx_HAL_Driver/Src/stm32h7xx_hal_pwr.c ****     __HAL_PWR_PVD_EXTI_ENABLE_IT();
 144              		.loc 1 276 5 is_stmt 1 view .LVU19
 145 0042 4FF0B042 		mov	r2, #1476395008
 146 0046 D2F88030 		ldr	r3, [r2, #128]
 147 004a 43F48033 		orr	r3, r3, #65536
 148 004e C2F88030 		str	r3, [r2, #128]
 149              	.L9:
 277:Drivers/STM32H7xx_HAL_Driver/Src/stm32h7xx_hal_pwr.c ****   }
 278:Drivers/STM32H7xx_HAL_Driver/Src/stm32h7xx_hal_pwr.c **** 
 279:Drivers/STM32H7xx_HAL_Driver/Src/stm32h7xx_hal_pwr.c ****   /* Configure event mode */
 280:Drivers/STM32H7xx_HAL_Driver/Src/stm32h7xx_hal_pwr.c ****   if((sConfigPVD->Mode & PVD_MODE_EVT) == PVD_MODE_EVT)
 150              		.loc 1 280 3 view .LVU20
 151              		.loc 1 280 17 is_stmt 0 view .LVU21
 152 0052 4368     		ldr	r3, [r0, #4]
 153              		.loc 1 280 5 view .LVU22
 154 0054 13F4003F 		tst	r3, #131072
 155 0058 07D0     		beq	.L10
 281:Drivers/STM32H7xx_HAL_Driver/Src/stm32h7xx_hal_pwr.c ****   {
 282:Drivers/STM32H7xx_HAL_Driver/Src/stm32h7xx_hal_pwr.c ****     __HAL_PWR_PVD_EXTI_ENABLE_EVENT();
 156              		.loc 1 282 5 is_stmt 1 view .LVU23
 157 005a 4FF0B042 		mov	r2, #1476395008
 158 005e D2F88430 		ldr	r3, [r2, #132]
 159 0062 43F48033 		orr	r3, r3, #65536
 160 0066 C2F88430 		str	r3, [r2, #132]
 161              	.L10:
 283:Drivers/STM32H7xx_HAL_Driver/Src/stm32h7xx_hal_pwr.c ****   }
 284:Drivers/STM32H7xx_HAL_Driver/Src/stm32h7xx_hal_pwr.c **** #endif /* DUAL_CORE */
 285:Drivers/STM32H7xx_HAL_Driver/Src/stm32h7xx_hal_pwr.c **** 
 286:Drivers/STM32H7xx_HAL_Driver/Src/stm32h7xx_hal_pwr.c ****   /* Configure the edge */
 287:Drivers/STM32H7xx_HAL_Driver/Src/stm32h7xx_hal_pwr.c ****   if((sConfigPVD->Mode & PVD_RISING_EDGE) == PVD_RISING_EDGE)
 162              		.loc 1 287 3 view .LVU24
 163              		.loc 1 287 17 is_stmt 0 view .LVU25
 164 006a 4368     		ldr	r3, [r0, #4]
 165              		.loc 1 287 5 view .LVU26
 166 006c 13F0010F 		tst	r3, #1
 167 0070 05D0     		beq	.L11
 288:Drivers/STM32H7xx_HAL_Driver/Src/stm32h7xx_hal_pwr.c ****   {
 289:Drivers/STM32H7xx_HAL_Driver/Src/stm32h7xx_hal_pwr.c ****     __HAL_PWR_PVD_EXTI_ENABLE_RISING_EDGE();
 168              		.loc 1 289 5 is_stmt 1 view .LVU27
 169 0072 4FF0B042 		mov	r2, #1476395008
 170 0076 1368     		ldr	r3, [r2]
 171 0078 43F48033 		orr	r3, r3, #65536
 172 007c 1360     		str	r3, [r2]
 173              	.L11:
 290:Drivers/STM32H7xx_HAL_Driver/Src/stm32h7xx_hal_pwr.c ****   }
ARM GAS  /tmp/ccpdh2Ug.s 			page 9


 291:Drivers/STM32H7xx_HAL_Driver/Src/stm32h7xx_hal_pwr.c **** 
 292:Drivers/STM32H7xx_HAL_Driver/Src/stm32h7xx_hal_pwr.c ****   if((sConfigPVD->Mode & PVD_FALLING_EDGE) == PVD_FALLING_EDGE)
 174              		.loc 1 292 3 view .LVU28
 175              		.loc 1 292 17 is_stmt 0 view .LVU29
 176 007e 4368     		ldr	r3, [r0, #4]
 177              		.loc 1 292 5 view .LVU30
 178 0080 13F0020F 		tst	r3, #2
 179 0084 05D0     		beq	.L8
 293:Drivers/STM32H7xx_HAL_Driver/Src/stm32h7xx_hal_pwr.c ****   {
 294:Drivers/STM32H7xx_HAL_Driver/Src/stm32h7xx_hal_pwr.c ****     __HAL_PWR_PVD_EXTI_ENABLE_FALLING_EDGE();
 180              		.loc 1 294 5 is_stmt 1 view .LVU31
 181 0086 4FF0B042 		mov	r2, #1476395008
 182 008a 5368     		ldr	r3, [r2, #4]
 183 008c 43F48033 		orr	r3, r3, #65536
 184 0090 5360     		str	r3, [r2, #4]
 185              	.L8:
 295:Drivers/STM32H7xx_HAL_Driver/Src/stm32h7xx_hal_pwr.c ****   }
 296:Drivers/STM32H7xx_HAL_Driver/Src/stm32h7xx_hal_pwr.c **** }
 186              		.loc 1 296 1 is_stmt 0 view .LVU32
 187 0092 7047     		bx	lr
 188              	.L14:
 189              		.align	2
 190              	.L13:
 191 0094 00480258 		.word	1476544512
 192              		.cfi_endproc
 193              	.LFE144:
 195              		.section	.text.HAL_PWR_EnablePVD,"ax",%progbits
 196              		.align	1
 197              		.global	HAL_PWR_EnablePVD
 198              		.syntax unified
 199              		.thumb
 200              		.thumb_func
 201              		.fpu fpv5-d16
 203              	HAL_PWR_EnablePVD:
 204              	.LFB145:
 297:Drivers/STM32H7xx_HAL_Driver/Src/stm32h7xx_hal_pwr.c **** 
 298:Drivers/STM32H7xx_HAL_Driver/Src/stm32h7xx_hal_pwr.c **** /**
 299:Drivers/STM32H7xx_HAL_Driver/Src/stm32h7xx_hal_pwr.c ****   * @brief  Enable the Power Voltage Detector(PVD).
 300:Drivers/STM32H7xx_HAL_Driver/Src/stm32h7xx_hal_pwr.c ****   * @retval None
 301:Drivers/STM32H7xx_HAL_Driver/Src/stm32h7xx_hal_pwr.c ****   */
 302:Drivers/STM32H7xx_HAL_Driver/Src/stm32h7xx_hal_pwr.c **** void HAL_PWR_EnablePVD(void)
 303:Drivers/STM32H7xx_HAL_Driver/Src/stm32h7xx_hal_pwr.c **** {
 205              		.loc 1 303 1 is_stmt 1 view -0
 206              		.cfi_startproc
 207              		@ args = 0, pretend = 0, frame = 0
 208              		@ frame_needed = 0, uses_anonymous_args = 0
 209              		@ link register save eliminated.
 304:Drivers/STM32H7xx_HAL_Driver/Src/stm32h7xx_hal_pwr.c ****   /* Enable the power voltage detector */
 305:Drivers/STM32H7xx_HAL_Driver/Src/stm32h7xx_hal_pwr.c ****   SET_BIT(PWR->CR1, PWR_CR1_PVDEN);
 210              		.loc 1 305 3 view .LVU34
 211 0000 024A     		ldr	r2, .L16
 212 0002 1368     		ldr	r3, [r2]
 213 0004 43F01003 		orr	r3, r3, #16
 214 0008 1360     		str	r3, [r2]
 306:Drivers/STM32H7xx_HAL_Driver/Src/stm32h7xx_hal_pwr.c **** }
 215              		.loc 1 306 1 is_stmt 0 view .LVU35
 216 000a 7047     		bx	lr
ARM GAS  /tmp/ccpdh2Ug.s 			page 10


 217              	.L17:
 218              		.align	2
 219              	.L16:
 220 000c 00480258 		.word	1476544512
 221              		.cfi_endproc
 222              	.LFE145:
 224              		.section	.text.HAL_PWR_DisablePVD,"ax",%progbits
 225              		.align	1
 226              		.global	HAL_PWR_DisablePVD
 227              		.syntax unified
 228              		.thumb
 229              		.thumb_func
 230              		.fpu fpv5-d16
 232              	HAL_PWR_DisablePVD:
 233              	.LFB146:
 307:Drivers/STM32H7xx_HAL_Driver/Src/stm32h7xx_hal_pwr.c **** 
 308:Drivers/STM32H7xx_HAL_Driver/Src/stm32h7xx_hal_pwr.c **** /**
 309:Drivers/STM32H7xx_HAL_Driver/Src/stm32h7xx_hal_pwr.c ****   * @brief  Disable the Power Voltage Detector(PVD).
 310:Drivers/STM32H7xx_HAL_Driver/Src/stm32h7xx_hal_pwr.c ****   * @retval None
 311:Drivers/STM32H7xx_HAL_Driver/Src/stm32h7xx_hal_pwr.c ****   */
 312:Drivers/STM32H7xx_HAL_Driver/Src/stm32h7xx_hal_pwr.c **** void HAL_PWR_DisablePVD(void)
 313:Drivers/STM32H7xx_HAL_Driver/Src/stm32h7xx_hal_pwr.c **** {
 234              		.loc 1 313 1 is_stmt 1 view -0
 235              		.cfi_startproc
 236              		@ args = 0, pretend = 0, frame = 0
 237              		@ frame_needed = 0, uses_anonymous_args = 0
 238              		@ link register save eliminated.
 314:Drivers/STM32H7xx_HAL_Driver/Src/stm32h7xx_hal_pwr.c ****   /* Disable the power voltage detector */
 315:Drivers/STM32H7xx_HAL_Driver/Src/stm32h7xx_hal_pwr.c ****   CLEAR_BIT(PWR->CR1, PWR_CR1_PVDEN);
 239              		.loc 1 315 3 view .LVU37
 240 0000 024A     		ldr	r2, .L19
 241 0002 1368     		ldr	r3, [r2]
 242 0004 23F01003 		bic	r3, r3, #16
 243 0008 1360     		str	r3, [r2]
 316:Drivers/STM32H7xx_HAL_Driver/Src/stm32h7xx_hal_pwr.c **** }
 244              		.loc 1 316 1 is_stmt 0 view .LVU38
 245 000a 7047     		bx	lr
 246              	.L20:
 247              		.align	2
 248              	.L19:
 249 000c 00480258 		.word	1476544512
 250              		.cfi_endproc
 251              	.LFE146:
 253              		.section	.text.HAL_PWR_EnableWakeUpPin,"ax",%progbits
 254              		.align	1
 255              		.global	HAL_PWR_EnableWakeUpPin
 256              		.syntax unified
 257              		.thumb
 258              		.thumb_func
 259              		.fpu fpv5-d16
 261              	HAL_PWR_EnableWakeUpPin:
 262              	.LVL1:
 263              	.LFB147:
 317:Drivers/STM32H7xx_HAL_Driver/Src/stm32h7xx_hal_pwr.c **** 
 318:Drivers/STM32H7xx_HAL_Driver/Src/stm32h7xx_hal_pwr.c **** /**
 319:Drivers/STM32H7xx_HAL_Driver/Src/stm32h7xx_hal_pwr.c ****   * @brief  Enable the WakeUp PINx functionality.
 320:Drivers/STM32H7xx_HAL_Driver/Src/stm32h7xx_hal_pwr.c ****   * @param  WakeUpPinPolarity: Specifies which Wake-Up pin to enable.
ARM GAS  /tmp/ccpdh2Ug.s 			page 11


 321:Drivers/STM32H7xx_HAL_Driver/Src/stm32h7xx_hal_pwr.c ****   *          This parameter can be one of the following legacy values, which sets the default:
 322:Drivers/STM32H7xx_HAL_Driver/Src/stm32h7xx_hal_pwr.c ****   *          polarity detection on high level (rising edge):
 323:Drivers/STM32H7xx_HAL_Driver/Src/stm32h7xx_hal_pwr.c ****   *            @arg PWR_WAKEUP_PIN1, PWR_WAKEUP_PIN2, PWR_WAKEUP_PIN3, PWR_WAKEUP_PIN4,
 324:Drivers/STM32H7xx_HAL_Driver/Src/stm32h7xx_hal_pwr.c ****   *                 PWR_WAKEUP_PIN5, PWR_WAKEUP_PIN6 or one of the following values where
 325:Drivers/STM32H7xx_HAL_Driver/Src/stm32h7xx_hal_pwr.c ****   *                 the user can explicitly states the enabled pin and the chosen polarity.
 326:Drivers/STM32H7xx_HAL_Driver/Src/stm32h7xx_hal_pwr.c ****   *            @arg PWR_WAKEUP_PIN1_HIGH or PWR_WAKEUP_PIN1_LOW
 327:Drivers/STM32H7xx_HAL_Driver/Src/stm32h7xx_hal_pwr.c ****   *            @arg PWR_WAKEUP_PIN2_HIGH or PWR_WAKEUP_PIN2_LOW
 328:Drivers/STM32H7xx_HAL_Driver/Src/stm32h7xx_hal_pwr.c ****   *            @arg PWR_WAKEUP_PIN3_HIGH or PWR_WAKEUP_PIN3_LOW
 329:Drivers/STM32H7xx_HAL_Driver/Src/stm32h7xx_hal_pwr.c ****   *            @arg PWR_WAKEUP_PIN4_HIGH or PWR_WAKEUP_PIN4_LOW
 330:Drivers/STM32H7xx_HAL_Driver/Src/stm32h7xx_hal_pwr.c ****   *            @arg PWR_WAKEUP_PIN5_HIGH or PWR_WAKEUP_PIN5_LOW
 331:Drivers/STM32H7xx_HAL_Driver/Src/stm32h7xx_hal_pwr.c ****   *            @arg PWR_WAKEUP_PIN6_HIGH or PWR_WAKEUP_PIN6_LOW
 332:Drivers/STM32H7xx_HAL_Driver/Src/stm32h7xx_hal_pwr.c ****   * @note   PWR_WAKEUP_PINx and PWR_WAKEUP_PINx_HIGH are equivalent.
 333:Drivers/STM32H7xx_HAL_Driver/Src/stm32h7xx_hal_pwr.c ****   * @retval None
 334:Drivers/STM32H7xx_HAL_Driver/Src/stm32h7xx_hal_pwr.c ****   */
 335:Drivers/STM32H7xx_HAL_Driver/Src/stm32h7xx_hal_pwr.c **** void HAL_PWR_EnableWakeUpPin(uint32_t WakeUpPinPolarity)
 336:Drivers/STM32H7xx_HAL_Driver/Src/stm32h7xx_hal_pwr.c **** {
 264              		.loc 1 336 1 is_stmt 1 view -0
 265              		.cfi_startproc
 266              		@ args = 0, pretend = 0, frame = 0
 267              		@ frame_needed = 0, uses_anonymous_args = 0
 268              		@ link register save eliminated.
 337:Drivers/STM32H7xx_HAL_Driver/Src/stm32h7xx_hal_pwr.c ****   assert_param(IS_PWR_WAKEUP_PIN(WakeUpPinPolarity));
 269              		.loc 1 337 3 view .LVU40
 338:Drivers/STM32H7xx_HAL_Driver/Src/stm32h7xx_hal_pwr.c **** 
 339:Drivers/STM32H7xx_HAL_Driver/Src/stm32h7xx_hal_pwr.c ****   /* Enable and Specify the Wake-Up pin polarity and the pull configuration
 340:Drivers/STM32H7xx_HAL_Driver/Src/stm32h7xx_hal_pwr.c ****      for the event detection (rising or falling edge) */
 341:Drivers/STM32H7xx_HAL_Driver/Src/stm32h7xx_hal_pwr.c ****   MODIFY_REG(PWR->WKUPEPR, PWR_EWUP_MASK, WakeUpPinPolarity);
 270              		.loc 1 341 3 view .LVU41
 271 0000 034A     		ldr	r2, .L22
 272 0002 916A     		ldr	r1, [r2, #40]
 273 0004 034B     		ldr	r3, .L22+4
 274 0006 0B40     		ands	r3, r3, r1
 275 0008 0343     		orrs	r3, r3, r0
 276 000a 9362     		str	r3, [r2, #40]
 342:Drivers/STM32H7xx_HAL_Driver/Src/stm32h7xx_hal_pwr.c **** }
 277              		.loc 1 342 1 is_stmt 0 view .LVU42
 278 000c 7047     		bx	lr
 279              	.L23:
 280 000e 00BF     		.align	2
 281              	.L22:
 282 0010 00480258 		.word	1476544512
 283 0014 C0C000F0 		.word	-268386112
 284              		.cfi_endproc
 285              	.LFE147:
 287              		.section	.text.HAL_PWR_DisableWakeUpPin,"ax",%progbits
 288              		.align	1
 289              		.global	HAL_PWR_DisableWakeUpPin
 290              		.syntax unified
 291              		.thumb
 292              		.thumb_func
 293              		.fpu fpv5-d16
 295              	HAL_PWR_DisableWakeUpPin:
 296              	.LVL2:
 297              	.LFB148:
 343:Drivers/STM32H7xx_HAL_Driver/Src/stm32h7xx_hal_pwr.c **** 
 344:Drivers/STM32H7xx_HAL_Driver/Src/stm32h7xx_hal_pwr.c **** /**
 345:Drivers/STM32H7xx_HAL_Driver/Src/stm32h7xx_hal_pwr.c ****   * @brief  Disable the WakeUp PINx functionality.
ARM GAS  /tmp/ccpdh2Ug.s 			page 12


 346:Drivers/STM32H7xx_HAL_Driver/Src/stm32h7xx_hal_pwr.c ****   * @param  WakeUpPinx: Specifies the Power Wake-Up pin to disable.
 347:Drivers/STM32H7xx_HAL_Driver/Src/stm32h7xx_hal_pwr.c ****   *          This parameter can be one of the following values:
 348:Drivers/STM32H7xx_HAL_Driver/Src/stm32h7xx_hal_pwr.c ****   *            @arg PWR_WAKEUP_PIN1
 349:Drivers/STM32H7xx_HAL_Driver/Src/stm32h7xx_hal_pwr.c ****   *            @arg PWR_WAKEUP_PIN2
 350:Drivers/STM32H7xx_HAL_Driver/Src/stm32h7xx_hal_pwr.c ****   *            @arg PWR_WAKEUP_PIN3
 351:Drivers/STM32H7xx_HAL_Driver/Src/stm32h7xx_hal_pwr.c ****   *            @arg PWR_WAKEUP_PIN4
 352:Drivers/STM32H7xx_HAL_Driver/Src/stm32h7xx_hal_pwr.c ****   *            @arg PWR_WAKEUP_PIN5
 353:Drivers/STM32H7xx_HAL_Driver/Src/stm32h7xx_hal_pwr.c ****   *            @arg PWR_WAKEUP_PIN6
 354:Drivers/STM32H7xx_HAL_Driver/Src/stm32h7xx_hal_pwr.c ****   * @retval None
 355:Drivers/STM32H7xx_HAL_Driver/Src/stm32h7xx_hal_pwr.c ****   */
 356:Drivers/STM32H7xx_HAL_Driver/Src/stm32h7xx_hal_pwr.c **** void HAL_PWR_DisableWakeUpPin(uint32_t WakeUpPinx)
 357:Drivers/STM32H7xx_HAL_Driver/Src/stm32h7xx_hal_pwr.c **** {
 298              		.loc 1 357 1 is_stmt 1 view -0
 299              		.cfi_startproc
 300              		@ args = 0, pretend = 0, frame = 0
 301              		@ frame_needed = 0, uses_anonymous_args = 0
 302              		@ link register save eliminated.
 358:Drivers/STM32H7xx_HAL_Driver/Src/stm32h7xx_hal_pwr.c ****   assert_param(IS_PWR_WAKEUP_PIN(WakeUpPinx));
 303              		.loc 1 358 3 view .LVU44
 359:Drivers/STM32H7xx_HAL_Driver/Src/stm32h7xx_hal_pwr.c **** 
 360:Drivers/STM32H7xx_HAL_Driver/Src/stm32h7xx_hal_pwr.c ****   CLEAR_BIT(PWR->WKUPEPR, (PWR_WKUPEPR_WKUPEN & WakeUpPinx));
 304              		.loc 1 360 3 view .LVU45
 305 0000 034A     		ldr	r2, .L25
 306 0002 936A     		ldr	r3, [r2, #40]
 307 0004 00F03F00 		and	r0, r0, #63
 308              	.LVL3:
 309              		.loc 1 360 3 is_stmt 0 view .LVU46
 310 0008 23EA0003 		bic	r3, r3, r0
 311 000c 9362     		str	r3, [r2, #40]
 361:Drivers/STM32H7xx_HAL_Driver/Src/stm32h7xx_hal_pwr.c **** }
 312              		.loc 1 361 1 view .LVU47
 313 000e 7047     		bx	lr
 314              	.L26:
 315              		.align	2
 316              	.L25:
 317 0010 00480258 		.word	1476544512
 318              		.cfi_endproc
 319              	.LFE148:
 321              		.section	.text.HAL_PWR_EnterSLEEPMode,"ax",%progbits
 322              		.align	1
 323              		.global	HAL_PWR_EnterSLEEPMode
 324              		.syntax unified
 325              		.thumb
 326              		.thumb_func
 327              		.fpu fpv5-d16
 329              	HAL_PWR_EnterSLEEPMode:
 330              	.LVL4:
 331              	.LFB149:
 362:Drivers/STM32H7xx_HAL_Driver/Src/stm32h7xx_hal_pwr.c **** 
 363:Drivers/STM32H7xx_HAL_Driver/Src/stm32h7xx_hal_pwr.c **** /**
 364:Drivers/STM32H7xx_HAL_Driver/Src/stm32h7xx_hal_pwr.c ****   * @brief  Enter the current core to Sleep mode.
 365:Drivers/STM32H7xx_HAL_Driver/Src/stm32h7xx_hal_pwr.c ****   * @param  Regulator: Specifies the regulator state in SLEEP mode.
 366:Drivers/STM32H7xx_HAL_Driver/Src/stm32h7xx_hal_pwr.c ****   *          This parameter can be one of the following values:
 367:Drivers/STM32H7xx_HAL_Driver/Src/stm32h7xx_hal_pwr.c ****   *            @arg PWR_MAINREGULATOR_ON: SLEEP mode with regulator ON
 368:Drivers/STM32H7xx_HAL_Driver/Src/stm32h7xx_hal_pwr.c ****   *            @arg PWR_LOWPOWERREGULATOR_ON: SLEEP mode with low power regulator ON
 369:Drivers/STM32H7xx_HAL_Driver/Src/stm32h7xx_hal_pwr.c ****   * @note   This parameter is not used for the STM32H7 family and is kept as parameter
 370:Drivers/STM32H7xx_HAL_Driver/Src/stm32h7xx_hal_pwr.c ****   *         just to maintain compatibility with the lower power families.
ARM GAS  /tmp/ccpdh2Ug.s 			page 13


 371:Drivers/STM32H7xx_HAL_Driver/Src/stm32h7xx_hal_pwr.c ****   * @param  SLEEPEntry: Specifies if SLEEP mode in entered with WFI or WFE instruction.
 372:Drivers/STM32H7xx_HAL_Driver/Src/stm32h7xx_hal_pwr.c ****   *          This parameter can be one of the following values:
 373:Drivers/STM32H7xx_HAL_Driver/Src/stm32h7xx_hal_pwr.c ****   *            @arg PWR_SLEEPENTRY_WFI: enter SLEEP mode with WFI instruction
 374:Drivers/STM32H7xx_HAL_Driver/Src/stm32h7xx_hal_pwr.c ****   *            @arg PWR_SLEEPENTRY_WFE: enter SLEEP mode with WFE instruction
 375:Drivers/STM32H7xx_HAL_Driver/Src/stm32h7xx_hal_pwr.c ****   * @retval None
 376:Drivers/STM32H7xx_HAL_Driver/Src/stm32h7xx_hal_pwr.c ****   */
 377:Drivers/STM32H7xx_HAL_Driver/Src/stm32h7xx_hal_pwr.c **** void HAL_PWR_EnterSLEEPMode(uint32_t Regulator, uint8_t SLEEPEntry)
 378:Drivers/STM32H7xx_HAL_Driver/Src/stm32h7xx_hal_pwr.c **** {
 332              		.loc 1 378 1 is_stmt 1 view -0
 333              		.cfi_startproc
 334              		@ args = 0, pretend = 0, frame = 0
 335              		@ frame_needed = 0, uses_anonymous_args = 0
 336              		@ link register save eliminated.
 379:Drivers/STM32H7xx_HAL_Driver/Src/stm32h7xx_hal_pwr.c ****   /* Check the parameters */
 380:Drivers/STM32H7xx_HAL_Driver/Src/stm32h7xx_hal_pwr.c ****   assert_param(IS_PWR_REGULATOR(Regulator));
 337              		.loc 1 380 3 view .LVU49
 381:Drivers/STM32H7xx_HAL_Driver/Src/stm32h7xx_hal_pwr.c ****   assert_param(IS_PWR_SLEEP_ENTRY(SLEEPEntry));
 338              		.loc 1 381 3 view .LVU50
 382:Drivers/STM32H7xx_HAL_Driver/Src/stm32h7xx_hal_pwr.c **** 
 383:Drivers/STM32H7xx_HAL_Driver/Src/stm32h7xx_hal_pwr.c ****   /* Clear SLEEPDEEP bit of Cortex System Control Register */
 384:Drivers/STM32H7xx_HAL_Driver/Src/stm32h7xx_hal_pwr.c ****   CLEAR_BIT(SCB->SCR, ((uint32_t)SCB_SCR_SLEEPDEEP_Msk));
 339              		.loc 1 384 3 view .LVU51
 340 0000 054A     		ldr	r2, .L31
 341 0002 1369     		ldr	r3, [r2, #16]
 342 0004 23F00403 		bic	r3, r3, #4
 343 0008 1361     		str	r3, [r2, #16]
 385:Drivers/STM32H7xx_HAL_Driver/Src/stm32h7xx_hal_pwr.c **** 
 386:Drivers/STM32H7xx_HAL_Driver/Src/stm32h7xx_hal_pwr.c ****   /* Select SLEEP mode entry */
 387:Drivers/STM32H7xx_HAL_Driver/Src/stm32h7xx_hal_pwr.c ****   if(SLEEPEntry == PWR_SLEEPENTRY_WFI)
 344              		.loc 1 387 3 view .LVU52
 345              		.loc 1 387 5 is_stmt 0 view .LVU53
 346 000a 0129     		cmp	r1, #1
 347 000c 01D0     		beq	.L30
 388:Drivers/STM32H7xx_HAL_Driver/Src/stm32h7xx_hal_pwr.c ****   {
 389:Drivers/STM32H7xx_HAL_Driver/Src/stm32h7xx_hal_pwr.c ****     /* Request Wait For Interrupt */
 390:Drivers/STM32H7xx_HAL_Driver/Src/stm32h7xx_hal_pwr.c ****     __WFI();
 391:Drivers/STM32H7xx_HAL_Driver/Src/stm32h7xx_hal_pwr.c ****   }
 392:Drivers/STM32H7xx_HAL_Driver/Src/stm32h7xx_hal_pwr.c ****   else
 393:Drivers/STM32H7xx_HAL_Driver/Src/stm32h7xx_hal_pwr.c ****   {
 394:Drivers/STM32H7xx_HAL_Driver/Src/stm32h7xx_hal_pwr.c ****     /* Request Wait For Event */
 395:Drivers/STM32H7xx_HAL_Driver/Src/stm32h7xx_hal_pwr.c ****     __WFE();
 348              		.loc 1 395 5 is_stmt 1 view .LVU54
 349              		.syntax unified
 350              	@ 395 "Drivers/STM32H7xx_HAL_Driver/Src/stm32h7xx_hal_pwr.c" 1
 351 000e 20BF     		wfe
 352              	@ 0 "" 2
 396:Drivers/STM32H7xx_HAL_Driver/Src/stm32h7xx_hal_pwr.c ****   }
 397:Drivers/STM32H7xx_HAL_Driver/Src/stm32h7xx_hal_pwr.c **** }
 353              		.loc 1 397 1 is_stmt 0 view .LVU55
 354              		.thumb
 355              		.syntax unified
 356 0010 7047     		bx	lr
 357              	.L30:
 390:Drivers/STM32H7xx_HAL_Driver/Src/stm32h7xx_hal_pwr.c ****   }
 358              		.loc 1 390 5 is_stmt 1 view .LVU56
 359              		.syntax unified
 360              	@ 390 "Drivers/STM32H7xx_HAL_Driver/Src/stm32h7xx_hal_pwr.c" 1
ARM GAS  /tmp/ccpdh2Ug.s 			page 14


 361 0012 30BF     		wfi
 362              	@ 0 "" 2
 363              		.thumb
 364              		.syntax unified
 365 0014 7047     		bx	lr
 366              	.L32:
 367 0016 00BF     		.align	2
 368              	.L31:
 369 0018 00ED00E0 		.word	-536810240
 370              		.cfi_endproc
 371              	.LFE149:
 373              		.section	.text.HAL_PWR_EnterSTOPMode,"ax",%progbits
 374              		.align	1
 375              		.global	HAL_PWR_EnterSTOPMode
 376              		.syntax unified
 377              		.thumb
 378              		.thumb_func
 379              		.fpu fpv5-d16
 381              	HAL_PWR_EnterSTOPMode:
 382              	.LVL5:
 383              	.LFB150:
 398:Drivers/STM32H7xx_HAL_Driver/Src/stm32h7xx_hal_pwr.c **** 
 399:Drivers/STM32H7xx_HAL_Driver/Src/stm32h7xx_hal_pwr.c **** /**
 400:Drivers/STM32H7xx_HAL_Driver/Src/stm32h7xx_hal_pwr.c ****   * @brief  Enter the system to STOP mode.
 401:Drivers/STM32H7xx_HAL_Driver/Src/stm32h7xx_hal_pwr.c ****   * @note   This API must be used only for single core devices.
 402:Drivers/STM32H7xx_HAL_Driver/Src/stm32h7xx_hal_pwr.c ****   * @note   In System Stop mode, all I/O pins keep the same state as in Run mode.
 403:Drivers/STM32H7xx_HAL_Driver/Src/stm32h7xx_hal_pwr.c ****   * @note   When exiting System Stop mode by issuing an interrupt or a wakeup event,
 404:Drivers/STM32H7xx_HAL_Driver/Src/stm32h7xx_hal_pwr.c ****   *         the HSI RC oscillator is selected as default system wakeup clock.
 405:Drivers/STM32H7xx_HAL_Driver/Src/stm32h7xx_hal_pwr.c ****   * @note   In System STOP mode, when the voltage regulator operates in low power mode,
 406:Drivers/STM32H7xx_HAL_Driver/Src/stm32h7xx_hal_pwr.c ****   *         an additional startup delay is incurred when the system is waking up.
 407:Drivers/STM32H7xx_HAL_Driver/Src/stm32h7xx_hal_pwr.c ****   *         By keeping the internal regulator ON during Stop mode, the consumption
 408:Drivers/STM32H7xx_HAL_Driver/Src/stm32h7xx_hal_pwr.c ****   *         is higher although the startup time is reduced.
 409:Drivers/STM32H7xx_HAL_Driver/Src/stm32h7xx_hal_pwr.c ****   * @param  Regulator: Specifies the regulator state in Stop mode.
 410:Drivers/STM32H7xx_HAL_Driver/Src/stm32h7xx_hal_pwr.c ****   *          This parameter can be one of the following values:
 411:Drivers/STM32H7xx_HAL_Driver/Src/stm32h7xx_hal_pwr.c ****   *            @arg PWR_MAINREGULATOR_ON: Stop mode with regulator ON
 412:Drivers/STM32H7xx_HAL_Driver/Src/stm32h7xx_hal_pwr.c ****   *            @arg PWR_LOWPOWERREGULATOR_ON: Stop mode with low power regulator ON
 413:Drivers/STM32H7xx_HAL_Driver/Src/stm32h7xx_hal_pwr.c ****   * @param  STOPEntry: Specifies if Stop mode in entered with WFI or WFE instruction.
 414:Drivers/STM32H7xx_HAL_Driver/Src/stm32h7xx_hal_pwr.c ****   *          This parameter can be one of the following values:
 415:Drivers/STM32H7xx_HAL_Driver/Src/stm32h7xx_hal_pwr.c ****   *            @arg PWR_STOPENTRY_WFI: Enter Stop mode with WFI instruction
 416:Drivers/STM32H7xx_HAL_Driver/Src/stm32h7xx_hal_pwr.c ****   *            @arg PWR_STOPENTRY_WFE: Enter Stop mode with WFE instruction
 417:Drivers/STM32H7xx_HAL_Driver/Src/stm32h7xx_hal_pwr.c ****   * @retval None
 418:Drivers/STM32H7xx_HAL_Driver/Src/stm32h7xx_hal_pwr.c ****   */
 419:Drivers/STM32H7xx_HAL_Driver/Src/stm32h7xx_hal_pwr.c **** void HAL_PWR_EnterSTOPMode(uint32_t Regulator, uint8_t STOPEntry)
 420:Drivers/STM32H7xx_HAL_Driver/Src/stm32h7xx_hal_pwr.c **** {
 384              		.loc 1 420 1 view -0
 385              		.cfi_startproc
 386              		@ args = 0, pretend = 0, frame = 0
 387              		@ frame_needed = 0, uses_anonymous_args = 0
 388              		@ link register save eliminated.
 421:Drivers/STM32H7xx_HAL_Driver/Src/stm32h7xx_hal_pwr.c ****   uint32_t tmpreg;
 389              		.loc 1 421 3 view .LVU58
 422:Drivers/STM32H7xx_HAL_Driver/Src/stm32h7xx_hal_pwr.c **** 
 423:Drivers/STM32H7xx_HAL_Driver/Src/stm32h7xx_hal_pwr.c ****   /* Check the parameters */
 424:Drivers/STM32H7xx_HAL_Driver/Src/stm32h7xx_hal_pwr.c ****   assert_param(IS_PWR_REGULATOR(Regulator));
 390              		.loc 1 424 3 view .LVU59
 425:Drivers/STM32H7xx_HAL_Driver/Src/stm32h7xx_hal_pwr.c ****   assert_param(IS_PWR_STOP_ENTRY(STOPEntry));
 391              		.loc 1 425 3 view .LVU60
ARM GAS  /tmp/ccpdh2Ug.s 			page 15


 426:Drivers/STM32H7xx_HAL_Driver/Src/stm32h7xx_hal_pwr.c **** 
 427:Drivers/STM32H7xx_HAL_Driver/Src/stm32h7xx_hal_pwr.c ****   /* Select the regulator state in Stop mode */
 428:Drivers/STM32H7xx_HAL_Driver/Src/stm32h7xx_hal_pwr.c ****   tmpreg = PWR->CR1;
 392              		.loc 1 428 3 view .LVU61
 393              		.loc 1 428 10 is_stmt 0 view .LVU62
 394 0000 124B     		ldr	r3, .L37
 395 0002 1A68     		ldr	r2, [r3]
 396              	.LVL6:
 429:Drivers/STM32H7xx_HAL_Driver/Src/stm32h7xx_hal_pwr.c ****   /* Clear PDDS and LPDS bits */
 430:Drivers/STM32H7xx_HAL_Driver/Src/stm32h7xx_hal_pwr.c ****   tmpreg &= (uint32_t)~(PWR_CR1_LPDS);
 397              		.loc 1 430 3 is_stmt 1 view .LVU63
 398              		.loc 1 430 10 is_stmt 0 view .LVU64
 399 0004 22F00102 		bic	r2, r2, #1
 400              	.LVL7:
 431:Drivers/STM32H7xx_HAL_Driver/Src/stm32h7xx_hal_pwr.c **** 
 432:Drivers/STM32H7xx_HAL_Driver/Src/stm32h7xx_hal_pwr.c ****   /* Set LPDS bit according to Regulator value */
 433:Drivers/STM32H7xx_HAL_Driver/Src/stm32h7xx_hal_pwr.c ****   tmpreg |= Regulator;
 401              		.loc 1 433 3 is_stmt 1 view .LVU65
 402              		.loc 1 433 10 is_stmt 0 view .LVU66
 403 0008 0243     		orrs	r2, r2, r0
 404              	.LVL8:
 434:Drivers/STM32H7xx_HAL_Driver/Src/stm32h7xx_hal_pwr.c **** 
 435:Drivers/STM32H7xx_HAL_Driver/Src/stm32h7xx_hal_pwr.c ****   /* Store the new value */
 436:Drivers/STM32H7xx_HAL_Driver/Src/stm32h7xx_hal_pwr.c ****   PWR->CR1 = tmpreg;
 405              		.loc 1 436 3 is_stmt 1 view .LVU67
 406              		.loc 1 436 12 is_stmt 0 view .LVU68
 407 000a 1A60     		str	r2, [r3]
 437:Drivers/STM32H7xx_HAL_Driver/Src/stm32h7xx_hal_pwr.c **** 
 438:Drivers/STM32H7xx_HAL_Driver/Src/stm32h7xx_hal_pwr.c **** #if defined(DUAL_CORE)
 439:Drivers/STM32H7xx_HAL_Driver/Src/stm32h7xx_hal_pwr.c ****   /* Keep DSTOP mode when D1 domain enters Deepsleep */
 440:Drivers/STM32H7xx_HAL_Driver/Src/stm32h7xx_hal_pwr.c ****   CLEAR_BIT(PWR->CPUCR, PWR_CPUCR_PDDS_D1);
 441:Drivers/STM32H7xx_HAL_Driver/Src/stm32h7xx_hal_pwr.c ****   CLEAR_BIT(PWR->CPU2CR, PWR_CPU2CR_PDDS_D1);
 442:Drivers/STM32H7xx_HAL_Driver/Src/stm32h7xx_hal_pwr.c **** #else
 443:Drivers/STM32H7xx_HAL_Driver/Src/stm32h7xx_hal_pwr.c ****   /* Keep DSTOP mode when D1 domain enters Deepsleep */
 444:Drivers/STM32H7xx_HAL_Driver/Src/stm32h7xx_hal_pwr.c ****   CLEAR_BIT(PWR->CPUCR, PWR_CPUCR_PDDS_D1);
 408              		.loc 1 444 3 is_stmt 1 view .LVU69
 409 000c 1A69     		ldr	r2, [r3, #16]
 410              	.LVL9:
 411              		.loc 1 444 3 is_stmt 0 view .LVU70
 412 000e 22F00102 		bic	r2, r2, #1
 413 0012 1A61     		str	r2, [r3, #16]
 414              	.LVL10:
 445:Drivers/STM32H7xx_HAL_Driver/Src/stm32h7xx_hal_pwr.c **** 
 446:Drivers/STM32H7xx_HAL_Driver/Src/stm32h7xx_hal_pwr.c ****   /* Keep DSTOP mode when D2 domain enters Deepsleep */
 447:Drivers/STM32H7xx_HAL_Driver/Src/stm32h7xx_hal_pwr.c ****   CLEAR_BIT(PWR->CPUCR, PWR_CPUCR_PDDS_D2);
 415              		.loc 1 447 3 is_stmt 1 view .LVU71
 416 0014 1A69     		ldr	r2, [r3, #16]
 417 0016 22F00202 		bic	r2, r2, #2
 418 001a 1A61     		str	r2, [r3, #16]
 448:Drivers/STM32H7xx_HAL_Driver/Src/stm32h7xx_hal_pwr.c **** 
 449:Drivers/STM32H7xx_HAL_Driver/Src/stm32h7xx_hal_pwr.c ****   /* Keep DSTOP mode when D3 domain enters Deepsleep */
 450:Drivers/STM32H7xx_HAL_Driver/Src/stm32h7xx_hal_pwr.c ****   CLEAR_BIT(PWR->CPUCR, PWR_CPUCR_PDDS_D3);
 419              		.loc 1 450 3 view .LVU72
 420 001c 1A69     		ldr	r2, [r3, #16]
 421 001e 22F00402 		bic	r2, r2, #4
 422 0022 1A61     		str	r2, [r3, #16]
 451:Drivers/STM32H7xx_HAL_Driver/Src/stm32h7xx_hal_pwr.c **** #endif /*DUAL_CORE*/
ARM GAS  /tmp/ccpdh2Ug.s 			page 16


 452:Drivers/STM32H7xx_HAL_Driver/Src/stm32h7xx_hal_pwr.c **** 
 453:Drivers/STM32H7xx_HAL_Driver/Src/stm32h7xx_hal_pwr.c ****   /* Set SLEEPDEEP bit of Cortex System Control Register */
 454:Drivers/STM32H7xx_HAL_Driver/Src/stm32h7xx_hal_pwr.c ****   SCB->SCR |= SCB_SCR_SLEEPDEEP_Msk;
 423              		.loc 1 454 3 view .LVU73
 424              		.loc 1 454 12 is_stmt 0 view .LVU74
 425 0024 0A4A     		ldr	r2, .L37+4
 426 0026 1369     		ldr	r3, [r2, #16]
 427 0028 43F00403 		orr	r3, r3, #4
 428 002c 1361     		str	r3, [r2, #16]
 455:Drivers/STM32H7xx_HAL_Driver/Src/stm32h7xx_hal_pwr.c **** 
 456:Drivers/STM32H7xx_HAL_Driver/Src/stm32h7xx_hal_pwr.c ****   /* Ensure that all instructions done before entering STOP mode */
 457:Drivers/STM32H7xx_HAL_Driver/Src/stm32h7xx_hal_pwr.c ****   __DSB();
 429              		.loc 1 457 3 is_stmt 1 view .LVU75
 430              	.LBB6:
 431              	.LBI6:
 432              		.file 2 "Drivers/CMSIS/Include/cmsis_gcc.h"
   1:Drivers/CMSIS/Include/cmsis_gcc.h **** /**************************************************************************//**
   2:Drivers/CMSIS/Include/cmsis_gcc.h ****  * @file     cmsis_gcc.h
   3:Drivers/CMSIS/Include/cmsis_gcc.h ****  * @brief    CMSIS compiler GCC header file
   4:Drivers/CMSIS/Include/cmsis_gcc.h ****  * @version  V5.0.4
   5:Drivers/CMSIS/Include/cmsis_gcc.h ****  * @date     09. April 2018
   6:Drivers/CMSIS/Include/cmsis_gcc.h ****  ******************************************************************************/
   7:Drivers/CMSIS/Include/cmsis_gcc.h **** /*
   8:Drivers/CMSIS/Include/cmsis_gcc.h ****  * Copyright (c) 2009-2018 Arm Limited. All rights reserved.
   9:Drivers/CMSIS/Include/cmsis_gcc.h ****  *
  10:Drivers/CMSIS/Include/cmsis_gcc.h ****  * SPDX-License-Identifier: Apache-2.0
  11:Drivers/CMSIS/Include/cmsis_gcc.h ****  *
  12:Drivers/CMSIS/Include/cmsis_gcc.h ****  * Licensed under the Apache License, Version 2.0 (the License); you may
  13:Drivers/CMSIS/Include/cmsis_gcc.h ****  * not use this file except in compliance with the License.
  14:Drivers/CMSIS/Include/cmsis_gcc.h ****  * You may obtain a copy of the License at
  15:Drivers/CMSIS/Include/cmsis_gcc.h ****  *
  16:Drivers/CMSIS/Include/cmsis_gcc.h ****  * www.apache.org/licenses/LICENSE-2.0
  17:Drivers/CMSIS/Include/cmsis_gcc.h ****  *
  18:Drivers/CMSIS/Include/cmsis_gcc.h ****  * Unless required by applicable law or agreed to in writing, software
  19:Drivers/CMSIS/Include/cmsis_gcc.h ****  * distributed under the License is distributed on an AS IS BASIS, WITHOUT
  20:Drivers/CMSIS/Include/cmsis_gcc.h ****  * WARRANTIES OR CONDITIONS OF ANY KIND, either express or implied.
  21:Drivers/CMSIS/Include/cmsis_gcc.h ****  * See the License for the specific language governing permissions and
  22:Drivers/CMSIS/Include/cmsis_gcc.h ****  * limitations under the License.
  23:Drivers/CMSIS/Include/cmsis_gcc.h ****  */
  24:Drivers/CMSIS/Include/cmsis_gcc.h **** 
  25:Drivers/CMSIS/Include/cmsis_gcc.h **** #ifndef __CMSIS_GCC_H
  26:Drivers/CMSIS/Include/cmsis_gcc.h **** #define __CMSIS_GCC_H
  27:Drivers/CMSIS/Include/cmsis_gcc.h **** 
  28:Drivers/CMSIS/Include/cmsis_gcc.h **** /* ignore some GCC warnings */
  29:Drivers/CMSIS/Include/cmsis_gcc.h **** #pragma GCC diagnostic push
  30:Drivers/CMSIS/Include/cmsis_gcc.h **** #pragma GCC diagnostic ignored "-Wsign-conversion"
  31:Drivers/CMSIS/Include/cmsis_gcc.h **** #pragma GCC diagnostic ignored "-Wconversion"
  32:Drivers/CMSIS/Include/cmsis_gcc.h **** #pragma GCC diagnostic ignored "-Wunused-parameter"
  33:Drivers/CMSIS/Include/cmsis_gcc.h **** 
  34:Drivers/CMSIS/Include/cmsis_gcc.h **** /* Fallback for __has_builtin */
  35:Drivers/CMSIS/Include/cmsis_gcc.h **** #ifndef __has_builtin
  36:Drivers/CMSIS/Include/cmsis_gcc.h ****   #define __has_builtin(x) (0)
  37:Drivers/CMSIS/Include/cmsis_gcc.h **** #endif
  38:Drivers/CMSIS/Include/cmsis_gcc.h **** 
  39:Drivers/CMSIS/Include/cmsis_gcc.h **** /* CMSIS compiler specific defines */
  40:Drivers/CMSIS/Include/cmsis_gcc.h **** #ifndef   __ASM
  41:Drivers/CMSIS/Include/cmsis_gcc.h ****   #define __ASM                                  __asm
ARM GAS  /tmp/ccpdh2Ug.s 			page 17


  42:Drivers/CMSIS/Include/cmsis_gcc.h **** #endif
  43:Drivers/CMSIS/Include/cmsis_gcc.h **** #ifndef   __INLINE
  44:Drivers/CMSIS/Include/cmsis_gcc.h ****   #define __INLINE                               inline
  45:Drivers/CMSIS/Include/cmsis_gcc.h **** #endif
  46:Drivers/CMSIS/Include/cmsis_gcc.h **** #ifndef   __STATIC_INLINE
  47:Drivers/CMSIS/Include/cmsis_gcc.h ****   #define __STATIC_INLINE                        static inline
  48:Drivers/CMSIS/Include/cmsis_gcc.h **** #endif
  49:Drivers/CMSIS/Include/cmsis_gcc.h **** #ifndef   __STATIC_FORCEINLINE                 
  50:Drivers/CMSIS/Include/cmsis_gcc.h ****   #define __STATIC_FORCEINLINE                   __attribute__((always_inline)) static inline
  51:Drivers/CMSIS/Include/cmsis_gcc.h **** #endif                                           
  52:Drivers/CMSIS/Include/cmsis_gcc.h **** #ifndef   __NO_RETURN
  53:Drivers/CMSIS/Include/cmsis_gcc.h ****   #define __NO_RETURN                            __attribute__((__noreturn__))
  54:Drivers/CMSIS/Include/cmsis_gcc.h **** #endif
  55:Drivers/CMSIS/Include/cmsis_gcc.h **** #ifndef   __USED
  56:Drivers/CMSIS/Include/cmsis_gcc.h ****   #define __USED                                 __attribute__((used))
  57:Drivers/CMSIS/Include/cmsis_gcc.h **** #endif
  58:Drivers/CMSIS/Include/cmsis_gcc.h **** #ifndef   __WEAK
  59:Drivers/CMSIS/Include/cmsis_gcc.h ****   #define __WEAK                                 __attribute__((weak))
  60:Drivers/CMSIS/Include/cmsis_gcc.h **** #endif
  61:Drivers/CMSIS/Include/cmsis_gcc.h **** #ifndef   __PACKED
  62:Drivers/CMSIS/Include/cmsis_gcc.h ****   #define __PACKED                               __attribute__((packed, aligned(1)))
  63:Drivers/CMSIS/Include/cmsis_gcc.h **** #endif
  64:Drivers/CMSIS/Include/cmsis_gcc.h **** #ifndef   __PACKED_STRUCT
  65:Drivers/CMSIS/Include/cmsis_gcc.h ****   #define __PACKED_STRUCT                        struct __attribute__((packed, aligned(1)))
  66:Drivers/CMSIS/Include/cmsis_gcc.h **** #endif
  67:Drivers/CMSIS/Include/cmsis_gcc.h **** #ifndef   __PACKED_UNION
  68:Drivers/CMSIS/Include/cmsis_gcc.h ****   #define __PACKED_UNION                         union __attribute__((packed, aligned(1)))
  69:Drivers/CMSIS/Include/cmsis_gcc.h **** #endif
  70:Drivers/CMSIS/Include/cmsis_gcc.h **** #ifndef   __UNALIGNED_UINT32        /* deprecated */
  71:Drivers/CMSIS/Include/cmsis_gcc.h ****   #pragma GCC diagnostic push
  72:Drivers/CMSIS/Include/cmsis_gcc.h ****   #pragma GCC diagnostic ignored "-Wpacked"
  73:Drivers/CMSIS/Include/cmsis_gcc.h ****   #pragma GCC diagnostic ignored "-Wattributes"
  74:Drivers/CMSIS/Include/cmsis_gcc.h ****   struct __attribute__((packed)) T_UINT32 { uint32_t v; };
  75:Drivers/CMSIS/Include/cmsis_gcc.h ****   #pragma GCC diagnostic pop
  76:Drivers/CMSIS/Include/cmsis_gcc.h ****   #define __UNALIGNED_UINT32(x)                  (((struct T_UINT32 *)(x))->v)
  77:Drivers/CMSIS/Include/cmsis_gcc.h **** #endif
  78:Drivers/CMSIS/Include/cmsis_gcc.h **** #ifndef   __UNALIGNED_UINT16_WRITE
  79:Drivers/CMSIS/Include/cmsis_gcc.h ****   #pragma GCC diagnostic push
  80:Drivers/CMSIS/Include/cmsis_gcc.h ****   #pragma GCC diagnostic ignored "-Wpacked"
  81:Drivers/CMSIS/Include/cmsis_gcc.h ****   #pragma GCC diagnostic ignored "-Wattributes"
  82:Drivers/CMSIS/Include/cmsis_gcc.h ****   __PACKED_STRUCT T_UINT16_WRITE { uint16_t v; };
  83:Drivers/CMSIS/Include/cmsis_gcc.h ****   #pragma GCC diagnostic pop
  84:Drivers/CMSIS/Include/cmsis_gcc.h ****   #define __UNALIGNED_UINT16_WRITE(addr, val)    (void)((((struct T_UINT16_WRITE *)(void *)(addr))-
  85:Drivers/CMSIS/Include/cmsis_gcc.h **** #endif
  86:Drivers/CMSIS/Include/cmsis_gcc.h **** #ifndef   __UNALIGNED_UINT16_READ
  87:Drivers/CMSIS/Include/cmsis_gcc.h ****   #pragma GCC diagnostic push
  88:Drivers/CMSIS/Include/cmsis_gcc.h ****   #pragma GCC diagnostic ignored "-Wpacked"
  89:Drivers/CMSIS/Include/cmsis_gcc.h ****   #pragma GCC diagnostic ignored "-Wattributes"
  90:Drivers/CMSIS/Include/cmsis_gcc.h ****   __PACKED_STRUCT T_UINT16_READ { uint16_t v; };
  91:Drivers/CMSIS/Include/cmsis_gcc.h ****   #pragma GCC diagnostic pop
  92:Drivers/CMSIS/Include/cmsis_gcc.h ****   #define __UNALIGNED_UINT16_READ(addr)          (((const struct T_UINT16_READ *)(const void *)(add
  93:Drivers/CMSIS/Include/cmsis_gcc.h **** #endif
  94:Drivers/CMSIS/Include/cmsis_gcc.h **** #ifndef   __UNALIGNED_UINT32_WRITE
  95:Drivers/CMSIS/Include/cmsis_gcc.h ****   #pragma GCC diagnostic push
  96:Drivers/CMSIS/Include/cmsis_gcc.h ****   #pragma GCC diagnostic ignored "-Wpacked"
  97:Drivers/CMSIS/Include/cmsis_gcc.h ****   #pragma GCC diagnostic ignored "-Wattributes"
  98:Drivers/CMSIS/Include/cmsis_gcc.h ****   __PACKED_STRUCT T_UINT32_WRITE { uint32_t v; };
ARM GAS  /tmp/ccpdh2Ug.s 			page 18


  99:Drivers/CMSIS/Include/cmsis_gcc.h ****   #pragma GCC diagnostic pop
 100:Drivers/CMSIS/Include/cmsis_gcc.h ****   #define __UNALIGNED_UINT32_WRITE(addr, val)    (void)((((struct T_UINT32_WRITE *)(void *)(addr))-
 101:Drivers/CMSIS/Include/cmsis_gcc.h **** #endif
 102:Drivers/CMSIS/Include/cmsis_gcc.h **** #ifndef   __UNALIGNED_UINT32_READ
 103:Drivers/CMSIS/Include/cmsis_gcc.h ****   #pragma GCC diagnostic push
 104:Drivers/CMSIS/Include/cmsis_gcc.h ****   #pragma GCC diagnostic ignored "-Wpacked"
 105:Drivers/CMSIS/Include/cmsis_gcc.h ****   #pragma GCC diagnostic ignored "-Wattributes"
 106:Drivers/CMSIS/Include/cmsis_gcc.h ****   __PACKED_STRUCT T_UINT32_READ { uint32_t v; };
 107:Drivers/CMSIS/Include/cmsis_gcc.h ****   #pragma GCC diagnostic pop
 108:Drivers/CMSIS/Include/cmsis_gcc.h ****   #define __UNALIGNED_UINT32_READ(addr)          (((const struct T_UINT32_READ *)(const void *)(add
 109:Drivers/CMSIS/Include/cmsis_gcc.h **** #endif
 110:Drivers/CMSIS/Include/cmsis_gcc.h **** #ifndef   __ALIGNED
 111:Drivers/CMSIS/Include/cmsis_gcc.h ****   #define __ALIGNED(x)                           __attribute__((aligned(x)))
 112:Drivers/CMSIS/Include/cmsis_gcc.h **** #endif
 113:Drivers/CMSIS/Include/cmsis_gcc.h **** #ifndef   __RESTRICT
 114:Drivers/CMSIS/Include/cmsis_gcc.h ****   #define __RESTRICT                             __restrict
 115:Drivers/CMSIS/Include/cmsis_gcc.h **** #endif
 116:Drivers/CMSIS/Include/cmsis_gcc.h **** 
 117:Drivers/CMSIS/Include/cmsis_gcc.h **** 
 118:Drivers/CMSIS/Include/cmsis_gcc.h **** /* ###########################  Core Function Access  ########################### */
 119:Drivers/CMSIS/Include/cmsis_gcc.h **** /** \ingroup  CMSIS_Core_FunctionInterface
 120:Drivers/CMSIS/Include/cmsis_gcc.h ****     \defgroup CMSIS_Core_RegAccFunctions CMSIS Core Register Access Functions
 121:Drivers/CMSIS/Include/cmsis_gcc.h ****   @{
 122:Drivers/CMSIS/Include/cmsis_gcc.h ****  */
 123:Drivers/CMSIS/Include/cmsis_gcc.h **** 
 124:Drivers/CMSIS/Include/cmsis_gcc.h **** /**
 125:Drivers/CMSIS/Include/cmsis_gcc.h ****   \brief   Enable IRQ Interrupts
 126:Drivers/CMSIS/Include/cmsis_gcc.h ****   \details Enables IRQ interrupts by clearing the I-bit in the CPSR.
 127:Drivers/CMSIS/Include/cmsis_gcc.h ****            Can only be executed in Privileged modes.
 128:Drivers/CMSIS/Include/cmsis_gcc.h ****  */
 129:Drivers/CMSIS/Include/cmsis_gcc.h **** __STATIC_FORCEINLINE void __enable_irq(void)
 130:Drivers/CMSIS/Include/cmsis_gcc.h **** {
 131:Drivers/CMSIS/Include/cmsis_gcc.h ****   __ASM volatile ("cpsie i" : : : "memory");
 132:Drivers/CMSIS/Include/cmsis_gcc.h **** }
 133:Drivers/CMSIS/Include/cmsis_gcc.h **** 
 134:Drivers/CMSIS/Include/cmsis_gcc.h **** 
 135:Drivers/CMSIS/Include/cmsis_gcc.h **** /**
 136:Drivers/CMSIS/Include/cmsis_gcc.h ****   \brief   Disable IRQ Interrupts
 137:Drivers/CMSIS/Include/cmsis_gcc.h ****   \details Disables IRQ interrupts by setting the I-bit in the CPSR.
 138:Drivers/CMSIS/Include/cmsis_gcc.h ****            Can only be executed in Privileged modes.
 139:Drivers/CMSIS/Include/cmsis_gcc.h ****  */
 140:Drivers/CMSIS/Include/cmsis_gcc.h **** __STATIC_FORCEINLINE void __disable_irq(void)
 141:Drivers/CMSIS/Include/cmsis_gcc.h **** {
 142:Drivers/CMSIS/Include/cmsis_gcc.h ****   __ASM volatile ("cpsid i" : : : "memory");
 143:Drivers/CMSIS/Include/cmsis_gcc.h **** }
 144:Drivers/CMSIS/Include/cmsis_gcc.h **** 
 145:Drivers/CMSIS/Include/cmsis_gcc.h **** 
 146:Drivers/CMSIS/Include/cmsis_gcc.h **** /**
 147:Drivers/CMSIS/Include/cmsis_gcc.h ****   \brief   Get Control Register
 148:Drivers/CMSIS/Include/cmsis_gcc.h ****   \details Returns the content of the Control Register.
 149:Drivers/CMSIS/Include/cmsis_gcc.h ****   \return               Control Register value
 150:Drivers/CMSIS/Include/cmsis_gcc.h ****  */
 151:Drivers/CMSIS/Include/cmsis_gcc.h **** __STATIC_FORCEINLINE uint32_t __get_CONTROL(void)
 152:Drivers/CMSIS/Include/cmsis_gcc.h **** {
 153:Drivers/CMSIS/Include/cmsis_gcc.h ****   uint32_t result;
 154:Drivers/CMSIS/Include/cmsis_gcc.h **** 
 155:Drivers/CMSIS/Include/cmsis_gcc.h ****   __ASM volatile ("MRS %0, control" : "=r" (result) );
ARM GAS  /tmp/ccpdh2Ug.s 			page 19


 156:Drivers/CMSIS/Include/cmsis_gcc.h ****   return(result);
 157:Drivers/CMSIS/Include/cmsis_gcc.h **** }
 158:Drivers/CMSIS/Include/cmsis_gcc.h **** 
 159:Drivers/CMSIS/Include/cmsis_gcc.h **** 
 160:Drivers/CMSIS/Include/cmsis_gcc.h **** #if (defined (__ARM_FEATURE_CMSE ) && (__ARM_FEATURE_CMSE == 3))
 161:Drivers/CMSIS/Include/cmsis_gcc.h **** /**
 162:Drivers/CMSIS/Include/cmsis_gcc.h ****   \brief   Get Control Register (non-secure)
 163:Drivers/CMSIS/Include/cmsis_gcc.h ****   \details Returns the content of the non-secure Control Register when in secure mode.
 164:Drivers/CMSIS/Include/cmsis_gcc.h ****   \return               non-secure Control Register value
 165:Drivers/CMSIS/Include/cmsis_gcc.h ****  */
 166:Drivers/CMSIS/Include/cmsis_gcc.h **** __STATIC_FORCEINLINE uint32_t __TZ_get_CONTROL_NS(void)
 167:Drivers/CMSIS/Include/cmsis_gcc.h **** {
 168:Drivers/CMSIS/Include/cmsis_gcc.h ****   uint32_t result;
 169:Drivers/CMSIS/Include/cmsis_gcc.h **** 
 170:Drivers/CMSIS/Include/cmsis_gcc.h ****   __ASM volatile ("MRS %0, control_ns" : "=r" (result) );
 171:Drivers/CMSIS/Include/cmsis_gcc.h ****   return(result);
 172:Drivers/CMSIS/Include/cmsis_gcc.h **** }
 173:Drivers/CMSIS/Include/cmsis_gcc.h **** #endif
 174:Drivers/CMSIS/Include/cmsis_gcc.h **** 
 175:Drivers/CMSIS/Include/cmsis_gcc.h **** 
 176:Drivers/CMSIS/Include/cmsis_gcc.h **** /**
 177:Drivers/CMSIS/Include/cmsis_gcc.h ****   \brief   Set Control Register
 178:Drivers/CMSIS/Include/cmsis_gcc.h ****   \details Writes the given value to the Control Register.
 179:Drivers/CMSIS/Include/cmsis_gcc.h ****   \param [in]    control  Control Register value to set
 180:Drivers/CMSIS/Include/cmsis_gcc.h ****  */
 181:Drivers/CMSIS/Include/cmsis_gcc.h **** __STATIC_FORCEINLINE void __set_CONTROL(uint32_t control)
 182:Drivers/CMSIS/Include/cmsis_gcc.h **** {
 183:Drivers/CMSIS/Include/cmsis_gcc.h ****   __ASM volatile ("MSR control, %0" : : "r" (control) : "memory");
 184:Drivers/CMSIS/Include/cmsis_gcc.h **** }
 185:Drivers/CMSIS/Include/cmsis_gcc.h **** 
 186:Drivers/CMSIS/Include/cmsis_gcc.h **** 
 187:Drivers/CMSIS/Include/cmsis_gcc.h **** #if (defined (__ARM_FEATURE_CMSE ) && (__ARM_FEATURE_CMSE == 3))
 188:Drivers/CMSIS/Include/cmsis_gcc.h **** /**
 189:Drivers/CMSIS/Include/cmsis_gcc.h ****   \brief   Set Control Register (non-secure)
 190:Drivers/CMSIS/Include/cmsis_gcc.h ****   \details Writes the given value to the non-secure Control Register when in secure state.
 191:Drivers/CMSIS/Include/cmsis_gcc.h ****   \param [in]    control  Control Register value to set
 192:Drivers/CMSIS/Include/cmsis_gcc.h ****  */
 193:Drivers/CMSIS/Include/cmsis_gcc.h **** __STATIC_FORCEINLINE void __TZ_set_CONTROL_NS(uint32_t control)
 194:Drivers/CMSIS/Include/cmsis_gcc.h **** {
 195:Drivers/CMSIS/Include/cmsis_gcc.h ****   __ASM volatile ("MSR control_ns, %0" : : "r" (control) : "memory");
 196:Drivers/CMSIS/Include/cmsis_gcc.h **** }
 197:Drivers/CMSIS/Include/cmsis_gcc.h **** #endif
 198:Drivers/CMSIS/Include/cmsis_gcc.h **** 
 199:Drivers/CMSIS/Include/cmsis_gcc.h **** 
 200:Drivers/CMSIS/Include/cmsis_gcc.h **** /**
 201:Drivers/CMSIS/Include/cmsis_gcc.h ****   \brief   Get IPSR Register
 202:Drivers/CMSIS/Include/cmsis_gcc.h ****   \details Returns the content of the IPSR Register.
 203:Drivers/CMSIS/Include/cmsis_gcc.h ****   \return               IPSR Register value
 204:Drivers/CMSIS/Include/cmsis_gcc.h ****  */
 205:Drivers/CMSIS/Include/cmsis_gcc.h **** __STATIC_FORCEINLINE uint32_t __get_IPSR(void)
 206:Drivers/CMSIS/Include/cmsis_gcc.h **** {
 207:Drivers/CMSIS/Include/cmsis_gcc.h ****   uint32_t result;
 208:Drivers/CMSIS/Include/cmsis_gcc.h **** 
 209:Drivers/CMSIS/Include/cmsis_gcc.h ****   __ASM volatile ("MRS %0, ipsr" : "=r" (result) );
 210:Drivers/CMSIS/Include/cmsis_gcc.h ****   return(result);
 211:Drivers/CMSIS/Include/cmsis_gcc.h **** }
 212:Drivers/CMSIS/Include/cmsis_gcc.h **** 
ARM GAS  /tmp/ccpdh2Ug.s 			page 20


 213:Drivers/CMSIS/Include/cmsis_gcc.h **** 
 214:Drivers/CMSIS/Include/cmsis_gcc.h **** /**
 215:Drivers/CMSIS/Include/cmsis_gcc.h ****   \brief   Get APSR Register
 216:Drivers/CMSIS/Include/cmsis_gcc.h ****   \details Returns the content of the APSR Register.
 217:Drivers/CMSIS/Include/cmsis_gcc.h ****   \return               APSR Register value
 218:Drivers/CMSIS/Include/cmsis_gcc.h ****  */
 219:Drivers/CMSIS/Include/cmsis_gcc.h **** __STATIC_FORCEINLINE uint32_t __get_APSR(void)
 220:Drivers/CMSIS/Include/cmsis_gcc.h **** {
 221:Drivers/CMSIS/Include/cmsis_gcc.h ****   uint32_t result;
 222:Drivers/CMSIS/Include/cmsis_gcc.h **** 
 223:Drivers/CMSIS/Include/cmsis_gcc.h ****   __ASM volatile ("MRS %0, apsr" : "=r" (result) );
 224:Drivers/CMSIS/Include/cmsis_gcc.h ****   return(result);
 225:Drivers/CMSIS/Include/cmsis_gcc.h **** }
 226:Drivers/CMSIS/Include/cmsis_gcc.h **** 
 227:Drivers/CMSIS/Include/cmsis_gcc.h **** 
 228:Drivers/CMSIS/Include/cmsis_gcc.h **** /**
 229:Drivers/CMSIS/Include/cmsis_gcc.h ****   \brief   Get xPSR Register
 230:Drivers/CMSIS/Include/cmsis_gcc.h ****   \details Returns the content of the xPSR Register.
 231:Drivers/CMSIS/Include/cmsis_gcc.h ****   \return               xPSR Register value
 232:Drivers/CMSIS/Include/cmsis_gcc.h ****  */
 233:Drivers/CMSIS/Include/cmsis_gcc.h **** __STATIC_FORCEINLINE uint32_t __get_xPSR(void)
 234:Drivers/CMSIS/Include/cmsis_gcc.h **** {
 235:Drivers/CMSIS/Include/cmsis_gcc.h ****   uint32_t result;
 236:Drivers/CMSIS/Include/cmsis_gcc.h **** 
 237:Drivers/CMSIS/Include/cmsis_gcc.h ****   __ASM volatile ("MRS %0, xpsr" : "=r" (result) );
 238:Drivers/CMSIS/Include/cmsis_gcc.h ****   return(result);
 239:Drivers/CMSIS/Include/cmsis_gcc.h **** }
 240:Drivers/CMSIS/Include/cmsis_gcc.h **** 
 241:Drivers/CMSIS/Include/cmsis_gcc.h **** 
 242:Drivers/CMSIS/Include/cmsis_gcc.h **** /**
 243:Drivers/CMSIS/Include/cmsis_gcc.h ****   \brief   Get Process Stack Pointer
 244:Drivers/CMSIS/Include/cmsis_gcc.h ****   \details Returns the current value of the Process Stack Pointer (PSP).
 245:Drivers/CMSIS/Include/cmsis_gcc.h ****   \return               PSP Register value
 246:Drivers/CMSIS/Include/cmsis_gcc.h ****  */
 247:Drivers/CMSIS/Include/cmsis_gcc.h **** __STATIC_FORCEINLINE uint32_t __get_PSP(void)
 248:Drivers/CMSIS/Include/cmsis_gcc.h **** {
 249:Drivers/CMSIS/Include/cmsis_gcc.h ****   uint32_t result;
 250:Drivers/CMSIS/Include/cmsis_gcc.h **** 
 251:Drivers/CMSIS/Include/cmsis_gcc.h ****   __ASM volatile ("MRS %0, psp"  : "=r" (result) );
 252:Drivers/CMSIS/Include/cmsis_gcc.h ****   return(result);
 253:Drivers/CMSIS/Include/cmsis_gcc.h **** }
 254:Drivers/CMSIS/Include/cmsis_gcc.h **** 
 255:Drivers/CMSIS/Include/cmsis_gcc.h **** 
 256:Drivers/CMSIS/Include/cmsis_gcc.h **** #if (defined (__ARM_FEATURE_CMSE ) && (__ARM_FEATURE_CMSE == 3))
 257:Drivers/CMSIS/Include/cmsis_gcc.h **** /**
 258:Drivers/CMSIS/Include/cmsis_gcc.h ****   \brief   Get Process Stack Pointer (non-secure)
 259:Drivers/CMSIS/Include/cmsis_gcc.h ****   \details Returns the current value of the non-secure Process Stack Pointer (PSP) when in secure s
 260:Drivers/CMSIS/Include/cmsis_gcc.h ****   \return               PSP Register value
 261:Drivers/CMSIS/Include/cmsis_gcc.h ****  */
 262:Drivers/CMSIS/Include/cmsis_gcc.h **** __STATIC_FORCEINLINE uint32_t __TZ_get_PSP_NS(void)
 263:Drivers/CMSIS/Include/cmsis_gcc.h **** {
 264:Drivers/CMSIS/Include/cmsis_gcc.h ****   uint32_t result;
 265:Drivers/CMSIS/Include/cmsis_gcc.h **** 
 266:Drivers/CMSIS/Include/cmsis_gcc.h ****   __ASM volatile ("MRS %0, psp_ns"  : "=r" (result) );
 267:Drivers/CMSIS/Include/cmsis_gcc.h ****   return(result);
 268:Drivers/CMSIS/Include/cmsis_gcc.h **** }
 269:Drivers/CMSIS/Include/cmsis_gcc.h **** #endif
ARM GAS  /tmp/ccpdh2Ug.s 			page 21


 270:Drivers/CMSIS/Include/cmsis_gcc.h **** 
 271:Drivers/CMSIS/Include/cmsis_gcc.h **** 
 272:Drivers/CMSIS/Include/cmsis_gcc.h **** /**
 273:Drivers/CMSIS/Include/cmsis_gcc.h ****   \brief   Set Process Stack Pointer
 274:Drivers/CMSIS/Include/cmsis_gcc.h ****   \details Assigns the given value to the Process Stack Pointer (PSP).
 275:Drivers/CMSIS/Include/cmsis_gcc.h ****   \param [in]    topOfProcStack  Process Stack Pointer value to set
 276:Drivers/CMSIS/Include/cmsis_gcc.h ****  */
 277:Drivers/CMSIS/Include/cmsis_gcc.h **** __STATIC_FORCEINLINE void __set_PSP(uint32_t topOfProcStack)
 278:Drivers/CMSIS/Include/cmsis_gcc.h **** {
 279:Drivers/CMSIS/Include/cmsis_gcc.h ****   __ASM volatile ("MSR psp, %0" : : "r" (topOfProcStack) : );
 280:Drivers/CMSIS/Include/cmsis_gcc.h **** }
 281:Drivers/CMSIS/Include/cmsis_gcc.h **** 
 282:Drivers/CMSIS/Include/cmsis_gcc.h **** 
 283:Drivers/CMSIS/Include/cmsis_gcc.h **** #if (defined (__ARM_FEATURE_CMSE ) && (__ARM_FEATURE_CMSE == 3))
 284:Drivers/CMSIS/Include/cmsis_gcc.h **** /**
 285:Drivers/CMSIS/Include/cmsis_gcc.h ****   \brief   Set Process Stack Pointer (non-secure)
 286:Drivers/CMSIS/Include/cmsis_gcc.h ****   \details Assigns the given value to the non-secure Process Stack Pointer (PSP) when in secure sta
 287:Drivers/CMSIS/Include/cmsis_gcc.h ****   \param [in]    topOfProcStack  Process Stack Pointer value to set
 288:Drivers/CMSIS/Include/cmsis_gcc.h ****  */
 289:Drivers/CMSIS/Include/cmsis_gcc.h **** __STATIC_FORCEINLINE void __TZ_set_PSP_NS(uint32_t topOfProcStack)
 290:Drivers/CMSIS/Include/cmsis_gcc.h **** {
 291:Drivers/CMSIS/Include/cmsis_gcc.h ****   __ASM volatile ("MSR psp_ns, %0" : : "r" (topOfProcStack) : );
 292:Drivers/CMSIS/Include/cmsis_gcc.h **** }
 293:Drivers/CMSIS/Include/cmsis_gcc.h **** #endif
 294:Drivers/CMSIS/Include/cmsis_gcc.h **** 
 295:Drivers/CMSIS/Include/cmsis_gcc.h **** 
 296:Drivers/CMSIS/Include/cmsis_gcc.h **** /**
 297:Drivers/CMSIS/Include/cmsis_gcc.h ****   \brief   Get Main Stack Pointer
 298:Drivers/CMSIS/Include/cmsis_gcc.h ****   \details Returns the current value of the Main Stack Pointer (MSP).
 299:Drivers/CMSIS/Include/cmsis_gcc.h ****   \return               MSP Register value
 300:Drivers/CMSIS/Include/cmsis_gcc.h ****  */
 301:Drivers/CMSIS/Include/cmsis_gcc.h **** __STATIC_FORCEINLINE uint32_t __get_MSP(void)
 302:Drivers/CMSIS/Include/cmsis_gcc.h **** {
 303:Drivers/CMSIS/Include/cmsis_gcc.h ****   uint32_t result;
 304:Drivers/CMSIS/Include/cmsis_gcc.h **** 
 305:Drivers/CMSIS/Include/cmsis_gcc.h ****   __ASM volatile ("MRS %0, msp" : "=r" (result) );
 306:Drivers/CMSIS/Include/cmsis_gcc.h ****   return(result);
 307:Drivers/CMSIS/Include/cmsis_gcc.h **** }
 308:Drivers/CMSIS/Include/cmsis_gcc.h **** 
 309:Drivers/CMSIS/Include/cmsis_gcc.h **** 
 310:Drivers/CMSIS/Include/cmsis_gcc.h **** #if (defined (__ARM_FEATURE_CMSE ) && (__ARM_FEATURE_CMSE == 3))
 311:Drivers/CMSIS/Include/cmsis_gcc.h **** /**
 312:Drivers/CMSIS/Include/cmsis_gcc.h ****   \brief   Get Main Stack Pointer (non-secure)
 313:Drivers/CMSIS/Include/cmsis_gcc.h ****   \details Returns the current value of the non-secure Main Stack Pointer (MSP) when in secure stat
 314:Drivers/CMSIS/Include/cmsis_gcc.h ****   \return               MSP Register value
 315:Drivers/CMSIS/Include/cmsis_gcc.h ****  */
 316:Drivers/CMSIS/Include/cmsis_gcc.h **** __STATIC_FORCEINLINE uint32_t __TZ_get_MSP_NS(void)
 317:Drivers/CMSIS/Include/cmsis_gcc.h **** {
 318:Drivers/CMSIS/Include/cmsis_gcc.h ****   uint32_t result;
 319:Drivers/CMSIS/Include/cmsis_gcc.h **** 
 320:Drivers/CMSIS/Include/cmsis_gcc.h ****   __ASM volatile ("MRS %0, msp_ns" : "=r" (result) );
 321:Drivers/CMSIS/Include/cmsis_gcc.h ****   return(result);
 322:Drivers/CMSIS/Include/cmsis_gcc.h **** }
 323:Drivers/CMSIS/Include/cmsis_gcc.h **** #endif
 324:Drivers/CMSIS/Include/cmsis_gcc.h **** 
 325:Drivers/CMSIS/Include/cmsis_gcc.h **** 
 326:Drivers/CMSIS/Include/cmsis_gcc.h **** /**
ARM GAS  /tmp/ccpdh2Ug.s 			page 22


 327:Drivers/CMSIS/Include/cmsis_gcc.h ****   \brief   Set Main Stack Pointer
 328:Drivers/CMSIS/Include/cmsis_gcc.h ****   \details Assigns the given value to the Main Stack Pointer (MSP).
 329:Drivers/CMSIS/Include/cmsis_gcc.h ****   \param [in]    topOfMainStack  Main Stack Pointer value to set
 330:Drivers/CMSIS/Include/cmsis_gcc.h ****  */
 331:Drivers/CMSIS/Include/cmsis_gcc.h **** __STATIC_FORCEINLINE void __set_MSP(uint32_t topOfMainStack)
 332:Drivers/CMSIS/Include/cmsis_gcc.h **** {
 333:Drivers/CMSIS/Include/cmsis_gcc.h ****   __ASM volatile ("MSR msp, %0" : : "r" (topOfMainStack) : );
 334:Drivers/CMSIS/Include/cmsis_gcc.h **** }
 335:Drivers/CMSIS/Include/cmsis_gcc.h **** 
 336:Drivers/CMSIS/Include/cmsis_gcc.h **** 
 337:Drivers/CMSIS/Include/cmsis_gcc.h **** #if (defined (__ARM_FEATURE_CMSE ) && (__ARM_FEATURE_CMSE == 3))
 338:Drivers/CMSIS/Include/cmsis_gcc.h **** /**
 339:Drivers/CMSIS/Include/cmsis_gcc.h ****   \brief   Set Main Stack Pointer (non-secure)
 340:Drivers/CMSIS/Include/cmsis_gcc.h ****   \details Assigns the given value to the non-secure Main Stack Pointer (MSP) when in secure state.
 341:Drivers/CMSIS/Include/cmsis_gcc.h ****   \param [in]    topOfMainStack  Main Stack Pointer value to set
 342:Drivers/CMSIS/Include/cmsis_gcc.h ****  */
 343:Drivers/CMSIS/Include/cmsis_gcc.h **** __STATIC_FORCEINLINE void __TZ_set_MSP_NS(uint32_t topOfMainStack)
 344:Drivers/CMSIS/Include/cmsis_gcc.h **** {
 345:Drivers/CMSIS/Include/cmsis_gcc.h ****   __ASM volatile ("MSR msp_ns, %0" : : "r" (topOfMainStack) : );
 346:Drivers/CMSIS/Include/cmsis_gcc.h **** }
 347:Drivers/CMSIS/Include/cmsis_gcc.h **** #endif
 348:Drivers/CMSIS/Include/cmsis_gcc.h **** 
 349:Drivers/CMSIS/Include/cmsis_gcc.h **** 
 350:Drivers/CMSIS/Include/cmsis_gcc.h **** #if (defined (__ARM_FEATURE_CMSE ) && (__ARM_FEATURE_CMSE == 3))
 351:Drivers/CMSIS/Include/cmsis_gcc.h **** /**
 352:Drivers/CMSIS/Include/cmsis_gcc.h ****   \brief   Get Stack Pointer (non-secure)
 353:Drivers/CMSIS/Include/cmsis_gcc.h ****   \details Returns the current value of the non-secure Stack Pointer (SP) when in secure state.
 354:Drivers/CMSIS/Include/cmsis_gcc.h ****   \return               SP Register value
 355:Drivers/CMSIS/Include/cmsis_gcc.h ****  */
 356:Drivers/CMSIS/Include/cmsis_gcc.h **** __STATIC_FORCEINLINE uint32_t __TZ_get_SP_NS(void)
 357:Drivers/CMSIS/Include/cmsis_gcc.h **** {
 358:Drivers/CMSIS/Include/cmsis_gcc.h ****   uint32_t result;
 359:Drivers/CMSIS/Include/cmsis_gcc.h **** 
 360:Drivers/CMSIS/Include/cmsis_gcc.h ****   __ASM volatile ("MRS %0, sp_ns" : "=r" (result) );
 361:Drivers/CMSIS/Include/cmsis_gcc.h ****   return(result);
 362:Drivers/CMSIS/Include/cmsis_gcc.h **** }
 363:Drivers/CMSIS/Include/cmsis_gcc.h **** 
 364:Drivers/CMSIS/Include/cmsis_gcc.h **** 
 365:Drivers/CMSIS/Include/cmsis_gcc.h **** /**
 366:Drivers/CMSIS/Include/cmsis_gcc.h ****   \brief   Set Stack Pointer (non-secure)
 367:Drivers/CMSIS/Include/cmsis_gcc.h ****   \details Assigns the given value to the non-secure Stack Pointer (SP) when in secure state.
 368:Drivers/CMSIS/Include/cmsis_gcc.h ****   \param [in]    topOfStack  Stack Pointer value to set
 369:Drivers/CMSIS/Include/cmsis_gcc.h ****  */
 370:Drivers/CMSIS/Include/cmsis_gcc.h **** __STATIC_FORCEINLINE void __TZ_set_SP_NS(uint32_t topOfStack)
 371:Drivers/CMSIS/Include/cmsis_gcc.h **** {
 372:Drivers/CMSIS/Include/cmsis_gcc.h ****   __ASM volatile ("MSR sp_ns, %0" : : "r" (topOfStack) : );
 373:Drivers/CMSIS/Include/cmsis_gcc.h **** }
 374:Drivers/CMSIS/Include/cmsis_gcc.h **** #endif
 375:Drivers/CMSIS/Include/cmsis_gcc.h **** 
 376:Drivers/CMSIS/Include/cmsis_gcc.h **** 
 377:Drivers/CMSIS/Include/cmsis_gcc.h **** /**
 378:Drivers/CMSIS/Include/cmsis_gcc.h ****   \brief   Get Priority Mask
 379:Drivers/CMSIS/Include/cmsis_gcc.h ****   \details Returns the current state of the priority mask bit from the Priority Mask Register.
 380:Drivers/CMSIS/Include/cmsis_gcc.h ****   \return               Priority Mask value
 381:Drivers/CMSIS/Include/cmsis_gcc.h ****  */
 382:Drivers/CMSIS/Include/cmsis_gcc.h **** __STATIC_FORCEINLINE uint32_t __get_PRIMASK(void)
 383:Drivers/CMSIS/Include/cmsis_gcc.h **** {
ARM GAS  /tmp/ccpdh2Ug.s 			page 23


 384:Drivers/CMSIS/Include/cmsis_gcc.h ****   uint32_t result;
 385:Drivers/CMSIS/Include/cmsis_gcc.h **** 
 386:Drivers/CMSIS/Include/cmsis_gcc.h ****   __ASM volatile ("MRS %0, primask" : "=r" (result) :: "memory");
 387:Drivers/CMSIS/Include/cmsis_gcc.h ****   return(result);
 388:Drivers/CMSIS/Include/cmsis_gcc.h **** }
 389:Drivers/CMSIS/Include/cmsis_gcc.h **** 
 390:Drivers/CMSIS/Include/cmsis_gcc.h **** 
 391:Drivers/CMSIS/Include/cmsis_gcc.h **** #if (defined (__ARM_FEATURE_CMSE ) && (__ARM_FEATURE_CMSE == 3))
 392:Drivers/CMSIS/Include/cmsis_gcc.h **** /**
 393:Drivers/CMSIS/Include/cmsis_gcc.h ****   \brief   Get Priority Mask (non-secure)
 394:Drivers/CMSIS/Include/cmsis_gcc.h ****   \details Returns the current state of the non-secure priority mask bit from the Priority Mask Reg
 395:Drivers/CMSIS/Include/cmsis_gcc.h ****   \return               Priority Mask value
 396:Drivers/CMSIS/Include/cmsis_gcc.h ****  */
 397:Drivers/CMSIS/Include/cmsis_gcc.h **** __STATIC_FORCEINLINE uint32_t __TZ_get_PRIMASK_NS(void)
 398:Drivers/CMSIS/Include/cmsis_gcc.h **** {
 399:Drivers/CMSIS/Include/cmsis_gcc.h ****   uint32_t result;
 400:Drivers/CMSIS/Include/cmsis_gcc.h **** 
 401:Drivers/CMSIS/Include/cmsis_gcc.h ****   __ASM volatile ("MRS %0, primask_ns" : "=r" (result) :: "memory");
 402:Drivers/CMSIS/Include/cmsis_gcc.h ****   return(result);
 403:Drivers/CMSIS/Include/cmsis_gcc.h **** }
 404:Drivers/CMSIS/Include/cmsis_gcc.h **** #endif
 405:Drivers/CMSIS/Include/cmsis_gcc.h **** 
 406:Drivers/CMSIS/Include/cmsis_gcc.h **** 
 407:Drivers/CMSIS/Include/cmsis_gcc.h **** /**
 408:Drivers/CMSIS/Include/cmsis_gcc.h ****   \brief   Set Priority Mask
 409:Drivers/CMSIS/Include/cmsis_gcc.h ****   \details Assigns the given value to the Priority Mask Register.
 410:Drivers/CMSIS/Include/cmsis_gcc.h ****   \param [in]    priMask  Priority Mask
 411:Drivers/CMSIS/Include/cmsis_gcc.h ****  */
 412:Drivers/CMSIS/Include/cmsis_gcc.h **** __STATIC_FORCEINLINE void __set_PRIMASK(uint32_t priMask)
 413:Drivers/CMSIS/Include/cmsis_gcc.h **** {
 414:Drivers/CMSIS/Include/cmsis_gcc.h ****   __ASM volatile ("MSR primask, %0" : : "r" (priMask) : "memory");
 415:Drivers/CMSIS/Include/cmsis_gcc.h **** }
 416:Drivers/CMSIS/Include/cmsis_gcc.h **** 
 417:Drivers/CMSIS/Include/cmsis_gcc.h **** 
 418:Drivers/CMSIS/Include/cmsis_gcc.h **** #if (defined (__ARM_FEATURE_CMSE ) && (__ARM_FEATURE_CMSE == 3))
 419:Drivers/CMSIS/Include/cmsis_gcc.h **** /**
 420:Drivers/CMSIS/Include/cmsis_gcc.h ****   \brief   Set Priority Mask (non-secure)
 421:Drivers/CMSIS/Include/cmsis_gcc.h ****   \details Assigns the given value to the non-secure Priority Mask Register when in secure state.
 422:Drivers/CMSIS/Include/cmsis_gcc.h ****   \param [in]    priMask  Priority Mask
 423:Drivers/CMSIS/Include/cmsis_gcc.h ****  */
 424:Drivers/CMSIS/Include/cmsis_gcc.h **** __STATIC_FORCEINLINE void __TZ_set_PRIMASK_NS(uint32_t priMask)
 425:Drivers/CMSIS/Include/cmsis_gcc.h **** {
 426:Drivers/CMSIS/Include/cmsis_gcc.h ****   __ASM volatile ("MSR primask_ns, %0" : : "r" (priMask) : "memory");
 427:Drivers/CMSIS/Include/cmsis_gcc.h **** }
 428:Drivers/CMSIS/Include/cmsis_gcc.h **** #endif
 429:Drivers/CMSIS/Include/cmsis_gcc.h **** 
 430:Drivers/CMSIS/Include/cmsis_gcc.h **** 
 431:Drivers/CMSIS/Include/cmsis_gcc.h **** #if ((defined (__ARM_ARCH_7M__      ) && (__ARM_ARCH_7M__      == 1)) || \
 432:Drivers/CMSIS/Include/cmsis_gcc.h ****      (defined (__ARM_ARCH_7EM__     ) && (__ARM_ARCH_7EM__     == 1)) || \
 433:Drivers/CMSIS/Include/cmsis_gcc.h ****      (defined (__ARM_ARCH_8M_MAIN__ ) && (__ARM_ARCH_8M_MAIN__ == 1))    )
 434:Drivers/CMSIS/Include/cmsis_gcc.h **** /**
 435:Drivers/CMSIS/Include/cmsis_gcc.h ****   \brief   Enable FIQ
 436:Drivers/CMSIS/Include/cmsis_gcc.h ****   \details Enables FIQ interrupts by clearing the F-bit in the CPSR.
 437:Drivers/CMSIS/Include/cmsis_gcc.h ****            Can only be executed in Privileged modes.
 438:Drivers/CMSIS/Include/cmsis_gcc.h ****  */
 439:Drivers/CMSIS/Include/cmsis_gcc.h **** __STATIC_FORCEINLINE void __enable_fault_irq(void)
 440:Drivers/CMSIS/Include/cmsis_gcc.h **** {
ARM GAS  /tmp/ccpdh2Ug.s 			page 24


 441:Drivers/CMSIS/Include/cmsis_gcc.h ****   __ASM volatile ("cpsie f" : : : "memory");
 442:Drivers/CMSIS/Include/cmsis_gcc.h **** }
 443:Drivers/CMSIS/Include/cmsis_gcc.h **** 
 444:Drivers/CMSIS/Include/cmsis_gcc.h **** 
 445:Drivers/CMSIS/Include/cmsis_gcc.h **** /**
 446:Drivers/CMSIS/Include/cmsis_gcc.h ****   \brief   Disable FIQ
 447:Drivers/CMSIS/Include/cmsis_gcc.h ****   \details Disables FIQ interrupts by setting the F-bit in the CPSR.
 448:Drivers/CMSIS/Include/cmsis_gcc.h ****            Can only be executed in Privileged modes.
 449:Drivers/CMSIS/Include/cmsis_gcc.h ****  */
 450:Drivers/CMSIS/Include/cmsis_gcc.h **** __STATIC_FORCEINLINE void __disable_fault_irq(void)
 451:Drivers/CMSIS/Include/cmsis_gcc.h **** {
 452:Drivers/CMSIS/Include/cmsis_gcc.h ****   __ASM volatile ("cpsid f" : : : "memory");
 453:Drivers/CMSIS/Include/cmsis_gcc.h **** }
 454:Drivers/CMSIS/Include/cmsis_gcc.h **** 
 455:Drivers/CMSIS/Include/cmsis_gcc.h **** 
 456:Drivers/CMSIS/Include/cmsis_gcc.h **** /**
 457:Drivers/CMSIS/Include/cmsis_gcc.h ****   \brief   Get Base Priority
 458:Drivers/CMSIS/Include/cmsis_gcc.h ****   \details Returns the current value of the Base Priority register.
 459:Drivers/CMSIS/Include/cmsis_gcc.h ****   \return               Base Priority register value
 460:Drivers/CMSIS/Include/cmsis_gcc.h ****  */
 461:Drivers/CMSIS/Include/cmsis_gcc.h **** __STATIC_FORCEINLINE uint32_t __get_BASEPRI(void)
 462:Drivers/CMSIS/Include/cmsis_gcc.h **** {
 463:Drivers/CMSIS/Include/cmsis_gcc.h ****   uint32_t result;
 464:Drivers/CMSIS/Include/cmsis_gcc.h **** 
 465:Drivers/CMSIS/Include/cmsis_gcc.h ****   __ASM volatile ("MRS %0, basepri" : "=r" (result) );
 466:Drivers/CMSIS/Include/cmsis_gcc.h ****   return(result);
 467:Drivers/CMSIS/Include/cmsis_gcc.h **** }
 468:Drivers/CMSIS/Include/cmsis_gcc.h **** 
 469:Drivers/CMSIS/Include/cmsis_gcc.h **** 
 470:Drivers/CMSIS/Include/cmsis_gcc.h **** #if (defined (__ARM_FEATURE_CMSE ) && (__ARM_FEATURE_CMSE == 3))
 471:Drivers/CMSIS/Include/cmsis_gcc.h **** /**
 472:Drivers/CMSIS/Include/cmsis_gcc.h ****   \brief   Get Base Priority (non-secure)
 473:Drivers/CMSIS/Include/cmsis_gcc.h ****   \details Returns the current value of the non-secure Base Priority register when in secure state.
 474:Drivers/CMSIS/Include/cmsis_gcc.h ****   \return               Base Priority register value
 475:Drivers/CMSIS/Include/cmsis_gcc.h ****  */
 476:Drivers/CMSIS/Include/cmsis_gcc.h **** __STATIC_FORCEINLINE uint32_t __TZ_get_BASEPRI_NS(void)
 477:Drivers/CMSIS/Include/cmsis_gcc.h **** {
 478:Drivers/CMSIS/Include/cmsis_gcc.h ****   uint32_t result;
 479:Drivers/CMSIS/Include/cmsis_gcc.h **** 
 480:Drivers/CMSIS/Include/cmsis_gcc.h ****   __ASM volatile ("MRS %0, basepri_ns" : "=r" (result) );
 481:Drivers/CMSIS/Include/cmsis_gcc.h ****   return(result);
 482:Drivers/CMSIS/Include/cmsis_gcc.h **** }
 483:Drivers/CMSIS/Include/cmsis_gcc.h **** #endif
 484:Drivers/CMSIS/Include/cmsis_gcc.h **** 
 485:Drivers/CMSIS/Include/cmsis_gcc.h **** 
 486:Drivers/CMSIS/Include/cmsis_gcc.h **** /**
 487:Drivers/CMSIS/Include/cmsis_gcc.h ****   \brief   Set Base Priority
 488:Drivers/CMSIS/Include/cmsis_gcc.h ****   \details Assigns the given value to the Base Priority register.
 489:Drivers/CMSIS/Include/cmsis_gcc.h ****   \param [in]    basePri  Base Priority value to set
 490:Drivers/CMSIS/Include/cmsis_gcc.h ****  */
 491:Drivers/CMSIS/Include/cmsis_gcc.h **** __STATIC_FORCEINLINE void __set_BASEPRI(uint32_t basePri)
 492:Drivers/CMSIS/Include/cmsis_gcc.h **** {
 493:Drivers/CMSIS/Include/cmsis_gcc.h ****   __ASM volatile ("MSR basepri, %0" : : "r" (basePri) : "memory");
 494:Drivers/CMSIS/Include/cmsis_gcc.h **** }
 495:Drivers/CMSIS/Include/cmsis_gcc.h **** 
 496:Drivers/CMSIS/Include/cmsis_gcc.h **** 
 497:Drivers/CMSIS/Include/cmsis_gcc.h **** #if (defined (__ARM_FEATURE_CMSE ) && (__ARM_FEATURE_CMSE == 3))
ARM GAS  /tmp/ccpdh2Ug.s 			page 25


 498:Drivers/CMSIS/Include/cmsis_gcc.h **** /**
 499:Drivers/CMSIS/Include/cmsis_gcc.h ****   \brief   Set Base Priority (non-secure)
 500:Drivers/CMSIS/Include/cmsis_gcc.h ****   \details Assigns the given value to the non-secure Base Priority register when in secure state.
 501:Drivers/CMSIS/Include/cmsis_gcc.h ****   \param [in]    basePri  Base Priority value to set
 502:Drivers/CMSIS/Include/cmsis_gcc.h ****  */
 503:Drivers/CMSIS/Include/cmsis_gcc.h **** __STATIC_FORCEINLINE void __TZ_set_BASEPRI_NS(uint32_t basePri)
 504:Drivers/CMSIS/Include/cmsis_gcc.h **** {
 505:Drivers/CMSIS/Include/cmsis_gcc.h ****   __ASM volatile ("MSR basepri_ns, %0" : : "r" (basePri) : "memory");
 506:Drivers/CMSIS/Include/cmsis_gcc.h **** }
 507:Drivers/CMSIS/Include/cmsis_gcc.h **** #endif
 508:Drivers/CMSIS/Include/cmsis_gcc.h **** 
 509:Drivers/CMSIS/Include/cmsis_gcc.h **** 
 510:Drivers/CMSIS/Include/cmsis_gcc.h **** /**
 511:Drivers/CMSIS/Include/cmsis_gcc.h ****   \brief   Set Base Priority with condition
 512:Drivers/CMSIS/Include/cmsis_gcc.h ****   \details Assigns the given value to the Base Priority register only if BASEPRI masking is disable
 513:Drivers/CMSIS/Include/cmsis_gcc.h ****            or the new value increases the BASEPRI priority level.
 514:Drivers/CMSIS/Include/cmsis_gcc.h ****   \param [in]    basePri  Base Priority value to set
 515:Drivers/CMSIS/Include/cmsis_gcc.h ****  */
 516:Drivers/CMSIS/Include/cmsis_gcc.h **** __STATIC_FORCEINLINE void __set_BASEPRI_MAX(uint32_t basePri)
 517:Drivers/CMSIS/Include/cmsis_gcc.h **** {
 518:Drivers/CMSIS/Include/cmsis_gcc.h ****   __ASM volatile ("MSR basepri_max, %0" : : "r" (basePri) : "memory");
 519:Drivers/CMSIS/Include/cmsis_gcc.h **** }
 520:Drivers/CMSIS/Include/cmsis_gcc.h **** 
 521:Drivers/CMSIS/Include/cmsis_gcc.h **** 
 522:Drivers/CMSIS/Include/cmsis_gcc.h **** /**
 523:Drivers/CMSIS/Include/cmsis_gcc.h ****   \brief   Get Fault Mask
 524:Drivers/CMSIS/Include/cmsis_gcc.h ****   \details Returns the current value of the Fault Mask register.
 525:Drivers/CMSIS/Include/cmsis_gcc.h ****   \return               Fault Mask register value
 526:Drivers/CMSIS/Include/cmsis_gcc.h ****  */
 527:Drivers/CMSIS/Include/cmsis_gcc.h **** __STATIC_FORCEINLINE uint32_t __get_FAULTMASK(void)
 528:Drivers/CMSIS/Include/cmsis_gcc.h **** {
 529:Drivers/CMSIS/Include/cmsis_gcc.h ****   uint32_t result;
 530:Drivers/CMSIS/Include/cmsis_gcc.h **** 
 531:Drivers/CMSIS/Include/cmsis_gcc.h ****   __ASM volatile ("MRS %0, faultmask" : "=r" (result) );
 532:Drivers/CMSIS/Include/cmsis_gcc.h ****   return(result);
 533:Drivers/CMSIS/Include/cmsis_gcc.h **** }
 534:Drivers/CMSIS/Include/cmsis_gcc.h **** 
 535:Drivers/CMSIS/Include/cmsis_gcc.h **** 
 536:Drivers/CMSIS/Include/cmsis_gcc.h **** #if (defined (__ARM_FEATURE_CMSE ) && (__ARM_FEATURE_CMSE == 3))
 537:Drivers/CMSIS/Include/cmsis_gcc.h **** /**
 538:Drivers/CMSIS/Include/cmsis_gcc.h ****   \brief   Get Fault Mask (non-secure)
 539:Drivers/CMSIS/Include/cmsis_gcc.h ****   \details Returns the current value of the non-secure Fault Mask register when in secure state.
 540:Drivers/CMSIS/Include/cmsis_gcc.h ****   \return               Fault Mask register value
 541:Drivers/CMSIS/Include/cmsis_gcc.h ****  */
 542:Drivers/CMSIS/Include/cmsis_gcc.h **** __STATIC_FORCEINLINE uint32_t __TZ_get_FAULTMASK_NS(void)
 543:Drivers/CMSIS/Include/cmsis_gcc.h **** {
 544:Drivers/CMSIS/Include/cmsis_gcc.h ****   uint32_t result;
 545:Drivers/CMSIS/Include/cmsis_gcc.h **** 
 546:Drivers/CMSIS/Include/cmsis_gcc.h ****   __ASM volatile ("MRS %0, faultmask_ns" : "=r" (result) );
 547:Drivers/CMSIS/Include/cmsis_gcc.h ****   return(result);
 548:Drivers/CMSIS/Include/cmsis_gcc.h **** }
 549:Drivers/CMSIS/Include/cmsis_gcc.h **** #endif
 550:Drivers/CMSIS/Include/cmsis_gcc.h **** 
 551:Drivers/CMSIS/Include/cmsis_gcc.h **** 
 552:Drivers/CMSIS/Include/cmsis_gcc.h **** /**
 553:Drivers/CMSIS/Include/cmsis_gcc.h ****   \brief   Set Fault Mask
 554:Drivers/CMSIS/Include/cmsis_gcc.h ****   \details Assigns the given value to the Fault Mask register.
ARM GAS  /tmp/ccpdh2Ug.s 			page 26


 555:Drivers/CMSIS/Include/cmsis_gcc.h ****   \param [in]    faultMask  Fault Mask value to set
 556:Drivers/CMSIS/Include/cmsis_gcc.h ****  */
 557:Drivers/CMSIS/Include/cmsis_gcc.h **** __STATIC_FORCEINLINE void __set_FAULTMASK(uint32_t faultMask)
 558:Drivers/CMSIS/Include/cmsis_gcc.h **** {
 559:Drivers/CMSIS/Include/cmsis_gcc.h ****   __ASM volatile ("MSR faultmask, %0" : : "r" (faultMask) : "memory");
 560:Drivers/CMSIS/Include/cmsis_gcc.h **** }
 561:Drivers/CMSIS/Include/cmsis_gcc.h **** 
 562:Drivers/CMSIS/Include/cmsis_gcc.h **** 
 563:Drivers/CMSIS/Include/cmsis_gcc.h **** #if (defined (__ARM_FEATURE_CMSE ) && (__ARM_FEATURE_CMSE == 3))
 564:Drivers/CMSIS/Include/cmsis_gcc.h **** /**
 565:Drivers/CMSIS/Include/cmsis_gcc.h ****   \brief   Set Fault Mask (non-secure)
 566:Drivers/CMSIS/Include/cmsis_gcc.h ****   \details Assigns the given value to the non-secure Fault Mask register when in secure state.
 567:Drivers/CMSIS/Include/cmsis_gcc.h ****   \param [in]    faultMask  Fault Mask value to set
 568:Drivers/CMSIS/Include/cmsis_gcc.h ****  */
 569:Drivers/CMSIS/Include/cmsis_gcc.h **** __STATIC_FORCEINLINE void __TZ_set_FAULTMASK_NS(uint32_t faultMask)
 570:Drivers/CMSIS/Include/cmsis_gcc.h **** {
 571:Drivers/CMSIS/Include/cmsis_gcc.h ****   __ASM volatile ("MSR faultmask_ns, %0" : : "r" (faultMask) : "memory");
 572:Drivers/CMSIS/Include/cmsis_gcc.h **** }
 573:Drivers/CMSIS/Include/cmsis_gcc.h **** #endif
 574:Drivers/CMSIS/Include/cmsis_gcc.h **** 
 575:Drivers/CMSIS/Include/cmsis_gcc.h **** #endif /* ((defined (__ARM_ARCH_7M__      ) && (__ARM_ARCH_7M__      == 1)) || \
 576:Drivers/CMSIS/Include/cmsis_gcc.h ****            (defined (__ARM_ARCH_7EM__     ) && (__ARM_ARCH_7EM__     == 1)) || \
 577:Drivers/CMSIS/Include/cmsis_gcc.h ****            (defined (__ARM_ARCH_8M_MAIN__ ) && (__ARM_ARCH_8M_MAIN__ == 1))    ) */
 578:Drivers/CMSIS/Include/cmsis_gcc.h **** 
 579:Drivers/CMSIS/Include/cmsis_gcc.h **** 
 580:Drivers/CMSIS/Include/cmsis_gcc.h **** #if ((defined (__ARM_ARCH_8M_MAIN__ ) && (__ARM_ARCH_8M_MAIN__ == 1)) || \
 581:Drivers/CMSIS/Include/cmsis_gcc.h ****      (defined (__ARM_ARCH_8M_BASE__ ) && (__ARM_ARCH_8M_BASE__ == 1))    )
 582:Drivers/CMSIS/Include/cmsis_gcc.h **** 
 583:Drivers/CMSIS/Include/cmsis_gcc.h **** /**
 584:Drivers/CMSIS/Include/cmsis_gcc.h ****   \brief   Get Process Stack Pointer Limit
 585:Drivers/CMSIS/Include/cmsis_gcc.h ****   Devices without ARMv8-M Main Extensions (i.e. Cortex-M23) lack the non-secure
 586:Drivers/CMSIS/Include/cmsis_gcc.h ****   Stack Pointer Limit register hence zero is returned always in non-secure
 587:Drivers/CMSIS/Include/cmsis_gcc.h ****   mode.
 588:Drivers/CMSIS/Include/cmsis_gcc.h ****   
 589:Drivers/CMSIS/Include/cmsis_gcc.h ****   \details Returns the current value of the Process Stack Pointer Limit (PSPLIM).
 590:Drivers/CMSIS/Include/cmsis_gcc.h ****   \return               PSPLIM Register value
 591:Drivers/CMSIS/Include/cmsis_gcc.h ****  */
 592:Drivers/CMSIS/Include/cmsis_gcc.h **** __STATIC_FORCEINLINE uint32_t __get_PSPLIM(void)
 593:Drivers/CMSIS/Include/cmsis_gcc.h **** {
 594:Drivers/CMSIS/Include/cmsis_gcc.h **** #if (!(defined (__ARM_ARCH_8M_MAIN__ ) && (__ARM_ARCH_8M_MAIN__ == 1)) && \
 595:Drivers/CMSIS/Include/cmsis_gcc.h ****     (!defined (__ARM_FEATURE_CMSE) || (__ARM_FEATURE_CMSE < 3)))
 596:Drivers/CMSIS/Include/cmsis_gcc.h ****     // without main extensions, the non-secure PSPLIM is RAZ/WI
 597:Drivers/CMSIS/Include/cmsis_gcc.h ****   return 0U;
 598:Drivers/CMSIS/Include/cmsis_gcc.h **** #else
 599:Drivers/CMSIS/Include/cmsis_gcc.h ****   uint32_t result;
 600:Drivers/CMSIS/Include/cmsis_gcc.h ****   __ASM volatile ("MRS %0, psplim"  : "=r" (result) );
 601:Drivers/CMSIS/Include/cmsis_gcc.h ****   return result;
 602:Drivers/CMSIS/Include/cmsis_gcc.h **** #endif
 603:Drivers/CMSIS/Include/cmsis_gcc.h **** }
 604:Drivers/CMSIS/Include/cmsis_gcc.h **** 
 605:Drivers/CMSIS/Include/cmsis_gcc.h **** #if (defined (__ARM_FEATURE_CMSE) && (__ARM_FEATURE_CMSE == 3))
 606:Drivers/CMSIS/Include/cmsis_gcc.h **** /**
 607:Drivers/CMSIS/Include/cmsis_gcc.h ****   \brief   Get Process Stack Pointer Limit (non-secure)
 608:Drivers/CMSIS/Include/cmsis_gcc.h ****   Devices without ARMv8-M Main Extensions (i.e. Cortex-M23) lack the non-secure
 609:Drivers/CMSIS/Include/cmsis_gcc.h ****   Stack Pointer Limit register hence zero is returned always.
 610:Drivers/CMSIS/Include/cmsis_gcc.h **** 
 611:Drivers/CMSIS/Include/cmsis_gcc.h ****   \details Returns the current value of the non-secure Process Stack Pointer Limit (PSPLIM) when in
ARM GAS  /tmp/ccpdh2Ug.s 			page 27


 612:Drivers/CMSIS/Include/cmsis_gcc.h ****   \return               PSPLIM Register value
 613:Drivers/CMSIS/Include/cmsis_gcc.h ****  */
 614:Drivers/CMSIS/Include/cmsis_gcc.h **** __STATIC_FORCEINLINE uint32_t __TZ_get_PSPLIM_NS(void)
 615:Drivers/CMSIS/Include/cmsis_gcc.h **** {
 616:Drivers/CMSIS/Include/cmsis_gcc.h **** #if (!(defined (__ARM_ARCH_8M_MAIN__ ) && (__ARM_ARCH_8M_MAIN__ == 1)))
 617:Drivers/CMSIS/Include/cmsis_gcc.h ****   // without main extensions, the non-secure PSPLIM is RAZ/WI
 618:Drivers/CMSIS/Include/cmsis_gcc.h ****   return 0U;
 619:Drivers/CMSIS/Include/cmsis_gcc.h **** #else
 620:Drivers/CMSIS/Include/cmsis_gcc.h ****   uint32_t result;
 621:Drivers/CMSIS/Include/cmsis_gcc.h ****   __ASM volatile ("MRS %0, psplim_ns"  : "=r" (result) );
 622:Drivers/CMSIS/Include/cmsis_gcc.h ****   return result;
 623:Drivers/CMSIS/Include/cmsis_gcc.h **** #endif
 624:Drivers/CMSIS/Include/cmsis_gcc.h **** }
 625:Drivers/CMSIS/Include/cmsis_gcc.h **** #endif
 626:Drivers/CMSIS/Include/cmsis_gcc.h **** 
 627:Drivers/CMSIS/Include/cmsis_gcc.h **** 
 628:Drivers/CMSIS/Include/cmsis_gcc.h **** /**
 629:Drivers/CMSIS/Include/cmsis_gcc.h ****   \brief   Set Process Stack Pointer Limit
 630:Drivers/CMSIS/Include/cmsis_gcc.h ****   Devices without ARMv8-M Main Extensions (i.e. Cortex-M23) lack the non-secure
 631:Drivers/CMSIS/Include/cmsis_gcc.h ****   Stack Pointer Limit register hence the write is silently ignored in non-secure
 632:Drivers/CMSIS/Include/cmsis_gcc.h ****   mode.
 633:Drivers/CMSIS/Include/cmsis_gcc.h ****   
 634:Drivers/CMSIS/Include/cmsis_gcc.h ****   \details Assigns the given value to the Process Stack Pointer Limit (PSPLIM).
 635:Drivers/CMSIS/Include/cmsis_gcc.h ****   \param [in]    ProcStackPtrLimit  Process Stack Pointer Limit value to set
 636:Drivers/CMSIS/Include/cmsis_gcc.h ****  */
 637:Drivers/CMSIS/Include/cmsis_gcc.h **** __STATIC_FORCEINLINE void __set_PSPLIM(uint32_t ProcStackPtrLimit)
 638:Drivers/CMSIS/Include/cmsis_gcc.h **** {
 639:Drivers/CMSIS/Include/cmsis_gcc.h **** #if (!(defined (__ARM_ARCH_8M_MAIN__ ) && (__ARM_ARCH_8M_MAIN__ == 1)) && \
 640:Drivers/CMSIS/Include/cmsis_gcc.h ****     (!defined (__ARM_FEATURE_CMSE) || (__ARM_FEATURE_CMSE < 3)))
 641:Drivers/CMSIS/Include/cmsis_gcc.h ****   // without main extensions, the non-secure PSPLIM is RAZ/WI
 642:Drivers/CMSIS/Include/cmsis_gcc.h ****   (void)ProcStackPtrLimit;
 643:Drivers/CMSIS/Include/cmsis_gcc.h **** #else
 644:Drivers/CMSIS/Include/cmsis_gcc.h ****   __ASM volatile ("MSR psplim, %0" : : "r" (ProcStackPtrLimit));
 645:Drivers/CMSIS/Include/cmsis_gcc.h **** #endif
 646:Drivers/CMSIS/Include/cmsis_gcc.h **** }
 647:Drivers/CMSIS/Include/cmsis_gcc.h **** 
 648:Drivers/CMSIS/Include/cmsis_gcc.h **** 
 649:Drivers/CMSIS/Include/cmsis_gcc.h **** #if (defined (__ARM_FEATURE_CMSE  ) && (__ARM_FEATURE_CMSE   == 3))
 650:Drivers/CMSIS/Include/cmsis_gcc.h **** /**
 651:Drivers/CMSIS/Include/cmsis_gcc.h ****   \brief   Set Process Stack Pointer (non-secure)
 652:Drivers/CMSIS/Include/cmsis_gcc.h ****   Devices without ARMv8-M Main Extensions (i.e. Cortex-M23) lack the non-secure
 653:Drivers/CMSIS/Include/cmsis_gcc.h ****   Stack Pointer Limit register hence the write is silently ignored.
 654:Drivers/CMSIS/Include/cmsis_gcc.h **** 
 655:Drivers/CMSIS/Include/cmsis_gcc.h ****   \details Assigns the given value to the non-secure Process Stack Pointer Limit (PSPLIM) when in s
 656:Drivers/CMSIS/Include/cmsis_gcc.h ****   \param [in]    ProcStackPtrLimit  Process Stack Pointer Limit value to set
 657:Drivers/CMSIS/Include/cmsis_gcc.h ****  */
 658:Drivers/CMSIS/Include/cmsis_gcc.h **** __STATIC_FORCEINLINE void __TZ_set_PSPLIM_NS(uint32_t ProcStackPtrLimit)
 659:Drivers/CMSIS/Include/cmsis_gcc.h **** {
 660:Drivers/CMSIS/Include/cmsis_gcc.h **** #if (!(defined (__ARM_ARCH_8M_MAIN__ ) && (__ARM_ARCH_8M_MAIN__ == 1)))
 661:Drivers/CMSIS/Include/cmsis_gcc.h ****   // without main extensions, the non-secure PSPLIM is RAZ/WI
 662:Drivers/CMSIS/Include/cmsis_gcc.h ****   (void)ProcStackPtrLimit;
 663:Drivers/CMSIS/Include/cmsis_gcc.h **** #else
 664:Drivers/CMSIS/Include/cmsis_gcc.h ****   __ASM volatile ("MSR psplim_ns, %0\n" : : "r" (ProcStackPtrLimit));
 665:Drivers/CMSIS/Include/cmsis_gcc.h **** #endif
 666:Drivers/CMSIS/Include/cmsis_gcc.h **** }
 667:Drivers/CMSIS/Include/cmsis_gcc.h **** #endif
 668:Drivers/CMSIS/Include/cmsis_gcc.h **** 
ARM GAS  /tmp/ccpdh2Ug.s 			page 28


 669:Drivers/CMSIS/Include/cmsis_gcc.h **** 
 670:Drivers/CMSIS/Include/cmsis_gcc.h **** /**
 671:Drivers/CMSIS/Include/cmsis_gcc.h ****   \brief   Get Main Stack Pointer Limit
 672:Drivers/CMSIS/Include/cmsis_gcc.h ****   Devices without ARMv8-M Main Extensions (i.e. Cortex-M23) lack the non-secure
 673:Drivers/CMSIS/Include/cmsis_gcc.h ****   Stack Pointer Limit register hence zero is returned always in non-secure
 674:Drivers/CMSIS/Include/cmsis_gcc.h ****   mode.
 675:Drivers/CMSIS/Include/cmsis_gcc.h **** 
 676:Drivers/CMSIS/Include/cmsis_gcc.h ****   \details Returns the current value of the Main Stack Pointer Limit (MSPLIM).
 677:Drivers/CMSIS/Include/cmsis_gcc.h ****   \return               MSPLIM Register value
 678:Drivers/CMSIS/Include/cmsis_gcc.h ****  */
 679:Drivers/CMSIS/Include/cmsis_gcc.h **** __STATIC_FORCEINLINE uint32_t __get_MSPLIM(void)
 680:Drivers/CMSIS/Include/cmsis_gcc.h **** {
 681:Drivers/CMSIS/Include/cmsis_gcc.h **** #if (!(defined (__ARM_ARCH_8M_MAIN__ ) && (__ARM_ARCH_8M_MAIN__ == 1)) && \
 682:Drivers/CMSIS/Include/cmsis_gcc.h ****     (!defined (__ARM_FEATURE_CMSE) || (__ARM_FEATURE_CMSE < 3)))
 683:Drivers/CMSIS/Include/cmsis_gcc.h ****   // without main extensions, the non-secure MSPLIM is RAZ/WI
 684:Drivers/CMSIS/Include/cmsis_gcc.h ****   return 0U;
 685:Drivers/CMSIS/Include/cmsis_gcc.h **** #else
 686:Drivers/CMSIS/Include/cmsis_gcc.h ****   uint32_t result;
 687:Drivers/CMSIS/Include/cmsis_gcc.h ****   __ASM volatile ("MRS %0, msplim" : "=r" (result) );
 688:Drivers/CMSIS/Include/cmsis_gcc.h ****   return result;
 689:Drivers/CMSIS/Include/cmsis_gcc.h **** #endif
 690:Drivers/CMSIS/Include/cmsis_gcc.h **** }
 691:Drivers/CMSIS/Include/cmsis_gcc.h **** 
 692:Drivers/CMSIS/Include/cmsis_gcc.h **** 
 693:Drivers/CMSIS/Include/cmsis_gcc.h **** #if (defined (__ARM_FEATURE_CMSE  ) && (__ARM_FEATURE_CMSE   == 3))
 694:Drivers/CMSIS/Include/cmsis_gcc.h **** /**
 695:Drivers/CMSIS/Include/cmsis_gcc.h ****   \brief   Get Main Stack Pointer Limit (non-secure)
 696:Drivers/CMSIS/Include/cmsis_gcc.h ****   Devices without ARMv8-M Main Extensions (i.e. Cortex-M23) lack the non-secure
 697:Drivers/CMSIS/Include/cmsis_gcc.h ****   Stack Pointer Limit register hence zero is returned always.
 698:Drivers/CMSIS/Include/cmsis_gcc.h **** 
 699:Drivers/CMSIS/Include/cmsis_gcc.h ****   \details Returns the current value of the non-secure Main Stack Pointer Limit(MSPLIM) when in sec
 700:Drivers/CMSIS/Include/cmsis_gcc.h ****   \return               MSPLIM Register value
 701:Drivers/CMSIS/Include/cmsis_gcc.h ****  */
 702:Drivers/CMSIS/Include/cmsis_gcc.h **** __STATIC_FORCEINLINE uint32_t __TZ_get_MSPLIM_NS(void)
 703:Drivers/CMSIS/Include/cmsis_gcc.h **** {
 704:Drivers/CMSIS/Include/cmsis_gcc.h **** #if (!(defined (__ARM_ARCH_8M_MAIN__ ) && (__ARM_ARCH_8M_MAIN__ == 1)))
 705:Drivers/CMSIS/Include/cmsis_gcc.h ****   // without main extensions, the non-secure MSPLIM is RAZ/WI
 706:Drivers/CMSIS/Include/cmsis_gcc.h ****   return 0U;
 707:Drivers/CMSIS/Include/cmsis_gcc.h **** #else
 708:Drivers/CMSIS/Include/cmsis_gcc.h ****   uint32_t result;
 709:Drivers/CMSIS/Include/cmsis_gcc.h ****   __ASM volatile ("MRS %0, msplim_ns" : "=r" (result) );
 710:Drivers/CMSIS/Include/cmsis_gcc.h ****   return result;
 711:Drivers/CMSIS/Include/cmsis_gcc.h **** #endif
 712:Drivers/CMSIS/Include/cmsis_gcc.h **** }
 713:Drivers/CMSIS/Include/cmsis_gcc.h **** #endif
 714:Drivers/CMSIS/Include/cmsis_gcc.h **** 
 715:Drivers/CMSIS/Include/cmsis_gcc.h **** 
 716:Drivers/CMSIS/Include/cmsis_gcc.h **** /**
 717:Drivers/CMSIS/Include/cmsis_gcc.h ****   \brief   Set Main Stack Pointer Limit
 718:Drivers/CMSIS/Include/cmsis_gcc.h ****   Devices without ARMv8-M Main Extensions (i.e. Cortex-M23) lack the non-secure
 719:Drivers/CMSIS/Include/cmsis_gcc.h ****   Stack Pointer Limit register hence the write is silently ignored in non-secure
 720:Drivers/CMSIS/Include/cmsis_gcc.h ****   mode.
 721:Drivers/CMSIS/Include/cmsis_gcc.h **** 
 722:Drivers/CMSIS/Include/cmsis_gcc.h ****   \details Assigns the given value to the Main Stack Pointer Limit (MSPLIM).
 723:Drivers/CMSIS/Include/cmsis_gcc.h ****   \param [in]    MainStackPtrLimit  Main Stack Pointer Limit value to set
 724:Drivers/CMSIS/Include/cmsis_gcc.h ****  */
 725:Drivers/CMSIS/Include/cmsis_gcc.h **** __STATIC_FORCEINLINE void __set_MSPLIM(uint32_t MainStackPtrLimit)
ARM GAS  /tmp/ccpdh2Ug.s 			page 29


 726:Drivers/CMSIS/Include/cmsis_gcc.h **** {
 727:Drivers/CMSIS/Include/cmsis_gcc.h **** #if (!(defined (__ARM_ARCH_8M_MAIN__ ) && (__ARM_ARCH_8M_MAIN__ == 1)) && \
 728:Drivers/CMSIS/Include/cmsis_gcc.h ****     (!defined (__ARM_FEATURE_CMSE) || (__ARM_FEATURE_CMSE < 3)))
 729:Drivers/CMSIS/Include/cmsis_gcc.h ****   // without main extensions, the non-secure MSPLIM is RAZ/WI
 730:Drivers/CMSIS/Include/cmsis_gcc.h ****   (void)MainStackPtrLimit;
 731:Drivers/CMSIS/Include/cmsis_gcc.h **** #else
 732:Drivers/CMSIS/Include/cmsis_gcc.h ****   __ASM volatile ("MSR msplim, %0" : : "r" (MainStackPtrLimit));
 733:Drivers/CMSIS/Include/cmsis_gcc.h **** #endif
 734:Drivers/CMSIS/Include/cmsis_gcc.h **** }
 735:Drivers/CMSIS/Include/cmsis_gcc.h **** 
 736:Drivers/CMSIS/Include/cmsis_gcc.h **** 
 737:Drivers/CMSIS/Include/cmsis_gcc.h **** #if (defined (__ARM_FEATURE_CMSE  ) && (__ARM_FEATURE_CMSE   == 3))
 738:Drivers/CMSIS/Include/cmsis_gcc.h **** /**
 739:Drivers/CMSIS/Include/cmsis_gcc.h ****   \brief   Set Main Stack Pointer Limit (non-secure)
 740:Drivers/CMSIS/Include/cmsis_gcc.h ****   Devices without ARMv8-M Main Extensions (i.e. Cortex-M23) lack the non-secure
 741:Drivers/CMSIS/Include/cmsis_gcc.h ****   Stack Pointer Limit register hence the write is silently ignored.
 742:Drivers/CMSIS/Include/cmsis_gcc.h **** 
 743:Drivers/CMSIS/Include/cmsis_gcc.h ****   \details Assigns the given value to the non-secure Main Stack Pointer Limit (MSPLIM) when in secu
 744:Drivers/CMSIS/Include/cmsis_gcc.h ****   \param [in]    MainStackPtrLimit  Main Stack Pointer value to set
 745:Drivers/CMSIS/Include/cmsis_gcc.h ****  */
 746:Drivers/CMSIS/Include/cmsis_gcc.h **** __STATIC_FORCEINLINE void __TZ_set_MSPLIM_NS(uint32_t MainStackPtrLimit)
 747:Drivers/CMSIS/Include/cmsis_gcc.h **** {
 748:Drivers/CMSIS/Include/cmsis_gcc.h **** #if (!(defined (__ARM_ARCH_8M_MAIN__ ) && (__ARM_ARCH_8M_MAIN__ == 1)))
 749:Drivers/CMSIS/Include/cmsis_gcc.h ****   // without main extensions, the non-secure MSPLIM is RAZ/WI
 750:Drivers/CMSIS/Include/cmsis_gcc.h ****   (void)MainStackPtrLimit;
 751:Drivers/CMSIS/Include/cmsis_gcc.h **** #else
 752:Drivers/CMSIS/Include/cmsis_gcc.h ****   __ASM volatile ("MSR msplim_ns, %0" : : "r" (MainStackPtrLimit));
 753:Drivers/CMSIS/Include/cmsis_gcc.h **** #endif
 754:Drivers/CMSIS/Include/cmsis_gcc.h **** }
 755:Drivers/CMSIS/Include/cmsis_gcc.h **** #endif
 756:Drivers/CMSIS/Include/cmsis_gcc.h **** 
 757:Drivers/CMSIS/Include/cmsis_gcc.h **** #endif /* ((defined (__ARM_ARCH_8M_MAIN__ ) && (__ARM_ARCH_8M_MAIN__ == 1)) || \
 758:Drivers/CMSIS/Include/cmsis_gcc.h ****            (defined (__ARM_ARCH_8M_BASE__ ) && (__ARM_ARCH_8M_BASE__ == 1))    ) */
 759:Drivers/CMSIS/Include/cmsis_gcc.h **** 
 760:Drivers/CMSIS/Include/cmsis_gcc.h **** 
 761:Drivers/CMSIS/Include/cmsis_gcc.h **** /**
 762:Drivers/CMSIS/Include/cmsis_gcc.h ****   \brief   Get FPSCR
 763:Drivers/CMSIS/Include/cmsis_gcc.h ****   \details Returns the current value of the Floating Point Status/Control register.
 764:Drivers/CMSIS/Include/cmsis_gcc.h ****   \return               Floating Point Status/Control register value
 765:Drivers/CMSIS/Include/cmsis_gcc.h ****  */
 766:Drivers/CMSIS/Include/cmsis_gcc.h **** __STATIC_FORCEINLINE uint32_t __get_FPSCR(void)
 767:Drivers/CMSIS/Include/cmsis_gcc.h **** {
 768:Drivers/CMSIS/Include/cmsis_gcc.h **** #if ((defined (__FPU_PRESENT) && (__FPU_PRESENT == 1U)) && \
 769:Drivers/CMSIS/Include/cmsis_gcc.h ****      (defined (__FPU_USED   ) && (__FPU_USED    == 1U))     )
 770:Drivers/CMSIS/Include/cmsis_gcc.h **** #if __has_builtin(__builtin_arm_get_fpscr) 
 771:Drivers/CMSIS/Include/cmsis_gcc.h **** // Re-enable using built-in when GCC has been fixed
 772:Drivers/CMSIS/Include/cmsis_gcc.h **** // || (__GNUC__ > 7) || (__GNUC__ == 7 && __GNUC_MINOR__ >= 2)
 773:Drivers/CMSIS/Include/cmsis_gcc.h ****   /* see https://gcc.gnu.org/ml/gcc-patches/2017-04/msg00443.html */
 774:Drivers/CMSIS/Include/cmsis_gcc.h ****   return __builtin_arm_get_fpscr();
 775:Drivers/CMSIS/Include/cmsis_gcc.h **** #else
 776:Drivers/CMSIS/Include/cmsis_gcc.h ****   uint32_t result;
 777:Drivers/CMSIS/Include/cmsis_gcc.h **** 
 778:Drivers/CMSIS/Include/cmsis_gcc.h ****   __ASM volatile ("VMRS %0, fpscr" : "=r" (result) );
 779:Drivers/CMSIS/Include/cmsis_gcc.h ****   return(result);
 780:Drivers/CMSIS/Include/cmsis_gcc.h **** #endif
 781:Drivers/CMSIS/Include/cmsis_gcc.h **** #else
 782:Drivers/CMSIS/Include/cmsis_gcc.h ****   return(0U);
ARM GAS  /tmp/ccpdh2Ug.s 			page 30


 783:Drivers/CMSIS/Include/cmsis_gcc.h **** #endif
 784:Drivers/CMSIS/Include/cmsis_gcc.h **** }
 785:Drivers/CMSIS/Include/cmsis_gcc.h **** 
 786:Drivers/CMSIS/Include/cmsis_gcc.h **** 
 787:Drivers/CMSIS/Include/cmsis_gcc.h **** /**
 788:Drivers/CMSIS/Include/cmsis_gcc.h ****   \brief   Set FPSCR
 789:Drivers/CMSIS/Include/cmsis_gcc.h ****   \details Assigns the given value to the Floating Point Status/Control register.
 790:Drivers/CMSIS/Include/cmsis_gcc.h ****   \param [in]    fpscr  Floating Point Status/Control value to set
 791:Drivers/CMSIS/Include/cmsis_gcc.h ****  */
 792:Drivers/CMSIS/Include/cmsis_gcc.h **** __STATIC_FORCEINLINE void __set_FPSCR(uint32_t fpscr)
 793:Drivers/CMSIS/Include/cmsis_gcc.h **** {
 794:Drivers/CMSIS/Include/cmsis_gcc.h **** #if ((defined (__FPU_PRESENT) && (__FPU_PRESENT == 1U)) && \
 795:Drivers/CMSIS/Include/cmsis_gcc.h ****      (defined (__FPU_USED   ) && (__FPU_USED    == 1U))     )
 796:Drivers/CMSIS/Include/cmsis_gcc.h **** #if __has_builtin(__builtin_arm_set_fpscr)
 797:Drivers/CMSIS/Include/cmsis_gcc.h **** // Re-enable using built-in when GCC has been fixed
 798:Drivers/CMSIS/Include/cmsis_gcc.h **** // || (__GNUC__ > 7) || (__GNUC__ == 7 && __GNUC_MINOR__ >= 2)
 799:Drivers/CMSIS/Include/cmsis_gcc.h ****   /* see https://gcc.gnu.org/ml/gcc-patches/2017-04/msg00443.html */
 800:Drivers/CMSIS/Include/cmsis_gcc.h ****   __builtin_arm_set_fpscr(fpscr);
 801:Drivers/CMSIS/Include/cmsis_gcc.h **** #else
 802:Drivers/CMSIS/Include/cmsis_gcc.h ****   __ASM volatile ("VMSR fpscr, %0" : : "r" (fpscr) : "vfpcc", "memory");
 803:Drivers/CMSIS/Include/cmsis_gcc.h **** #endif
 804:Drivers/CMSIS/Include/cmsis_gcc.h **** #else
 805:Drivers/CMSIS/Include/cmsis_gcc.h ****   (void)fpscr;
 806:Drivers/CMSIS/Include/cmsis_gcc.h **** #endif
 807:Drivers/CMSIS/Include/cmsis_gcc.h **** }
 808:Drivers/CMSIS/Include/cmsis_gcc.h **** 
 809:Drivers/CMSIS/Include/cmsis_gcc.h **** 
 810:Drivers/CMSIS/Include/cmsis_gcc.h **** /*@} end of CMSIS_Core_RegAccFunctions */
 811:Drivers/CMSIS/Include/cmsis_gcc.h **** 
 812:Drivers/CMSIS/Include/cmsis_gcc.h **** 
 813:Drivers/CMSIS/Include/cmsis_gcc.h **** /* ##########################  Core Instruction Access  ######################### */
 814:Drivers/CMSIS/Include/cmsis_gcc.h **** /** \defgroup CMSIS_Core_InstructionInterface CMSIS Core Instruction Interface
 815:Drivers/CMSIS/Include/cmsis_gcc.h ****   Access to dedicated instructions
 816:Drivers/CMSIS/Include/cmsis_gcc.h ****   @{
 817:Drivers/CMSIS/Include/cmsis_gcc.h **** */
 818:Drivers/CMSIS/Include/cmsis_gcc.h **** 
 819:Drivers/CMSIS/Include/cmsis_gcc.h **** /* Define macros for porting to both thumb1 and thumb2.
 820:Drivers/CMSIS/Include/cmsis_gcc.h ****  * For thumb1, use low register (r0-r7), specified by constraint "l"
 821:Drivers/CMSIS/Include/cmsis_gcc.h ****  * Otherwise, use general registers, specified by constraint "r" */
 822:Drivers/CMSIS/Include/cmsis_gcc.h **** #if defined (__thumb__) && !defined (__thumb2__)
 823:Drivers/CMSIS/Include/cmsis_gcc.h **** #define __CMSIS_GCC_OUT_REG(r) "=l" (r)
 824:Drivers/CMSIS/Include/cmsis_gcc.h **** #define __CMSIS_GCC_RW_REG(r) "+l" (r)
 825:Drivers/CMSIS/Include/cmsis_gcc.h **** #define __CMSIS_GCC_USE_REG(r) "l" (r)
 826:Drivers/CMSIS/Include/cmsis_gcc.h **** #else
 827:Drivers/CMSIS/Include/cmsis_gcc.h **** #define __CMSIS_GCC_OUT_REG(r) "=r" (r)
 828:Drivers/CMSIS/Include/cmsis_gcc.h **** #define __CMSIS_GCC_RW_REG(r) "+r" (r)
 829:Drivers/CMSIS/Include/cmsis_gcc.h **** #define __CMSIS_GCC_USE_REG(r) "r" (r)
 830:Drivers/CMSIS/Include/cmsis_gcc.h **** #endif
 831:Drivers/CMSIS/Include/cmsis_gcc.h **** 
 832:Drivers/CMSIS/Include/cmsis_gcc.h **** /**
 833:Drivers/CMSIS/Include/cmsis_gcc.h ****   \brief   No Operation
 834:Drivers/CMSIS/Include/cmsis_gcc.h ****   \details No Operation does nothing. This instruction can be used for code alignment purposes.
 835:Drivers/CMSIS/Include/cmsis_gcc.h ****  */
 836:Drivers/CMSIS/Include/cmsis_gcc.h **** #define __NOP()                             __ASM volatile ("nop")
 837:Drivers/CMSIS/Include/cmsis_gcc.h **** 
 838:Drivers/CMSIS/Include/cmsis_gcc.h **** /**
 839:Drivers/CMSIS/Include/cmsis_gcc.h ****   \brief   Wait For Interrupt
ARM GAS  /tmp/ccpdh2Ug.s 			page 31


 840:Drivers/CMSIS/Include/cmsis_gcc.h ****   \details Wait For Interrupt is a hint instruction that suspends execution until one of a number o
 841:Drivers/CMSIS/Include/cmsis_gcc.h ****  */
 842:Drivers/CMSIS/Include/cmsis_gcc.h **** #define __WFI()                             __ASM volatile ("wfi")
 843:Drivers/CMSIS/Include/cmsis_gcc.h **** 
 844:Drivers/CMSIS/Include/cmsis_gcc.h **** 
 845:Drivers/CMSIS/Include/cmsis_gcc.h **** /**
 846:Drivers/CMSIS/Include/cmsis_gcc.h ****   \brief   Wait For Event
 847:Drivers/CMSIS/Include/cmsis_gcc.h ****   \details Wait For Event is a hint instruction that permits the processor to enter
 848:Drivers/CMSIS/Include/cmsis_gcc.h ****            a low-power state until one of a number of events occurs.
 849:Drivers/CMSIS/Include/cmsis_gcc.h ****  */
 850:Drivers/CMSIS/Include/cmsis_gcc.h **** #define __WFE()                             __ASM volatile ("wfe")
 851:Drivers/CMSIS/Include/cmsis_gcc.h **** 
 852:Drivers/CMSIS/Include/cmsis_gcc.h **** 
 853:Drivers/CMSIS/Include/cmsis_gcc.h **** /**
 854:Drivers/CMSIS/Include/cmsis_gcc.h ****   \brief   Send Event
 855:Drivers/CMSIS/Include/cmsis_gcc.h ****   \details Send Event is a hint instruction. It causes an event to be signaled to the CPU.
 856:Drivers/CMSIS/Include/cmsis_gcc.h ****  */
 857:Drivers/CMSIS/Include/cmsis_gcc.h **** #define __SEV()                             __ASM volatile ("sev")
 858:Drivers/CMSIS/Include/cmsis_gcc.h **** 
 859:Drivers/CMSIS/Include/cmsis_gcc.h **** 
 860:Drivers/CMSIS/Include/cmsis_gcc.h **** /**
 861:Drivers/CMSIS/Include/cmsis_gcc.h ****   \brief   Instruction Synchronization Barrier
 862:Drivers/CMSIS/Include/cmsis_gcc.h ****   \details Instruction Synchronization Barrier flushes the pipeline in the processor,
 863:Drivers/CMSIS/Include/cmsis_gcc.h ****            so that all instructions following the ISB are fetched from cache or memory,
 864:Drivers/CMSIS/Include/cmsis_gcc.h ****            after the instruction has been completed.
 865:Drivers/CMSIS/Include/cmsis_gcc.h ****  */
 866:Drivers/CMSIS/Include/cmsis_gcc.h **** __STATIC_FORCEINLINE void __ISB(void)
 867:Drivers/CMSIS/Include/cmsis_gcc.h **** {
 868:Drivers/CMSIS/Include/cmsis_gcc.h ****   __ASM volatile ("isb 0xF":::"memory");
 869:Drivers/CMSIS/Include/cmsis_gcc.h **** }
 870:Drivers/CMSIS/Include/cmsis_gcc.h **** 
 871:Drivers/CMSIS/Include/cmsis_gcc.h **** 
 872:Drivers/CMSIS/Include/cmsis_gcc.h **** /**
 873:Drivers/CMSIS/Include/cmsis_gcc.h ****   \brief   Data Synchronization Barrier
 874:Drivers/CMSIS/Include/cmsis_gcc.h ****   \details Acts as a special kind of Data Memory Barrier.
 875:Drivers/CMSIS/Include/cmsis_gcc.h ****            It completes when all explicit memory accesses before this instruction complete.
 876:Drivers/CMSIS/Include/cmsis_gcc.h ****  */
 877:Drivers/CMSIS/Include/cmsis_gcc.h **** __STATIC_FORCEINLINE void __DSB(void)
 433              		.loc 2 877 27 view .LVU76
 434              	.LBB7:
 878:Drivers/CMSIS/Include/cmsis_gcc.h **** {
 879:Drivers/CMSIS/Include/cmsis_gcc.h ****   __ASM volatile ("dsb 0xF":::"memory");
 435              		.loc 2 879 3 view .LVU77
 436              		.syntax unified
 437              	@ 879 "Drivers/CMSIS/Include/cmsis_gcc.h" 1
 438 002e BFF34F8F 		dsb 0xF
 439              	@ 0 "" 2
 440              		.thumb
 441              		.syntax unified
 442              	.LBE7:
 443              	.LBE6:
 458:Drivers/STM32H7xx_HAL_Driver/Src/stm32h7xx_hal_pwr.c ****   __ISB();
 444              		.loc 1 458 3 view .LVU78
 445              	.LBB8:
 446              	.LBI8:
 866:Drivers/CMSIS/Include/cmsis_gcc.h **** {
 447              		.loc 2 866 27 view .LVU79
ARM GAS  /tmp/ccpdh2Ug.s 			page 32


 448              	.LBB9:
 868:Drivers/CMSIS/Include/cmsis_gcc.h **** }
 449              		.loc 2 868 3 view .LVU80
 450              		.syntax unified
 451              	@ 868 "Drivers/CMSIS/Include/cmsis_gcc.h" 1
 452 0032 BFF36F8F 		isb 0xF
 453              	@ 0 "" 2
 454              		.thumb
 455              		.syntax unified
 456              	.LBE9:
 457              	.LBE8:
 459:Drivers/STM32H7xx_HAL_Driver/Src/stm32h7xx_hal_pwr.c **** 
 460:Drivers/STM32H7xx_HAL_Driver/Src/stm32h7xx_hal_pwr.c ****   /* Select Stop mode entry */
 461:Drivers/STM32H7xx_HAL_Driver/Src/stm32h7xx_hal_pwr.c ****   if(STOPEntry == PWR_STOPENTRY_WFI)
 458              		.loc 1 461 3 view .LVU81
 459              		.loc 1 461 5 is_stmt 0 view .LVU82
 460 0036 0129     		cmp	r1, #1
 461 0038 06D0     		beq	.L36
 462:Drivers/STM32H7xx_HAL_Driver/Src/stm32h7xx_hal_pwr.c ****   {
 463:Drivers/STM32H7xx_HAL_Driver/Src/stm32h7xx_hal_pwr.c ****     /* Request Wait For Interrupt */
 464:Drivers/STM32H7xx_HAL_Driver/Src/stm32h7xx_hal_pwr.c ****     __WFI();
 465:Drivers/STM32H7xx_HAL_Driver/Src/stm32h7xx_hal_pwr.c ****   }
 466:Drivers/STM32H7xx_HAL_Driver/Src/stm32h7xx_hal_pwr.c ****   else
 467:Drivers/STM32H7xx_HAL_Driver/Src/stm32h7xx_hal_pwr.c ****   {
 468:Drivers/STM32H7xx_HAL_Driver/Src/stm32h7xx_hal_pwr.c ****     /* Request Wait For Event */
 469:Drivers/STM32H7xx_HAL_Driver/Src/stm32h7xx_hal_pwr.c ****     __WFE();
 462              		.loc 1 469 5 is_stmt 1 view .LVU83
 463              		.syntax unified
 464              	@ 469 "Drivers/STM32H7xx_HAL_Driver/Src/stm32h7xx_hal_pwr.c" 1
 465 003a 20BF     		wfe
 466              	@ 0 "" 2
 467              		.thumb
 468              		.syntax unified
 469              	.L35:
 470:Drivers/STM32H7xx_HAL_Driver/Src/stm32h7xx_hal_pwr.c ****   }
 471:Drivers/STM32H7xx_HAL_Driver/Src/stm32h7xx_hal_pwr.c ****   /* Reset SLEEPDEEP bit of Cortex System Control Register */
 472:Drivers/STM32H7xx_HAL_Driver/Src/stm32h7xx_hal_pwr.c ****   SCB->SCR &= (uint32_t)~((uint32_t)SCB_SCR_SLEEPDEEP_Msk);
 470              		.loc 1 472 3 view .LVU84
 471              		.loc 1 472 12 is_stmt 0 view .LVU85
 472 003c 044A     		ldr	r2, .L37+4
 473 003e 1369     		ldr	r3, [r2, #16]
 474 0040 23F00403 		bic	r3, r3, #4
 475 0044 1361     		str	r3, [r2, #16]
 473:Drivers/STM32H7xx_HAL_Driver/Src/stm32h7xx_hal_pwr.c **** }
 476              		.loc 1 473 1 view .LVU86
 477 0046 7047     		bx	lr
 478              	.L36:
 464:Drivers/STM32H7xx_HAL_Driver/Src/stm32h7xx_hal_pwr.c ****   }
 479              		.loc 1 464 5 is_stmt 1 view .LVU87
 480              		.syntax unified
 481              	@ 464 "Drivers/STM32H7xx_HAL_Driver/Src/stm32h7xx_hal_pwr.c" 1
 482 0048 30BF     		wfi
 483              	@ 0 "" 2
 484              		.thumb
 485              		.syntax unified
 486 004a F7E7     		b	.L35
 487              	.L38:
ARM GAS  /tmp/ccpdh2Ug.s 			page 33


 488              		.align	2
 489              	.L37:
 490 004c 00480258 		.word	1476544512
 491 0050 00ED00E0 		.word	-536810240
 492              		.cfi_endproc
 493              	.LFE150:
 495              		.section	.text.HAL_PWR_EnterSTANDBYMode,"ax",%progbits
 496              		.align	1
 497              		.global	HAL_PWR_EnterSTANDBYMode
 498              		.syntax unified
 499              		.thumb
 500              		.thumb_func
 501              		.fpu fpv5-d16
 503              	HAL_PWR_EnterSTANDBYMode:
 504              	.LFB151:
 474:Drivers/STM32H7xx_HAL_Driver/Src/stm32h7xx_hal_pwr.c **** 
 475:Drivers/STM32H7xx_HAL_Driver/Src/stm32h7xx_hal_pwr.c **** /**
 476:Drivers/STM32H7xx_HAL_Driver/Src/stm32h7xx_hal_pwr.c ****   * @brief  Enter the system to STANDBY mode.
 477:Drivers/STM32H7xx_HAL_Driver/Src/stm32h7xx_hal_pwr.c ****   * @note   The system enters Standby mode only when the D1, D2 and D3 domains are in DStandby.
 478:Drivers/STM32H7xx_HAL_Driver/Src/stm32h7xx_hal_pwr.c ****   * @note   When the System exit STANDBY mode by issuing an interrupt or a wakeup event,
 479:Drivers/STM32H7xx_HAL_Driver/Src/stm32h7xx_hal_pwr.c ****   *         the HSI RC oscillator is selected as system clock.
 480:Drivers/STM32H7xx_HAL_Driver/Src/stm32h7xx_hal_pwr.c ****   * @retval None.
 481:Drivers/STM32H7xx_HAL_Driver/Src/stm32h7xx_hal_pwr.c ****   */
 482:Drivers/STM32H7xx_HAL_Driver/Src/stm32h7xx_hal_pwr.c **** void HAL_PWR_EnterSTANDBYMode(void)
 483:Drivers/STM32H7xx_HAL_Driver/Src/stm32h7xx_hal_pwr.c **** {
 505              		.loc 1 483 1 view -0
 506              		.cfi_startproc
 507              		@ args = 0, pretend = 0, frame = 0
 508              		@ frame_needed = 0, uses_anonymous_args = 0
 509              		@ link register save eliminated.
 484:Drivers/STM32H7xx_HAL_Driver/Src/stm32h7xx_hal_pwr.c **** #if defined(DUAL_CORE)
 485:Drivers/STM32H7xx_HAL_Driver/Src/stm32h7xx_hal_pwr.c ****   /* Keep DSTANDBY mode when D1 domain enters Deepsleep */
 486:Drivers/STM32H7xx_HAL_Driver/Src/stm32h7xx_hal_pwr.c ****   SET_BIT(PWR->CPUCR, PWR_CPUCR_PDDS_D1);
 487:Drivers/STM32H7xx_HAL_Driver/Src/stm32h7xx_hal_pwr.c ****   SET_BIT(PWR->CPU2CR, PWR_CPU2CR_PDDS_D1);
 488:Drivers/STM32H7xx_HAL_Driver/Src/stm32h7xx_hal_pwr.c **** #else
 489:Drivers/STM32H7xx_HAL_Driver/Src/stm32h7xx_hal_pwr.c ****   /* Keep DSTANDBY mode when D1 domain enters Deepsleep */
 490:Drivers/STM32H7xx_HAL_Driver/Src/stm32h7xx_hal_pwr.c ****   SET_BIT(PWR->CPUCR, PWR_CPUCR_PDDS_D1);
 510              		.loc 1 490 3 view .LVU89
 511 0000 094B     		ldr	r3, .L40
 512 0002 1A69     		ldr	r2, [r3, #16]
 513 0004 42F00102 		orr	r2, r2, #1
 514 0008 1A61     		str	r2, [r3, #16]
 491:Drivers/STM32H7xx_HAL_Driver/Src/stm32h7xx_hal_pwr.c **** 
 492:Drivers/STM32H7xx_HAL_Driver/Src/stm32h7xx_hal_pwr.c ****   /* Keep DSTANDBY mode when D2 domain enters Deepsleep */
 493:Drivers/STM32H7xx_HAL_Driver/Src/stm32h7xx_hal_pwr.c ****   SET_BIT(PWR->CPUCR, PWR_CPUCR_PDDS_D2);
 515              		.loc 1 493 3 view .LVU90
 516 000a 1A69     		ldr	r2, [r3, #16]
 517 000c 42F00202 		orr	r2, r2, #2
 518 0010 1A61     		str	r2, [r3, #16]
 494:Drivers/STM32H7xx_HAL_Driver/Src/stm32h7xx_hal_pwr.c **** 
 495:Drivers/STM32H7xx_HAL_Driver/Src/stm32h7xx_hal_pwr.c ****   /* Keep DSTANDBY mode when D3 domain enters Deepsleep */
 496:Drivers/STM32H7xx_HAL_Driver/Src/stm32h7xx_hal_pwr.c ****   SET_BIT(PWR->CPUCR, PWR_CPUCR_PDDS_D3);
 519              		.loc 1 496 3 view .LVU91
 520 0012 1A69     		ldr	r2, [r3, #16]
 521 0014 42F00402 		orr	r2, r2, #4
 522 0018 1A61     		str	r2, [r3, #16]
 497:Drivers/STM32H7xx_HAL_Driver/Src/stm32h7xx_hal_pwr.c **** #endif /*DUAL_CORE*/
ARM GAS  /tmp/ccpdh2Ug.s 			page 34


 498:Drivers/STM32H7xx_HAL_Driver/Src/stm32h7xx_hal_pwr.c **** 
 499:Drivers/STM32H7xx_HAL_Driver/Src/stm32h7xx_hal_pwr.c ****   /* Set SLEEPDEEP bit of Cortex System Control Register */
 500:Drivers/STM32H7xx_HAL_Driver/Src/stm32h7xx_hal_pwr.c ****   SCB->SCR |= SCB_SCR_SLEEPDEEP_Msk;
 523              		.loc 1 500 3 view .LVU92
 524              		.loc 1 500 12 is_stmt 0 view .LVU93
 525 001a 044A     		ldr	r2, .L40+4
 526 001c 1369     		ldr	r3, [r2, #16]
 527 001e 43F00403 		orr	r3, r3, #4
 528 0022 1361     		str	r3, [r2, #16]
 501:Drivers/STM32H7xx_HAL_Driver/Src/stm32h7xx_hal_pwr.c **** 
 502:Drivers/STM32H7xx_HAL_Driver/Src/stm32h7xx_hal_pwr.c ****   /* This option is used to ensure that store operations are completed */
 503:Drivers/STM32H7xx_HAL_Driver/Src/stm32h7xx_hal_pwr.c **** #if defined ( __CC_ARM)
 504:Drivers/STM32H7xx_HAL_Driver/Src/stm32h7xx_hal_pwr.c ****   __force_stores();
 505:Drivers/STM32H7xx_HAL_Driver/Src/stm32h7xx_hal_pwr.c **** #endif
 506:Drivers/STM32H7xx_HAL_Driver/Src/stm32h7xx_hal_pwr.c ****   /* Request Wait For Interrupt */
 507:Drivers/STM32H7xx_HAL_Driver/Src/stm32h7xx_hal_pwr.c ****   __WFI();
 529              		.loc 1 507 3 is_stmt 1 view .LVU94
 530              		.syntax unified
 531              	@ 507 "Drivers/STM32H7xx_HAL_Driver/Src/stm32h7xx_hal_pwr.c" 1
 532 0024 30BF     		wfi
 533              	@ 0 "" 2
 508:Drivers/STM32H7xx_HAL_Driver/Src/stm32h7xx_hal_pwr.c **** }
 534              		.loc 1 508 1 is_stmt 0 view .LVU95
 535              		.thumb
 536              		.syntax unified
 537 0026 7047     		bx	lr
 538              	.L41:
 539              		.align	2
 540              	.L40:
 541 0028 00480258 		.word	1476544512
 542 002c 00ED00E0 		.word	-536810240
 543              		.cfi_endproc
 544              	.LFE151:
 546              		.section	.text.HAL_PWR_EnableSleepOnExit,"ax",%progbits
 547              		.align	1
 548              		.global	HAL_PWR_EnableSleepOnExit
 549              		.syntax unified
 550              		.thumb
 551              		.thumb_func
 552              		.fpu fpv5-d16
 554              	HAL_PWR_EnableSleepOnExit:
 555              	.LFB152:
 509:Drivers/STM32H7xx_HAL_Driver/Src/stm32h7xx_hal_pwr.c **** 
 510:Drivers/STM32H7xx_HAL_Driver/Src/stm32h7xx_hal_pwr.c **** /**
 511:Drivers/STM32H7xx_HAL_Driver/Src/stm32h7xx_hal_pwr.c ****   * @brief  Indicate Sleep-On-Exit when returning from Handler mode to Thread mode.
 512:Drivers/STM32H7xx_HAL_Driver/Src/stm32h7xx_hal_pwr.c ****   * @note   Set SLEEPONEXIT bit of SCR register. When this bit is set, the processor
 513:Drivers/STM32H7xx_HAL_Driver/Src/stm32h7xx_hal_pwr.c ****   *         re-enters SLEEP mode when an interruption handling is over.
 514:Drivers/STM32H7xx_HAL_Driver/Src/stm32h7xx_hal_pwr.c ****   *         Setting this bit is useful when the processor is expected to run only on
 515:Drivers/STM32H7xx_HAL_Driver/Src/stm32h7xx_hal_pwr.c ****   *         interruptions handling.
 516:Drivers/STM32H7xx_HAL_Driver/Src/stm32h7xx_hal_pwr.c ****   * @retval None
 517:Drivers/STM32H7xx_HAL_Driver/Src/stm32h7xx_hal_pwr.c ****   */
 518:Drivers/STM32H7xx_HAL_Driver/Src/stm32h7xx_hal_pwr.c **** void HAL_PWR_EnableSleepOnExit(void)
 519:Drivers/STM32H7xx_HAL_Driver/Src/stm32h7xx_hal_pwr.c **** {
 556              		.loc 1 519 1 is_stmt 1 view -0
 557              		.cfi_startproc
 558              		@ args = 0, pretend = 0, frame = 0
 559              		@ frame_needed = 0, uses_anonymous_args = 0
ARM GAS  /tmp/ccpdh2Ug.s 			page 35


 560              		@ link register save eliminated.
 520:Drivers/STM32H7xx_HAL_Driver/Src/stm32h7xx_hal_pwr.c ****   /* Set SLEEPONEXIT bit of Cortex System Control Register */
 521:Drivers/STM32H7xx_HAL_Driver/Src/stm32h7xx_hal_pwr.c ****   SET_BIT(SCB->SCR, ((uint32_t)SCB_SCR_SLEEPONEXIT_Msk));
 561              		.loc 1 521 3 view .LVU97
 562 0000 024A     		ldr	r2, .L43
 563 0002 1369     		ldr	r3, [r2, #16]
 564 0004 43F00203 		orr	r3, r3, #2
 565 0008 1361     		str	r3, [r2, #16]
 522:Drivers/STM32H7xx_HAL_Driver/Src/stm32h7xx_hal_pwr.c **** }
 566              		.loc 1 522 1 is_stmt 0 view .LVU98
 567 000a 7047     		bx	lr
 568              	.L44:
 569              		.align	2
 570              	.L43:
 571 000c 00ED00E0 		.word	-536810240
 572              		.cfi_endproc
 573              	.LFE152:
 575              		.section	.text.HAL_PWR_DisableSleepOnExit,"ax",%progbits
 576              		.align	1
 577              		.global	HAL_PWR_DisableSleepOnExit
 578              		.syntax unified
 579              		.thumb
 580              		.thumb_func
 581              		.fpu fpv5-d16
 583              	HAL_PWR_DisableSleepOnExit:
 584              	.LFB153:
 523:Drivers/STM32H7xx_HAL_Driver/Src/stm32h7xx_hal_pwr.c **** 
 524:Drivers/STM32H7xx_HAL_Driver/Src/stm32h7xx_hal_pwr.c **** 
 525:Drivers/STM32H7xx_HAL_Driver/Src/stm32h7xx_hal_pwr.c **** /**
 526:Drivers/STM32H7xx_HAL_Driver/Src/stm32h7xx_hal_pwr.c ****   * @brief  Disable Sleep-On-Exit feature when returning from Handler mode to Thread mode.
 527:Drivers/STM32H7xx_HAL_Driver/Src/stm32h7xx_hal_pwr.c ****   * @note   Clears SLEEPONEXIT bit of SCR register. When this bit is set, the processor
 528:Drivers/STM32H7xx_HAL_Driver/Src/stm32h7xx_hal_pwr.c ****   *         re-enters SLEEP mode when an interruption handling is over.
 529:Drivers/STM32H7xx_HAL_Driver/Src/stm32h7xx_hal_pwr.c ****   * @retval None
 530:Drivers/STM32H7xx_HAL_Driver/Src/stm32h7xx_hal_pwr.c ****   */
 531:Drivers/STM32H7xx_HAL_Driver/Src/stm32h7xx_hal_pwr.c **** void HAL_PWR_DisableSleepOnExit(void)
 532:Drivers/STM32H7xx_HAL_Driver/Src/stm32h7xx_hal_pwr.c **** {
 585              		.loc 1 532 1 is_stmt 1 view -0
 586              		.cfi_startproc
 587              		@ args = 0, pretend = 0, frame = 0
 588              		@ frame_needed = 0, uses_anonymous_args = 0
 589              		@ link register save eliminated.
 533:Drivers/STM32H7xx_HAL_Driver/Src/stm32h7xx_hal_pwr.c ****   /* Clear SLEEPONEXIT bit of Cortex System Control Register */
 534:Drivers/STM32H7xx_HAL_Driver/Src/stm32h7xx_hal_pwr.c ****   CLEAR_BIT(SCB->SCR, ((uint32_t)SCB_SCR_SLEEPONEXIT_Msk));
 590              		.loc 1 534 3 view .LVU100
 591 0000 024A     		ldr	r2, .L46
 592 0002 1369     		ldr	r3, [r2, #16]
 593 0004 23F00203 		bic	r3, r3, #2
 594 0008 1361     		str	r3, [r2, #16]
 535:Drivers/STM32H7xx_HAL_Driver/Src/stm32h7xx_hal_pwr.c **** }
 595              		.loc 1 535 1 is_stmt 0 view .LVU101
 596 000a 7047     		bx	lr
 597              	.L47:
 598              		.align	2
 599              	.L46:
 600 000c 00ED00E0 		.word	-536810240
 601              		.cfi_endproc
 602              	.LFE153:
ARM GAS  /tmp/ccpdh2Ug.s 			page 36


 604              		.section	.text.HAL_PWR_EnableSEVOnPend,"ax",%progbits
 605              		.align	1
 606              		.global	HAL_PWR_EnableSEVOnPend
 607              		.syntax unified
 608              		.thumb
 609              		.thumb_func
 610              		.fpu fpv5-d16
 612              	HAL_PWR_EnableSEVOnPend:
 613              	.LFB154:
 536:Drivers/STM32H7xx_HAL_Driver/Src/stm32h7xx_hal_pwr.c **** 
 537:Drivers/STM32H7xx_HAL_Driver/Src/stm32h7xx_hal_pwr.c **** /**
 538:Drivers/STM32H7xx_HAL_Driver/Src/stm32h7xx_hal_pwr.c ****   * @brief  Enable CORTEX SEVONPEND bit.
 539:Drivers/STM32H7xx_HAL_Driver/Src/stm32h7xx_hal_pwr.c ****   * @note   Sets SEVONPEND bit of SCR register. When this bit is set, this causes
 540:Drivers/STM32H7xx_HAL_Driver/Src/stm32h7xx_hal_pwr.c ****   *         WFE to wake up when an interrupt moves from inactive to pended.
 541:Drivers/STM32H7xx_HAL_Driver/Src/stm32h7xx_hal_pwr.c ****   * @retval None
 542:Drivers/STM32H7xx_HAL_Driver/Src/stm32h7xx_hal_pwr.c ****   */
 543:Drivers/STM32H7xx_HAL_Driver/Src/stm32h7xx_hal_pwr.c **** void HAL_PWR_EnableSEVOnPend(void)
 544:Drivers/STM32H7xx_HAL_Driver/Src/stm32h7xx_hal_pwr.c **** {
 614              		.loc 1 544 1 is_stmt 1 view -0
 615              		.cfi_startproc
 616              		@ args = 0, pretend = 0, frame = 0
 617              		@ frame_needed = 0, uses_anonymous_args = 0
 618              		@ link register save eliminated.
 545:Drivers/STM32H7xx_HAL_Driver/Src/stm32h7xx_hal_pwr.c ****   /* Set SEVONPEND bit of Cortex System Control Register */
 546:Drivers/STM32H7xx_HAL_Driver/Src/stm32h7xx_hal_pwr.c ****   SET_BIT(SCB->SCR, ((uint32_t)SCB_SCR_SEVONPEND_Msk));
 619              		.loc 1 546 3 view .LVU103
 620 0000 024A     		ldr	r2, .L49
 621 0002 1369     		ldr	r3, [r2, #16]
 622 0004 43F01003 		orr	r3, r3, #16
 623 0008 1361     		str	r3, [r2, #16]
 547:Drivers/STM32H7xx_HAL_Driver/Src/stm32h7xx_hal_pwr.c **** }
 624              		.loc 1 547 1 is_stmt 0 view .LVU104
 625 000a 7047     		bx	lr
 626              	.L50:
 627              		.align	2
 628              	.L49:
 629 000c 00ED00E0 		.word	-536810240
 630              		.cfi_endproc
 631              	.LFE154:
 633              		.section	.text.HAL_PWR_DisableSEVOnPend,"ax",%progbits
 634              		.align	1
 635              		.global	HAL_PWR_DisableSEVOnPend
 636              		.syntax unified
 637              		.thumb
 638              		.thumb_func
 639              		.fpu fpv5-d16
 641              	HAL_PWR_DisableSEVOnPend:
 642              	.LFB155:
 548:Drivers/STM32H7xx_HAL_Driver/Src/stm32h7xx_hal_pwr.c **** 
 549:Drivers/STM32H7xx_HAL_Driver/Src/stm32h7xx_hal_pwr.c **** /**
 550:Drivers/STM32H7xx_HAL_Driver/Src/stm32h7xx_hal_pwr.c ****   * @brief  Disable CORTEX SEVONPEND bit.
 551:Drivers/STM32H7xx_HAL_Driver/Src/stm32h7xx_hal_pwr.c ****   * @note   Clears SEVONPEND bit of SCR register. When this bit is set, this causes
 552:Drivers/STM32H7xx_HAL_Driver/Src/stm32h7xx_hal_pwr.c ****   *         WFE to wake up when an interrupt moves from inactive to pended.
 553:Drivers/STM32H7xx_HAL_Driver/Src/stm32h7xx_hal_pwr.c ****   * @retval None
 554:Drivers/STM32H7xx_HAL_Driver/Src/stm32h7xx_hal_pwr.c ****   */
 555:Drivers/STM32H7xx_HAL_Driver/Src/stm32h7xx_hal_pwr.c **** void HAL_PWR_DisableSEVOnPend(void)
 556:Drivers/STM32H7xx_HAL_Driver/Src/stm32h7xx_hal_pwr.c **** {
ARM GAS  /tmp/ccpdh2Ug.s 			page 37


 643              		.loc 1 556 1 is_stmt 1 view -0
 644              		.cfi_startproc
 645              		@ args = 0, pretend = 0, frame = 0
 646              		@ frame_needed = 0, uses_anonymous_args = 0
 647              		@ link register save eliminated.
 557:Drivers/STM32H7xx_HAL_Driver/Src/stm32h7xx_hal_pwr.c ****   /* Clear SEVONPEND bit of Cortex System Control Register */
 558:Drivers/STM32H7xx_HAL_Driver/Src/stm32h7xx_hal_pwr.c ****   CLEAR_BIT(SCB->SCR, ((uint32_t)SCB_SCR_SEVONPEND_Msk));
 648              		.loc 1 558 3 view .LVU106
 649 0000 024A     		ldr	r2, .L52
 650 0002 1369     		ldr	r3, [r2, #16]
 651 0004 23F01003 		bic	r3, r3, #16
 652 0008 1361     		str	r3, [r2, #16]
 559:Drivers/STM32H7xx_HAL_Driver/Src/stm32h7xx_hal_pwr.c **** }
 653              		.loc 1 559 1 is_stmt 0 view .LVU107
 654 000a 7047     		bx	lr
 655              	.L53:
 656              		.align	2
 657              	.L52:
 658 000c 00ED00E0 		.word	-536810240
 659              		.cfi_endproc
 660              	.LFE155:
 662              		.section	.text.HAL_PWR_PVDCallback,"ax",%progbits
 663              		.align	1
 664              		.weak	HAL_PWR_PVDCallback
 665              		.syntax unified
 666              		.thumb
 667              		.thumb_func
 668              		.fpu fpv5-d16
 670              	HAL_PWR_PVDCallback:
 671              	.LFB157:
 560:Drivers/STM32H7xx_HAL_Driver/Src/stm32h7xx_hal_pwr.c **** 
 561:Drivers/STM32H7xx_HAL_Driver/Src/stm32h7xx_hal_pwr.c **** /**
 562:Drivers/STM32H7xx_HAL_Driver/Src/stm32h7xx_hal_pwr.c ****   * @brief  This function handles the PWR PVD interrupt request.
 563:Drivers/STM32H7xx_HAL_Driver/Src/stm32h7xx_hal_pwr.c ****   * @note   This API should be called under the PVD_IRQHandler().
 564:Drivers/STM32H7xx_HAL_Driver/Src/stm32h7xx_hal_pwr.c ****   * @retval None
 565:Drivers/STM32H7xx_HAL_Driver/Src/stm32h7xx_hal_pwr.c ****   */
 566:Drivers/STM32H7xx_HAL_Driver/Src/stm32h7xx_hal_pwr.c **** void HAL_PWR_PVD_IRQHandler(void)
 567:Drivers/STM32H7xx_HAL_Driver/Src/stm32h7xx_hal_pwr.c **** {
 568:Drivers/STM32H7xx_HAL_Driver/Src/stm32h7xx_hal_pwr.c **** #if defined(DUAL_CORE)
 569:Drivers/STM32H7xx_HAL_Driver/Src/stm32h7xx_hal_pwr.c ****   /* PVD EXTI line interrupt detected */
 570:Drivers/STM32H7xx_HAL_Driver/Src/stm32h7xx_hal_pwr.c ****   if (HAL_GetCurrentCPUID() == CM7_CPUID)
 571:Drivers/STM32H7xx_HAL_Driver/Src/stm32h7xx_hal_pwr.c ****   {
 572:Drivers/STM32H7xx_HAL_Driver/Src/stm32h7xx_hal_pwr.c ****     /* Check PWR EXTI flag */
 573:Drivers/STM32H7xx_HAL_Driver/Src/stm32h7xx_hal_pwr.c ****     if(__HAL_PWR_PVD_EXTI_GET_FLAG() != RESET)
 574:Drivers/STM32H7xx_HAL_Driver/Src/stm32h7xx_hal_pwr.c ****     {
 575:Drivers/STM32H7xx_HAL_Driver/Src/stm32h7xx_hal_pwr.c ****       /* PWR PVD interrupt user callback */
 576:Drivers/STM32H7xx_HAL_Driver/Src/stm32h7xx_hal_pwr.c ****       HAL_PWR_PVDCallback();
 577:Drivers/STM32H7xx_HAL_Driver/Src/stm32h7xx_hal_pwr.c **** 
 578:Drivers/STM32H7xx_HAL_Driver/Src/stm32h7xx_hal_pwr.c ****       /* Clear PWR EXTI pending bit */
 579:Drivers/STM32H7xx_HAL_Driver/Src/stm32h7xx_hal_pwr.c ****       __HAL_PWR_PVD_EXTI_CLEAR_FLAG();
 580:Drivers/STM32H7xx_HAL_Driver/Src/stm32h7xx_hal_pwr.c ****     }
 581:Drivers/STM32H7xx_HAL_Driver/Src/stm32h7xx_hal_pwr.c ****   }
 582:Drivers/STM32H7xx_HAL_Driver/Src/stm32h7xx_hal_pwr.c ****   else
 583:Drivers/STM32H7xx_HAL_Driver/Src/stm32h7xx_hal_pwr.c ****   {
 584:Drivers/STM32H7xx_HAL_Driver/Src/stm32h7xx_hal_pwr.c ****     /* Check PWR EXTI D2 flag */
 585:Drivers/STM32H7xx_HAL_Driver/Src/stm32h7xx_hal_pwr.c ****     if(__HAL_PWR_PVD_EXTID2_GET_FLAG() != RESET)
 586:Drivers/STM32H7xx_HAL_Driver/Src/stm32h7xx_hal_pwr.c ****     {
ARM GAS  /tmp/ccpdh2Ug.s 			page 38


 587:Drivers/STM32H7xx_HAL_Driver/Src/stm32h7xx_hal_pwr.c ****       /* PWR PVD interrupt user callback */
 588:Drivers/STM32H7xx_HAL_Driver/Src/stm32h7xx_hal_pwr.c ****       HAL_PWR_PVDCallback();
 589:Drivers/STM32H7xx_HAL_Driver/Src/stm32h7xx_hal_pwr.c **** 
 590:Drivers/STM32H7xx_HAL_Driver/Src/stm32h7xx_hal_pwr.c ****       /* Clear PWR EXTI D2 pending bit */
 591:Drivers/STM32H7xx_HAL_Driver/Src/stm32h7xx_hal_pwr.c ****       __HAL_PWR_PVD_EXTID2_CLEAR_FLAG();
 592:Drivers/STM32H7xx_HAL_Driver/Src/stm32h7xx_hal_pwr.c ****     }
 593:Drivers/STM32H7xx_HAL_Driver/Src/stm32h7xx_hal_pwr.c ****   }
 594:Drivers/STM32H7xx_HAL_Driver/Src/stm32h7xx_hal_pwr.c **** #else
 595:Drivers/STM32H7xx_HAL_Driver/Src/stm32h7xx_hal_pwr.c ****   /* PVD EXTI line interrupt detected */
 596:Drivers/STM32H7xx_HAL_Driver/Src/stm32h7xx_hal_pwr.c ****   if(__HAL_PWR_PVD_EXTI_GET_FLAG() != RESET)
 597:Drivers/STM32H7xx_HAL_Driver/Src/stm32h7xx_hal_pwr.c ****   {
 598:Drivers/STM32H7xx_HAL_Driver/Src/stm32h7xx_hal_pwr.c ****     /* PWR PVD interrupt user callback */
 599:Drivers/STM32H7xx_HAL_Driver/Src/stm32h7xx_hal_pwr.c ****     HAL_PWR_PVDCallback();
 600:Drivers/STM32H7xx_HAL_Driver/Src/stm32h7xx_hal_pwr.c **** 
 601:Drivers/STM32H7xx_HAL_Driver/Src/stm32h7xx_hal_pwr.c ****     /* Clear PWR EXTI pending bit */
 602:Drivers/STM32H7xx_HAL_Driver/Src/stm32h7xx_hal_pwr.c ****     __HAL_PWR_PVD_EXTI_CLEAR_FLAG();
 603:Drivers/STM32H7xx_HAL_Driver/Src/stm32h7xx_hal_pwr.c ****   }
 604:Drivers/STM32H7xx_HAL_Driver/Src/stm32h7xx_hal_pwr.c **** #endif /*DUAL_CORE*/
 605:Drivers/STM32H7xx_HAL_Driver/Src/stm32h7xx_hal_pwr.c **** }
 606:Drivers/STM32H7xx_HAL_Driver/Src/stm32h7xx_hal_pwr.c **** 
 607:Drivers/STM32H7xx_HAL_Driver/Src/stm32h7xx_hal_pwr.c **** /**
 608:Drivers/STM32H7xx_HAL_Driver/Src/stm32h7xx_hal_pwr.c ****   * @brief  PWR PVD interrupt callback
 609:Drivers/STM32H7xx_HAL_Driver/Src/stm32h7xx_hal_pwr.c ****   * @retval None
 610:Drivers/STM32H7xx_HAL_Driver/Src/stm32h7xx_hal_pwr.c ****   */
 611:Drivers/STM32H7xx_HAL_Driver/Src/stm32h7xx_hal_pwr.c **** __weak void HAL_PWR_PVDCallback(void)
 612:Drivers/STM32H7xx_HAL_Driver/Src/stm32h7xx_hal_pwr.c **** {
 672              		.loc 1 612 1 is_stmt 1 view -0
 673              		.cfi_startproc
 674              		@ args = 0, pretend = 0, frame = 0
 675              		@ frame_needed = 0, uses_anonymous_args = 0
 676              		@ link register save eliminated.
 613:Drivers/STM32H7xx_HAL_Driver/Src/stm32h7xx_hal_pwr.c ****   /* NOTE : This function Should not be modified, when the callback is needed,
 614:Drivers/STM32H7xx_HAL_Driver/Src/stm32h7xx_hal_pwr.c ****             the HAL_PWR_PVDCallback could be implemented in the user file
 615:Drivers/STM32H7xx_HAL_Driver/Src/stm32h7xx_hal_pwr.c ****   */
 616:Drivers/STM32H7xx_HAL_Driver/Src/stm32h7xx_hal_pwr.c **** }
 677              		.loc 1 616 1 view .LVU109
 678 0000 7047     		bx	lr
 679              		.cfi_endproc
 680              	.LFE157:
 682              		.section	.text.HAL_PWR_PVD_IRQHandler,"ax",%progbits
 683              		.align	1
 684              		.global	HAL_PWR_PVD_IRQHandler
 685              		.syntax unified
 686              		.thumb
 687              		.thumb_func
 688              		.fpu fpv5-d16
 690              	HAL_PWR_PVD_IRQHandler:
 691              	.LFB156:
 567:Drivers/STM32H7xx_HAL_Driver/Src/stm32h7xx_hal_pwr.c **** #if defined(DUAL_CORE)
 692              		.loc 1 567 1 view -0
 693              		.cfi_startproc
 694              		@ args = 0, pretend = 0, frame = 0
 695              		@ frame_needed = 0, uses_anonymous_args = 0
 696 0000 08B5     		push	{r3, lr}
 697              	.LCFI0:
 698              		.cfi_def_cfa_offset 8
 699              		.cfi_offset 3, -8
ARM GAS  /tmp/ccpdh2Ug.s 			page 39


 700              		.cfi_offset 14, -4
 596:Drivers/STM32H7xx_HAL_Driver/Src/stm32h7xx_hal_pwr.c ****   {
 701              		.loc 1 596 3 view .LVU111
 596:Drivers/STM32H7xx_HAL_Driver/Src/stm32h7xx_hal_pwr.c ****   {
 702              		.loc 1 596 6 is_stmt 0 view .LVU112
 703 0002 4FF0B043 		mov	r3, #1476395008
 704 0006 D3F88830 		ldr	r3, [r3, #136]
 596:Drivers/STM32H7xx_HAL_Driver/Src/stm32h7xx_hal_pwr.c ****   {
 705              		.loc 1 596 5 view .LVU113
 706 000a 13F4803F 		tst	r3, #65536
 707 000e 00D1     		bne	.L58
 708              	.L55:
 605:Drivers/STM32H7xx_HAL_Driver/Src/stm32h7xx_hal_pwr.c **** 
 709              		.loc 1 605 1 view .LVU114
 710 0010 08BD     		pop	{r3, pc}
 711              	.L58:
 599:Drivers/STM32H7xx_HAL_Driver/Src/stm32h7xx_hal_pwr.c **** 
 712              		.loc 1 599 5 is_stmt 1 view .LVU115
 713 0012 FFF7FEFF 		bl	HAL_PWR_PVDCallback
 714              	.LVL11:
 602:Drivers/STM32H7xx_HAL_Driver/Src/stm32h7xx_hal_pwr.c ****   }
 715              		.loc 1 602 5 view .LVU116
 716 0016 4FF0B042 		mov	r2, #1476395008
 717 001a D2F88830 		ldr	r3, [r2, #136]
 718 001e 43F48033 		orr	r3, r3, #65536
 719 0022 C2F88830 		str	r3, [r2, #136]
 605:Drivers/STM32H7xx_HAL_Driver/Src/stm32h7xx_hal_pwr.c **** 
 720              		.loc 1 605 1 is_stmt 0 view .LVU117
 721 0026 F3E7     		b	.L55
 722              		.cfi_endproc
 723              	.LFE156:
 725              		.text
 726              	.Letext0:
 727              		.file 3 "/usr/arm-none-eabi/include/machine/_default_types.h"
 728              		.file 4 "/usr/arm-none-eabi/include/sys/_stdint.h"
 729              		.file 5 "Drivers/CMSIS/Include/core_cm7.h"
 730              		.file 6 "Drivers/CMSIS/Device/ST/STM32H7xx/Include/system_stm32h7xx.h"
 731              		.file 7 "Drivers/CMSIS/Device/ST/STM32H7xx/Include/stm32h743xx.h"
 732              		.file 8 "/usr/arm-none-eabi/include/sys/lock.h"
 733              		.file 9 "/usr/arm-none-eabi/include/sys/_types.h"
 734              		.file 10 "/usr/lib/gcc/arm-none-eabi/9.1.0/include/stddef.h"
 735              		.file 11 "/usr/arm-none-eabi/include/sys/reent.h"
 736              		.file 12 "/usr/arm-none-eabi/include/math.h"
 737              		.file 13 "Drivers/CMSIS/Device/ST/STM32H7xx/Include/stm32h7xx.h"
 738              		.file 14 "Drivers/STM32H7xx_HAL_Driver/Inc/stm32h7xx_hal_def.h"
 739              		.file 15 "Drivers/STM32H7xx_HAL_Driver/Inc/stm32h7xx_hal_flash.h"
 740              		.file 16 "Drivers/STM32H7xx_HAL_Driver/Inc/stm32h7xx_hal_pwr.h"
 741              		.file 17 "Drivers/STM32H7xx_HAL_Driver/Inc/stm32h7xx_hal.h"
ARM GAS  /tmp/ccpdh2Ug.s 			page 40

