ARM GAS  /tmp/cconV3EI.s 			page 1


   1              		.cpu cortex-m7
   2              		.eabi_attribute 28, 1
   3              		.eabi_attribute 20, 1
   4              		.eabi_attribute 21, 1
   5              		.eabi_attribute 23, 3
   6              		.eabi_attribute 24, 1
   7              		.eabi_attribute 25, 1
   8              		.eabi_attribute 26, 1
   9              		.eabi_attribute 30, 1
  10              		.eabi_attribute 34, 1
  11              		.eabi_attribute 18, 4
  12              		.file	"stm32h7xx_hal_rcc.c"
  13              		.text
  14              	.Ltext0:
  15              		.cfi_sections	.debug_frame
  16              		.section	.text.HAL_RCC_DeInit,"ax",%progbits
  17              		.align	1
  18              		.global	HAL_RCC_DeInit
  19              		.arch armv7e-m
  20              		.syntax unified
  21              		.thumb
  22              		.thumb_func
  23              		.fpu fpv5-d16
  25              	HAL_RCC_DeInit:
  26              	.LFB141:
  27              		.file 1 "Drivers/STM32H7xx_HAL_Driver/Src/stm32h7xx_hal_rcc.c"
   1:Drivers/STM32H7xx_HAL_Driver/Src/stm32h7xx_hal_rcc.c **** /**
   2:Drivers/STM32H7xx_HAL_Driver/Src/stm32h7xx_hal_rcc.c ****   ******************************************************************************
   3:Drivers/STM32H7xx_HAL_Driver/Src/stm32h7xx_hal_rcc.c ****   * @file    stm32h7xx_hal_rcc.c
   4:Drivers/STM32H7xx_HAL_Driver/Src/stm32h7xx_hal_rcc.c ****   * @author  MCD Application Team
   5:Drivers/STM32H7xx_HAL_Driver/Src/stm32h7xx_hal_rcc.c ****   * @brief   RCC HAL module driver.
   6:Drivers/STM32H7xx_HAL_Driver/Src/stm32h7xx_hal_rcc.c ****   *          This file provides firmware functions to manage the following
   7:Drivers/STM32H7xx_HAL_Driver/Src/stm32h7xx_hal_rcc.c ****   *          functionalities of the Reset and Clock Control (RCC) peripheral:
   8:Drivers/STM32H7xx_HAL_Driver/Src/stm32h7xx_hal_rcc.c ****   *           + Initialization and de-initialization functions
   9:Drivers/STM32H7xx_HAL_Driver/Src/stm32h7xx_hal_rcc.c ****   *           + Peripheral Control functions
  10:Drivers/STM32H7xx_HAL_Driver/Src/stm32h7xx_hal_rcc.c ****   *
  11:Drivers/STM32H7xx_HAL_Driver/Src/stm32h7xx_hal_rcc.c ****   @verbatim
  12:Drivers/STM32H7xx_HAL_Driver/Src/stm32h7xx_hal_rcc.c ****   ==============================================================================
  13:Drivers/STM32H7xx_HAL_Driver/Src/stm32h7xx_hal_rcc.c ****                       ##### RCC specific features #####
  14:Drivers/STM32H7xx_HAL_Driver/Src/stm32h7xx_hal_rcc.c ****   ==============================================================================
  15:Drivers/STM32H7xx_HAL_Driver/Src/stm32h7xx_hal_rcc.c ****     [..]
  16:Drivers/STM32H7xx_HAL_Driver/Src/stm32h7xx_hal_rcc.c ****       After reset the device is running from Internal High Speed oscillator
  17:Drivers/STM32H7xx_HAL_Driver/Src/stm32h7xx_hal_rcc.c ****       (HSI 64MHz) with Flash 0 wait state,and all peripherals are off except
  18:Drivers/STM32H7xx_HAL_Driver/Src/stm32h7xx_hal_rcc.c ****       internal SRAM, Flash, JTAG and PWR
  19:Drivers/STM32H7xx_HAL_Driver/Src/stm32h7xx_hal_rcc.c ****       (+) There is no pre-scaler on High speed (AHB) and Low speed (APB) buses;
  20:Drivers/STM32H7xx_HAL_Driver/Src/stm32h7xx_hal_rcc.c ****           all peripherals mapped on these buses are running at HSI speed.
  21:Drivers/STM32H7xx_HAL_Driver/Src/stm32h7xx_hal_rcc.c ****       (+) The clock for all peripherals is switched off, except the SRAM and FLASH.
  22:Drivers/STM32H7xx_HAL_Driver/Src/stm32h7xx_hal_rcc.c ****       (+) All GPIOs are in analogue mode , except the JTAG pins which
  23:Drivers/STM32H7xx_HAL_Driver/Src/stm32h7xx_hal_rcc.c ****           are assigned to be used for debug purpose.
  24:Drivers/STM32H7xx_HAL_Driver/Src/stm32h7xx_hal_rcc.c **** 
  25:Drivers/STM32H7xx_HAL_Driver/Src/stm32h7xx_hal_rcc.c ****     [..]
  26:Drivers/STM32H7xx_HAL_Driver/Src/stm32h7xx_hal_rcc.c ****       Once the device started from reset, the user application has to:
  27:Drivers/STM32H7xx_HAL_Driver/Src/stm32h7xx_hal_rcc.c ****       (+) Configure the clock source to be used to drive the System clock
  28:Drivers/STM32H7xx_HAL_Driver/Src/stm32h7xx_hal_rcc.c ****           (if the application needs higher frequency/performance)
  29:Drivers/STM32H7xx_HAL_Driver/Src/stm32h7xx_hal_rcc.c ****       (+) Configure the System clock frequency and Flash settings
  30:Drivers/STM32H7xx_HAL_Driver/Src/stm32h7xx_hal_rcc.c ****       (+) Configure the AHB and APB buses pre-scalers
  31:Drivers/STM32H7xx_HAL_Driver/Src/stm32h7xx_hal_rcc.c ****       (+) Enable the clock for the peripheral(s) to be used
ARM GAS  /tmp/cconV3EI.s 			page 2


  32:Drivers/STM32H7xx_HAL_Driver/Src/stm32h7xx_hal_rcc.c ****       (+) Configure the clock kernel source(s) for peripherals which clocks are not
  33:Drivers/STM32H7xx_HAL_Driver/Src/stm32h7xx_hal_rcc.c ****           derived from the System clock through :RCC_D1CCIPR,RCC_D2CCIP1R,RCC_D2CCIP2R
  34:Drivers/STM32H7xx_HAL_Driver/Src/stm32h7xx_hal_rcc.c ****           and RCC_D3CCIPR registers
  35:Drivers/STM32H7xx_HAL_Driver/Src/stm32h7xx_hal_rcc.c **** 
  36:Drivers/STM32H7xx_HAL_Driver/Src/stm32h7xx_hal_rcc.c ****                       ##### RCC Limitations #####
  37:Drivers/STM32H7xx_HAL_Driver/Src/stm32h7xx_hal_rcc.c ****   ==============================================================================
  38:Drivers/STM32H7xx_HAL_Driver/Src/stm32h7xx_hal_rcc.c ****     [..]
  39:Drivers/STM32H7xx_HAL_Driver/Src/stm32h7xx_hal_rcc.c ****       A delay between an RCC peripheral clock enable and the effective peripheral
  40:Drivers/STM32H7xx_HAL_Driver/Src/stm32h7xx_hal_rcc.c ****       enabling should be taken into account in order to manage the peripheral read/write
  41:Drivers/STM32H7xx_HAL_Driver/Src/stm32h7xx_hal_rcc.c ****       from/to registers.
  42:Drivers/STM32H7xx_HAL_Driver/Src/stm32h7xx_hal_rcc.c ****       (+) This delay depends on the peripheral mapping.
  43:Drivers/STM32H7xx_HAL_Driver/Src/stm32h7xx_hal_rcc.c ****       (+) If peripheral is mapped on AHB: the delay is 2 AHB clock cycle
  44:Drivers/STM32H7xx_HAL_Driver/Src/stm32h7xx_hal_rcc.c ****           after the clock enable bit is set on the hardware register
  45:Drivers/STM32H7xx_HAL_Driver/Src/stm32h7xx_hal_rcc.c ****       (+) If peripheral is mapped on APB: the delay is 2 APB clock cycle
  46:Drivers/STM32H7xx_HAL_Driver/Src/stm32h7xx_hal_rcc.c ****           after the clock enable bit is set on the hardware register
  47:Drivers/STM32H7xx_HAL_Driver/Src/stm32h7xx_hal_rcc.c **** 
  48:Drivers/STM32H7xx_HAL_Driver/Src/stm32h7xx_hal_rcc.c ****     [..]
  49:Drivers/STM32H7xx_HAL_Driver/Src/stm32h7xx_hal_rcc.c ****       Implemented Workaround:
  50:Drivers/STM32H7xx_HAL_Driver/Src/stm32h7xx_hal_rcc.c ****       (+) For AHB & APB peripherals, a dummy read to the peripheral register has been
  51:Drivers/STM32H7xx_HAL_Driver/Src/stm32h7xx_hal_rcc.c ****           inserted in each __HAL_RCC_PPP_CLK_ENABLE() macro.
  52:Drivers/STM32H7xx_HAL_Driver/Src/stm32h7xx_hal_rcc.c **** 
  53:Drivers/STM32H7xx_HAL_Driver/Src/stm32h7xx_hal_rcc.c ****   @endverbatim
  54:Drivers/STM32H7xx_HAL_Driver/Src/stm32h7xx_hal_rcc.c ****  ******************************************************************************
  55:Drivers/STM32H7xx_HAL_Driver/Src/stm32h7xx_hal_rcc.c ****   * @attention
  56:Drivers/STM32H7xx_HAL_Driver/Src/stm32h7xx_hal_rcc.c ****   *
  57:Drivers/STM32H7xx_HAL_Driver/Src/stm32h7xx_hal_rcc.c ****   * <h2><center>&copy; COPYRIGHT(c) 2017 STMicroelectronics.
  58:Drivers/STM32H7xx_HAL_Driver/Src/stm32h7xx_hal_rcc.c ****   * All rights reserved.</center></h2>
  59:Drivers/STM32H7xx_HAL_Driver/Src/stm32h7xx_hal_rcc.c ****   *
  60:Drivers/STM32H7xx_HAL_Driver/Src/stm32h7xx_hal_rcc.c ****   * This software component is licensed by ST under BSD 3-Clause license,
  61:Drivers/STM32H7xx_HAL_Driver/Src/stm32h7xx_hal_rcc.c ****   * the "License"; You may not use this file except in compliance with the
  62:Drivers/STM32H7xx_HAL_Driver/Src/stm32h7xx_hal_rcc.c ****   * License. You may obtain a copy of the License at:
  63:Drivers/STM32H7xx_HAL_Driver/Src/stm32h7xx_hal_rcc.c ****   *                        opensource.org/licenses/BSD-3-Clause
  64:Drivers/STM32H7xx_HAL_Driver/Src/stm32h7xx_hal_rcc.c ****   *
  65:Drivers/STM32H7xx_HAL_Driver/Src/stm32h7xx_hal_rcc.c ****   ******************************************************************************
  66:Drivers/STM32H7xx_HAL_Driver/Src/stm32h7xx_hal_rcc.c ****   */
  67:Drivers/STM32H7xx_HAL_Driver/Src/stm32h7xx_hal_rcc.c **** 
  68:Drivers/STM32H7xx_HAL_Driver/Src/stm32h7xx_hal_rcc.c **** /* Includes ------------------------------------------------------------------*/
  69:Drivers/STM32H7xx_HAL_Driver/Src/stm32h7xx_hal_rcc.c **** #include "stm32h7xx_hal.h"
  70:Drivers/STM32H7xx_HAL_Driver/Src/stm32h7xx_hal_rcc.c **** 
  71:Drivers/STM32H7xx_HAL_Driver/Src/stm32h7xx_hal_rcc.c **** /** @addtogroup STM32H7xx_HAL_Driver
  72:Drivers/STM32H7xx_HAL_Driver/Src/stm32h7xx_hal_rcc.c ****   * @{
  73:Drivers/STM32H7xx_HAL_Driver/Src/stm32h7xx_hal_rcc.c ****   */
  74:Drivers/STM32H7xx_HAL_Driver/Src/stm32h7xx_hal_rcc.c **** 
  75:Drivers/STM32H7xx_HAL_Driver/Src/stm32h7xx_hal_rcc.c **** /** @defgroup RCC  RCC
  76:Drivers/STM32H7xx_HAL_Driver/Src/stm32h7xx_hal_rcc.c ****   * @brief RCC HAL module driver
  77:Drivers/STM32H7xx_HAL_Driver/Src/stm32h7xx_hal_rcc.c ****   * @{
  78:Drivers/STM32H7xx_HAL_Driver/Src/stm32h7xx_hal_rcc.c ****   */
  79:Drivers/STM32H7xx_HAL_Driver/Src/stm32h7xx_hal_rcc.c **** 
  80:Drivers/STM32H7xx_HAL_Driver/Src/stm32h7xx_hal_rcc.c **** #ifdef HAL_RCC_MODULE_ENABLED
  81:Drivers/STM32H7xx_HAL_Driver/Src/stm32h7xx_hal_rcc.c **** 
  82:Drivers/STM32H7xx_HAL_Driver/Src/stm32h7xx_hal_rcc.c **** /* Private typedef -----------------------------------------------------------*/
  83:Drivers/STM32H7xx_HAL_Driver/Src/stm32h7xx_hal_rcc.c **** /* Private define ------------------------------------------------------------*/
  84:Drivers/STM32H7xx_HAL_Driver/Src/stm32h7xx_hal_rcc.c **** /* Private macro -------------------------------------------------------------*/
  85:Drivers/STM32H7xx_HAL_Driver/Src/stm32h7xx_hal_rcc.c **** /** @defgroup RCC_Private_Macros RCC Private Macros
  86:Drivers/STM32H7xx_HAL_Driver/Src/stm32h7xx_hal_rcc.c ****   * @{
  87:Drivers/STM32H7xx_HAL_Driver/Src/stm32h7xx_hal_rcc.c ****   */
  88:Drivers/STM32H7xx_HAL_Driver/Src/stm32h7xx_hal_rcc.c **** #define MCO1_CLK_ENABLE()     __HAL_RCC_GPIOA_CLK_ENABLE()
ARM GAS  /tmp/cconV3EI.s 			page 3


  89:Drivers/STM32H7xx_HAL_Driver/Src/stm32h7xx_hal_rcc.c **** #define MCO1_GPIO_PORT        GPIOA
  90:Drivers/STM32H7xx_HAL_Driver/Src/stm32h7xx_hal_rcc.c **** #define MCO1_PIN              GPIO_PIN_8
  91:Drivers/STM32H7xx_HAL_Driver/Src/stm32h7xx_hal_rcc.c **** 
  92:Drivers/STM32H7xx_HAL_Driver/Src/stm32h7xx_hal_rcc.c **** #define MCO2_CLK_ENABLE()      __HAL_RCC_GPIOC_CLK_ENABLE()
  93:Drivers/STM32H7xx_HAL_Driver/Src/stm32h7xx_hal_rcc.c **** #define MCO2_GPIO_PORT         GPIOC
  94:Drivers/STM32H7xx_HAL_Driver/Src/stm32h7xx_hal_rcc.c **** #define MCO2_PIN               GPIO_PIN_9
  95:Drivers/STM32H7xx_HAL_Driver/Src/stm32h7xx_hal_rcc.c **** 
  96:Drivers/STM32H7xx_HAL_Driver/Src/stm32h7xx_hal_rcc.c **** /**
  97:Drivers/STM32H7xx_HAL_Driver/Src/stm32h7xx_hal_rcc.c ****   * @}
  98:Drivers/STM32H7xx_HAL_Driver/Src/stm32h7xx_hal_rcc.c ****   */
  99:Drivers/STM32H7xx_HAL_Driver/Src/stm32h7xx_hal_rcc.c **** /* Private variables ---------------------------------------------------------*/
 100:Drivers/STM32H7xx_HAL_Driver/Src/stm32h7xx_hal_rcc.c **** /** @defgroup RCC_Private_Variables RCC Private Variables
 101:Drivers/STM32H7xx_HAL_Driver/Src/stm32h7xx_hal_rcc.c ****   * @{
 102:Drivers/STM32H7xx_HAL_Driver/Src/stm32h7xx_hal_rcc.c ****   */
 103:Drivers/STM32H7xx_HAL_Driver/Src/stm32h7xx_hal_rcc.c **** 
 104:Drivers/STM32H7xx_HAL_Driver/Src/stm32h7xx_hal_rcc.c **** /**
 105:Drivers/STM32H7xx_HAL_Driver/Src/stm32h7xx_hal_rcc.c ****   * @}
 106:Drivers/STM32H7xx_HAL_Driver/Src/stm32h7xx_hal_rcc.c ****   */
 107:Drivers/STM32H7xx_HAL_Driver/Src/stm32h7xx_hal_rcc.c **** /* Private function prototypes -----------------------------------------------*/
 108:Drivers/STM32H7xx_HAL_Driver/Src/stm32h7xx_hal_rcc.c **** /* Exported functions --------------------------------------------------------*/
 109:Drivers/STM32H7xx_HAL_Driver/Src/stm32h7xx_hal_rcc.c **** 
 110:Drivers/STM32H7xx_HAL_Driver/Src/stm32h7xx_hal_rcc.c **** /** @defgroup RCC_Exported_Functions RCC Exported Functions
 111:Drivers/STM32H7xx_HAL_Driver/Src/stm32h7xx_hal_rcc.c ****   * @{
 112:Drivers/STM32H7xx_HAL_Driver/Src/stm32h7xx_hal_rcc.c ****   */
 113:Drivers/STM32H7xx_HAL_Driver/Src/stm32h7xx_hal_rcc.c **** 
 114:Drivers/STM32H7xx_HAL_Driver/Src/stm32h7xx_hal_rcc.c **** /** @defgroup RCC_Exported_Functions_Group1 Initialization and de-initialization functions
 115:Drivers/STM32H7xx_HAL_Driver/Src/stm32h7xx_hal_rcc.c ****  *  @brief    Initialization and Configuration functions
 116:Drivers/STM32H7xx_HAL_Driver/Src/stm32h7xx_hal_rcc.c ****  *
 117:Drivers/STM32H7xx_HAL_Driver/Src/stm32h7xx_hal_rcc.c **** @verbatim
 118:Drivers/STM32H7xx_HAL_Driver/Src/stm32h7xx_hal_rcc.c ****  ===============================================================================
 119:Drivers/STM32H7xx_HAL_Driver/Src/stm32h7xx_hal_rcc.c ****            ##### Initialization and de-initialization functions #####
 120:Drivers/STM32H7xx_HAL_Driver/Src/stm32h7xx_hal_rcc.c ****  ===============================================================================
 121:Drivers/STM32H7xx_HAL_Driver/Src/stm32h7xx_hal_rcc.c ****     [..]
 122:Drivers/STM32H7xx_HAL_Driver/Src/stm32h7xx_hal_rcc.c ****       This section provides functions allowing to configure the internal/external oscillators
 123:Drivers/STM32H7xx_HAL_Driver/Src/stm32h7xx_hal_rcc.c ****       (HSE, HSI, LSE,CSI, LSI,HSI48, PLL, CSS and MCO) and the System buses clocks (SYSCLK, AHB3, A
 124:Drivers/STM32H7xx_HAL_Driver/Src/stm32h7xx_hal_rcc.c ****        AHB2,AHB4,APB3, APB1L, APB1H, APB2, and APB4).
 125:Drivers/STM32H7xx_HAL_Driver/Src/stm32h7xx_hal_rcc.c **** 
 126:Drivers/STM32H7xx_HAL_Driver/Src/stm32h7xx_hal_rcc.c ****     [..] Internal/external clock and PLL configuration
 127:Drivers/STM32H7xx_HAL_Driver/Src/stm32h7xx_hal_rcc.c ****          (#) HSI (high-speed internal), 64 MHz factory-trimmed RC used directly or through
 128:Drivers/STM32H7xx_HAL_Driver/Src/stm32h7xx_hal_rcc.c ****              the PLL as System clock source.
 129:Drivers/STM32H7xx_HAL_Driver/Src/stm32h7xx_hal_rcc.c ****          (#) CSI is a low-power RC oscillator which can be used directly as system clock, periphera
 130:Drivers/STM32H7xx_HAL_Driver/Src/stm32h7xx_hal_rcc.c ****              clock, or PLL input.But even with frequency calibration, is less accurate than an
 131:Drivers/STM32H7xx_HAL_Driver/Src/stm32h7xx_hal_rcc.c ****              external crystal oscillator or ceramic resonator.
 132:Drivers/STM32H7xx_HAL_Driver/Src/stm32h7xx_hal_rcc.c ****          (#) LSI (low-speed internal), 32 KHz low consumption RC used as IWDG and/or RTC
 133:Drivers/STM32H7xx_HAL_Driver/Src/stm32h7xx_hal_rcc.c ****              clock source.
 134:Drivers/STM32H7xx_HAL_Driver/Src/stm32h7xx_hal_rcc.c **** 
 135:Drivers/STM32H7xx_HAL_Driver/Src/stm32h7xx_hal_rcc.c ****          (#) HSE (high-speed external), 4 to 48 MHz crystal oscillator used directly or
 136:Drivers/STM32H7xx_HAL_Driver/Src/stm32h7xx_hal_rcc.c ****              through the PLL as System clock source. Can be used also as RTC clock source.
 137:Drivers/STM32H7xx_HAL_Driver/Src/stm32h7xx_hal_rcc.c **** 
 138:Drivers/STM32H7xx_HAL_Driver/Src/stm32h7xx_hal_rcc.c ****          (#) LSE (low-speed external), 32 KHz oscillator used as RTC clock source.
 139:Drivers/STM32H7xx_HAL_Driver/Src/stm32h7xx_hal_rcc.c **** 
 140:Drivers/STM32H7xx_HAL_Driver/Src/stm32h7xx_hal_rcc.c ****          (#) PLL , The RCC features three independent PLLs (clocked by HSI , HSE or CSI),
 141:Drivers/STM32H7xx_HAL_Driver/Src/stm32h7xx_hal_rcc.c ****              featuring three different output clocks and able  to work either in integer or Fractio
 142:Drivers/STM32H7xx_HAL_Driver/Src/stm32h7xx_hal_rcc.c ****            (++) A main PLL, PLL1, which is generally used to provide clocks to the CPU
 143:Drivers/STM32H7xx_HAL_Driver/Src/stm32h7xx_hal_rcc.c ****                 and to some peripherals.
 144:Drivers/STM32H7xx_HAL_Driver/Src/stm32h7xx_hal_rcc.c ****            (++) Two dedicated PLLs, PLL2 and PLL3, which are used to generate the kernel clock for 
 145:Drivers/STM32H7xx_HAL_Driver/Src/stm32h7xx_hal_rcc.c **** 
ARM GAS  /tmp/cconV3EI.s 			page 4


 146:Drivers/STM32H7xx_HAL_Driver/Src/stm32h7xx_hal_rcc.c **** 
 147:Drivers/STM32H7xx_HAL_Driver/Src/stm32h7xx_hal_rcc.c ****          (#) CSS (Clock security system), once enabled and if a HSE clock failure occurs
 148:Drivers/STM32H7xx_HAL_Driver/Src/stm32h7xx_hal_rcc.c ****             (HSE used directly or through PLL as System clock source), the System clock
 149:Drivers/STM32H7xx_HAL_Driver/Src/stm32h7xx_hal_rcc.c ****              is automatically switched to HSI and an interrupt is generated if enabled.
 150:Drivers/STM32H7xx_HAL_Driver/Src/stm32h7xx_hal_rcc.c ****              The interrupt is linked to the Cortex-M NMI (Non-Mask-able Interrupt)
 151:Drivers/STM32H7xx_HAL_Driver/Src/stm32h7xx_hal_rcc.c ****              exception vector.
 152:Drivers/STM32H7xx_HAL_Driver/Src/stm32h7xx_hal_rcc.c **** 
 153:Drivers/STM32H7xx_HAL_Driver/Src/stm32h7xx_hal_rcc.c ****          (#) MCO1 (micro controller clock output), used to output HSI, LSE, HSE, PLL1(PLL1_Q)
 154:Drivers/STM32H7xx_HAL_Driver/Src/stm32h7xx_hal_rcc.c ****              or HSI48 clock (through a configurable pre-scaler) on PA8 pin.
 155:Drivers/STM32H7xx_HAL_Driver/Src/stm32h7xx_hal_rcc.c **** 
 156:Drivers/STM32H7xx_HAL_Driver/Src/stm32h7xx_hal_rcc.c ****          (#) MCO2 (micro controller clock output), used to output HSE, PLL2(PLL2_P), SYSCLK,
 157:Drivers/STM32H7xx_HAL_Driver/Src/stm32h7xx_hal_rcc.c ****              LSI, CSI, or PLL1(PLL1_P) clock (through a configurable pre-scaler) on PC9 pin.
 158:Drivers/STM32H7xx_HAL_Driver/Src/stm32h7xx_hal_rcc.c **** 
 159:Drivers/STM32H7xx_HAL_Driver/Src/stm32h7xx_hal_rcc.c ****     [..] System, AHB and APB buses clocks configuration
 160:Drivers/STM32H7xx_HAL_Driver/Src/stm32h7xx_hal_rcc.c ****          (#) Several clock sources can be used to drive the System clock (SYSCLK): CSI,HSI,
 161:Drivers/STM32H7xx_HAL_Driver/Src/stm32h7xx_hal_rcc.c ****              HSE and PLL.
 162:Drivers/STM32H7xx_HAL_Driver/Src/stm32h7xx_hal_rcc.c ****              The AHB clock (HCLK) is derived from System core clock through configurable
 163:Drivers/STM32H7xx_HAL_Driver/Src/stm32h7xx_hal_rcc.c ****              pre-scaler and used to clock the CPU, memory and peripherals mapped
 164:Drivers/STM32H7xx_HAL_Driver/Src/stm32h7xx_hal_rcc.c ****              on AHB and APB bus of the 3 Domains (D1, D2, D3) through configurable pre-scalers
 165:Drivers/STM32H7xx_HAL_Driver/Src/stm32h7xx_hal_rcc.c ****              and used to clock the peripherals mapped on these buses. You can use
 166:Drivers/STM32H7xx_HAL_Driver/Src/stm32h7xx_hal_rcc.c ****              "HAL_RCC_GetSysClockFreq()" function to retrieve system clock frequency.
 167:Drivers/STM32H7xx_HAL_Driver/Src/stm32h7xx_hal_rcc.c **** 
 168:Drivers/STM32H7xx_HAL_Driver/Src/stm32h7xx_hal_rcc.c ****          -@- All the peripheral clocks are derived from the System clock (SYSCLK) except those
 169:Drivers/STM32H7xx_HAL_Driver/Src/stm32h7xx_hal_rcc.c ****              with dual clock domain where kernel source clock could be selected through
 170:Drivers/STM32H7xx_HAL_Driver/Src/stm32h7xx_hal_rcc.c ****              RCC_D1CCIPR,RCC_D2CCIP1R,RCC_D2CCIP2R and RCC_D3CCIPR registers.
 171:Drivers/STM32H7xx_HAL_Driver/Src/stm32h7xx_hal_rcc.c **** @endverbatim
 172:Drivers/STM32H7xx_HAL_Driver/Src/stm32h7xx_hal_rcc.c ****   * @{
 173:Drivers/STM32H7xx_HAL_Driver/Src/stm32h7xx_hal_rcc.c ****   */
 174:Drivers/STM32H7xx_HAL_Driver/Src/stm32h7xx_hal_rcc.c **** 
 175:Drivers/STM32H7xx_HAL_Driver/Src/stm32h7xx_hal_rcc.c **** /**
 176:Drivers/STM32H7xx_HAL_Driver/Src/stm32h7xx_hal_rcc.c ****   * @brief  Resets the RCC clock configuration to the default reset state.
 177:Drivers/STM32H7xx_HAL_Driver/Src/stm32h7xx_hal_rcc.c ****   * @note   The default reset state of the clock configuration is given below:
 178:Drivers/STM32H7xx_HAL_Driver/Src/stm32h7xx_hal_rcc.c ****   *            - HSI ON and used as system clock source
 179:Drivers/STM32H7xx_HAL_Driver/Src/stm32h7xx_hal_rcc.c ****   *            - HSE, PLL1, PLL2 and PLL3 OFF
 180:Drivers/STM32H7xx_HAL_Driver/Src/stm32h7xx_hal_rcc.c ****   *            - AHB, APB Bus pre-scaler set to 1.
 181:Drivers/STM32H7xx_HAL_Driver/Src/stm32h7xx_hal_rcc.c ****   *            - CSS, MCO1 and MCO2 OFF
 182:Drivers/STM32H7xx_HAL_Driver/Src/stm32h7xx_hal_rcc.c ****   *            - All interrupts disabled
 183:Drivers/STM32H7xx_HAL_Driver/Src/stm32h7xx_hal_rcc.c ****   * @note   This function doesn't modify the configuration of the
 184:Drivers/STM32H7xx_HAL_Driver/Src/stm32h7xx_hal_rcc.c ****   *            - Peripheral clocks
 185:Drivers/STM32H7xx_HAL_Driver/Src/stm32h7xx_hal_rcc.c ****   *            - LSI, LSE and RTC clocks
 186:Drivers/STM32H7xx_HAL_Driver/Src/stm32h7xx_hal_rcc.c ****   * @retval HAL status
 187:Drivers/STM32H7xx_HAL_Driver/Src/stm32h7xx_hal_rcc.c ****   */
 188:Drivers/STM32H7xx_HAL_Driver/Src/stm32h7xx_hal_rcc.c **** HAL_StatusTypeDef HAL_RCC_DeInit(void)
 189:Drivers/STM32H7xx_HAL_Driver/Src/stm32h7xx_hal_rcc.c **** {
  28              		.loc 1 189 1 view -0
  29              		.cfi_startproc
  30              		@ args = 0, pretend = 0, frame = 0
  31              		@ frame_needed = 0, uses_anonymous_args = 0
  32 0000 38B5     		push	{r3, r4, r5, lr}
  33              	.LCFI0:
  34              		.cfi_def_cfa_offset 16
  35              		.cfi_offset 3, -16
  36              		.cfi_offset 4, -12
  37              		.cfi_offset 5, -8
  38              		.cfi_offset 14, -4
 190:Drivers/STM32H7xx_HAL_Driver/Src/stm32h7xx_hal_rcc.c ****   uint32_t tickstart;
  39              		.loc 1 190 3 view .LVU1
ARM GAS  /tmp/cconV3EI.s 			page 5


 191:Drivers/STM32H7xx_HAL_Driver/Src/stm32h7xx_hal_rcc.c **** 
 192:Drivers/STM32H7xx_HAL_Driver/Src/stm32h7xx_hal_rcc.c ****   /* Get Start Tick */
 193:Drivers/STM32H7xx_HAL_Driver/Src/stm32h7xx_hal_rcc.c ****   tickstart = HAL_GetTick();
  40              		.loc 1 193 3 view .LVU2
  41              		.loc 1 193 15 is_stmt 0 view .LVU3
  42 0002 FFF7FEFF 		bl	HAL_GetTick
  43              	.LVL0:
  44 0006 0446     		mov	r4, r0
  45              	.LVL1:
 194:Drivers/STM32H7xx_HAL_Driver/Src/stm32h7xx_hal_rcc.c **** 
 195:Drivers/STM32H7xx_HAL_Driver/Src/stm32h7xx_hal_rcc.c ****   /* Set HSION bit */
 196:Drivers/STM32H7xx_HAL_Driver/Src/stm32h7xx_hal_rcc.c ****   SET_BIT(RCC->CR, RCC_CR_HSION);
  46              		.loc 1 196 3 is_stmt 1 view .LVU4
  47 0008 514A     		ldr	r2, .L30
  48 000a 1368     		ldr	r3, [r2]
  49 000c 43F00103 		orr	r3, r3, #1
  50 0010 1360     		str	r3, [r2]
 197:Drivers/STM32H7xx_HAL_Driver/Src/stm32h7xx_hal_rcc.c **** 
 198:Drivers/STM32H7xx_HAL_Driver/Src/stm32h7xx_hal_rcc.c ****   /* Wait till HSI is ready */
 199:Drivers/STM32H7xx_HAL_Driver/Src/stm32h7xx_hal_rcc.c ****   while (READ_BIT(RCC->CR, RCC_CR_HSIRDY) == 0U)
  51              		.loc 1 199 3 view .LVU5
  52              	.LVL2:
  53              	.L2:
  54              		.loc 1 199 10 is_stmt 0 view .LVU6
  55 0012 4F4B     		ldr	r3, .L30
  56 0014 1B68     		ldr	r3, [r3]
  57              		.loc 1 199 9 view .LVU7
  58 0016 13F0040F 		tst	r3, #4
  59 001a 07D1     		bne	.L23
 200:Drivers/STM32H7xx_HAL_Driver/Src/stm32h7xx_hal_rcc.c ****   {
 201:Drivers/STM32H7xx_HAL_Driver/Src/stm32h7xx_hal_rcc.c ****     if ((HAL_GetTick() - tickstart) > HSI_TIMEOUT_VALUE)
  60              		.loc 1 201 5 is_stmt 1 view .LVU8
  61              		.loc 1 201 10 is_stmt 0 view .LVU9
  62 001c FFF7FEFF 		bl	HAL_GetTick
  63              	.LVL3:
  64              		.loc 1 201 24 view .LVU10
  65 0020 001B     		subs	r0, r0, r4
  66              		.loc 1 201 8 view .LVU11
  67 0022 0228     		cmp	r0, #2
  68 0024 F5D9     		bls	.L2
 202:Drivers/STM32H7xx_HAL_Driver/Src/stm32h7xx_hal_rcc.c ****     {
 203:Drivers/STM32H7xx_HAL_Driver/Src/stm32h7xx_hal_rcc.c ****       return HAL_TIMEOUT;
  69              		.loc 1 203 14 view .LVU12
  70 0026 0324     		movs	r4, #3
  71              	.LVL4:
  72              	.L3:
 204:Drivers/STM32H7xx_HAL_Driver/Src/stm32h7xx_hal_rcc.c ****     }
 205:Drivers/STM32H7xx_HAL_Driver/Src/stm32h7xx_hal_rcc.c ****   }
 206:Drivers/STM32H7xx_HAL_Driver/Src/stm32h7xx_hal_rcc.c **** 
 207:Drivers/STM32H7xx_HAL_Driver/Src/stm32h7xx_hal_rcc.c ****   /* Set HSITRIM[6:0] bits to the reset value */
 208:Drivers/STM32H7xx_HAL_Driver/Src/stm32h7xx_hal_rcc.c ****   SET_BIT(RCC->HSICFGR, RCC_HSICFGR_HSITRIM_6);
 209:Drivers/STM32H7xx_HAL_Driver/Src/stm32h7xx_hal_rcc.c **** 
 210:Drivers/STM32H7xx_HAL_Driver/Src/stm32h7xx_hal_rcc.c ****   /* Reset CFGR register */
 211:Drivers/STM32H7xx_HAL_Driver/Src/stm32h7xx_hal_rcc.c ****   CLEAR_REG(RCC->CFGR);
 212:Drivers/STM32H7xx_HAL_Driver/Src/stm32h7xx_hal_rcc.c **** 
 213:Drivers/STM32H7xx_HAL_Driver/Src/stm32h7xx_hal_rcc.c ****   /* Update the SystemCoreClock global variable */
 214:Drivers/STM32H7xx_HAL_Driver/Src/stm32h7xx_hal_rcc.c ****   SystemCoreClock = HSI_VALUE;
ARM GAS  /tmp/cconV3EI.s 			page 6


 215:Drivers/STM32H7xx_HAL_Driver/Src/stm32h7xx_hal_rcc.c **** 
 216:Drivers/STM32H7xx_HAL_Driver/Src/stm32h7xx_hal_rcc.c ****   /* Adapt Systick interrupt period */
 217:Drivers/STM32H7xx_HAL_Driver/Src/stm32h7xx_hal_rcc.c ****   if(HAL_InitTick(uwTickPrio) != HAL_OK)
 218:Drivers/STM32H7xx_HAL_Driver/Src/stm32h7xx_hal_rcc.c ****   {
 219:Drivers/STM32H7xx_HAL_Driver/Src/stm32h7xx_hal_rcc.c ****     return HAL_ERROR;
 220:Drivers/STM32H7xx_HAL_Driver/Src/stm32h7xx_hal_rcc.c ****   }
 221:Drivers/STM32H7xx_HAL_Driver/Src/stm32h7xx_hal_rcc.c **** 
 222:Drivers/STM32H7xx_HAL_Driver/Src/stm32h7xx_hal_rcc.c ****   /* Get Start Tick */
 223:Drivers/STM32H7xx_HAL_Driver/Src/stm32h7xx_hal_rcc.c ****   tickstart = HAL_GetTick();
 224:Drivers/STM32H7xx_HAL_Driver/Src/stm32h7xx_hal_rcc.c **** 
 225:Drivers/STM32H7xx_HAL_Driver/Src/stm32h7xx_hal_rcc.c ****   /* Wait till clock switch is ready */
 226:Drivers/STM32H7xx_HAL_Driver/Src/stm32h7xx_hal_rcc.c ****   while (READ_BIT(RCC->CFGR, RCC_CFGR_SWS) != 0U)
 227:Drivers/STM32H7xx_HAL_Driver/Src/stm32h7xx_hal_rcc.c ****   {
 228:Drivers/STM32H7xx_HAL_Driver/Src/stm32h7xx_hal_rcc.c ****     if ((HAL_GetTick() - tickstart) > CLOCKSWITCH_TIMEOUT_VALUE)
 229:Drivers/STM32H7xx_HAL_Driver/Src/stm32h7xx_hal_rcc.c ****     {
 230:Drivers/STM32H7xx_HAL_Driver/Src/stm32h7xx_hal_rcc.c ****       return HAL_TIMEOUT;
 231:Drivers/STM32H7xx_HAL_Driver/Src/stm32h7xx_hal_rcc.c ****     }
 232:Drivers/STM32H7xx_HAL_Driver/Src/stm32h7xx_hal_rcc.c ****   }
 233:Drivers/STM32H7xx_HAL_Driver/Src/stm32h7xx_hal_rcc.c **** 
 234:Drivers/STM32H7xx_HAL_Driver/Src/stm32h7xx_hal_rcc.c ****   /* Get Start Tick */
 235:Drivers/STM32H7xx_HAL_Driver/Src/stm32h7xx_hal_rcc.c ****   tickstart = HAL_GetTick();
 236:Drivers/STM32H7xx_HAL_Driver/Src/stm32h7xx_hal_rcc.c **** 
 237:Drivers/STM32H7xx_HAL_Driver/Src/stm32h7xx_hal_rcc.c ****   /* Reset CSION, CSIKERON, HSEON, HSI48ON, HSECSSON, HSIDIV bits */
 238:Drivers/STM32H7xx_HAL_Driver/Src/stm32h7xx_hal_rcc.c ****   CLEAR_BIT(RCC->CR, RCC_CR_HSEON | RCC_CR_HSIKERON| RCC_CR_HSIDIV| RCC_CR_HSIDIVF| RCC_CR_CSION | 
 239:Drivers/STM32H7xx_HAL_Driver/Src/stm32h7xx_hal_rcc.c ****   | RCC_CR_HSI48ON | RCC_CR_CSSHSEON);
 240:Drivers/STM32H7xx_HAL_Driver/Src/stm32h7xx_hal_rcc.c **** 
 241:Drivers/STM32H7xx_HAL_Driver/Src/stm32h7xx_hal_rcc.c ****   /* Wait till HSE is disabled */
 242:Drivers/STM32H7xx_HAL_Driver/Src/stm32h7xx_hal_rcc.c ****   while (READ_BIT(RCC->CR, RCC_CR_HSERDY) != 0U)
 243:Drivers/STM32H7xx_HAL_Driver/Src/stm32h7xx_hal_rcc.c ****   {
 244:Drivers/STM32H7xx_HAL_Driver/Src/stm32h7xx_hal_rcc.c ****     if ((HAL_GetTick() - tickstart) > HSE_TIMEOUT_VALUE)
 245:Drivers/STM32H7xx_HAL_Driver/Src/stm32h7xx_hal_rcc.c ****     {
 246:Drivers/STM32H7xx_HAL_Driver/Src/stm32h7xx_hal_rcc.c ****       return HAL_TIMEOUT;
 247:Drivers/STM32H7xx_HAL_Driver/Src/stm32h7xx_hal_rcc.c ****     }
 248:Drivers/STM32H7xx_HAL_Driver/Src/stm32h7xx_hal_rcc.c ****   }
 249:Drivers/STM32H7xx_HAL_Driver/Src/stm32h7xx_hal_rcc.c **** 
 250:Drivers/STM32H7xx_HAL_Driver/Src/stm32h7xx_hal_rcc.c ****   /* Get Start Tick */
 251:Drivers/STM32H7xx_HAL_Driver/Src/stm32h7xx_hal_rcc.c ****   tickstart = HAL_GetTick();
 252:Drivers/STM32H7xx_HAL_Driver/Src/stm32h7xx_hal_rcc.c **** 
 253:Drivers/STM32H7xx_HAL_Driver/Src/stm32h7xx_hal_rcc.c ****   /* Clear PLLON bit */
 254:Drivers/STM32H7xx_HAL_Driver/Src/stm32h7xx_hal_rcc.c ****   CLEAR_BIT(RCC->CR, RCC_CR_PLL1ON);
 255:Drivers/STM32H7xx_HAL_Driver/Src/stm32h7xx_hal_rcc.c **** 
 256:Drivers/STM32H7xx_HAL_Driver/Src/stm32h7xx_hal_rcc.c ****   /* Wait till PLL is disabled */
 257:Drivers/STM32H7xx_HAL_Driver/Src/stm32h7xx_hal_rcc.c ****   while (READ_BIT(RCC->CR, RCC_CR_PLL1RDY) != 0U)
 258:Drivers/STM32H7xx_HAL_Driver/Src/stm32h7xx_hal_rcc.c ****   {
 259:Drivers/STM32H7xx_HAL_Driver/Src/stm32h7xx_hal_rcc.c ****     if ((HAL_GetTick() - tickstart) > PLL_TIMEOUT_VALUE)
 260:Drivers/STM32H7xx_HAL_Driver/Src/stm32h7xx_hal_rcc.c ****     {
 261:Drivers/STM32H7xx_HAL_Driver/Src/stm32h7xx_hal_rcc.c ****       return HAL_TIMEOUT;
 262:Drivers/STM32H7xx_HAL_Driver/Src/stm32h7xx_hal_rcc.c ****     }
 263:Drivers/STM32H7xx_HAL_Driver/Src/stm32h7xx_hal_rcc.c ****   }
 264:Drivers/STM32H7xx_HAL_Driver/Src/stm32h7xx_hal_rcc.c **** 
 265:Drivers/STM32H7xx_HAL_Driver/Src/stm32h7xx_hal_rcc.c ****   /* Get Start Tick */
 266:Drivers/STM32H7xx_HAL_Driver/Src/stm32h7xx_hal_rcc.c ****   tickstart = HAL_GetTick();
 267:Drivers/STM32H7xx_HAL_Driver/Src/stm32h7xx_hal_rcc.c **** 
 268:Drivers/STM32H7xx_HAL_Driver/Src/stm32h7xx_hal_rcc.c ****   /* Reset PLL2ON bit */
 269:Drivers/STM32H7xx_HAL_Driver/Src/stm32h7xx_hal_rcc.c ****   CLEAR_BIT(RCC->CR, RCC_CR_PLL2ON);
 270:Drivers/STM32H7xx_HAL_Driver/Src/stm32h7xx_hal_rcc.c **** 
 271:Drivers/STM32H7xx_HAL_Driver/Src/stm32h7xx_hal_rcc.c ****   /* Wait till PLL2 is disabled */
ARM GAS  /tmp/cconV3EI.s 			page 7


 272:Drivers/STM32H7xx_HAL_Driver/Src/stm32h7xx_hal_rcc.c ****   while (READ_BIT(RCC->CR, RCC_CR_PLL2RDY) != 0U)
 273:Drivers/STM32H7xx_HAL_Driver/Src/stm32h7xx_hal_rcc.c ****   {
 274:Drivers/STM32H7xx_HAL_Driver/Src/stm32h7xx_hal_rcc.c ****     if ((HAL_GetTick() - tickstart) > PLL_TIMEOUT_VALUE)
 275:Drivers/STM32H7xx_HAL_Driver/Src/stm32h7xx_hal_rcc.c ****     {
 276:Drivers/STM32H7xx_HAL_Driver/Src/stm32h7xx_hal_rcc.c ****       return HAL_TIMEOUT;
 277:Drivers/STM32H7xx_HAL_Driver/Src/stm32h7xx_hal_rcc.c ****     }
 278:Drivers/STM32H7xx_HAL_Driver/Src/stm32h7xx_hal_rcc.c ****   }
 279:Drivers/STM32H7xx_HAL_Driver/Src/stm32h7xx_hal_rcc.c **** 
 280:Drivers/STM32H7xx_HAL_Driver/Src/stm32h7xx_hal_rcc.c ****   /* Get Start Tick */
 281:Drivers/STM32H7xx_HAL_Driver/Src/stm32h7xx_hal_rcc.c ****   tickstart = HAL_GetTick();
 282:Drivers/STM32H7xx_HAL_Driver/Src/stm32h7xx_hal_rcc.c **** 
 283:Drivers/STM32H7xx_HAL_Driver/Src/stm32h7xx_hal_rcc.c ****   /* Reset PLL3 bit */
 284:Drivers/STM32H7xx_HAL_Driver/Src/stm32h7xx_hal_rcc.c ****   CLEAR_BIT(RCC->CR, RCC_CR_PLL3ON);
 285:Drivers/STM32H7xx_HAL_Driver/Src/stm32h7xx_hal_rcc.c **** 
 286:Drivers/STM32H7xx_HAL_Driver/Src/stm32h7xx_hal_rcc.c ****   /* Wait till PLL3 is disabled */
 287:Drivers/STM32H7xx_HAL_Driver/Src/stm32h7xx_hal_rcc.c ****   while (READ_BIT(RCC->CR, RCC_CR_PLL3RDY) != 0U)
 288:Drivers/STM32H7xx_HAL_Driver/Src/stm32h7xx_hal_rcc.c ****   {
 289:Drivers/STM32H7xx_HAL_Driver/Src/stm32h7xx_hal_rcc.c ****     if ((HAL_GetTick() - tickstart) > PLL_TIMEOUT_VALUE)
 290:Drivers/STM32H7xx_HAL_Driver/Src/stm32h7xx_hal_rcc.c ****     {
 291:Drivers/STM32H7xx_HAL_Driver/Src/stm32h7xx_hal_rcc.c ****       return HAL_TIMEOUT;
 292:Drivers/STM32H7xx_HAL_Driver/Src/stm32h7xx_hal_rcc.c ****     }
 293:Drivers/STM32H7xx_HAL_Driver/Src/stm32h7xx_hal_rcc.c ****   }
 294:Drivers/STM32H7xx_HAL_Driver/Src/stm32h7xx_hal_rcc.c **** 
 295:Drivers/STM32H7xx_HAL_Driver/Src/stm32h7xx_hal_rcc.c ****   /* Reset D1CFGR register */
 296:Drivers/STM32H7xx_HAL_Driver/Src/stm32h7xx_hal_rcc.c ****   CLEAR_REG(RCC->D1CFGR);
 297:Drivers/STM32H7xx_HAL_Driver/Src/stm32h7xx_hal_rcc.c **** 
 298:Drivers/STM32H7xx_HAL_Driver/Src/stm32h7xx_hal_rcc.c ****   /* Reset D2CFGR register */
 299:Drivers/STM32H7xx_HAL_Driver/Src/stm32h7xx_hal_rcc.c ****   CLEAR_REG(RCC->D2CFGR);
 300:Drivers/STM32H7xx_HAL_Driver/Src/stm32h7xx_hal_rcc.c **** 
 301:Drivers/STM32H7xx_HAL_Driver/Src/stm32h7xx_hal_rcc.c ****   /* Reset D3CFGR register */
 302:Drivers/STM32H7xx_HAL_Driver/Src/stm32h7xx_hal_rcc.c ****   CLEAR_REG(RCC->D3CFGR);
 303:Drivers/STM32H7xx_HAL_Driver/Src/stm32h7xx_hal_rcc.c **** 
 304:Drivers/STM32H7xx_HAL_Driver/Src/stm32h7xx_hal_rcc.c ****   /* Reset PLLCKSELR register to default value */
 305:Drivers/STM32H7xx_HAL_Driver/Src/stm32h7xx_hal_rcc.c ****   RCC->PLLCKSELR= RCC_PLLCKSELR_DIVM1_5|RCC_PLLCKSELR_DIVM2_5|RCC_PLLCKSELR_DIVM3_5;
 306:Drivers/STM32H7xx_HAL_Driver/Src/stm32h7xx_hal_rcc.c **** 
 307:Drivers/STM32H7xx_HAL_Driver/Src/stm32h7xx_hal_rcc.c ****   /* Reset PLLCFGR register to default value */
 308:Drivers/STM32H7xx_HAL_Driver/Src/stm32h7xx_hal_rcc.c ****   WRITE_REG(RCC->PLLCFGR, 0x01FF0000U);
 309:Drivers/STM32H7xx_HAL_Driver/Src/stm32h7xx_hal_rcc.c **** 
 310:Drivers/STM32H7xx_HAL_Driver/Src/stm32h7xx_hal_rcc.c ****   /* Reset PLL1DIVR register to default value */
 311:Drivers/STM32H7xx_HAL_Driver/Src/stm32h7xx_hal_rcc.c ****   WRITE_REG(RCC->PLL1DIVR,0x01010280U);
 312:Drivers/STM32H7xx_HAL_Driver/Src/stm32h7xx_hal_rcc.c **** 
 313:Drivers/STM32H7xx_HAL_Driver/Src/stm32h7xx_hal_rcc.c ****   /* Reset PLL1FRACR register */
 314:Drivers/STM32H7xx_HAL_Driver/Src/stm32h7xx_hal_rcc.c ****   CLEAR_REG(RCC->PLL1FRACR);
 315:Drivers/STM32H7xx_HAL_Driver/Src/stm32h7xx_hal_rcc.c **** 
 316:Drivers/STM32H7xx_HAL_Driver/Src/stm32h7xx_hal_rcc.c ****   /* Reset PLL2DIVR register to default value */
 317:Drivers/STM32H7xx_HAL_Driver/Src/stm32h7xx_hal_rcc.c ****   WRITE_REG(RCC->PLL2DIVR,0x01010280U);
 318:Drivers/STM32H7xx_HAL_Driver/Src/stm32h7xx_hal_rcc.c **** 
 319:Drivers/STM32H7xx_HAL_Driver/Src/stm32h7xx_hal_rcc.c ****   /* Reset PLL2FRACR register */
 320:Drivers/STM32H7xx_HAL_Driver/Src/stm32h7xx_hal_rcc.c ****   CLEAR_REG(RCC->PLL2FRACR);
 321:Drivers/STM32H7xx_HAL_Driver/Src/stm32h7xx_hal_rcc.c **** 
 322:Drivers/STM32H7xx_HAL_Driver/Src/stm32h7xx_hal_rcc.c ****   /* Reset PLL3DIVR register to default value */
 323:Drivers/STM32H7xx_HAL_Driver/Src/stm32h7xx_hal_rcc.c ****   WRITE_REG(RCC->PLL3DIVR,0x01010280U);
 324:Drivers/STM32H7xx_HAL_Driver/Src/stm32h7xx_hal_rcc.c **** 
 325:Drivers/STM32H7xx_HAL_Driver/Src/stm32h7xx_hal_rcc.c ****   /* Reset PLL3FRACR register */
 326:Drivers/STM32H7xx_HAL_Driver/Src/stm32h7xx_hal_rcc.c ****   CLEAR_REG(RCC->PLL3FRACR);
 327:Drivers/STM32H7xx_HAL_Driver/Src/stm32h7xx_hal_rcc.c **** 
 328:Drivers/STM32H7xx_HAL_Driver/Src/stm32h7xx_hal_rcc.c ****   /* Reset HSEBYP bit */
ARM GAS  /tmp/cconV3EI.s 			page 8


 329:Drivers/STM32H7xx_HAL_Driver/Src/stm32h7xx_hal_rcc.c ****   CLEAR_BIT(RCC->CR, RCC_CR_HSEBYP);
 330:Drivers/STM32H7xx_HAL_Driver/Src/stm32h7xx_hal_rcc.c **** 
 331:Drivers/STM32H7xx_HAL_Driver/Src/stm32h7xx_hal_rcc.c ****   /* Disable all interrupts */
 332:Drivers/STM32H7xx_HAL_Driver/Src/stm32h7xx_hal_rcc.c ****   CLEAR_REG(RCC->CIER);
 333:Drivers/STM32H7xx_HAL_Driver/Src/stm32h7xx_hal_rcc.c **** 
 334:Drivers/STM32H7xx_HAL_Driver/Src/stm32h7xx_hal_rcc.c ****   /* Clear all interrupts flags */
 335:Drivers/STM32H7xx_HAL_Driver/Src/stm32h7xx_hal_rcc.c ****   WRITE_REG(RCC->CICR,0xFFFFFFFFU);
 336:Drivers/STM32H7xx_HAL_Driver/Src/stm32h7xx_hal_rcc.c **** 
 337:Drivers/STM32H7xx_HAL_Driver/Src/stm32h7xx_hal_rcc.c ****   /* Reset all RSR flags */
 338:Drivers/STM32H7xx_HAL_Driver/Src/stm32h7xx_hal_rcc.c ****   SET_BIT(RCC->RSR, RCC_RSR_RMVF);
 339:Drivers/STM32H7xx_HAL_Driver/Src/stm32h7xx_hal_rcc.c **** 
 340:Drivers/STM32H7xx_HAL_Driver/Src/stm32h7xx_hal_rcc.c ****   return HAL_OK;
 341:Drivers/STM32H7xx_HAL_Driver/Src/stm32h7xx_hal_rcc.c **** }
  73              		.loc 1 341 1 view .LVU13
  74 0028 2046     		mov	r0, r4
  75 002a 38BD     		pop	{r3, r4, r5, pc}
  76              	.LVL5:
  77              	.L23:
 208:Drivers/STM32H7xx_HAL_Driver/Src/stm32h7xx_hal_rcc.c **** 
  78              		.loc 1 208 3 is_stmt 1 view .LVU14
  79 002c 484B     		ldr	r3, .L30
  80 002e 5A68     		ldr	r2, [r3, #4]
  81 0030 42F08042 		orr	r2, r2, #1073741824
  82 0034 5A60     		str	r2, [r3, #4]
 211:Drivers/STM32H7xx_HAL_Driver/Src/stm32h7xx_hal_rcc.c **** 
  83              		.loc 1 211 3 view .LVU15
  84 0036 0022     		movs	r2, #0
  85 0038 1A61     		str	r2, [r3, #16]
 214:Drivers/STM32H7xx_HAL_Driver/Src/stm32h7xx_hal_rcc.c **** 
  86              		.loc 1 214 3 view .LVU16
 214:Drivers/STM32H7xx_HAL_Driver/Src/stm32h7xx_hal_rcc.c **** 
  87              		.loc 1 214 19 is_stmt 0 view .LVU17
  88 003a 464B     		ldr	r3, .L30+4
  89 003c 464A     		ldr	r2, .L30+8
  90 003e 1A60     		str	r2, [r3]
 217:Drivers/STM32H7xx_HAL_Driver/Src/stm32h7xx_hal_rcc.c ****   {
  91              		.loc 1 217 3 is_stmt 1 view .LVU18
 217:Drivers/STM32H7xx_HAL_Driver/Src/stm32h7xx_hal_rcc.c ****   {
  92              		.loc 1 217 6 is_stmt 0 view .LVU19
  93 0040 464B     		ldr	r3, .L30+12
  94 0042 1868     		ldr	r0, [r3]
  95 0044 FFF7FEFF 		bl	HAL_InitTick
  96              	.LVL6:
 217:Drivers/STM32H7xx_HAL_Driver/Src/stm32h7xx_hal_rcc.c ****   {
  97              		.loc 1 217 5 view .LVU20
  98 0048 0446     		mov	r4, r0
  99              	.LVL7:
 217:Drivers/STM32H7xx_HAL_Driver/Src/stm32h7xx_hal_rcc.c ****   {
 100              		.loc 1 217 5 view .LVU21
 101 004a 08B1     		cbz	r0, .L24
 219:Drivers/STM32H7xx_HAL_Driver/Src/stm32h7xx_hal_rcc.c ****   }
 102              		.loc 1 219 12 view .LVU22
 103 004c 0124     		movs	r4, #1
 104 004e EBE7     		b	.L3
 105              	.L24:
 223:Drivers/STM32H7xx_HAL_Driver/Src/stm32h7xx_hal_rcc.c **** 
 106              		.loc 1 223 3 is_stmt 1 view .LVU23
ARM GAS  /tmp/cconV3EI.s 			page 9


 223:Drivers/STM32H7xx_HAL_Driver/Src/stm32h7xx_hal_rcc.c **** 
 107              		.loc 1 223 15 is_stmt 0 view .LVU24
 108 0050 FFF7FEFF 		bl	HAL_GetTick
 109              	.LVL8:
 110 0054 0546     		mov	r5, r0
 111              	.LVL9:
 226:Drivers/STM32H7xx_HAL_Driver/Src/stm32h7xx_hal_rcc.c ****   {
 112              		.loc 1 226 3 is_stmt 1 view .LVU25
 113              	.L5:
 226:Drivers/STM32H7xx_HAL_Driver/Src/stm32h7xx_hal_rcc.c ****   {
 114              		.loc 1 226 10 is_stmt 0 view .LVU26
 115 0056 3E4B     		ldr	r3, .L30
 116 0058 1B69     		ldr	r3, [r3, #16]
 226:Drivers/STM32H7xx_HAL_Driver/Src/stm32h7xx_hal_rcc.c ****   {
 117              		.loc 1 226 9 view .LVU27
 118 005a 13F0380F 		tst	r3, #56
 119 005e 08D0     		beq	.L25
 228:Drivers/STM32H7xx_HAL_Driver/Src/stm32h7xx_hal_rcc.c ****     {
 120              		.loc 1 228 5 is_stmt 1 view .LVU28
 228:Drivers/STM32H7xx_HAL_Driver/Src/stm32h7xx_hal_rcc.c ****     {
 121              		.loc 1 228 10 is_stmt 0 view .LVU29
 122 0060 FFF7FEFF 		bl	HAL_GetTick
 123              	.LVL10:
 228:Drivers/STM32H7xx_HAL_Driver/Src/stm32h7xx_hal_rcc.c ****     {
 124              		.loc 1 228 24 view .LVU30
 125 0064 401B     		subs	r0, r0, r5
 228:Drivers/STM32H7xx_HAL_Driver/Src/stm32h7xx_hal_rcc.c ****     {
 126              		.loc 1 228 8 view .LVU31
 127 0066 41F28833 		movw	r3, #5000
 128 006a 9842     		cmp	r0, r3
 129 006c F3D9     		bls	.L5
 230:Drivers/STM32H7xx_HAL_Driver/Src/stm32h7xx_hal_rcc.c ****     }
 130              		.loc 1 230 14 view .LVU32
 131 006e 0324     		movs	r4, #3
 132 0070 DAE7     		b	.L3
 133              	.L25:
 235:Drivers/STM32H7xx_HAL_Driver/Src/stm32h7xx_hal_rcc.c **** 
 134              		.loc 1 235 3 is_stmt 1 view .LVU33
 235:Drivers/STM32H7xx_HAL_Driver/Src/stm32h7xx_hal_rcc.c **** 
 135              		.loc 1 235 15 is_stmt 0 view .LVU34
 136 0072 FFF7FEFF 		bl	HAL_GetTick
 137              	.LVL11:
 138 0076 0546     		mov	r5, r0
 139              	.LVL12:
 238:Drivers/STM32H7xx_HAL_Driver/Src/stm32h7xx_hal_rcc.c ****   | RCC_CR_HSI48ON | RCC_CR_CSSHSEON);
 140              		.loc 1 238 3 is_stmt 1 view .LVU35
 141 0078 354A     		ldr	r2, .L30
 142 007a 1168     		ldr	r1, [r2]
 143 007c 384B     		ldr	r3, .L30+16
 144 007e 0B40     		ands	r3, r3, r1
 145 0080 1360     		str	r3, [r2]
 242:Drivers/STM32H7xx_HAL_Driver/Src/stm32h7xx_hal_rcc.c ****   {
 146              		.loc 1 242 3 view .LVU36
 147              	.LVL13:
 148              	.L7:
 242:Drivers/STM32H7xx_HAL_Driver/Src/stm32h7xx_hal_rcc.c ****   {
 149              		.loc 1 242 10 is_stmt 0 view .LVU37
ARM GAS  /tmp/cconV3EI.s 			page 10


 150 0082 334B     		ldr	r3, .L30
 151 0084 1B68     		ldr	r3, [r3]
 242:Drivers/STM32H7xx_HAL_Driver/Src/stm32h7xx_hal_rcc.c ****   {
 152              		.loc 1 242 9 view .LVU38
 153 0086 13F4003F 		tst	r3, #131072
 154 008a 06D0     		beq	.L26
 244:Drivers/STM32H7xx_HAL_Driver/Src/stm32h7xx_hal_rcc.c ****     {
 155              		.loc 1 244 5 is_stmt 1 view .LVU39
 244:Drivers/STM32H7xx_HAL_Driver/Src/stm32h7xx_hal_rcc.c ****     {
 156              		.loc 1 244 10 is_stmt 0 view .LVU40
 157 008c FFF7FEFF 		bl	HAL_GetTick
 158              	.LVL14:
 244:Drivers/STM32H7xx_HAL_Driver/Src/stm32h7xx_hal_rcc.c ****     {
 159              		.loc 1 244 24 view .LVU41
 160 0090 401B     		subs	r0, r0, r5
 244:Drivers/STM32H7xx_HAL_Driver/Src/stm32h7xx_hal_rcc.c ****     {
 161              		.loc 1 244 8 view .LVU42
 162 0092 6428     		cmp	r0, #100
 163 0094 F5D9     		bls	.L7
 246:Drivers/STM32H7xx_HAL_Driver/Src/stm32h7xx_hal_rcc.c ****     }
 164              		.loc 1 246 14 view .LVU43
 165 0096 0324     		movs	r4, #3
 166 0098 C6E7     		b	.L3
 167              	.L26:
 251:Drivers/STM32H7xx_HAL_Driver/Src/stm32h7xx_hal_rcc.c **** 
 168              		.loc 1 251 3 is_stmt 1 view .LVU44
 251:Drivers/STM32H7xx_HAL_Driver/Src/stm32h7xx_hal_rcc.c **** 
 169              		.loc 1 251 15 is_stmt 0 view .LVU45
 170 009a FFF7FEFF 		bl	HAL_GetTick
 171              	.LVL15:
 172 009e 0546     		mov	r5, r0
 173              	.LVL16:
 254:Drivers/STM32H7xx_HAL_Driver/Src/stm32h7xx_hal_rcc.c **** 
 174              		.loc 1 254 3 is_stmt 1 view .LVU46
 175 00a0 2B4A     		ldr	r2, .L30
 176 00a2 1368     		ldr	r3, [r2]
 177 00a4 23F08073 		bic	r3, r3, #16777216
 178 00a8 1360     		str	r3, [r2]
 257:Drivers/STM32H7xx_HAL_Driver/Src/stm32h7xx_hal_rcc.c ****   {
 179              		.loc 1 257 3 view .LVU47
 180              	.LVL17:
 181              	.L9:
 257:Drivers/STM32H7xx_HAL_Driver/Src/stm32h7xx_hal_rcc.c ****   {
 182              		.loc 1 257 10 is_stmt 0 view .LVU48
 183 00aa 294B     		ldr	r3, .L30
 184 00ac 1B68     		ldr	r3, [r3]
 257:Drivers/STM32H7xx_HAL_Driver/Src/stm32h7xx_hal_rcc.c ****   {
 185              		.loc 1 257 9 view .LVU49
 186 00ae 13F0007F 		tst	r3, #33554432
 187 00b2 06D0     		beq	.L27
 259:Drivers/STM32H7xx_HAL_Driver/Src/stm32h7xx_hal_rcc.c ****     {
 188              		.loc 1 259 5 is_stmt 1 view .LVU50
 259:Drivers/STM32H7xx_HAL_Driver/Src/stm32h7xx_hal_rcc.c ****     {
 189              		.loc 1 259 10 is_stmt 0 view .LVU51
 190 00b4 FFF7FEFF 		bl	HAL_GetTick
 191              	.LVL18:
 259:Drivers/STM32H7xx_HAL_Driver/Src/stm32h7xx_hal_rcc.c ****     {
ARM GAS  /tmp/cconV3EI.s 			page 11


 192              		.loc 1 259 24 view .LVU52
 193 00b8 401B     		subs	r0, r0, r5
 259:Drivers/STM32H7xx_HAL_Driver/Src/stm32h7xx_hal_rcc.c ****     {
 194              		.loc 1 259 8 view .LVU53
 195 00ba 0228     		cmp	r0, #2
 196 00bc F5D9     		bls	.L9
 261:Drivers/STM32H7xx_HAL_Driver/Src/stm32h7xx_hal_rcc.c ****     }
 197              		.loc 1 261 14 view .LVU54
 198 00be 0324     		movs	r4, #3
 199 00c0 B2E7     		b	.L3
 200              	.L27:
 266:Drivers/STM32H7xx_HAL_Driver/Src/stm32h7xx_hal_rcc.c **** 
 201              		.loc 1 266 3 is_stmt 1 view .LVU55
 266:Drivers/STM32H7xx_HAL_Driver/Src/stm32h7xx_hal_rcc.c **** 
 202              		.loc 1 266 15 is_stmt 0 view .LVU56
 203 00c2 FFF7FEFF 		bl	HAL_GetTick
 204              	.LVL19:
 205 00c6 0546     		mov	r5, r0
 206              	.LVL20:
 269:Drivers/STM32H7xx_HAL_Driver/Src/stm32h7xx_hal_rcc.c **** 
 207              		.loc 1 269 3 is_stmt 1 view .LVU57
 208 00c8 214A     		ldr	r2, .L30
 209 00ca 1368     		ldr	r3, [r2]
 210 00cc 23F08063 		bic	r3, r3, #67108864
 211 00d0 1360     		str	r3, [r2]
 272:Drivers/STM32H7xx_HAL_Driver/Src/stm32h7xx_hal_rcc.c ****   {
 212              		.loc 1 272 3 view .LVU58
 213              	.LVL21:
 214              	.L11:
 272:Drivers/STM32H7xx_HAL_Driver/Src/stm32h7xx_hal_rcc.c ****   {
 215              		.loc 1 272 10 is_stmt 0 view .LVU59
 216 00d2 1F4B     		ldr	r3, .L30
 217 00d4 1B68     		ldr	r3, [r3]
 272:Drivers/STM32H7xx_HAL_Driver/Src/stm32h7xx_hal_rcc.c ****   {
 218              		.loc 1 272 9 view .LVU60
 219 00d6 13F0006F 		tst	r3, #134217728
 220 00da 06D0     		beq	.L28
 274:Drivers/STM32H7xx_HAL_Driver/Src/stm32h7xx_hal_rcc.c ****     {
 221              		.loc 1 274 5 is_stmt 1 view .LVU61
 274:Drivers/STM32H7xx_HAL_Driver/Src/stm32h7xx_hal_rcc.c ****     {
 222              		.loc 1 274 10 is_stmt 0 view .LVU62
 223 00dc FFF7FEFF 		bl	HAL_GetTick
 224              	.LVL22:
 274:Drivers/STM32H7xx_HAL_Driver/Src/stm32h7xx_hal_rcc.c ****     {
 225              		.loc 1 274 24 view .LVU63
 226 00e0 401B     		subs	r0, r0, r5
 274:Drivers/STM32H7xx_HAL_Driver/Src/stm32h7xx_hal_rcc.c ****     {
 227              		.loc 1 274 8 view .LVU64
 228 00e2 0228     		cmp	r0, #2
 229 00e4 F5D9     		bls	.L11
 276:Drivers/STM32H7xx_HAL_Driver/Src/stm32h7xx_hal_rcc.c ****     }
 230              		.loc 1 276 14 view .LVU65
 231 00e6 0324     		movs	r4, #3
 232 00e8 9EE7     		b	.L3
 233              	.L28:
 281:Drivers/STM32H7xx_HAL_Driver/Src/stm32h7xx_hal_rcc.c **** 
 234              		.loc 1 281 3 is_stmt 1 view .LVU66
ARM GAS  /tmp/cconV3EI.s 			page 12


 281:Drivers/STM32H7xx_HAL_Driver/Src/stm32h7xx_hal_rcc.c **** 
 235              		.loc 1 281 15 is_stmt 0 view .LVU67
 236 00ea FFF7FEFF 		bl	HAL_GetTick
 237              	.LVL23:
 238 00ee 0546     		mov	r5, r0
 239              	.LVL24:
 284:Drivers/STM32H7xx_HAL_Driver/Src/stm32h7xx_hal_rcc.c **** 
 240              		.loc 1 284 3 is_stmt 1 view .LVU68
 241 00f0 174A     		ldr	r2, .L30
 242 00f2 1368     		ldr	r3, [r2]
 243 00f4 23F08053 		bic	r3, r3, #268435456
 244 00f8 1360     		str	r3, [r2]
 287:Drivers/STM32H7xx_HAL_Driver/Src/stm32h7xx_hal_rcc.c ****   {
 245              		.loc 1 287 3 view .LVU69
 246              	.LVL25:
 247              	.L13:
 287:Drivers/STM32H7xx_HAL_Driver/Src/stm32h7xx_hal_rcc.c ****   {
 248              		.loc 1 287 10 is_stmt 0 view .LVU70
 249 00fa 154B     		ldr	r3, .L30
 250 00fc 1B68     		ldr	r3, [r3]
 287:Drivers/STM32H7xx_HAL_Driver/Src/stm32h7xx_hal_rcc.c ****   {
 251              		.loc 1 287 9 view .LVU71
 252 00fe 13F0005F 		tst	r3, #536870912
 253 0102 06D0     		beq	.L29
 289:Drivers/STM32H7xx_HAL_Driver/Src/stm32h7xx_hal_rcc.c ****     {
 254              		.loc 1 289 5 is_stmt 1 view .LVU72
 289:Drivers/STM32H7xx_HAL_Driver/Src/stm32h7xx_hal_rcc.c ****     {
 255              		.loc 1 289 10 is_stmt 0 view .LVU73
 256 0104 FFF7FEFF 		bl	HAL_GetTick
 257              	.LVL26:
 289:Drivers/STM32H7xx_HAL_Driver/Src/stm32h7xx_hal_rcc.c ****     {
 258              		.loc 1 289 24 view .LVU74
 259 0108 401B     		subs	r0, r0, r5
 289:Drivers/STM32H7xx_HAL_Driver/Src/stm32h7xx_hal_rcc.c ****     {
 260              		.loc 1 289 8 view .LVU75
 261 010a 0228     		cmp	r0, #2
 262 010c F5D9     		bls	.L13
 291:Drivers/STM32H7xx_HAL_Driver/Src/stm32h7xx_hal_rcc.c ****     }
 263              		.loc 1 291 14 view .LVU76
 264 010e 0324     		movs	r4, #3
 265 0110 8AE7     		b	.L3
 266              	.L29:
 296:Drivers/STM32H7xx_HAL_Driver/Src/stm32h7xx_hal_rcc.c **** 
 267              		.loc 1 296 3 is_stmt 1 view .LVU77
 268 0112 0F4B     		ldr	r3, .L30
 269 0114 0022     		movs	r2, #0
 270 0116 9A61     		str	r2, [r3, #24]
 299:Drivers/STM32H7xx_HAL_Driver/Src/stm32h7xx_hal_rcc.c **** 
 271              		.loc 1 299 3 view .LVU78
 272 0118 DA61     		str	r2, [r3, #28]
 302:Drivers/STM32H7xx_HAL_Driver/Src/stm32h7xx_hal_rcc.c **** 
 273              		.loc 1 302 3 view .LVU79
 274 011a 1A62     		str	r2, [r3, #32]
 305:Drivers/STM32H7xx_HAL_Driver/Src/stm32h7xx_hal_rcc.c **** 
 275              		.loc 1 305 3 view .LVU80
 305:Drivers/STM32H7xx_HAL_Driver/Src/stm32h7xx_hal_rcc.c **** 
 276              		.loc 1 305 17 is_stmt 0 view .LVU81
ARM GAS  /tmp/cconV3EI.s 			page 13


 277 011c 1149     		ldr	r1, .L30+20
 278 011e 9962     		str	r1, [r3, #40]
 308:Drivers/STM32H7xx_HAL_Driver/Src/stm32h7xx_hal_rcc.c **** 
 279              		.loc 1 308 3 is_stmt 1 view .LVU82
 280 0120 1149     		ldr	r1, .L30+24
 281 0122 D962     		str	r1, [r3, #44]
 311:Drivers/STM32H7xx_HAL_Driver/Src/stm32h7xx_hal_rcc.c **** 
 282              		.loc 1 311 3 view .LVU83
 283 0124 1149     		ldr	r1, .L30+28
 284 0126 1963     		str	r1, [r3, #48]
 314:Drivers/STM32H7xx_HAL_Driver/Src/stm32h7xx_hal_rcc.c **** 
 285              		.loc 1 314 3 view .LVU84
 286 0128 5A63     		str	r2, [r3, #52]
 317:Drivers/STM32H7xx_HAL_Driver/Src/stm32h7xx_hal_rcc.c **** 
 287              		.loc 1 317 3 view .LVU85
 288 012a 9963     		str	r1, [r3, #56]
 320:Drivers/STM32H7xx_HAL_Driver/Src/stm32h7xx_hal_rcc.c **** 
 289              		.loc 1 320 3 view .LVU86
 290 012c DA63     		str	r2, [r3, #60]
 323:Drivers/STM32H7xx_HAL_Driver/Src/stm32h7xx_hal_rcc.c **** 
 291              		.loc 1 323 3 view .LVU87
 292 012e 1964     		str	r1, [r3, #64]
 326:Drivers/STM32H7xx_HAL_Driver/Src/stm32h7xx_hal_rcc.c **** 
 293              		.loc 1 326 3 view .LVU88
 294 0130 5A64     		str	r2, [r3, #68]
 329:Drivers/STM32H7xx_HAL_Driver/Src/stm32h7xx_hal_rcc.c **** 
 295              		.loc 1 329 3 view .LVU89
 296 0132 1968     		ldr	r1, [r3]
 297 0134 21F48021 		bic	r1, r1, #262144
 298 0138 1960     		str	r1, [r3]
 332:Drivers/STM32H7xx_HAL_Driver/Src/stm32h7xx_hal_rcc.c **** 
 299              		.loc 1 332 3 view .LVU90
 300 013a 1A66     		str	r2, [r3, #96]
 335:Drivers/STM32H7xx_HAL_Driver/Src/stm32h7xx_hal_rcc.c **** 
 301              		.loc 1 335 3 view .LVU91
 302 013c 4FF0FF32 		mov	r2, #-1
 303 0140 9A66     		str	r2, [r3, #104]
 338:Drivers/STM32H7xx_HAL_Driver/Src/stm32h7xx_hal_rcc.c **** 
 304              		.loc 1 338 3 view .LVU92
 305 0142 D3F8D020 		ldr	r2, [r3, #208]
 306 0146 42F48032 		orr	r2, r2, #65536
 307 014a C3F8D020 		str	r2, [r3, #208]
 340:Drivers/STM32H7xx_HAL_Driver/Src/stm32h7xx_hal_rcc.c **** }
 308              		.loc 1 340 3 view .LVU93
 340:Drivers/STM32H7xx_HAL_Driver/Src/stm32h7xx_hal_rcc.c **** }
 309              		.loc 1 340 10 is_stmt 0 view .LVU94
 310 014e 6BE7     		b	.L3
 311              	.L31:
 312              		.align	2
 313              	.L30:
 314 0150 00440258 		.word	1476543488
 315 0154 00000000 		.word	SystemCoreClock
 316 0158 0090D003 		.word	64000000
 317 015c 00000000 		.word	uwTickPrio
 318 0160 45EDF6FF 		.word	-594619
 319 0164 00020202 		.word	33686016
 320 0168 0000FF01 		.word	33488896
ARM GAS  /tmp/cconV3EI.s 			page 14


 321 016c 80020101 		.word	16843392
 322              		.cfi_endproc
 323              	.LFE141:
 325              		.section	.text.HAL_RCC_OscConfig,"ax",%progbits
 326              		.align	1
 327              		.weak	HAL_RCC_OscConfig
 328              		.syntax unified
 329              		.thumb
 330              		.thumb_func
 331              		.fpu fpv5-d16
 333              	HAL_RCC_OscConfig:
 334              	.LVL27:
 335              	.LFB142:
 342:Drivers/STM32H7xx_HAL_Driver/Src/stm32h7xx_hal_rcc.c **** 
 343:Drivers/STM32H7xx_HAL_Driver/Src/stm32h7xx_hal_rcc.c **** /**
 344:Drivers/STM32H7xx_HAL_Driver/Src/stm32h7xx_hal_rcc.c ****   * @brief  Initializes the RCC Oscillators according to the specified parameters in the
 345:Drivers/STM32H7xx_HAL_Driver/Src/stm32h7xx_hal_rcc.c ****   *         RCC_OscInitTypeDef.
 346:Drivers/STM32H7xx_HAL_Driver/Src/stm32h7xx_hal_rcc.c ****   * @param  RCC_OscInitStruct: pointer to an RCC_OscInitTypeDef structure that
 347:Drivers/STM32H7xx_HAL_Driver/Src/stm32h7xx_hal_rcc.c ****   *         contains the configuration information for the RCC Oscillators.
 348:Drivers/STM32H7xx_HAL_Driver/Src/stm32h7xx_hal_rcc.c ****   * @note   The PLL is not disabled when used as system clock.
 349:Drivers/STM32H7xx_HAL_Driver/Src/stm32h7xx_hal_rcc.c ****   * @note   Transitions LSE Bypass to LSE On and LSE On to LSE Bypass are not
 350:Drivers/STM32H7xx_HAL_Driver/Src/stm32h7xx_hal_rcc.c ****   *         supported by this function. User should request a transition to LSE Off
 351:Drivers/STM32H7xx_HAL_Driver/Src/stm32h7xx_hal_rcc.c ****   *         first and then LSE On or LSE Bypass.
 352:Drivers/STM32H7xx_HAL_Driver/Src/stm32h7xx_hal_rcc.c ****   * @note   Transition HSE Bypass to HSE On and HSE On to HSE Bypass are not
 353:Drivers/STM32H7xx_HAL_Driver/Src/stm32h7xx_hal_rcc.c ****   *         supported by this function. User should request a transition to HSE Off
 354:Drivers/STM32H7xx_HAL_Driver/Src/stm32h7xx_hal_rcc.c ****   *         first and then HSE On or HSE Bypass.
 355:Drivers/STM32H7xx_HAL_Driver/Src/stm32h7xx_hal_rcc.c ****   * @retval HAL status
 356:Drivers/STM32H7xx_HAL_Driver/Src/stm32h7xx_hal_rcc.c ****   */
 357:Drivers/STM32H7xx_HAL_Driver/Src/stm32h7xx_hal_rcc.c **** __weak HAL_StatusTypeDef HAL_RCC_OscConfig(RCC_OscInitTypeDef  *RCC_OscInitStruct)
 358:Drivers/STM32H7xx_HAL_Driver/Src/stm32h7xx_hal_rcc.c **** {
 336              		.loc 1 358 1 is_stmt 1 view -0
 337              		.cfi_startproc
 338              		@ args = 0, pretend = 0, frame = 0
 339              		@ frame_needed = 0, uses_anonymous_args = 0
 359:Drivers/STM32H7xx_HAL_Driver/Src/stm32h7xx_hal_rcc.c ****   uint32_t tickstart;
 340              		.loc 1 359 3 view .LVU96
 360:Drivers/STM32H7xx_HAL_Driver/Src/stm32h7xx_hal_rcc.c **** 
 361:Drivers/STM32H7xx_HAL_Driver/Src/stm32h7xx_hal_rcc.c ****     /* Check Null pointer */
 362:Drivers/STM32H7xx_HAL_Driver/Src/stm32h7xx_hal_rcc.c ****   if(RCC_OscInitStruct == NULL)
 341              		.loc 1 362 3 view .LVU97
 342              		.loc 1 362 5 is_stmt 0 view .LVU98
 343 0000 0028     		cmp	r0, #0
 344 0002 00F0CB82 		beq	.L101
 358:Drivers/STM32H7xx_HAL_Driver/Src/stm32h7xx_hal_rcc.c ****   uint32_t tickstart;
 345              		.loc 1 358 1 view .LVU99
 346 0006 38B5     		push	{r3, r4, r5, lr}
 347              	.LCFI1:
 348              		.cfi_def_cfa_offset 16
 349              		.cfi_offset 3, -16
 350              		.cfi_offset 4, -12
 351              		.cfi_offset 5, -8
 352              		.cfi_offset 14, -4
 353 0008 0446     		mov	r4, r0
 363:Drivers/STM32H7xx_HAL_Driver/Src/stm32h7xx_hal_rcc.c ****   {
 364:Drivers/STM32H7xx_HAL_Driver/Src/stm32h7xx_hal_rcc.c ****     return HAL_ERROR;
 365:Drivers/STM32H7xx_HAL_Driver/Src/stm32h7xx_hal_rcc.c ****   }
 366:Drivers/STM32H7xx_HAL_Driver/Src/stm32h7xx_hal_rcc.c **** 
ARM GAS  /tmp/cconV3EI.s 			page 15


 367:Drivers/STM32H7xx_HAL_Driver/Src/stm32h7xx_hal_rcc.c ****   /* Check the parameters */
 368:Drivers/STM32H7xx_HAL_Driver/Src/stm32h7xx_hal_rcc.c ****   assert_param(IS_RCC_OSCILLATORTYPE(RCC_OscInitStruct->OscillatorType));
 354              		.loc 1 368 3 is_stmt 1 view .LVU100
 369:Drivers/STM32H7xx_HAL_Driver/Src/stm32h7xx_hal_rcc.c ****   /*------------------------------- HSE Configuration ------------------------*/
 370:Drivers/STM32H7xx_HAL_Driver/Src/stm32h7xx_hal_rcc.c ****   if(((RCC_OscInitStruct->OscillatorType) & RCC_OSCILLATORTYPE_HSE) == RCC_OSCILLATORTYPE_HSE)
 355              		.loc 1 370 3 view .LVU101
 356              		.loc 1 370 25 is_stmt 0 view .LVU102
 357 000a 0368     		ldr	r3, [r0]
 358              		.loc 1 370 5 view .LVU103
 359 000c 13F0010F 		tst	r3, #1
 360 0010 25D0     		beq	.L34
 361              	.LBB2:
 371:Drivers/STM32H7xx_HAL_Driver/Src/stm32h7xx_hal_rcc.c ****   {
 372:Drivers/STM32H7xx_HAL_Driver/Src/stm32h7xx_hal_rcc.c ****     /* Check the parameters */
 373:Drivers/STM32H7xx_HAL_Driver/Src/stm32h7xx_hal_rcc.c ****     assert_param(IS_RCC_HSE(RCC_OscInitStruct->HSEState));
 362              		.loc 1 373 5 is_stmt 1 view .LVU104
 374:Drivers/STM32H7xx_HAL_Driver/Src/stm32h7xx_hal_rcc.c **** 
 375:Drivers/STM32H7xx_HAL_Driver/Src/stm32h7xx_hal_rcc.c ****     const uint32_t temp_sysclksrc = __HAL_RCC_GET_SYSCLK_SOURCE();
 363              		.loc 1 375 5 view .LVU105
 364              		.loc 1 375 37 is_stmt 0 view .LVU106
 365 0012 A94A     		ldr	r2, .L145
 366 0014 1369     		ldr	r3, [r2, #16]
 367              		.loc 1 375 20 view .LVU107
 368 0016 03F03803 		and	r3, r3, #56
 369              	.LVL28:
 376:Drivers/STM32H7xx_HAL_Driver/Src/stm32h7xx_hal_rcc.c ****     const uint32_t temp_pllckselr = RCC->PLLCKSELR;
 370              		.loc 1 376 5 is_stmt 1 view .LVU108
 371              		.loc 1 376 20 is_stmt 0 view .LVU109
 372 001a 926A     		ldr	r2, [r2, #40]
 373              	.LVL29:
 377:Drivers/STM32H7xx_HAL_Driver/Src/stm32h7xx_hal_rcc.c ****     /* When the HSE is used as system clock or clock source for PLL in these cases HSE will not dis
 378:Drivers/STM32H7xx_HAL_Driver/Src/stm32h7xx_hal_rcc.c ****     if((temp_sysclksrc == RCC_CFGR_SWS_HSE) || ((temp_sysclksrc == RCC_CFGR_SWS_PLL1) && ((temp_pll
 374              		.loc 1 378 5 is_stmt 1 view .LVU110
 375              		.loc 1 378 7 is_stmt 0 view .LVU111
 376 001c 102B     		cmp	r3, #16
 377 001e 15D0     		beq	.L35
 378              		.loc 1 378 45 discriminator 1 view .LVU112
 379 0020 182B     		cmp	r3, #24
 380 0022 0FD0     		beq	.L128
 381              	.LVL30:
 382              	.L36:
 379:Drivers/STM32H7xx_HAL_Driver/Src/stm32h7xx_hal_rcc.c ****     {
 380:Drivers/STM32H7xx_HAL_Driver/Src/stm32h7xx_hal_rcc.c ****       if((__HAL_RCC_GET_FLAG(RCC_FLAG_HSERDY) != 0U) && (RCC_OscInitStruct->HSEState == RCC_HSE_OFF
 381:Drivers/STM32H7xx_HAL_Driver/Src/stm32h7xx_hal_rcc.c ****       {
 382:Drivers/STM32H7xx_HAL_Driver/Src/stm32h7xx_hal_rcc.c ****         return HAL_ERROR;
 383:Drivers/STM32H7xx_HAL_Driver/Src/stm32h7xx_hal_rcc.c ****       }
 384:Drivers/STM32H7xx_HAL_Driver/Src/stm32h7xx_hal_rcc.c ****     }
 385:Drivers/STM32H7xx_HAL_Driver/Src/stm32h7xx_hal_rcc.c ****     else
 386:Drivers/STM32H7xx_HAL_Driver/Src/stm32h7xx_hal_rcc.c ****     {
 387:Drivers/STM32H7xx_HAL_Driver/Src/stm32h7xx_hal_rcc.c ****       /* Set the new HSE configuration ---------------------------------------*/
 388:Drivers/STM32H7xx_HAL_Driver/Src/stm32h7xx_hal_rcc.c ****       __HAL_RCC_HSE_CONFIG(RCC_OscInitStruct->HSEState);
 383              		.loc 1 388 7 is_stmt 1 view .LVU113
 384              		.loc 1 388 7 view .LVU114
 385 0024 6368     		ldr	r3, [r4, #4]
 386              	.LVL31:
 387              		.loc 1 388 7 is_stmt 0 view .LVU115
 388 0026 B3F5803F 		cmp	r3, #65536
ARM GAS  /tmp/cconV3EI.s 			page 16


 389 002a 3FD0     		beq	.L129
 390              		.loc 1 388 7 is_stmt 1 discriminator 2 view .LVU116
 391 002c 002B     		cmp	r3, #0
 392 002e 53D1     		bne	.L39
 393              		.loc 1 388 7 discriminator 3 view .LVU117
 394 0030 A14B     		ldr	r3, .L145
 395 0032 1A68     		ldr	r2, [r3]
 396 0034 22F48032 		bic	r2, r2, #65536
 397 0038 1A60     		str	r2, [r3]
 398              		.loc 1 388 7 discriminator 3 view .LVU118
 399 003a 1A68     		ldr	r2, [r3]
 400 003c 22F48022 		bic	r2, r2, #262144
 401 0040 1A60     		str	r2, [r3]
 402 0042 38E0     		b	.L38
 403              	.LVL32:
 404              	.L128:
 378:Drivers/STM32H7xx_HAL_Driver/Src/stm32h7xx_hal_rcc.c ****     {
 405              		.loc 1 378 107 is_stmt 0 discriminator 2 view .LVU119
 406 0044 02F00302 		and	r2, r2, #3
 407              	.LVL33:
 378:Drivers/STM32H7xx_HAL_Driver/Src/stm32h7xx_hal_rcc.c ****     {
 408              		.loc 1 378 87 discriminator 2 view .LVU120
 409 0048 022A     		cmp	r2, #2
 410 004a EBD1     		bne	.L36
 411              	.L35:
 380:Drivers/STM32H7xx_HAL_Driver/Src/stm32h7xx_hal_rcc.c ****       {
 412              		.loc 1 380 7 is_stmt 1 view .LVU121
 380:Drivers/STM32H7xx_HAL_Driver/Src/stm32h7xx_hal_rcc.c ****       {
 413              		.loc 1 380 11 is_stmt 0 view .LVU122
 414 004c 9A4B     		ldr	r3, .L145
 415              	.LVL34:
 380:Drivers/STM32H7xx_HAL_Driver/Src/stm32h7xx_hal_rcc.c ****       {
 416              		.loc 1 380 11 view .LVU123
 417 004e 1B68     		ldr	r3, [r3]
 380:Drivers/STM32H7xx_HAL_Driver/Src/stm32h7xx_hal_rcc.c ****       {
 418              		.loc 1 380 9 view .LVU124
 419 0050 13F4003F 		tst	r3, #131072
 420 0054 03D0     		beq	.L34
 380:Drivers/STM32H7xx_HAL_Driver/Src/stm32h7xx_hal_rcc.c ****       {
 421              		.loc 1 380 75 discriminator 1 view .LVU125
 422 0056 6368     		ldr	r3, [r4, #4]
 380:Drivers/STM32H7xx_HAL_Driver/Src/stm32h7xx_hal_rcc.c ****       {
 423              		.loc 1 380 54 discriminator 1 view .LVU126
 424 0058 002B     		cmp	r3, #0
 425 005a 00F0A182 		beq	.L130
 426              	.LVL35:
 427              	.L34:
 380:Drivers/STM32H7xx_HAL_Driver/Src/stm32h7xx_hal_rcc.c ****       {
 428              		.loc 1 380 54 discriminator 1 view .LVU127
 429              	.LBE2:
 389:Drivers/STM32H7xx_HAL_Driver/Src/stm32h7xx_hal_rcc.c **** 
 390:Drivers/STM32H7xx_HAL_Driver/Src/stm32h7xx_hal_rcc.c ****       /* Check the HSE State */
 391:Drivers/STM32H7xx_HAL_Driver/Src/stm32h7xx_hal_rcc.c ****       if(RCC_OscInitStruct->HSEState != RCC_HSE_OFF)
 392:Drivers/STM32H7xx_HAL_Driver/Src/stm32h7xx_hal_rcc.c ****       {
 393:Drivers/STM32H7xx_HAL_Driver/Src/stm32h7xx_hal_rcc.c ****         /* Get Start Tick*/
 394:Drivers/STM32H7xx_HAL_Driver/Src/stm32h7xx_hal_rcc.c ****         tickstart = HAL_GetTick();
 395:Drivers/STM32H7xx_HAL_Driver/Src/stm32h7xx_hal_rcc.c **** 
ARM GAS  /tmp/cconV3EI.s 			page 17


 396:Drivers/STM32H7xx_HAL_Driver/Src/stm32h7xx_hal_rcc.c ****         /* Wait till HSE is ready */
 397:Drivers/STM32H7xx_HAL_Driver/Src/stm32h7xx_hal_rcc.c ****         while(__HAL_RCC_GET_FLAG(RCC_FLAG_HSERDY) == 0U)
 398:Drivers/STM32H7xx_HAL_Driver/Src/stm32h7xx_hal_rcc.c ****         {
 399:Drivers/STM32H7xx_HAL_Driver/Src/stm32h7xx_hal_rcc.c ****           if((uint32_t) (HAL_GetTick() - tickstart ) > HSE_TIMEOUT_VALUE)
 400:Drivers/STM32H7xx_HAL_Driver/Src/stm32h7xx_hal_rcc.c ****           {
 401:Drivers/STM32H7xx_HAL_Driver/Src/stm32h7xx_hal_rcc.c ****             return HAL_TIMEOUT;
 402:Drivers/STM32H7xx_HAL_Driver/Src/stm32h7xx_hal_rcc.c ****           }
 403:Drivers/STM32H7xx_HAL_Driver/Src/stm32h7xx_hal_rcc.c ****         }
 404:Drivers/STM32H7xx_HAL_Driver/Src/stm32h7xx_hal_rcc.c ****       }
 405:Drivers/STM32H7xx_HAL_Driver/Src/stm32h7xx_hal_rcc.c ****       else
 406:Drivers/STM32H7xx_HAL_Driver/Src/stm32h7xx_hal_rcc.c ****       {
 407:Drivers/STM32H7xx_HAL_Driver/Src/stm32h7xx_hal_rcc.c ****         /* Get Start Tick*/
 408:Drivers/STM32H7xx_HAL_Driver/Src/stm32h7xx_hal_rcc.c ****         tickstart = HAL_GetTick();
 409:Drivers/STM32H7xx_HAL_Driver/Src/stm32h7xx_hal_rcc.c **** 
 410:Drivers/STM32H7xx_HAL_Driver/Src/stm32h7xx_hal_rcc.c ****         /* Wait till HSE is bypassed or disabled */
 411:Drivers/STM32H7xx_HAL_Driver/Src/stm32h7xx_hal_rcc.c ****         while(__HAL_RCC_GET_FLAG(RCC_FLAG_HSERDY) != 0U)
 412:Drivers/STM32H7xx_HAL_Driver/Src/stm32h7xx_hal_rcc.c ****         {
 413:Drivers/STM32H7xx_HAL_Driver/Src/stm32h7xx_hal_rcc.c ****           if((uint32_t) (HAL_GetTick() - tickstart ) > HSE_TIMEOUT_VALUE)
 414:Drivers/STM32H7xx_HAL_Driver/Src/stm32h7xx_hal_rcc.c ****           {
 415:Drivers/STM32H7xx_HAL_Driver/Src/stm32h7xx_hal_rcc.c ****             return HAL_TIMEOUT;
 416:Drivers/STM32H7xx_HAL_Driver/Src/stm32h7xx_hal_rcc.c ****           }
 417:Drivers/STM32H7xx_HAL_Driver/Src/stm32h7xx_hal_rcc.c ****         }
 418:Drivers/STM32H7xx_HAL_Driver/Src/stm32h7xx_hal_rcc.c ****       }
 419:Drivers/STM32H7xx_HAL_Driver/Src/stm32h7xx_hal_rcc.c ****     }
 420:Drivers/STM32H7xx_HAL_Driver/Src/stm32h7xx_hal_rcc.c ****   }
 421:Drivers/STM32H7xx_HAL_Driver/Src/stm32h7xx_hal_rcc.c ****   /*----------------------------- HSI Configuration --------------------------*/
 422:Drivers/STM32H7xx_HAL_Driver/Src/stm32h7xx_hal_rcc.c ****   if(((RCC_OscInitStruct->OscillatorType) & RCC_OSCILLATORTYPE_HSI) == RCC_OSCILLATORTYPE_HSI)
 430              		.loc 1 422 3 is_stmt 1 view .LVU128
 431              		.loc 1 422 25 is_stmt 0 view .LVU129
 432 005e 2368     		ldr	r3, [r4]
 433              		.loc 1 422 5 view .LVU130
 434 0060 13F0020F 		tst	r3, #2
 435 0064 00F08E80 		beq	.L46
 436              	.LBB3:
 423:Drivers/STM32H7xx_HAL_Driver/Src/stm32h7xx_hal_rcc.c ****   {
 424:Drivers/STM32H7xx_HAL_Driver/Src/stm32h7xx_hal_rcc.c ****     /* Check the parameters */
 425:Drivers/STM32H7xx_HAL_Driver/Src/stm32h7xx_hal_rcc.c ****     assert_param(IS_RCC_HSI(RCC_OscInitStruct->HSIState));
 437              		.loc 1 425 5 is_stmt 1 view .LVU131
 426:Drivers/STM32H7xx_HAL_Driver/Src/stm32h7xx_hal_rcc.c ****     assert_param(IS_RCC_HSICALIBRATION_VALUE(RCC_OscInitStruct->HSICalibrationValue));
 438              		.loc 1 426 5 view .LVU132
 427:Drivers/STM32H7xx_HAL_Driver/Src/stm32h7xx_hal_rcc.c **** 
 428:Drivers/STM32H7xx_HAL_Driver/Src/stm32h7xx_hal_rcc.c ****     /* When the HSI is used as system clock it will not disabled */
 429:Drivers/STM32H7xx_HAL_Driver/Src/stm32h7xx_hal_rcc.c ****     const uint32_t temp_sysclksrc = __HAL_RCC_GET_SYSCLK_SOURCE();
 439              		.loc 1 429 5 view .LVU133
 440              		.loc 1 429 37 is_stmt 0 view .LVU134
 441 0068 934A     		ldr	r2, .L145
 442 006a 1369     		ldr	r3, [r2, #16]
 443              	.LVL36:
 430:Drivers/STM32H7xx_HAL_Driver/Src/stm32h7xx_hal_rcc.c ****     const uint32_t temp_pllckselr = RCC->PLLCKSELR;
 444              		.loc 1 430 5 is_stmt 1 view .LVU135
 445              		.loc 1 430 20 is_stmt 0 view .LVU136
 446 006c 926A     		ldr	r2, [r2, #40]
 447              	.LVL37:
 431:Drivers/STM32H7xx_HAL_Driver/Src/stm32h7xx_hal_rcc.c ****     if((temp_sysclksrc == RCC_CFGR_SWS_HSI) || ((temp_sysclksrc == RCC_CFGR_SWS_PLL1) && ((temp_pll
 448              		.loc 1 431 5 is_stmt 1 view .LVU137
 449              		.loc 1 431 7 is_stmt 0 view .LVU138
 450 006e 13F03803 		ands	r3, r3, #56
ARM GAS  /tmp/cconV3EI.s 			page 18


 451              	.LVL38:
 452              		.loc 1 431 7 view .LVU139
 453 0072 5AD0     		beq	.L47
 454              		.loc 1 431 45 discriminator 1 view .LVU140
 455 0074 182B     		cmp	r3, #24
 456 0076 55D0     		beq	.L131
 457              	.L48:
 432:Drivers/STM32H7xx_HAL_Driver/Src/stm32h7xx_hal_rcc.c ****     {
 433:Drivers/STM32H7xx_HAL_Driver/Src/stm32h7xx_hal_rcc.c ****       /* When HSI is used as system clock it will not disabled */
 434:Drivers/STM32H7xx_HAL_Driver/Src/stm32h7xx_hal_rcc.c ****       if((__HAL_RCC_GET_FLAG(RCC_FLAG_HSIRDY) != 0U) && (RCC_OscInitStruct->HSIState == RCC_HSI_OFF
 435:Drivers/STM32H7xx_HAL_Driver/Src/stm32h7xx_hal_rcc.c ****       {
 436:Drivers/STM32H7xx_HAL_Driver/Src/stm32h7xx_hal_rcc.c ****         return HAL_ERROR;
 437:Drivers/STM32H7xx_HAL_Driver/Src/stm32h7xx_hal_rcc.c ****       }
 438:Drivers/STM32H7xx_HAL_Driver/Src/stm32h7xx_hal_rcc.c ****       /* Otherwise, just the calibration is allowed */
 439:Drivers/STM32H7xx_HAL_Driver/Src/stm32h7xx_hal_rcc.c ****       else
 440:Drivers/STM32H7xx_HAL_Driver/Src/stm32h7xx_hal_rcc.c ****       {
 441:Drivers/STM32H7xx_HAL_Driver/Src/stm32h7xx_hal_rcc.c ****       /* Enable the Internal High Speed oscillator (HSI, HSIDIV2,HSIDIV4, or HSIDIV8) */
 442:Drivers/STM32H7xx_HAL_Driver/Src/stm32h7xx_hal_rcc.c ****         __HAL_RCC_HSI_CONFIG(RCC_OscInitStruct->HSIState);
 443:Drivers/STM32H7xx_HAL_Driver/Src/stm32h7xx_hal_rcc.c **** 
 444:Drivers/STM32H7xx_HAL_Driver/Src/stm32h7xx_hal_rcc.c ****         /* Get Start Tick*/
 445:Drivers/STM32H7xx_HAL_Driver/Src/stm32h7xx_hal_rcc.c ****         tickstart = HAL_GetTick();
 446:Drivers/STM32H7xx_HAL_Driver/Src/stm32h7xx_hal_rcc.c **** 
 447:Drivers/STM32H7xx_HAL_Driver/Src/stm32h7xx_hal_rcc.c ****         /* Wait till HSI is ready */
 448:Drivers/STM32H7xx_HAL_Driver/Src/stm32h7xx_hal_rcc.c ****         while(__HAL_RCC_GET_FLAG(RCC_FLAG_HSIRDY) == 0U)
 449:Drivers/STM32H7xx_HAL_Driver/Src/stm32h7xx_hal_rcc.c ****         {
 450:Drivers/STM32H7xx_HAL_Driver/Src/stm32h7xx_hal_rcc.c ****           if((uint32_t) (HAL_GetTick() - tickstart ) > HSI_TIMEOUT_VALUE)
 451:Drivers/STM32H7xx_HAL_Driver/Src/stm32h7xx_hal_rcc.c ****           {
 452:Drivers/STM32H7xx_HAL_Driver/Src/stm32h7xx_hal_rcc.c ****             return HAL_TIMEOUT;
 453:Drivers/STM32H7xx_HAL_Driver/Src/stm32h7xx_hal_rcc.c ****           }
 454:Drivers/STM32H7xx_HAL_Driver/Src/stm32h7xx_hal_rcc.c ****         }
 455:Drivers/STM32H7xx_HAL_Driver/Src/stm32h7xx_hal_rcc.c ****         /* Adjusts the Internal High Speed oscillator (HSI) calibration value.*/
 456:Drivers/STM32H7xx_HAL_Driver/Src/stm32h7xx_hal_rcc.c ****         __HAL_RCC_HSI_CALIBRATIONVALUE_ADJUST(RCC_OscInitStruct->HSICalibrationValue);
 457:Drivers/STM32H7xx_HAL_Driver/Src/stm32h7xx_hal_rcc.c ****       }
 458:Drivers/STM32H7xx_HAL_Driver/Src/stm32h7xx_hal_rcc.c ****     }
 459:Drivers/STM32H7xx_HAL_Driver/Src/stm32h7xx_hal_rcc.c **** 
 460:Drivers/STM32H7xx_HAL_Driver/Src/stm32h7xx_hal_rcc.c ****     else
 461:Drivers/STM32H7xx_HAL_Driver/Src/stm32h7xx_hal_rcc.c ****     {
 462:Drivers/STM32H7xx_HAL_Driver/Src/stm32h7xx_hal_rcc.c ****       /* Check the HSI State */
 463:Drivers/STM32H7xx_HAL_Driver/Src/stm32h7xx_hal_rcc.c ****       if((RCC_OscInitStruct->HSIState)!= RCC_HSI_OFF)
 458              		.loc 1 463 7 is_stmt 1 view .LVU141
 459              		.loc 1 463 28 is_stmt 0 view .LVU142
 460 0078 E368     		ldr	r3, [r4, #12]
 461              	.LVL39:
 462              		.loc 1 463 9 view .LVU143
 463 007a 002B     		cmp	r3, #0
 464 007c 00F0C880 		beq	.L53
 464:Drivers/STM32H7xx_HAL_Driver/Src/stm32h7xx_hal_rcc.c ****       {
 465:Drivers/STM32H7xx_HAL_Driver/Src/stm32h7xx_hal_rcc.c ****      /* Enable the Internal High Speed oscillator (HSI, HSIDIV2,HSIDIV4, or HSIDIV8) */
 466:Drivers/STM32H7xx_HAL_Driver/Src/stm32h7xx_hal_rcc.c ****         __HAL_RCC_HSI_CONFIG(RCC_OscInitStruct->HSIState);
 465              		.loc 1 466 9 is_stmt 1 view .LVU144
 466 0080 8D49     		ldr	r1, .L145
 467 0082 0A68     		ldr	r2, [r1]
 468              	.LVL40:
 469              		.loc 1 466 9 is_stmt 0 view .LVU145
 470 0084 22F01902 		bic	r2, r2, #25
 471 0088 1343     		orrs	r3, r3, r2
 472 008a 0B60     		str	r3, [r1]
ARM GAS  /tmp/cconV3EI.s 			page 19


 467:Drivers/STM32H7xx_HAL_Driver/Src/stm32h7xx_hal_rcc.c **** 
 468:Drivers/STM32H7xx_HAL_Driver/Src/stm32h7xx_hal_rcc.c ****         /* Get Start Tick*/
 469:Drivers/STM32H7xx_HAL_Driver/Src/stm32h7xx_hal_rcc.c ****         tickstart = HAL_GetTick();
 473              		.loc 1 469 9 is_stmt 1 view .LVU146
 474              		.loc 1 469 21 is_stmt 0 view .LVU147
 475 008c FFF7FEFF 		bl	HAL_GetTick
 476              	.LVL41:
 477 0090 0546     		mov	r5, r0
 478              	.LVL42:
 470:Drivers/STM32H7xx_HAL_Driver/Src/stm32h7xx_hal_rcc.c **** 
 471:Drivers/STM32H7xx_HAL_Driver/Src/stm32h7xx_hal_rcc.c ****         /* Wait till HSI is ready */
 472:Drivers/STM32H7xx_HAL_Driver/Src/stm32h7xx_hal_rcc.c ****         while(__HAL_RCC_GET_FLAG(RCC_FLAG_HSIRDY) == 0U)
 479              		.loc 1 472 9 is_stmt 1 view .LVU148
 480              	.L54:
 481              		.loc 1 472 15 is_stmt 0 view .LVU149
 482 0092 894B     		ldr	r3, .L145
 483 0094 1B68     		ldr	r3, [r3]
 484              		.loc 1 472 14 view .LVU150
 485 0096 13F0040F 		tst	r3, #4
 486 009a 40F0A180 		bne	.L132
 473:Drivers/STM32H7xx_HAL_Driver/Src/stm32h7xx_hal_rcc.c ****         {
 474:Drivers/STM32H7xx_HAL_Driver/Src/stm32h7xx_hal_rcc.c ****           if((HAL_GetTick() - tickstart ) > HSI_TIMEOUT_VALUE)
 487              		.loc 1 474 11 is_stmt 1 view .LVU151
 488              		.loc 1 474 15 is_stmt 0 view .LVU152
 489 009e FFF7FEFF 		bl	HAL_GetTick
 490              	.LVL43:
 491              		.loc 1 474 29 view .LVU153
 492 00a2 401B     		subs	r0, r0, r5
 493              		.loc 1 474 13 view .LVU154
 494 00a4 0228     		cmp	r0, #2
 495 00a6 F4D9     		bls	.L54
 475:Drivers/STM32H7xx_HAL_Driver/Src/stm32h7xx_hal_rcc.c ****           {
 476:Drivers/STM32H7xx_HAL_Driver/Src/stm32h7xx_hal_rcc.c ****             return HAL_TIMEOUT;
 496              		.loc 1 476 20 view .LVU155
 497 00a8 0320     		movs	r0, #3
 498 00aa 80E2     		b	.L33
 499              	.LVL44:
 500              	.L129:
 501              		.loc 1 476 20 view .LVU156
 502              	.LBE3:
 503              	.LBB4:
 388:Drivers/STM32H7xx_HAL_Driver/Src/stm32h7xx_hal_rcc.c **** 
 504              		.loc 1 388 7 is_stmt 1 discriminator 1 view .LVU157
 505 00ac 824A     		ldr	r2, .L145
 506 00ae 1368     		ldr	r3, [r2]
 507 00b0 43F48033 		orr	r3, r3, #65536
 508 00b4 1360     		str	r3, [r2]
 509              	.L38:
 391:Drivers/STM32H7xx_HAL_Driver/Src/stm32h7xx_hal_rcc.c ****       {
 510              		.loc 1 391 7 view .LVU158
 391:Drivers/STM32H7xx_HAL_Driver/Src/stm32h7xx_hal_rcc.c ****       {
 511              		.loc 1 391 27 is_stmt 0 view .LVU159
 512 00b6 6368     		ldr	r3, [r4, #4]
 391:Drivers/STM32H7xx_HAL_Driver/Src/stm32h7xx_hal_rcc.c ****       {
 513              		.loc 1 391 9 view .LVU160
 514 00b8 2BB3     		cbz	r3, .L41
 394:Drivers/STM32H7xx_HAL_Driver/Src/stm32h7xx_hal_rcc.c **** 
ARM GAS  /tmp/cconV3EI.s 			page 20


 515              		.loc 1 394 9 is_stmt 1 view .LVU161
 394:Drivers/STM32H7xx_HAL_Driver/Src/stm32h7xx_hal_rcc.c **** 
 516              		.loc 1 394 21 is_stmt 0 view .LVU162
 517 00ba FFF7FEFF 		bl	HAL_GetTick
 518              	.LVL45:
 394:Drivers/STM32H7xx_HAL_Driver/Src/stm32h7xx_hal_rcc.c **** 
 519              		.loc 1 394 21 view .LVU163
 520 00be 0546     		mov	r5, r0
 521              	.LVL46:
 397:Drivers/STM32H7xx_HAL_Driver/Src/stm32h7xx_hal_rcc.c ****         {
 522              		.loc 1 397 9 is_stmt 1 view .LVU164
 523              	.L42:
 397:Drivers/STM32H7xx_HAL_Driver/Src/stm32h7xx_hal_rcc.c ****         {
 524              		.loc 1 397 15 is_stmt 0 view .LVU165
 525 00c0 7D4B     		ldr	r3, .L145
 526 00c2 1B68     		ldr	r3, [r3]
 397:Drivers/STM32H7xx_HAL_Driver/Src/stm32h7xx_hal_rcc.c ****         {
 527              		.loc 1 397 14 view .LVU166
 528 00c4 13F4003F 		tst	r3, #131072
 529 00c8 C9D1     		bne	.L34
 399:Drivers/STM32H7xx_HAL_Driver/Src/stm32h7xx_hal_rcc.c ****           {
 530              		.loc 1 399 11 is_stmt 1 view .LVU167
 399:Drivers/STM32H7xx_HAL_Driver/Src/stm32h7xx_hal_rcc.c ****           {
 531              		.loc 1 399 26 is_stmt 0 view .LVU168
 532 00ca FFF7FEFF 		bl	HAL_GetTick
 533              	.LVL47:
 399:Drivers/STM32H7xx_HAL_Driver/Src/stm32h7xx_hal_rcc.c ****           {
 534              		.loc 1 399 40 view .LVU169
 535 00ce 401B     		subs	r0, r0, r5
 399:Drivers/STM32H7xx_HAL_Driver/Src/stm32h7xx_hal_rcc.c ****           {
 536              		.loc 1 399 13 view .LVU170
 537 00d0 6428     		cmp	r0, #100
 538 00d2 F5D9     		bls	.L42
 401:Drivers/STM32H7xx_HAL_Driver/Src/stm32h7xx_hal_rcc.c ****           }
 539              		.loc 1 401 20 view .LVU171
 540 00d4 0320     		movs	r0, #3
 541 00d6 6AE2     		b	.L33
 542              	.LVL48:
 543              	.L39:
 388:Drivers/STM32H7xx_HAL_Driver/Src/stm32h7xx_hal_rcc.c **** 
 544              		.loc 1 388 7 is_stmt 1 discriminator 4 view .LVU172
 545 00d8 B3F5A02F 		cmp	r3, #327680
 546 00dc 09D0     		beq	.L133
 388:Drivers/STM32H7xx_HAL_Driver/Src/stm32h7xx_hal_rcc.c **** 
 547              		.loc 1 388 7 discriminator 6 view .LVU173
 548 00de 764B     		ldr	r3, .L145
 549 00e0 1A68     		ldr	r2, [r3]
 550 00e2 22F48032 		bic	r2, r2, #65536
 551 00e6 1A60     		str	r2, [r3]
 388:Drivers/STM32H7xx_HAL_Driver/Src/stm32h7xx_hal_rcc.c **** 
 552              		.loc 1 388 7 discriminator 6 view .LVU174
 553 00e8 1A68     		ldr	r2, [r3]
 554 00ea 22F48022 		bic	r2, r2, #262144
 555 00ee 1A60     		str	r2, [r3]
 556 00f0 E1E7     		b	.L38
 557              	.L133:
 388:Drivers/STM32H7xx_HAL_Driver/Src/stm32h7xx_hal_rcc.c **** 
ARM GAS  /tmp/cconV3EI.s 			page 21


 558              		.loc 1 388 7 discriminator 5 view .LVU175
 559 00f2 714B     		ldr	r3, .L145
 560 00f4 1A68     		ldr	r2, [r3]
 561 00f6 42F48022 		orr	r2, r2, #262144
 562 00fa 1A60     		str	r2, [r3]
 388:Drivers/STM32H7xx_HAL_Driver/Src/stm32h7xx_hal_rcc.c **** 
 563              		.loc 1 388 7 discriminator 5 view .LVU176
 564 00fc 1A68     		ldr	r2, [r3]
 565 00fe 42F48032 		orr	r2, r2, #65536
 566 0102 1A60     		str	r2, [r3]
 567 0104 D7E7     		b	.L38
 568              	.L41:
 408:Drivers/STM32H7xx_HAL_Driver/Src/stm32h7xx_hal_rcc.c **** 
 569              		.loc 1 408 9 view .LVU177
 408:Drivers/STM32H7xx_HAL_Driver/Src/stm32h7xx_hal_rcc.c **** 
 570              		.loc 1 408 21 is_stmt 0 view .LVU178
 571 0106 FFF7FEFF 		bl	HAL_GetTick
 572              	.LVL49:
 408:Drivers/STM32H7xx_HAL_Driver/Src/stm32h7xx_hal_rcc.c **** 
 573              		.loc 1 408 21 view .LVU179
 574 010a 0546     		mov	r5, r0
 575              	.LVL50:
 411:Drivers/STM32H7xx_HAL_Driver/Src/stm32h7xx_hal_rcc.c ****         {
 576              		.loc 1 411 9 is_stmt 1 view .LVU180
 577              	.L44:
 411:Drivers/STM32H7xx_HAL_Driver/Src/stm32h7xx_hal_rcc.c ****         {
 578              		.loc 1 411 15 is_stmt 0 view .LVU181
 579 010c 6A4B     		ldr	r3, .L145
 580 010e 1B68     		ldr	r3, [r3]
 411:Drivers/STM32H7xx_HAL_Driver/Src/stm32h7xx_hal_rcc.c ****         {
 581              		.loc 1 411 14 view .LVU182
 582 0110 13F4003F 		tst	r3, #131072
 583 0114 A3D0     		beq	.L34
 413:Drivers/STM32H7xx_HAL_Driver/Src/stm32h7xx_hal_rcc.c ****           {
 584              		.loc 1 413 11 is_stmt 1 view .LVU183
 413:Drivers/STM32H7xx_HAL_Driver/Src/stm32h7xx_hal_rcc.c ****           {
 585              		.loc 1 413 26 is_stmt 0 view .LVU184
 586 0116 FFF7FEFF 		bl	HAL_GetTick
 587              	.LVL51:
 413:Drivers/STM32H7xx_HAL_Driver/Src/stm32h7xx_hal_rcc.c ****           {
 588              		.loc 1 413 40 view .LVU185
 589 011a 401B     		subs	r0, r0, r5
 413:Drivers/STM32H7xx_HAL_Driver/Src/stm32h7xx_hal_rcc.c ****           {
 590              		.loc 1 413 13 view .LVU186
 591 011c 6428     		cmp	r0, #100
 592 011e F5D9     		bls	.L44
 415:Drivers/STM32H7xx_HAL_Driver/Src/stm32h7xx_hal_rcc.c ****           }
 593              		.loc 1 415 20 view .LVU187
 594 0120 0320     		movs	r0, #3
 595 0122 44E2     		b	.L33
 596              	.LVL52:
 597              	.L131:
 415:Drivers/STM32H7xx_HAL_Driver/Src/stm32h7xx_hal_rcc.c ****           }
 598              		.loc 1 415 20 view .LVU188
 599              	.LBE4:
 600              	.LBB5:
 431:Drivers/STM32H7xx_HAL_Driver/Src/stm32h7xx_hal_rcc.c ****     {
ARM GAS  /tmp/cconV3EI.s 			page 22


 601              		.loc 1 431 87 discriminator 2 view .LVU189
 602 0124 12F0030F 		tst	r2, #3
 603 0128 A6D1     		bne	.L48
 604              	.L47:
 434:Drivers/STM32H7xx_HAL_Driver/Src/stm32h7xx_hal_rcc.c ****       {
 605              		.loc 1 434 7 is_stmt 1 view .LVU190
 434:Drivers/STM32H7xx_HAL_Driver/Src/stm32h7xx_hal_rcc.c ****       {
 606              		.loc 1 434 11 is_stmt 0 view .LVU191
 607 012a 634B     		ldr	r3, .L145
 608              	.LVL53:
 434:Drivers/STM32H7xx_HAL_Driver/Src/stm32h7xx_hal_rcc.c ****       {
 609              		.loc 1 434 11 view .LVU192
 610 012c 1B68     		ldr	r3, [r3]
 434:Drivers/STM32H7xx_HAL_Driver/Src/stm32h7xx_hal_rcc.c ****       {
 611              		.loc 1 434 9 view .LVU193
 612 012e 13F0040F 		tst	r3, #4
 613 0132 03D0     		beq	.L49
 434:Drivers/STM32H7xx_HAL_Driver/Src/stm32h7xx_hal_rcc.c ****       {
 614              		.loc 1 434 75 discriminator 1 view .LVU194
 615 0134 E368     		ldr	r3, [r4, #12]
 434:Drivers/STM32H7xx_HAL_Driver/Src/stm32h7xx_hal_rcc.c ****       {
 616              		.loc 1 434 54 discriminator 1 view .LVU195
 617 0136 002B     		cmp	r3, #0
 618 0138 00F03482 		beq	.L105
 619              	.L49:
 442:Drivers/STM32H7xx_HAL_Driver/Src/stm32h7xx_hal_rcc.c **** 
 620              		.loc 1 442 9 is_stmt 1 view .LVU196
 621 013c 5E4A     		ldr	r2, .L145
 622              	.LVL54:
 442:Drivers/STM32H7xx_HAL_Driver/Src/stm32h7xx_hal_rcc.c **** 
 623              		.loc 1 442 9 is_stmt 0 view .LVU197
 624 013e 1368     		ldr	r3, [r2]
 625 0140 23F01903 		bic	r3, r3, #25
 626 0144 E168     		ldr	r1, [r4, #12]
 627 0146 0B43     		orrs	r3, r3, r1
 628 0148 1360     		str	r3, [r2]
 445:Drivers/STM32H7xx_HAL_Driver/Src/stm32h7xx_hal_rcc.c **** 
 629              		.loc 1 445 9 is_stmt 1 view .LVU198
 445:Drivers/STM32H7xx_HAL_Driver/Src/stm32h7xx_hal_rcc.c **** 
 630              		.loc 1 445 21 is_stmt 0 view .LVU199
 631 014a FFF7FEFF 		bl	HAL_GetTick
 632              	.LVL55:
 633 014e 0546     		mov	r5, r0
 634              	.LVL56:
 448:Drivers/STM32H7xx_HAL_Driver/Src/stm32h7xx_hal_rcc.c ****         {
 635              		.loc 1 448 9 is_stmt 1 view .LVU200
 636              	.L50:
 448:Drivers/STM32H7xx_HAL_Driver/Src/stm32h7xx_hal_rcc.c ****         {
 637              		.loc 1 448 15 is_stmt 0 view .LVU201
 638 0150 594B     		ldr	r3, .L145
 639 0152 1B68     		ldr	r3, [r3]
 448:Drivers/STM32H7xx_HAL_Driver/Src/stm32h7xx_hal_rcc.c ****         {
 640              		.loc 1 448 14 view .LVU202
 641 0154 13F0040F 		tst	r3, #4
 642 0158 06D1     		bne	.L134
 450:Drivers/STM32H7xx_HAL_Driver/Src/stm32h7xx_hal_rcc.c ****           {
 643              		.loc 1 450 11 is_stmt 1 view .LVU203
ARM GAS  /tmp/cconV3EI.s 			page 23


 450:Drivers/STM32H7xx_HAL_Driver/Src/stm32h7xx_hal_rcc.c ****           {
 644              		.loc 1 450 26 is_stmt 0 view .LVU204
 645 015a FFF7FEFF 		bl	HAL_GetTick
 646              	.LVL57:
 450:Drivers/STM32H7xx_HAL_Driver/Src/stm32h7xx_hal_rcc.c ****           {
 647              		.loc 1 450 40 view .LVU205
 648 015e 401B     		subs	r0, r0, r5
 450:Drivers/STM32H7xx_HAL_Driver/Src/stm32h7xx_hal_rcc.c ****           {
 649              		.loc 1 450 13 view .LVU206
 650 0160 0228     		cmp	r0, #2
 651 0162 F5D9     		bls	.L50
 452:Drivers/STM32H7xx_HAL_Driver/Src/stm32h7xx_hal_rcc.c ****           }
 652              		.loc 1 452 20 view .LVU207
 653 0164 0320     		movs	r0, #3
 654 0166 22E2     		b	.L33
 655              	.L134:
 456:Drivers/STM32H7xx_HAL_Driver/Src/stm32h7xx_hal_rcc.c ****       }
 656              		.loc 1 456 9 is_stmt 1 view .LVU208
 456:Drivers/STM32H7xx_HAL_Driver/Src/stm32h7xx_hal_rcc.c ****       }
 657              		.loc 1 456 9 view .LVU209
 658 0168 FFF7FEFF 		bl	HAL_GetREVID
 659              	.LVL58:
 660 016c 41F20303 		movw	r3, #4099
 661 0170 9842     		cmp	r0, r3
 662 0172 2CD8     		bhi	.L52
 456:Drivers/STM32H7xx_HAL_Driver/Src/stm32h7xx_hal_rcc.c ****       }
 663              		.loc 1 456 9 discriminator 1 view .LVU210
 664 0174 504A     		ldr	r2, .L145
 665 0176 5368     		ldr	r3, [r2, #4]
 666 0178 23F47C33 		bic	r3, r3, #258048
 667 017c 2169     		ldr	r1, [r4, #16]
 668 017e 43EA0133 		orr	r3, r3, r1, lsl #12
 669 0182 5360     		str	r3, [r2, #4]
 670              	.LVL59:
 671              	.L46:
 456:Drivers/STM32H7xx_HAL_Driver/Src/stm32h7xx_hal_rcc.c ****       }
 672              		.loc 1 456 9 is_stmt 0 discriminator 1 view .LVU211
 673              	.LBE5:
 477:Drivers/STM32H7xx_HAL_Driver/Src/stm32h7xx_hal_rcc.c ****           }
 478:Drivers/STM32H7xx_HAL_Driver/Src/stm32h7xx_hal_rcc.c ****         }
 479:Drivers/STM32H7xx_HAL_Driver/Src/stm32h7xx_hal_rcc.c **** 
 480:Drivers/STM32H7xx_HAL_Driver/Src/stm32h7xx_hal_rcc.c ****         /* Adjusts the Internal High Speed oscillator (HSI) calibration value.*/
 481:Drivers/STM32H7xx_HAL_Driver/Src/stm32h7xx_hal_rcc.c ****         __HAL_RCC_HSI_CALIBRATIONVALUE_ADJUST(RCC_OscInitStruct->HSICalibrationValue);
 482:Drivers/STM32H7xx_HAL_Driver/Src/stm32h7xx_hal_rcc.c ****       }
 483:Drivers/STM32H7xx_HAL_Driver/Src/stm32h7xx_hal_rcc.c ****       else
 484:Drivers/STM32H7xx_HAL_Driver/Src/stm32h7xx_hal_rcc.c ****       {
 485:Drivers/STM32H7xx_HAL_Driver/Src/stm32h7xx_hal_rcc.c ****         /* Disable the Internal High Speed oscillator (HSI). */
 486:Drivers/STM32H7xx_HAL_Driver/Src/stm32h7xx_hal_rcc.c ****         __HAL_RCC_HSI_DISABLE();
 487:Drivers/STM32H7xx_HAL_Driver/Src/stm32h7xx_hal_rcc.c **** 
 488:Drivers/STM32H7xx_HAL_Driver/Src/stm32h7xx_hal_rcc.c ****         /* Get Start Tick*/
 489:Drivers/STM32H7xx_HAL_Driver/Src/stm32h7xx_hal_rcc.c ****         tickstart = HAL_GetTick();
 490:Drivers/STM32H7xx_HAL_Driver/Src/stm32h7xx_hal_rcc.c **** 
 491:Drivers/STM32H7xx_HAL_Driver/Src/stm32h7xx_hal_rcc.c ****         /* Wait till HSI is ready */
 492:Drivers/STM32H7xx_HAL_Driver/Src/stm32h7xx_hal_rcc.c ****         while(__HAL_RCC_GET_FLAG(RCC_FLAG_HSIRDY) != 0U)
 493:Drivers/STM32H7xx_HAL_Driver/Src/stm32h7xx_hal_rcc.c ****         {
 494:Drivers/STM32H7xx_HAL_Driver/Src/stm32h7xx_hal_rcc.c ****           if((HAL_GetTick() - tickstart ) > HSI_TIMEOUT_VALUE)
 495:Drivers/STM32H7xx_HAL_Driver/Src/stm32h7xx_hal_rcc.c ****           {
ARM GAS  /tmp/cconV3EI.s 			page 24


 496:Drivers/STM32H7xx_HAL_Driver/Src/stm32h7xx_hal_rcc.c ****             return HAL_TIMEOUT;
 497:Drivers/STM32H7xx_HAL_Driver/Src/stm32h7xx_hal_rcc.c ****           }
 498:Drivers/STM32H7xx_HAL_Driver/Src/stm32h7xx_hal_rcc.c ****         }
 499:Drivers/STM32H7xx_HAL_Driver/Src/stm32h7xx_hal_rcc.c ****       }
 500:Drivers/STM32H7xx_HAL_Driver/Src/stm32h7xx_hal_rcc.c ****     }
 501:Drivers/STM32H7xx_HAL_Driver/Src/stm32h7xx_hal_rcc.c ****   }
 502:Drivers/STM32H7xx_HAL_Driver/Src/stm32h7xx_hal_rcc.c ****   /*----------------------------- CSI Configuration --------------------------*/
 503:Drivers/STM32H7xx_HAL_Driver/Src/stm32h7xx_hal_rcc.c ****   if(((RCC_OscInitStruct->OscillatorType) & RCC_OSCILLATORTYPE_CSI) == RCC_OSCILLATORTYPE_CSI)
 674              		.loc 1 503 3 is_stmt 1 view .LVU212
 675              		.loc 1 503 25 is_stmt 0 view .LVU213
 676 0184 2368     		ldr	r3, [r4]
 677              		.loc 1 503 5 view .LVU214
 678 0186 13F0100F 		tst	r3, #16
 679 018a 70D0     		beq	.L59
 680              	.LBB6:
 504:Drivers/STM32H7xx_HAL_Driver/Src/stm32h7xx_hal_rcc.c ****   {
 505:Drivers/STM32H7xx_HAL_Driver/Src/stm32h7xx_hal_rcc.c ****     /* Check the parameters */
 506:Drivers/STM32H7xx_HAL_Driver/Src/stm32h7xx_hal_rcc.c ****     assert_param(IS_RCC_CSI(RCC_OscInitStruct->CSIState));
 681              		.loc 1 506 5 is_stmt 1 view .LVU215
 507:Drivers/STM32H7xx_HAL_Driver/Src/stm32h7xx_hal_rcc.c ****     assert_param(IS_RCC_CSICALIBRATION_VALUE(RCC_OscInitStruct->CSICalibrationValue));
 682              		.loc 1 507 5 view .LVU216
 508:Drivers/STM32H7xx_HAL_Driver/Src/stm32h7xx_hal_rcc.c **** 
 509:Drivers/STM32H7xx_HAL_Driver/Src/stm32h7xx_hal_rcc.c ****     /* When the CSI is used as system clock it will not disabled */
 510:Drivers/STM32H7xx_HAL_Driver/Src/stm32h7xx_hal_rcc.c ****     const uint32_t temp_sysclksrc = __HAL_RCC_GET_SYSCLK_SOURCE();
 683              		.loc 1 510 5 view .LVU217
 684              		.loc 1 510 37 is_stmt 0 view .LVU218
 685 018c 4A4A     		ldr	r2, .L145
 686 018e 1369     		ldr	r3, [r2, #16]
 687              		.loc 1 510 20 view .LVU219
 688 0190 03F03803 		and	r3, r3, #56
 689              	.LVL60:
 511:Drivers/STM32H7xx_HAL_Driver/Src/stm32h7xx_hal_rcc.c ****     const uint32_t temp_pllckselr = RCC->PLLCKSELR;
 690              		.loc 1 511 5 is_stmt 1 view .LVU220
 691              		.loc 1 511 20 is_stmt 0 view .LVU221
 692 0194 926A     		ldr	r2, [r2, #40]
 693              	.LVL61:
 512:Drivers/STM32H7xx_HAL_Driver/Src/stm32h7xx_hal_rcc.c ****     if((temp_sysclksrc == RCC_CFGR_SWS_CSI) || ((temp_sysclksrc == RCC_CFGR_SWS_PLL1) && ((temp_pll
 694              		.loc 1 512 5 is_stmt 1 view .LVU222
 695              		.loc 1 512 7 is_stmt 0 view .LVU223
 696 0196 082B     		cmp	r3, #8
 697 0198 52D0     		beq	.L60
 698              		.loc 1 512 45 discriminator 1 view .LVU224
 699 019a 182B     		cmp	r3, #24
 700 019c 4CD0     		beq	.L135
 701              	.LVL62:
 702              	.L61:
 513:Drivers/STM32H7xx_HAL_Driver/Src/stm32h7xx_hal_rcc.c ****     {
 514:Drivers/STM32H7xx_HAL_Driver/Src/stm32h7xx_hal_rcc.c ****       /* When CSI is used as system clock it will not disabled */
 515:Drivers/STM32H7xx_HAL_Driver/Src/stm32h7xx_hal_rcc.c ****       if((__HAL_RCC_GET_FLAG(RCC_FLAG_CSIRDY) != 0U) && (RCC_OscInitStruct->CSIState != RCC_CSI_ON)
 516:Drivers/STM32H7xx_HAL_Driver/Src/stm32h7xx_hal_rcc.c ****       {
 517:Drivers/STM32H7xx_HAL_Driver/Src/stm32h7xx_hal_rcc.c ****         return HAL_ERROR;
 518:Drivers/STM32H7xx_HAL_Driver/Src/stm32h7xx_hal_rcc.c ****       }
 519:Drivers/STM32H7xx_HAL_Driver/Src/stm32h7xx_hal_rcc.c ****       /* Otherwise, just the calibration is allowed */
 520:Drivers/STM32H7xx_HAL_Driver/Src/stm32h7xx_hal_rcc.c ****       else
 521:Drivers/STM32H7xx_HAL_Driver/Src/stm32h7xx_hal_rcc.c ****       {
 522:Drivers/STM32H7xx_HAL_Driver/Src/stm32h7xx_hal_rcc.c ****         /* Adjusts the Internal High Speed oscillator (CSI) calibration value.*/
 523:Drivers/STM32H7xx_HAL_Driver/Src/stm32h7xx_hal_rcc.c ****         __HAL_RCC_CSI_CALIBRATIONVALUE_ADJUST(RCC_OscInitStruct->CSICalibrationValue);
ARM GAS  /tmp/cconV3EI.s 			page 25


 524:Drivers/STM32H7xx_HAL_Driver/Src/stm32h7xx_hal_rcc.c ****       }
 525:Drivers/STM32H7xx_HAL_Driver/Src/stm32h7xx_hal_rcc.c ****     }
 526:Drivers/STM32H7xx_HAL_Driver/Src/stm32h7xx_hal_rcc.c ****     else
 527:Drivers/STM32H7xx_HAL_Driver/Src/stm32h7xx_hal_rcc.c ****     {
 528:Drivers/STM32H7xx_HAL_Driver/Src/stm32h7xx_hal_rcc.c ****       /* Check the CSI State */
 529:Drivers/STM32H7xx_HAL_Driver/Src/stm32h7xx_hal_rcc.c ****       if((RCC_OscInitStruct->CSIState)!= RCC_CSI_OFF)
 703              		.loc 1 529 7 is_stmt 1 view .LVU225
 704              		.loc 1 529 28 is_stmt 0 view .LVU226
 705 019e E369     		ldr	r3, [r4, #28]
 706              	.LVL63:
 707              		.loc 1 529 9 view .LVU227
 708 01a0 002B     		cmp	r3, #0
 709 01a2 00F0A380 		beq	.L64
 530:Drivers/STM32H7xx_HAL_Driver/Src/stm32h7xx_hal_rcc.c ****       {
 531:Drivers/STM32H7xx_HAL_Driver/Src/stm32h7xx_hal_rcc.c ****         /* Enable the Internal High Speed oscillator (CSI). */
 532:Drivers/STM32H7xx_HAL_Driver/Src/stm32h7xx_hal_rcc.c ****         __HAL_RCC_CSI_ENABLE();
 710              		.loc 1 532 9 is_stmt 1 view .LVU228
 711 01a6 444A     		ldr	r2, .L145
 712 01a8 1368     		ldr	r3, [r2]
 713 01aa 43F08003 		orr	r3, r3, #128
 714 01ae 1360     		str	r3, [r2]
 533:Drivers/STM32H7xx_HAL_Driver/Src/stm32h7xx_hal_rcc.c **** 
 534:Drivers/STM32H7xx_HAL_Driver/Src/stm32h7xx_hal_rcc.c ****         /* Get Start Tick*/
 535:Drivers/STM32H7xx_HAL_Driver/Src/stm32h7xx_hal_rcc.c ****         tickstart = HAL_GetTick();
 715              		.loc 1 535 9 view .LVU229
 716              		.loc 1 535 21 is_stmt 0 view .LVU230
 717 01b0 FFF7FEFF 		bl	HAL_GetTick
 718              	.LVL64:
 719 01b4 0546     		mov	r5, r0
 720              	.LVL65:
 536:Drivers/STM32H7xx_HAL_Driver/Src/stm32h7xx_hal_rcc.c **** 
 537:Drivers/STM32H7xx_HAL_Driver/Src/stm32h7xx_hal_rcc.c ****         /* Wait till CSI is ready */
 538:Drivers/STM32H7xx_HAL_Driver/Src/stm32h7xx_hal_rcc.c ****         while(__HAL_RCC_GET_FLAG(RCC_FLAG_CSIRDY) == 0U)
 721              		.loc 1 538 9 is_stmt 1 view .LVU231
 722              	.L65:
 723              		.loc 1 538 15 is_stmt 0 view .LVU232
 724 01b6 404B     		ldr	r3, .L145
 725 01b8 1B68     		ldr	r3, [r3]
 726              		.loc 1 538 14 view .LVU233
 727 01ba 13F4807F 		tst	r3, #256
 728 01be 7DD1     		bne	.L136
 539:Drivers/STM32H7xx_HAL_Driver/Src/stm32h7xx_hal_rcc.c ****         {
 540:Drivers/STM32H7xx_HAL_Driver/Src/stm32h7xx_hal_rcc.c ****           if((HAL_GetTick() - tickstart ) > CSI_TIMEOUT_VALUE)
 729              		.loc 1 540 11 is_stmt 1 view .LVU234
 730              		.loc 1 540 15 is_stmt 0 view .LVU235
 731 01c0 FFF7FEFF 		bl	HAL_GetTick
 732              	.LVL66:
 733              		.loc 1 540 29 view .LVU236
 734 01c4 401B     		subs	r0, r0, r5
 735              		.loc 1 540 13 view .LVU237
 736 01c6 0228     		cmp	r0, #2
 737 01c8 F5D9     		bls	.L65
 541:Drivers/STM32H7xx_HAL_Driver/Src/stm32h7xx_hal_rcc.c ****           {
 542:Drivers/STM32H7xx_HAL_Driver/Src/stm32h7xx_hal_rcc.c ****             return HAL_TIMEOUT;
 738              		.loc 1 542 20 view .LVU238
 739 01ca 0320     		movs	r0, #3
 740 01cc EFE1     		b	.L33
ARM GAS  /tmp/cconV3EI.s 			page 26


 741              	.L52:
 742              		.loc 1 542 20 view .LVU239
 743              	.LBE6:
 744              	.LBB7:
 456:Drivers/STM32H7xx_HAL_Driver/Src/stm32h7xx_hal_rcc.c ****       }
 745              		.loc 1 456 9 is_stmt 1 discriminator 2 view .LVU240
 746 01ce 3A4A     		ldr	r2, .L145
 747 01d0 5368     		ldr	r3, [r2, #4]
 748 01d2 23F0FE43 		bic	r3, r3, #2130706432
 749 01d6 2169     		ldr	r1, [r4, #16]
 750 01d8 43EA0163 		orr	r3, r3, r1, lsl #24
 751 01dc 5360     		str	r3, [r2, #4]
 752 01de D1E7     		b	.L46
 753              	.L132:
 481:Drivers/STM32H7xx_HAL_Driver/Src/stm32h7xx_hal_rcc.c ****       }
 754              		.loc 1 481 9 view .LVU241
 481:Drivers/STM32H7xx_HAL_Driver/Src/stm32h7xx_hal_rcc.c ****       }
 755              		.loc 1 481 9 view .LVU242
 756 01e0 FFF7FEFF 		bl	HAL_GetREVID
 757              	.LVL67:
 758 01e4 41F20303 		movw	r3, #4099
 759 01e8 9842     		cmp	r0, r3
 760 01ea 08D8     		bhi	.L56
 481:Drivers/STM32H7xx_HAL_Driver/Src/stm32h7xx_hal_rcc.c ****       }
 761              		.loc 1 481 9 discriminator 1 view .LVU243
 762 01ec 324A     		ldr	r2, .L145
 763 01ee 5368     		ldr	r3, [r2, #4]
 764 01f0 23F47C33 		bic	r3, r3, #258048
 765 01f4 2169     		ldr	r1, [r4, #16]
 766 01f6 43EA0133 		orr	r3, r3, r1, lsl #12
 767 01fa 5360     		str	r3, [r2, #4]
 768 01fc C2E7     		b	.L46
 769              	.L56:
 481:Drivers/STM32H7xx_HAL_Driver/Src/stm32h7xx_hal_rcc.c ****       }
 770              		.loc 1 481 9 discriminator 2 view .LVU244
 771 01fe 2E4A     		ldr	r2, .L145
 772 0200 5368     		ldr	r3, [r2, #4]
 773 0202 23F0FE43 		bic	r3, r3, #2130706432
 774 0206 2169     		ldr	r1, [r4, #16]
 775 0208 43EA0163 		orr	r3, r3, r1, lsl #24
 776 020c 5360     		str	r3, [r2, #4]
 777 020e B9E7     		b	.L46
 778              	.LVL68:
 779              	.L53:
 486:Drivers/STM32H7xx_HAL_Driver/Src/stm32h7xx_hal_rcc.c **** 
 780              		.loc 1 486 9 view .LVU245
 781 0210 294A     		ldr	r2, .L145
 782              	.LVL69:
 486:Drivers/STM32H7xx_HAL_Driver/Src/stm32h7xx_hal_rcc.c **** 
 783              		.loc 1 486 9 is_stmt 0 view .LVU246
 784 0212 1368     		ldr	r3, [r2]
 785 0214 23F00103 		bic	r3, r3, #1
 786 0218 1360     		str	r3, [r2]
 489:Drivers/STM32H7xx_HAL_Driver/Src/stm32h7xx_hal_rcc.c **** 
 787              		.loc 1 489 9 is_stmt 1 view .LVU247
 489:Drivers/STM32H7xx_HAL_Driver/Src/stm32h7xx_hal_rcc.c **** 
 788              		.loc 1 489 21 is_stmt 0 view .LVU248
ARM GAS  /tmp/cconV3EI.s 			page 27


 789 021a FFF7FEFF 		bl	HAL_GetTick
 790              	.LVL70:
 791 021e 0546     		mov	r5, r0
 792              	.LVL71:
 492:Drivers/STM32H7xx_HAL_Driver/Src/stm32h7xx_hal_rcc.c ****         {
 793              		.loc 1 492 9 is_stmt 1 view .LVU249
 794              	.L57:
 492:Drivers/STM32H7xx_HAL_Driver/Src/stm32h7xx_hal_rcc.c ****         {
 795              		.loc 1 492 15 is_stmt 0 view .LVU250
 796 0220 254B     		ldr	r3, .L145
 797 0222 1B68     		ldr	r3, [r3]
 492:Drivers/STM32H7xx_HAL_Driver/Src/stm32h7xx_hal_rcc.c ****         {
 798              		.loc 1 492 14 view .LVU251
 799 0224 13F0040F 		tst	r3, #4
 800 0228 ACD0     		beq	.L46
 494:Drivers/STM32H7xx_HAL_Driver/Src/stm32h7xx_hal_rcc.c ****           {
 801              		.loc 1 494 11 is_stmt 1 view .LVU252
 494:Drivers/STM32H7xx_HAL_Driver/Src/stm32h7xx_hal_rcc.c ****           {
 802              		.loc 1 494 15 is_stmt 0 view .LVU253
 803 022a FFF7FEFF 		bl	HAL_GetTick
 804              	.LVL72:
 494:Drivers/STM32H7xx_HAL_Driver/Src/stm32h7xx_hal_rcc.c ****           {
 805              		.loc 1 494 29 view .LVU254
 806 022e 401B     		subs	r0, r0, r5
 494:Drivers/STM32H7xx_HAL_Driver/Src/stm32h7xx_hal_rcc.c ****           {
 807              		.loc 1 494 13 view .LVU255
 808 0230 0228     		cmp	r0, #2
 809 0232 F5D9     		bls	.L57
 496:Drivers/STM32H7xx_HAL_Driver/Src/stm32h7xx_hal_rcc.c ****           }
 810              		.loc 1 496 20 view .LVU256
 811 0234 0320     		movs	r0, #3
 812 0236 BAE1     		b	.L33
 813              	.LVL73:
 814              	.L135:
 496:Drivers/STM32H7xx_HAL_Driver/Src/stm32h7xx_hal_rcc.c ****           }
 815              		.loc 1 496 20 view .LVU257
 816              	.LBE7:
 817              	.LBB8:
 512:Drivers/STM32H7xx_HAL_Driver/Src/stm32h7xx_hal_rcc.c ****     {
 818              		.loc 1 512 107 discriminator 2 view .LVU258
 819 0238 02F00302 		and	r2, r2, #3
 820              	.LVL74:
 512:Drivers/STM32H7xx_HAL_Driver/Src/stm32h7xx_hal_rcc.c ****     {
 821              		.loc 1 512 87 discriminator 2 view .LVU259
 822 023c 012A     		cmp	r2, #1
 823 023e AED1     		bne	.L61
 824              	.L60:
 515:Drivers/STM32H7xx_HAL_Driver/Src/stm32h7xx_hal_rcc.c ****       {
 825              		.loc 1 515 7 is_stmt 1 view .LVU260
 515:Drivers/STM32H7xx_HAL_Driver/Src/stm32h7xx_hal_rcc.c ****       {
 826              		.loc 1 515 11 is_stmt 0 view .LVU261
 827 0240 1D4B     		ldr	r3, .L145
 828              	.LVL75:
 515:Drivers/STM32H7xx_HAL_Driver/Src/stm32h7xx_hal_rcc.c ****       {
 829              		.loc 1 515 11 view .LVU262
 830 0242 1B68     		ldr	r3, [r3]
 515:Drivers/STM32H7xx_HAL_Driver/Src/stm32h7xx_hal_rcc.c ****       {
ARM GAS  /tmp/cconV3EI.s 			page 28


 831              		.loc 1 515 9 view .LVU263
 832 0244 13F4807F 		tst	r3, #256
 833 0248 03D0     		beq	.L62
 515:Drivers/STM32H7xx_HAL_Driver/Src/stm32h7xx_hal_rcc.c ****       {
 834              		.loc 1 515 75 discriminator 1 view .LVU264
 835 024a E369     		ldr	r3, [r4, #28]
 515:Drivers/STM32H7xx_HAL_Driver/Src/stm32h7xx_hal_rcc.c ****       {
 836              		.loc 1 515 54 discriminator 1 view .LVU265
 837 024c 802B     		cmp	r3, #128
 838 024e 40F0AB81 		bne	.L109
 839              	.L62:
 523:Drivers/STM32H7xx_HAL_Driver/Src/stm32h7xx_hal_rcc.c ****       }
 840              		.loc 1 523 9 is_stmt 1 view .LVU266
 523:Drivers/STM32H7xx_HAL_Driver/Src/stm32h7xx_hal_rcc.c ****       }
 841              		.loc 1 523 9 view .LVU267
 842 0252 FFF7FEFF 		bl	HAL_GetREVID
 843              	.LVL76:
 844 0256 41F20303 		movw	r3, #4099
 845 025a 9842     		cmp	r0, r3
 846 025c 22D8     		bhi	.L63
 523:Drivers/STM32H7xx_HAL_Driver/Src/stm32h7xx_hal_rcc.c ****       }
 847              		.loc 1 523 9 discriminator 1 view .LVU268
 848 025e 164A     		ldr	r2, .L145
 849 0260 5368     		ldr	r3, [r2, #4]
 850 0262 23F0F843 		bic	r3, r3, #2080374784
 851 0266 216A     		ldr	r1, [r4, #32]
 852 0268 43EA8163 		orr	r3, r3, r1, lsl #26
 853 026c 5360     		str	r3, [r2, #4]
 854              	.L59:
 523:Drivers/STM32H7xx_HAL_Driver/Src/stm32h7xx_hal_rcc.c ****       }
 855              		.loc 1 523 9 is_stmt 0 discriminator 1 view .LVU269
 856              	.LBE8:
 543:Drivers/STM32H7xx_HAL_Driver/Src/stm32h7xx_hal_rcc.c ****           }
 544:Drivers/STM32H7xx_HAL_Driver/Src/stm32h7xx_hal_rcc.c ****         }
 545:Drivers/STM32H7xx_HAL_Driver/Src/stm32h7xx_hal_rcc.c **** 
 546:Drivers/STM32H7xx_HAL_Driver/Src/stm32h7xx_hal_rcc.c ****         /* Adjusts the Internal High Speed oscillator (CSI) calibration value.*/
 547:Drivers/STM32H7xx_HAL_Driver/Src/stm32h7xx_hal_rcc.c ****         __HAL_RCC_CSI_CALIBRATIONVALUE_ADJUST(RCC_OscInitStruct->CSICalibrationValue);
 548:Drivers/STM32H7xx_HAL_Driver/Src/stm32h7xx_hal_rcc.c ****       }
 549:Drivers/STM32H7xx_HAL_Driver/Src/stm32h7xx_hal_rcc.c ****       else
 550:Drivers/STM32H7xx_HAL_Driver/Src/stm32h7xx_hal_rcc.c ****       {
 551:Drivers/STM32H7xx_HAL_Driver/Src/stm32h7xx_hal_rcc.c ****         /* Disable the Internal High Speed oscillator (CSI). */
 552:Drivers/STM32H7xx_HAL_Driver/Src/stm32h7xx_hal_rcc.c ****         __HAL_RCC_CSI_DISABLE();
 553:Drivers/STM32H7xx_HAL_Driver/Src/stm32h7xx_hal_rcc.c **** 
 554:Drivers/STM32H7xx_HAL_Driver/Src/stm32h7xx_hal_rcc.c ****         /* Get Start Tick*/
 555:Drivers/STM32H7xx_HAL_Driver/Src/stm32h7xx_hal_rcc.c ****         tickstart = HAL_GetTick();
 556:Drivers/STM32H7xx_HAL_Driver/Src/stm32h7xx_hal_rcc.c **** 
 557:Drivers/STM32H7xx_HAL_Driver/Src/stm32h7xx_hal_rcc.c ****         /* Wait till CSI is ready */
 558:Drivers/STM32H7xx_HAL_Driver/Src/stm32h7xx_hal_rcc.c ****         while(__HAL_RCC_GET_FLAG(RCC_FLAG_CSIRDY) != 0U)
 559:Drivers/STM32H7xx_HAL_Driver/Src/stm32h7xx_hal_rcc.c ****         {
 560:Drivers/STM32H7xx_HAL_Driver/Src/stm32h7xx_hal_rcc.c ****           if((HAL_GetTick() - tickstart ) > CSI_TIMEOUT_VALUE)
 561:Drivers/STM32H7xx_HAL_Driver/Src/stm32h7xx_hal_rcc.c ****           {
 562:Drivers/STM32H7xx_HAL_Driver/Src/stm32h7xx_hal_rcc.c ****             return HAL_TIMEOUT;
 563:Drivers/STM32H7xx_HAL_Driver/Src/stm32h7xx_hal_rcc.c ****           }
 564:Drivers/STM32H7xx_HAL_Driver/Src/stm32h7xx_hal_rcc.c ****         }
 565:Drivers/STM32H7xx_HAL_Driver/Src/stm32h7xx_hal_rcc.c ****       }
 566:Drivers/STM32H7xx_HAL_Driver/Src/stm32h7xx_hal_rcc.c ****     }
 567:Drivers/STM32H7xx_HAL_Driver/Src/stm32h7xx_hal_rcc.c ****   }
ARM GAS  /tmp/cconV3EI.s 			page 29


 568:Drivers/STM32H7xx_HAL_Driver/Src/stm32h7xx_hal_rcc.c ****   /*------------------------------ LSI Configuration -------------------------*/
 569:Drivers/STM32H7xx_HAL_Driver/Src/stm32h7xx_hal_rcc.c ****   if(((RCC_OscInitStruct->OscillatorType) & RCC_OSCILLATORTYPE_LSI) == RCC_OSCILLATORTYPE_LSI)
 857              		.loc 1 569 3 is_stmt 1 view .LVU270
 858              		.loc 1 569 25 is_stmt 0 view .LVU271
 859 026e 2368     		ldr	r3, [r4]
 860              		.loc 1 569 5 view .LVU272
 861 0270 13F0080F 		tst	r3, #8
 862 0274 62D0     		beq	.L70
 570:Drivers/STM32H7xx_HAL_Driver/Src/stm32h7xx_hal_rcc.c ****   {
 571:Drivers/STM32H7xx_HAL_Driver/Src/stm32h7xx_hal_rcc.c ****     /* Check the parameters */
 572:Drivers/STM32H7xx_HAL_Driver/Src/stm32h7xx_hal_rcc.c ****     assert_param(IS_RCC_LSI(RCC_OscInitStruct->LSIState));
 863              		.loc 1 572 5 is_stmt 1 view .LVU273
 573:Drivers/STM32H7xx_HAL_Driver/Src/stm32h7xx_hal_rcc.c **** 
 574:Drivers/STM32H7xx_HAL_Driver/Src/stm32h7xx_hal_rcc.c ****     /* Check the LSI State */
 575:Drivers/STM32H7xx_HAL_Driver/Src/stm32h7xx_hal_rcc.c ****     if((RCC_OscInitStruct->LSIState)!= RCC_LSI_OFF)
 864              		.loc 1 575 5 view .LVU274
 865              		.loc 1 575 26 is_stmt 0 view .LVU275
 866 0276 6369     		ldr	r3, [r4, #20]
 867              		.loc 1 575 7 view .LVU276
 868 0278 002B     		cmp	r3, #0
 869 027a 4BD0     		beq	.L71
 576:Drivers/STM32H7xx_HAL_Driver/Src/stm32h7xx_hal_rcc.c ****     {
 577:Drivers/STM32H7xx_HAL_Driver/Src/stm32h7xx_hal_rcc.c ****       /* Enable the Internal Low Speed oscillator (LSI). */
 578:Drivers/STM32H7xx_HAL_Driver/Src/stm32h7xx_hal_rcc.c ****       __HAL_RCC_LSI_ENABLE();
 870              		.loc 1 578 7 is_stmt 1 view .LVU277
 871 027c 0E4A     		ldr	r2, .L145
 872 027e 536F     		ldr	r3, [r2, #116]
 873 0280 43F00103 		orr	r3, r3, #1
 874 0284 5367     		str	r3, [r2, #116]
 579:Drivers/STM32H7xx_HAL_Driver/Src/stm32h7xx_hal_rcc.c **** 
 580:Drivers/STM32H7xx_HAL_Driver/Src/stm32h7xx_hal_rcc.c ****       /* Get Start Tick*/
 581:Drivers/STM32H7xx_HAL_Driver/Src/stm32h7xx_hal_rcc.c ****       tickstart = HAL_GetTick();
 875              		.loc 1 581 7 view .LVU278
 876              		.loc 1 581 19 is_stmt 0 view .LVU279
 877 0286 FFF7FEFF 		bl	HAL_GetTick
 878              	.LVL77:
 879 028a 0546     		mov	r5, r0
 880              	.LVL78:
 582:Drivers/STM32H7xx_HAL_Driver/Src/stm32h7xx_hal_rcc.c **** 
 583:Drivers/STM32H7xx_HAL_Driver/Src/stm32h7xx_hal_rcc.c ****       /* Wait till LSI is ready */
 584:Drivers/STM32H7xx_HAL_Driver/Src/stm32h7xx_hal_rcc.c ****       while(__HAL_RCC_GET_FLAG(RCC_FLAG_LSIRDY) == 0U)
 881              		.loc 1 584 7 is_stmt 1 view .LVU280
 882              	.L72:
 883              		.loc 1 584 13 is_stmt 0 view .LVU281
 884 028c 0A4B     		ldr	r3, .L145
 885 028e 5B6F     		ldr	r3, [r3, #116]
 886              		.loc 1 584 12 view .LVU282
 887 0290 13F0020F 		tst	r3, #2
 888 0294 52D1     		bne	.L70
 585:Drivers/STM32H7xx_HAL_Driver/Src/stm32h7xx_hal_rcc.c ****       {
 586:Drivers/STM32H7xx_HAL_Driver/Src/stm32h7xx_hal_rcc.c ****         if((HAL_GetTick() - tickstart ) > LSI_TIMEOUT_VALUE)
 889              		.loc 1 586 9 is_stmt 1 view .LVU283
 890              		.loc 1 586 13 is_stmt 0 view .LVU284
 891 0296 FFF7FEFF 		bl	HAL_GetTick
 892              	.LVL79:
 893              		.loc 1 586 27 view .LVU285
 894 029a 401B     		subs	r0, r0, r5
ARM GAS  /tmp/cconV3EI.s 			page 30


 895              		.loc 1 586 11 view .LVU286
 896 029c 0228     		cmp	r0, #2
 897 029e F5D9     		bls	.L72
 587:Drivers/STM32H7xx_HAL_Driver/Src/stm32h7xx_hal_rcc.c ****         {
 588:Drivers/STM32H7xx_HAL_Driver/Src/stm32h7xx_hal_rcc.c ****           return HAL_TIMEOUT;
 898              		.loc 1 588 18 view .LVU287
 899 02a0 0320     		movs	r0, #3
 900 02a2 84E1     		b	.L33
 901              	.LVL80:
 902              	.L63:
 903              	.LBB9:
 523:Drivers/STM32H7xx_HAL_Driver/Src/stm32h7xx_hal_rcc.c ****       }
 904              		.loc 1 523 9 is_stmt 1 discriminator 2 view .LVU288
 905 02a4 044A     		ldr	r2, .L145
 906 02a6 D368     		ldr	r3, [r2, #12]
 907 02a8 23F07C53 		bic	r3, r3, #1056964608
 908 02ac 216A     		ldr	r1, [r4, #32]
 909 02ae 43EA0163 		orr	r3, r3, r1, lsl #24
 910 02b2 D360     		str	r3, [r2, #12]
 911 02b4 DBE7     		b	.L59
 912              	.L146:
 913 02b6 00BF     		.align	2
 914              	.L145:
 915 02b8 00440258 		.word	1476543488
 916              	.LVL81:
 917              	.L136:
 547:Drivers/STM32H7xx_HAL_Driver/Src/stm32h7xx_hal_rcc.c ****       }
 918              		.loc 1 547 9 view .LVU289
 547:Drivers/STM32H7xx_HAL_Driver/Src/stm32h7xx_hal_rcc.c ****       }
 919              		.loc 1 547 9 view .LVU290
 920 02bc FFF7FEFF 		bl	HAL_GetREVID
 921              	.LVL82:
 922 02c0 41F20303 		movw	r3, #4099
 923 02c4 9842     		cmp	r0, r3
 924 02c6 08D8     		bhi	.L67
 547:Drivers/STM32H7xx_HAL_Driver/Src/stm32h7xx_hal_rcc.c ****       }
 925              		.loc 1 547 9 discriminator 1 view .LVU291
 926 02c8 AE4A     		ldr	r2, .L147
 927 02ca 5368     		ldr	r3, [r2, #4]
 928 02cc 23F0F843 		bic	r3, r3, #2080374784
 929 02d0 216A     		ldr	r1, [r4, #32]
 930 02d2 43EA8163 		orr	r3, r3, r1, lsl #26
 931 02d6 5360     		str	r3, [r2, #4]
 932 02d8 C9E7     		b	.L59
 933              	.L67:
 547:Drivers/STM32H7xx_HAL_Driver/Src/stm32h7xx_hal_rcc.c ****       }
 934              		.loc 1 547 9 discriminator 2 view .LVU292
 935 02da AA4A     		ldr	r2, .L147
 936 02dc D368     		ldr	r3, [r2, #12]
 937 02de 23F07C53 		bic	r3, r3, #1056964608
 938 02e2 216A     		ldr	r1, [r4, #32]
 939 02e4 43EA0163 		orr	r3, r3, r1, lsl #24
 940 02e8 D360     		str	r3, [r2, #12]
 941 02ea C0E7     		b	.L59
 942              	.LVL83:
 943              	.L64:
 552:Drivers/STM32H7xx_HAL_Driver/Src/stm32h7xx_hal_rcc.c **** 
ARM GAS  /tmp/cconV3EI.s 			page 31


 944              		.loc 1 552 9 view .LVU293
 945 02ec A54A     		ldr	r2, .L147
 946 02ee 1368     		ldr	r3, [r2]
 947 02f0 23F08003 		bic	r3, r3, #128
 948 02f4 1360     		str	r3, [r2]
 555:Drivers/STM32H7xx_HAL_Driver/Src/stm32h7xx_hal_rcc.c **** 
 949              		.loc 1 555 9 view .LVU294
 555:Drivers/STM32H7xx_HAL_Driver/Src/stm32h7xx_hal_rcc.c **** 
 950              		.loc 1 555 21 is_stmt 0 view .LVU295
 951 02f6 FFF7FEFF 		bl	HAL_GetTick
 952              	.LVL84:
 953 02fa 0546     		mov	r5, r0
 954              	.LVL85:
 558:Drivers/STM32H7xx_HAL_Driver/Src/stm32h7xx_hal_rcc.c ****         {
 955              		.loc 1 558 9 is_stmt 1 view .LVU296
 956              	.L68:
 558:Drivers/STM32H7xx_HAL_Driver/Src/stm32h7xx_hal_rcc.c ****         {
 957              		.loc 1 558 15 is_stmt 0 view .LVU297
 958 02fc A14B     		ldr	r3, .L147
 959 02fe 1B68     		ldr	r3, [r3]
 558:Drivers/STM32H7xx_HAL_Driver/Src/stm32h7xx_hal_rcc.c ****         {
 960              		.loc 1 558 14 view .LVU298
 961 0300 13F4807F 		tst	r3, #256
 962 0304 B3D0     		beq	.L59
 560:Drivers/STM32H7xx_HAL_Driver/Src/stm32h7xx_hal_rcc.c ****           {
 963              		.loc 1 560 11 is_stmt 1 view .LVU299
 560:Drivers/STM32H7xx_HAL_Driver/Src/stm32h7xx_hal_rcc.c ****           {
 964              		.loc 1 560 15 is_stmt 0 view .LVU300
 965 0306 FFF7FEFF 		bl	HAL_GetTick
 966              	.LVL86:
 560:Drivers/STM32H7xx_HAL_Driver/Src/stm32h7xx_hal_rcc.c ****           {
 967              		.loc 1 560 29 view .LVU301
 968 030a 401B     		subs	r0, r0, r5
 560:Drivers/STM32H7xx_HAL_Driver/Src/stm32h7xx_hal_rcc.c ****           {
 969              		.loc 1 560 13 view .LVU302
 970 030c 0228     		cmp	r0, #2
 971 030e F5D9     		bls	.L68
 562:Drivers/STM32H7xx_HAL_Driver/Src/stm32h7xx_hal_rcc.c ****           }
 972              		.loc 1 562 20 view .LVU303
 973 0310 0320     		movs	r0, #3
 974 0312 4CE1     		b	.L33
 975              	.LVL87:
 976              	.L71:
 562:Drivers/STM32H7xx_HAL_Driver/Src/stm32h7xx_hal_rcc.c ****           }
 977              		.loc 1 562 20 view .LVU304
 978              	.LBE9:
 589:Drivers/STM32H7xx_HAL_Driver/Src/stm32h7xx_hal_rcc.c ****         }
 590:Drivers/STM32H7xx_HAL_Driver/Src/stm32h7xx_hal_rcc.c ****       }
 591:Drivers/STM32H7xx_HAL_Driver/Src/stm32h7xx_hal_rcc.c ****     }
 592:Drivers/STM32H7xx_HAL_Driver/Src/stm32h7xx_hal_rcc.c ****     else
 593:Drivers/STM32H7xx_HAL_Driver/Src/stm32h7xx_hal_rcc.c ****     {
 594:Drivers/STM32H7xx_HAL_Driver/Src/stm32h7xx_hal_rcc.c ****       /* Disable the Internal Low Speed oscillator (LSI). */
 595:Drivers/STM32H7xx_HAL_Driver/Src/stm32h7xx_hal_rcc.c ****       __HAL_RCC_LSI_DISABLE();
 979              		.loc 1 595 7 is_stmt 1 view .LVU305
 980 0314 9B4A     		ldr	r2, .L147
 981 0316 536F     		ldr	r3, [r2, #116]
 982 0318 23F00103 		bic	r3, r3, #1
ARM GAS  /tmp/cconV3EI.s 			page 32


 983 031c 5367     		str	r3, [r2, #116]
 596:Drivers/STM32H7xx_HAL_Driver/Src/stm32h7xx_hal_rcc.c **** 
 597:Drivers/STM32H7xx_HAL_Driver/Src/stm32h7xx_hal_rcc.c ****       /* Get Start Tick*/
 598:Drivers/STM32H7xx_HAL_Driver/Src/stm32h7xx_hal_rcc.c ****       tickstart = HAL_GetTick();
 984              		.loc 1 598 7 view .LVU306
 985              		.loc 1 598 19 is_stmt 0 view .LVU307
 986 031e FFF7FEFF 		bl	HAL_GetTick
 987              	.LVL88:
 988 0322 0546     		mov	r5, r0
 989              	.LVL89:
 599:Drivers/STM32H7xx_HAL_Driver/Src/stm32h7xx_hal_rcc.c **** 
 600:Drivers/STM32H7xx_HAL_Driver/Src/stm32h7xx_hal_rcc.c ****       /* Wait till LSI is ready */
 601:Drivers/STM32H7xx_HAL_Driver/Src/stm32h7xx_hal_rcc.c ****       while(__HAL_RCC_GET_FLAG(RCC_FLAG_LSIRDY) != 0U)
 990              		.loc 1 601 7 is_stmt 1 view .LVU308
 991              	.L74:
 992              		.loc 1 601 13 is_stmt 0 view .LVU309
 993 0324 974B     		ldr	r3, .L147
 994 0326 5B6F     		ldr	r3, [r3, #116]
 995              		.loc 1 601 12 view .LVU310
 996 0328 13F0020F 		tst	r3, #2
 997 032c 06D0     		beq	.L70
 602:Drivers/STM32H7xx_HAL_Driver/Src/stm32h7xx_hal_rcc.c ****       {
 603:Drivers/STM32H7xx_HAL_Driver/Src/stm32h7xx_hal_rcc.c ****         if((HAL_GetTick() - tickstart ) > LSI_TIMEOUT_VALUE)
 998              		.loc 1 603 9 is_stmt 1 view .LVU311
 999              		.loc 1 603 13 is_stmt 0 view .LVU312
 1000 032e FFF7FEFF 		bl	HAL_GetTick
 1001              	.LVL90:
 1002              		.loc 1 603 27 view .LVU313
 1003 0332 401B     		subs	r0, r0, r5
 1004              		.loc 1 603 11 view .LVU314
 1005 0334 0228     		cmp	r0, #2
 1006 0336 F5D9     		bls	.L74
 604:Drivers/STM32H7xx_HAL_Driver/Src/stm32h7xx_hal_rcc.c ****         {
 605:Drivers/STM32H7xx_HAL_Driver/Src/stm32h7xx_hal_rcc.c ****           return HAL_TIMEOUT;
 1007              		.loc 1 605 18 view .LVU315
 1008 0338 0320     		movs	r0, #3
 1009 033a 38E1     		b	.L33
 1010              	.LVL91:
 1011              	.L70:
 606:Drivers/STM32H7xx_HAL_Driver/Src/stm32h7xx_hal_rcc.c ****         }
 607:Drivers/STM32H7xx_HAL_Driver/Src/stm32h7xx_hal_rcc.c ****       }
 608:Drivers/STM32H7xx_HAL_Driver/Src/stm32h7xx_hal_rcc.c ****     }
 609:Drivers/STM32H7xx_HAL_Driver/Src/stm32h7xx_hal_rcc.c ****   }
 610:Drivers/STM32H7xx_HAL_Driver/Src/stm32h7xx_hal_rcc.c **** 
 611:Drivers/STM32H7xx_HAL_Driver/Src/stm32h7xx_hal_rcc.c ****   /*------------------------------ HSI48 Configuration -------------------------*/
 612:Drivers/STM32H7xx_HAL_Driver/Src/stm32h7xx_hal_rcc.c ****   if(((RCC_OscInitStruct->OscillatorType) & RCC_OSCILLATORTYPE_HSI48) == RCC_OSCILLATORTYPE_HSI48)
 1012              		.loc 1 612 3 is_stmt 1 view .LVU316
 1013              		.loc 1 612 25 is_stmt 0 view .LVU317
 1014 033c 2368     		ldr	r3, [r4]
 1015              		.loc 1 612 5 view .LVU318
 1016 033e 13F0200F 		tst	r3, #32
 1017 0342 29D0     		beq	.L76
 613:Drivers/STM32H7xx_HAL_Driver/Src/stm32h7xx_hal_rcc.c ****   {
 614:Drivers/STM32H7xx_HAL_Driver/Src/stm32h7xx_hal_rcc.c ****     /* Check the parameters */
 615:Drivers/STM32H7xx_HAL_Driver/Src/stm32h7xx_hal_rcc.c ****     assert_param(IS_RCC_HSI48(RCC_OscInitStruct->HSI48State));
 1018              		.loc 1 615 5 is_stmt 1 view .LVU319
 616:Drivers/STM32H7xx_HAL_Driver/Src/stm32h7xx_hal_rcc.c **** 
ARM GAS  /tmp/cconV3EI.s 			page 33


 617:Drivers/STM32H7xx_HAL_Driver/Src/stm32h7xx_hal_rcc.c ****     /* Check the HSI48 State */
 618:Drivers/STM32H7xx_HAL_Driver/Src/stm32h7xx_hal_rcc.c ****     if((RCC_OscInitStruct->HSI48State)!= RCC_HSI48_OFF)
 1019              		.loc 1 618 5 view .LVU320
 1020              		.loc 1 618 26 is_stmt 0 view .LVU321
 1021 0344 A369     		ldr	r3, [r4, #24]
 1022              		.loc 1 618 7 view .LVU322
 1023 0346 9BB1     		cbz	r3, .L77
 619:Drivers/STM32H7xx_HAL_Driver/Src/stm32h7xx_hal_rcc.c ****     {
 620:Drivers/STM32H7xx_HAL_Driver/Src/stm32h7xx_hal_rcc.c ****       /* Enable the Internal Low Speed oscillator (HSI48). */
 621:Drivers/STM32H7xx_HAL_Driver/Src/stm32h7xx_hal_rcc.c ****       __HAL_RCC_HSI48_ENABLE();
 1024              		.loc 1 621 7 is_stmt 1 view .LVU323
 1025 0348 8E4A     		ldr	r2, .L147
 1026 034a 1368     		ldr	r3, [r2]
 1027 034c 43F48053 		orr	r3, r3, #4096
 1028 0350 1360     		str	r3, [r2]
 1029              		.loc 1 621 31 view .LVU324
 622:Drivers/STM32H7xx_HAL_Driver/Src/stm32h7xx_hal_rcc.c **** 
 623:Drivers/STM32H7xx_HAL_Driver/Src/stm32h7xx_hal_rcc.c ****       /* Get time-out */
 624:Drivers/STM32H7xx_HAL_Driver/Src/stm32h7xx_hal_rcc.c ****       tickstart = HAL_GetTick();
 1030              		.loc 1 624 7 view .LVU325
 1031              		.loc 1 624 19 is_stmt 0 view .LVU326
 1032 0352 FFF7FEFF 		bl	HAL_GetTick
 1033              	.LVL92:
 1034 0356 0546     		mov	r5, r0
 1035              	.LVL93:
 625:Drivers/STM32H7xx_HAL_Driver/Src/stm32h7xx_hal_rcc.c **** 
 626:Drivers/STM32H7xx_HAL_Driver/Src/stm32h7xx_hal_rcc.c ****       /* Wait till HSI48 is ready */
 627:Drivers/STM32H7xx_HAL_Driver/Src/stm32h7xx_hal_rcc.c ****       while(__HAL_RCC_GET_FLAG(RCC_FLAG_HSI48RDY) == 0U)
 1036              		.loc 1 627 7 is_stmt 1 view .LVU327
 1037              	.L78:
 1038              		.loc 1 627 13 is_stmt 0 view .LVU328
 1039 0358 8A4B     		ldr	r3, .L147
 1040 035a 1B68     		ldr	r3, [r3]
 1041              		.loc 1 627 12 view .LVU329
 1042 035c 13F4005F 		tst	r3, #8192
 1043 0360 1AD1     		bne	.L76
 628:Drivers/STM32H7xx_HAL_Driver/Src/stm32h7xx_hal_rcc.c ****       {
 629:Drivers/STM32H7xx_HAL_Driver/Src/stm32h7xx_hal_rcc.c ****         if((HAL_GetTick() - tickstart ) > HSI48_TIMEOUT_VALUE)
 1044              		.loc 1 629 9 is_stmt 1 view .LVU330
 1045              		.loc 1 629 13 is_stmt 0 view .LVU331
 1046 0362 FFF7FEFF 		bl	HAL_GetTick
 1047              	.LVL94:
 1048              		.loc 1 629 27 view .LVU332
 1049 0366 401B     		subs	r0, r0, r5
 1050              		.loc 1 629 11 view .LVU333
 1051 0368 0228     		cmp	r0, #2
 1052 036a F5D9     		bls	.L78
 630:Drivers/STM32H7xx_HAL_Driver/Src/stm32h7xx_hal_rcc.c ****         {
 631:Drivers/STM32H7xx_HAL_Driver/Src/stm32h7xx_hal_rcc.c ****           return HAL_TIMEOUT;
 1053              		.loc 1 631 18 view .LVU334
 1054 036c 0320     		movs	r0, #3
 1055 036e 1EE1     		b	.L33
 1056              	.LVL95:
 1057              	.L77:
 632:Drivers/STM32H7xx_HAL_Driver/Src/stm32h7xx_hal_rcc.c ****         }
 633:Drivers/STM32H7xx_HAL_Driver/Src/stm32h7xx_hal_rcc.c ****       }
 634:Drivers/STM32H7xx_HAL_Driver/Src/stm32h7xx_hal_rcc.c ****     }
ARM GAS  /tmp/cconV3EI.s 			page 34


 635:Drivers/STM32H7xx_HAL_Driver/Src/stm32h7xx_hal_rcc.c ****     else
 636:Drivers/STM32H7xx_HAL_Driver/Src/stm32h7xx_hal_rcc.c ****     {
 637:Drivers/STM32H7xx_HAL_Driver/Src/stm32h7xx_hal_rcc.c ****       /* Disable the Internal Low Speed oscillator (HSI48). */
 638:Drivers/STM32H7xx_HAL_Driver/Src/stm32h7xx_hal_rcc.c ****       __HAL_RCC_HSI48_DISABLE();
 1058              		.loc 1 638 7 is_stmt 1 view .LVU335
 1059 0370 844A     		ldr	r2, .L147
 1060 0372 1368     		ldr	r3, [r2]
 1061 0374 23F48053 		bic	r3, r3, #4096
 1062 0378 1360     		str	r3, [r2]
 1063              		.loc 1 638 32 view .LVU336
 639:Drivers/STM32H7xx_HAL_Driver/Src/stm32h7xx_hal_rcc.c **** 
 640:Drivers/STM32H7xx_HAL_Driver/Src/stm32h7xx_hal_rcc.c ****       /* Get time-out */
 641:Drivers/STM32H7xx_HAL_Driver/Src/stm32h7xx_hal_rcc.c ****       tickstart = HAL_GetTick();
 1064              		.loc 1 641 7 view .LVU337
 1065              		.loc 1 641 19 is_stmt 0 view .LVU338
 1066 037a FFF7FEFF 		bl	HAL_GetTick
 1067              	.LVL96:
 1068 037e 0546     		mov	r5, r0
 1069              	.LVL97:
 642:Drivers/STM32H7xx_HAL_Driver/Src/stm32h7xx_hal_rcc.c **** 
 643:Drivers/STM32H7xx_HAL_Driver/Src/stm32h7xx_hal_rcc.c ****       /* Wait till HSI48 is ready */
 644:Drivers/STM32H7xx_HAL_Driver/Src/stm32h7xx_hal_rcc.c ****       while(__HAL_RCC_GET_FLAG(RCC_FLAG_HSI48RDY) != 0U)
 1070              		.loc 1 644 7 is_stmt 1 view .LVU339
 1071              	.L80:
 1072              		.loc 1 644 13 is_stmt 0 view .LVU340
 1073 0380 804B     		ldr	r3, .L147
 1074 0382 1B68     		ldr	r3, [r3]
 1075              		.loc 1 644 12 view .LVU341
 1076 0384 13F4005F 		tst	r3, #8192
 1077 0388 06D0     		beq	.L76
 645:Drivers/STM32H7xx_HAL_Driver/Src/stm32h7xx_hal_rcc.c ****       {
 646:Drivers/STM32H7xx_HAL_Driver/Src/stm32h7xx_hal_rcc.c ****         if((HAL_GetTick() - tickstart ) > HSI48_TIMEOUT_VALUE)
 1078              		.loc 1 646 9 is_stmt 1 view .LVU342
 1079              		.loc 1 646 13 is_stmt 0 view .LVU343
 1080 038a FFF7FEFF 		bl	HAL_GetTick
 1081              	.LVL98:
 1082              		.loc 1 646 27 view .LVU344
 1083 038e 401B     		subs	r0, r0, r5
 1084              		.loc 1 646 11 view .LVU345
 1085 0390 0228     		cmp	r0, #2
 1086 0392 F5D9     		bls	.L80
 647:Drivers/STM32H7xx_HAL_Driver/Src/stm32h7xx_hal_rcc.c ****         {
 648:Drivers/STM32H7xx_HAL_Driver/Src/stm32h7xx_hal_rcc.c ****           return HAL_TIMEOUT;
 1087              		.loc 1 648 18 view .LVU346
 1088 0394 0320     		movs	r0, #3
 1089 0396 0AE1     		b	.L33
 1090              	.LVL99:
 1091              	.L76:
 649:Drivers/STM32H7xx_HAL_Driver/Src/stm32h7xx_hal_rcc.c ****         }
 650:Drivers/STM32H7xx_HAL_Driver/Src/stm32h7xx_hal_rcc.c ****       }
 651:Drivers/STM32H7xx_HAL_Driver/Src/stm32h7xx_hal_rcc.c ****     }
 652:Drivers/STM32H7xx_HAL_Driver/Src/stm32h7xx_hal_rcc.c ****   }
 653:Drivers/STM32H7xx_HAL_Driver/Src/stm32h7xx_hal_rcc.c ****   /*------------------------------ LSE Configuration -------------------------*/
 654:Drivers/STM32H7xx_HAL_Driver/Src/stm32h7xx_hal_rcc.c ****   if(((RCC_OscInitStruct->OscillatorType) & RCC_OSCILLATORTYPE_LSE) == RCC_OSCILLATORTYPE_LSE)
 1092              		.loc 1 654 3 is_stmt 1 view .LVU347
 1093              		.loc 1 654 25 is_stmt 0 view .LVU348
 1094 0398 2368     		ldr	r3, [r4]
ARM GAS  /tmp/cconV3EI.s 			page 35


 1095              		.loc 1 654 5 view .LVU349
 1096 039a 13F0040F 		tst	r3, #4
 1097 039e 21D1     		bne	.L137
 1098              	.L82:
 655:Drivers/STM32H7xx_HAL_Driver/Src/stm32h7xx_hal_rcc.c ****   {
 656:Drivers/STM32H7xx_HAL_Driver/Src/stm32h7xx_hal_rcc.c ****     /* Check the parameters */
 657:Drivers/STM32H7xx_HAL_Driver/Src/stm32h7xx_hal_rcc.c ****     assert_param(IS_RCC_LSE(RCC_OscInitStruct->LSEState));
 658:Drivers/STM32H7xx_HAL_Driver/Src/stm32h7xx_hal_rcc.c **** 
 659:Drivers/STM32H7xx_HAL_Driver/Src/stm32h7xx_hal_rcc.c ****     /* Enable write access to Backup domain */
 660:Drivers/STM32H7xx_HAL_Driver/Src/stm32h7xx_hal_rcc.c ****     PWR->CR1 |= PWR_CR1_DBP;
 661:Drivers/STM32H7xx_HAL_Driver/Src/stm32h7xx_hal_rcc.c **** 
 662:Drivers/STM32H7xx_HAL_Driver/Src/stm32h7xx_hal_rcc.c ****     /* Wait for Backup domain Write protection disable */
 663:Drivers/STM32H7xx_HAL_Driver/Src/stm32h7xx_hal_rcc.c ****     tickstart = HAL_GetTick();
 664:Drivers/STM32H7xx_HAL_Driver/Src/stm32h7xx_hal_rcc.c **** 
 665:Drivers/STM32H7xx_HAL_Driver/Src/stm32h7xx_hal_rcc.c ****     while((PWR->CR1 & PWR_CR1_DBP) == 0U)
 666:Drivers/STM32H7xx_HAL_Driver/Src/stm32h7xx_hal_rcc.c ****     {
 667:Drivers/STM32H7xx_HAL_Driver/Src/stm32h7xx_hal_rcc.c ****       if((HAL_GetTick() - tickstart ) > RCC_DBP_TIMEOUT_VALUE)
 668:Drivers/STM32H7xx_HAL_Driver/Src/stm32h7xx_hal_rcc.c ****       {
 669:Drivers/STM32H7xx_HAL_Driver/Src/stm32h7xx_hal_rcc.c ****         return HAL_TIMEOUT;
 670:Drivers/STM32H7xx_HAL_Driver/Src/stm32h7xx_hal_rcc.c ****       }
 671:Drivers/STM32H7xx_HAL_Driver/Src/stm32h7xx_hal_rcc.c ****     }
 672:Drivers/STM32H7xx_HAL_Driver/Src/stm32h7xx_hal_rcc.c **** 
 673:Drivers/STM32H7xx_HAL_Driver/Src/stm32h7xx_hal_rcc.c ****     /* Set the new LSE configuration -----------------------------------------*/
 674:Drivers/STM32H7xx_HAL_Driver/Src/stm32h7xx_hal_rcc.c ****     __HAL_RCC_LSE_CONFIG(RCC_OscInitStruct->LSEState);
 675:Drivers/STM32H7xx_HAL_Driver/Src/stm32h7xx_hal_rcc.c ****     /* Check the LSE State */
 676:Drivers/STM32H7xx_HAL_Driver/Src/stm32h7xx_hal_rcc.c ****     if((RCC_OscInitStruct->LSEState) != RCC_LSE_OFF)
 677:Drivers/STM32H7xx_HAL_Driver/Src/stm32h7xx_hal_rcc.c ****     {
 678:Drivers/STM32H7xx_HAL_Driver/Src/stm32h7xx_hal_rcc.c ****       /* Get Start Tick*/
 679:Drivers/STM32H7xx_HAL_Driver/Src/stm32h7xx_hal_rcc.c ****       tickstart = HAL_GetTick();
 680:Drivers/STM32H7xx_HAL_Driver/Src/stm32h7xx_hal_rcc.c **** 
 681:Drivers/STM32H7xx_HAL_Driver/Src/stm32h7xx_hal_rcc.c ****       /* Wait till LSE is ready */
 682:Drivers/STM32H7xx_HAL_Driver/Src/stm32h7xx_hal_rcc.c ****       while(__HAL_RCC_GET_FLAG(RCC_FLAG_LSERDY) == 0U)
 683:Drivers/STM32H7xx_HAL_Driver/Src/stm32h7xx_hal_rcc.c ****       {
 684:Drivers/STM32H7xx_HAL_Driver/Src/stm32h7xx_hal_rcc.c ****         if((HAL_GetTick() - tickstart ) > RCC_LSE_TIMEOUT_VALUE)
 685:Drivers/STM32H7xx_HAL_Driver/Src/stm32h7xx_hal_rcc.c ****         {
 686:Drivers/STM32H7xx_HAL_Driver/Src/stm32h7xx_hal_rcc.c ****           return HAL_TIMEOUT;
 687:Drivers/STM32H7xx_HAL_Driver/Src/stm32h7xx_hal_rcc.c ****         }
 688:Drivers/STM32H7xx_HAL_Driver/Src/stm32h7xx_hal_rcc.c ****       }
 689:Drivers/STM32H7xx_HAL_Driver/Src/stm32h7xx_hal_rcc.c ****     }
 690:Drivers/STM32H7xx_HAL_Driver/Src/stm32h7xx_hal_rcc.c ****     else
 691:Drivers/STM32H7xx_HAL_Driver/Src/stm32h7xx_hal_rcc.c ****     {
 692:Drivers/STM32H7xx_HAL_Driver/Src/stm32h7xx_hal_rcc.c ****       /* Get Start Tick*/
 693:Drivers/STM32H7xx_HAL_Driver/Src/stm32h7xx_hal_rcc.c ****       tickstart = HAL_GetTick();
 694:Drivers/STM32H7xx_HAL_Driver/Src/stm32h7xx_hal_rcc.c **** 
 695:Drivers/STM32H7xx_HAL_Driver/Src/stm32h7xx_hal_rcc.c ****       /* Wait till LSE is ready */
 696:Drivers/STM32H7xx_HAL_Driver/Src/stm32h7xx_hal_rcc.c ****       while(__HAL_RCC_GET_FLAG(RCC_FLAG_LSERDY) != 0U)
 697:Drivers/STM32H7xx_HAL_Driver/Src/stm32h7xx_hal_rcc.c ****       {
 698:Drivers/STM32H7xx_HAL_Driver/Src/stm32h7xx_hal_rcc.c ****         if((HAL_GetTick() - tickstart ) > RCC_LSE_TIMEOUT_VALUE)
 699:Drivers/STM32H7xx_HAL_Driver/Src/stm32h7xx_hal_rcc.c ****         {
 700:Drivers/STM32H7xx_HAL_Driver/Src/stm32h7xx_hal_rcc.c ****           return HAL_TIMEOUT;
 701:Drivers/STM32H7xx_HAL_Driver/Src/stm32h7xx_hal_rcc.c ****         }
 702:Drivers/STM32H7xx_HAL_Driver/Src/stm32h7xx_hal_rcc.c ****       }
 703:Drivers/STM32H7xx_HAL_Driver/Src/stm32h7xx_hal_rcc.c ****     }
 704:Drivers/STM32H7xx_HAL_Driver/Src/stm32h7xx_hal_rcc.c ****   }
 705:Drivers/STM32H7xx_HAL_Driver/Src/stm32h7xx_hal_rcc.c ****   /*-------------------------------- PLL Configuration -----------------------*/
 706:Drivers/STM32H7xx_HAL_Driver/Src/stm32h7xx_hal_rcc.c ****   /* Check the parameters */
 707:Drivers/STM32H7xx_HAL_Driver/Src/stm32h7xx_hal_rcc.c ****   assert_param(IS_RCC_PLL(RCC_OscInitStruct->PLL.PLLState));
ARM GAS  /tmp/cconV3EI.s 			page 36


 1099              		.loc 1 707 3 is_stmt 1 view .LVU350
 708:Drivers/STM32H7xx_HAL_Driver/Src/stm32h7xx_hal_rcc.c ****   if ((RCC_OscInitStruct->PLL.PLLState) != RCC_PLL_NONE)
 1100              		.loc 1 708 3 view .LVU351
 1101              		.loc 1 708 30 is_stmt 0 view .LVU352
 1102 03a0 636A     		ldr	r3, [r4, #36]
 1103              		.loc 1 708 6 view .LVU353
 1104 03a2 002B     		cmp	r3, #0
 1105 03a4 00F00281 		beq	.L119
 709:Drivers/STM32H7xx_HAL_Driver/Src/stm32h7xx_hal_rcc.c ****   {
 710:Drivers/STM32H7xx_HAL_Driver/Src/stm32h7xx_hal_rcc.c ****     /* Check if the PLL is used as system clock or not */
 711:Drivers/STM32H7xx_HAL_Driver/Src/stm32h7xx_hal_rcc.c ****     if(__HAL_RCC_GET_SYSCLK_SOURCE() != RCC_CFGR_SWS_PLL1)
 1106              		.loc 1 711 5 is_stmt 1 view .LVU354
 1107              		.loc 1 711 8 is_stmt 0 view .LVU355
 1108 03a8 764A     		ldr	r2, .L147
 1109 03aa 1269     		ldr	r2, [r2, #16]
 1110 03ac 02F03802 		and	r2, r2, #56
 1111              		.loc 1 711 7 view .LVU356
 1112 03b0 182A     		cmp	r2, #24
 1113 03b2 00F0FD80 		beq	.L120
 712:Drivers/STM32H7xx_HAL_Driver/Src/stm32h7xx_hal_rcc.c ****     {
 713:Drivers/STM32H7xx_HAL_Driver/Src/stm32h7xx_hal_rcc.c ****       if((RCC_OscInitStruct->PLL.PLLState) == RCC_PLL_ON)
 1114              		.loc 1 713 7 is_stmt 1 view .LVU357
 1115              		.loc 1 713 9 is_stmt 0 view .LVU358
 1116 03b6 022B     		cmp	r3, #2
 1117 03b8 75D0     		beq	.L138
 714:Drivers/STM32H7xx_HAL_Driver/Src/stm32h7xx_hal_rcc.c ****       {
 715:Drivers/STM32H7xx_HAL_Driver/Src/stm32h7xx_hal_rcc.c ****         /* Check the parameters */
 716:Drivers/STM32H7xx_HAL_Driver/Src/stm32h7xx_hal_rcc.c ****         assert_param(IS_RCC_PLLSOURCE(RCC_OscInitStruct->PLL.PLLSource));
 717:Drivers/STM32H7xx_HAL_Driver/Src/stm32h7xx_hal_rcc.c ****         assert_param(IS_RCC_PLLM_VALUE(RCC_OscInitStruct->PLL.PLLM));
 718:Drivers/STM32H7xx_HAL_Driver/Src/stm32h7xx_hal_rcc.c ****         assert_param(IS_RCC_PLLN_VALUE(RCC_OscInitStruct->PLL.PLLN));
 719:Drivers/STM32H7xx_HAL_Driver/Src/stm32h7xx_hal_rcc.c ****         assert_param(IS_RCC_PLLP_VALUE(RCC_OscInitStruct->PLL.PLLP));
 720:Drivers/STM32H7xx_HAL_Driver/Src/stm32h7xx_hal_rcc.c ****         assert_param(IS_RCC_PLLQ_VALUE(RCC_OscInitStruct->PLL.PLLQ));
 721:Drivers/STM32H7xx_HAL_Driver/Src/stm32h7xx_hal_rcc.c ****         assert_param(IS_RCC_PLLR_VALUE(RCC_OscInitStruct->PLL.PLLR));
 722:Drivers/STM32H7xx_HAL_Driver/Src/stm32h7xx_hal_rcc.c ****         assert_param(IS_RCC_PLLFRACN_VALUE(RCC_OscInitStruct->PLL.PLLFRACN));
 723:Drivers/STM32H7xx_HAL_Driver/Src/stm32h7xx_hal_rcc.c **** 
 724:Drivers/STM32H7xx_HAL_Driver/Src/stm32h7xx_hal_rcc.c ****         /* Disable the main PLL. */
 725:Drivers/STM32H7xx_HAL_Driver/Src/stm32h7xx_hal_rcc.c ****         __HAL_RCC_PLL_DISABLE();
 726:Drivers/STM32H7xx_HAL_Driver/Src/stm32h7xx_hal_rcc.c **** 
 727:Drivers/STM32H7xx_HAL_Driver/Src/stm32h7xx_hal_rcc.c ****         /* Get Start Tick*/
 728:Drivers/STM32H7xx_HAL_Driver/Src/stm32h7xx_hal_rcc.c ****         tickstart = HAL_GetTick();
 729:Drivers/STM32H7xx_HAL_Driver/Src/stm32h7xx_hal_rcc.c **** 
 730:Drivers/STM32H7xx_HAL_Driver/Src/stm32h7xx_hal_rcc.c ****         /* Wait till PLL is ready */
 731:Drivers/STM32H7xx_HAL_Driver/Src/stm32h7xx_hal_rcc.c ****         while(__HAL_RCC_GET_FLAG(RCC_FLAG_PLLRDY) != 0U)
 732:Drivers/STM32H7xx_HAL_Driver/Src/stm32h7xx_hal_rcc.c ****         {
 733:Drivers/STM32H7xx_HAL_Driver/Src/stm32h7xx_hal_rcc.c ****           if((HAL_GetTick() - tickstart ) > PLL_TIMEOUT_VALUE)
 734:Drivers/STM32H7xx_HAL_Driver/Src/stm32h7xx_hal_rcc.c ****           {
 735:Drivers/STM32H7xx_HAL_Driver/Src/stm32h7xx_hal_rcc.c ****             return HAL_TIMEOUT;
 736:Drivers/STM32H7xx_HAL_Driver/Src/stm32h7xx_hal_rcc.c ****           }
 737:Drivers/STM32H7xx_HAL_Driver/Src/stm32h7xx_hal_rcc.c ****         }
 738:Drivers/STM32H7xx_HAL_Driver/Src/stm32h7xx_hal_rcc.c **** 
 739:Drivers/STM32H7xx_HAL_Driver/Src/stm32h7xx_hal_rcc.c ****         /* Configure the main PLL clock source, multiplication and division factors. */
 740:Drivers/STM32H7xx_HAL_Driver/Src/stm32h7xx_hal_rcc.c ****         __HAL_RCC_PLL_CONFIG(RCC_OscInitStruct->PLL.PLLSource,
 741:Drivers/STM32H7xx_HAL_Driver/Src/stm32h7xx_hal_rcc.c ****                              RCC_OscInitStruct->PLL.PLLM,
 742:Drivers/STM32H7xx_HAL_Driver/Src/stm32h7xx_hal_rcc.c ****                              RCC_OscInitStruct->PLL.PLLN,
 743:Drivers/STM32H7xx_HAL_Driver/Src/stm32h7xx_hal_rcc.c ****                              RCC_OscInitStruct->PLL.PLLP,
 744:Drivers/STM32H7xx_HAL_Driver/Src/stm32h7xx_hal_rcc.c ****                              RCC_OscInitStruct->PLL.PLLQ,
 745:Drivers/STM32H7xx_HAL_Driver/Src/stm32h7xx_hal_rcc.c ****                              RCC_OscInitStruct->PLL.PLLR);
ARM GAS  /tmp/cconV3EI.s 			page 37


 746:Drivers/STM32H7xx_HAL_Driver/Src/stm32h7xx_hal_rcc.c **** 
 747:Drivers/STM32H7xx_HAL_Driver/Src/stm32h7xx_hal_rcc.c ****          /* Disable PLLFRACN . */
 748:Drivers/STM32H7xx_HAL_Driver/Src/stm32h7xx_hal_rcc.c ****          __HAL_RCC_PLLFRACN_DISABLE();
 749:Drivers/STM32H7xx_HAL_Driver/Src/stm32h7xx_hal_rcc.c **** 
 750:Drivers/STM32H7xx_HAL_Driver/Src/stm32h7xx_hal_rcc.c ****          /* Configure PLL  PLL1FRACN */
 751:Drivers/STM32H7xx_HAL_Driver/Src/stm32h7xx_hal_rcc.c ****          __HAL_RCC_PLLFRACN_CONFIG(RCC_OscInitStruct->PLL.PLLFRACN);
 752:Drivers/STM32H7xx_HAL_Driver/Src/stm32h7xx_hal_rcc.c **** 
 753:Drivers/STM32H7xx_HAL_Driver/Src/stm32h7xx_hal_rcc.c ****         /* Select PLL1 input reference frequency range: VCI */
 754:Drivers/STM32H7xx_HAL_Driver/Src/stm32h7xx_hal_rcc.c ****         __HAL_RCC_PLL_VCIRANGE(RCC_OscInitStruct->PLL.PLLRGE) ;
 755:Drivers/STM32H7xx_HAL_Driver/Src/stm32h7xx_hal_rcc.c **** 
 756:Drivers/STM32H7xx_HAL_Driver/Src/stm32h7xx_hal_rcc.c ****         /* Select PLL1 output frequency range : VCO */
 757:Drivers/STM32H7xx_HAL_Driver/Src/stm32h7xx_hal_rcc.c ****         __HAL_RCC_PLL_VCORANGE(RCC_OscInitStruct->PLL.PLLVCOSEL) ;
 758:Drivers/STM32H7xx_HAL_Driver/Src/stm32h7xx_hal_rcc.c **** 
 759:Drivers/STM32H7xx_HAL_Driver/Src/stm32h7xx_hal_rcc.c ****         /* Enable PLL System Clock output. */
 760:Drivers/STM32H7xx_HAL_Driver/Src/stm32h7xx_hal_rcc.c ****          __HAL_RCC_PLLCLKOUT_ENABLE(RCC_PLL1_DIVP);
 761:Drivers/STM32H7xx_HAL_Driver/Src/stm32h7xx_hal_rcc.c **** 
 762:Drivers/STM32H7xx_HAL_Driver/Src/stm32h7xx_hal_rcc.c ****         /* Enable PLL1Q Clock output. */
 763:Drivers/STM32H7xx_HAL_Driver/Src/stm32h7xx_hal_rcc.c ****          __HAL_RCC_PLLCLKOUT_ENABLE(RCC_PLL1_DIVQ);
 764:Drivers/STM32H7xx_HAL_Driver/Src/stm32h7xx_hal_rcc.c **** 
 765:Drivers/STM32H7xx_HAL_Driver/Src/stm32h7xx_hal_rcc.c ****         /* Enable PLL1R  Clock output. */
 766:Drivers/STM32H7xx_HAL_Driver/Src/stm32h7xx_hal_rcc.c ****          __HAL_RCC_PLLCLKOUT_ENABLE(RCC_PLL1_DIVR);
 767:Drivers/STM32H7xx_HAL_Driver/Src/stm32h7xx_hal_rcc.c **** 
 768:Drivers/STM32H7xx_HAL_Driver/Src/stm32h7xx_hal_rcc.c ****         /* Enable PLL1FRACN . */
 769:Drivers/STM32H7xx_HAL_Driver/Src/stm32h7xx_hal_rcc.c ****          __HAL_RCC_PLLFRACN_ENABLE();
 770:Drivers/STM32H7xx_HAL_Driver/Src/stm32h7xx_hal_rcc.c **** 
 771:Drivers/STM32H7xx_HAL_Driver/Src/stm32h7xx_hal_rcc.c ****         /* Enable the main PLL. */
 772:Drivers/STM32H7xx_HAL_Driver/Src/stm32h7xx_hal_rcc.c ****         __HAL_RCC_PLL_ENABLE();
 773:Drivers/STM32H7xx_HAL_Driver/Src/stm32h7xx_hal_rcc.c **** 
 774:Drivers/STM32H7xx_HAL_Driver/Src/stm32h7xx_hal_rcc.c ****         /* Get Start Tick*/
 775:Drivers/STM32H7xx_HAL_Driver/Src/stm32h7xx_hal_rcc.c ****         tickstart = HAL_GetTick();
 776:Drivers/STM32H7xx_HAL_Driver/Src/stm32h7xx_hal_rcc.c **** 
 777:Drivers/STM32H7xx_HAL_Driver/Src/stm32h7xx_hal_rcc.c ****         /* Wait till PLL is ready */
 778:Drivers/STM32H7xx_HAL_Driver/Src/stm32h7xx_hal_rcc.c ****         while(__HAL_RCC_GET_FLAG(RCC_FLAG_PLLRDY) == 0U)
 779:Drivers/STM32H7xx_HAL_Driver/Src/stm32h7xx_hal_rcc.c ****         {
 780:Drivers/STM32H7xx_HAL_Driver/Src/stm32h7xx_hal_rcc.c ****           if((HAL_GetTick() - tickstart ) > PLL_TIMEOUT_VALUE)
 781:Drivers/STM32H7xx_HAL_Driver/Src/stm32h7xx_hal_rcc.c ****           {
 782:Drivers/STM32H7xx_HAL_Driver/Src/stm32h7xx_hal_rcc.c ****             return HAL_TIMEOUT;
 783:Drivers/STM32H7xx_HAL_Driver/Src/stm32h7xx_hal_rcc.c ****           }
 784:Drivers/STM32H7xx_HAL_Driver/Src/stm32h7xx_hal_rcc.c ****         }
 785:Drivers/STM32H7xx_HAL_Driver/Src/stm32h7xx_hal_rcc.c ****       }
 786:Drivers/STM32H7xx_HAL_Driver/Src/stm32h7xx_hal_rcc.c ****       else
 787:Drivers/STM32H7xx_HAL_Driver/Src/stm32h7xx_hal_rcc.c ****       {
 788:Drivers/STM32H7xx_HAL_Driver/Src/stm32h7xx_hal_rcc.c ****         /* Disable the main PLL. */
 789:Drivers/STM32H7xx_HAL_Driver/Src/stm32h7xx_hal_rcc.c ****         __HAL_RCC_PLL_DISABLE();
 1118              		.loc 1 789 9 is_stmt 1 view .LVU359
 1119 03ba 724A     		ldr	r2, .L147
 1120 03bc 1368     		ldr	r3, [r2]
 1121 03be 23F08073 		bic	r3, r3, #16777216
 1122 03c2 1360     		str	r3, [r2]
 790:Drivers/STM32H7xx_HAL_Driver/Src/stm32h7xx_hal_rcc.c **** 
 791:Drivers/STM32H7xx_HAL_Driver/Src/stm32h7xx_hal_rcc.c ****         /* Get Start Tick*/
 792:Drivers/STM32H7xx_HAL_Driver/Src/stm32h7xx_hal_rcc.c ****         tickstart = HAL_GetTick();
 1123              		.loc 1 792 9 view .LVU360
 1124              		.loc 1 792 21 is_stmt 0 view .LVU361
 1125 03c4 FFF7FEFF 		bl	HAL_GetTick
 1126              	.LVL100:
 1127 03c8 0446     		mov	r4, r0
ARM GAS  /tmp/cconV3EI.s 			page 38


 1128              	.LVL101:
 793:Drivers/STM32H7xx_HAL_Driver/Src/stm32h7xx_hal_rcc.c **** 
 794:Drivers/STM32H7xx_HAL_Driver/Src/stm32h7xx_hal_rcc.c ****         /* Wait till PLL is ready */
 795:Drivers/STM32H7xx_HAL_Driver/Src/stm32h7xx_hal_rcc.c ****         while(__HAL_RCC_GET_FLAG(RCC_FLAG_PLLRDY) != 0U)
 1129              		.loc 1 795 9 is_stmt 1 view .LVU362
 1130              	.L99:
 1131              		.loc 1 795 15 is_stmt 0 view .LVU363
 1132 03ca 6E4B     		ldr	r3, .L147
 1133 03cc 1B68     		ldr	r3, [r3]
 1134              		.loc 1 795 14 view .LVU364
 1135 03ce 13F0007F 		tst	r3, #33554432
 1136 03d2 00F0E180 		beq	.L139
 796:Drivers/STM32H7xx_HAL_Driver/Src/stm32h7xx_hal_rcc.c ****         {
 797:Drivers/STM32H7xx_HAL_Driver/Src/stm32h7xx_hal_rcc.c ****           if((HAL_GetTick() - tickstart ) > PLL_TIMEOUT_VALUE)
 1137              		.loc 1 797 11 is_stmt 1 view .LVU365
 1138              		.loc 1 797 15 is_stmt 0 view .LVU366
 1139 03d6 FFF7FEFF 		bl	HAL_GetTick
 1140              	.LVL102:
 1141              		.loc 1 797 29 view .LVU367
 1142 03da 001B     		subs	r0, r0, r4
 1143              		.loc 1 797 13 view .LVU368
 1144 03dc 0228     		cmp	r0, #2
 1145 03de F4D9     		bls	.L99
 798:Drivers/STM32H7xx_HAL_Driver/Src/stm32h7xx_hal_rcc.c ****           {
 799:Drivers/STM32H7xx_HAL_Driver/Src/stm32h7xx_hal_rcc.c ****             return HAL_TIMEOUT;
 1146              		.loc 1 799 20 view .LVU369
 1147 03e0 0320     		movs	r0, #3
 1148 03e2 E4E0     		b	.L33
 1149              	.LVL103:
 1150              	.L137:
 657:Drivers/STM32H7xx_HAL_Driver/Src/stm32h7xx_hal_rcc.c **** 
 1151              		.loc 1 657 5 is_stmt 1 view .LVU370
 660:Drivers/STM32H7xx_HAL_Driver/Src/stm32h7xx_hal_rcc.c **** 
 1152              		.loc 1 660 5 view .LVU371
 660:Drivers/STM32H7xx_HAL_Driver/Src/stm32h7xx_hal_rcc.c **** 
 1153              		.loc 1 660 14 is_stmt 0 view .LVU372
 1154 03e4 684A     		ldr	r2, .L147+4
 1155 03e6 1368     		ldr	r3, [r2]
 1156 03e8 43F48073 		orr	r3, r3, #256
 1157 03ec 1360     		str	r3, [r2]
 663:Drivers/STM32H7xx_HAL_Driver/Src/stm32h7xx_hal_rcc.c **** 
 1158              		.loc 1 663 5 is_stmt 1 view .LVU373
 663:Drivers/STM32H7xx_HAL_Driver/Src/stm32h7xx_hal_rcc.c **** 
 1159              		.loc 1 663 17 is_stmt 0 view .LVU374
 1160 03ee FFF7FEFF 		bl	HAL_GetTick
 1161              	.LVL104:
 1162 03f2 0546     		mov	r5, r0
 1163              	.LVL105:
 665:Drivers/STM32H7xx_HAL_Driver/Src/stm32h7xx_hal_rcc.c ****     {
 1164              		.loc 1 665 5 is_stmt 1 view .LVU375
 1165              	.L83:
 665:Drivers/STM32H7xx_HAL_Driver/Src/stm32h7xx_hal_rcc.c ****     {
 1166              		.loc 1 665 15 is_stmt 0 view .LVU376
 1167 03f4 644B     		ldr	r3, .L147+4
 1168 03f6 1B68     		ldr	r3, [r3]
 665:Drivers/STM32H7xx_HAL_Driver/Src/stm32h7xx_hal_rcc.c ****     {
 1169              		.loc 1 665 10 view .LVU377
ARM GAS  /tmp/cconV3EI.s 			page 39


 1170 03f8 13F4807F 		tst	r3, #256
 1171 03fc 06D1     		bne	.L140
 667:Drivers/STM32H7xx_HAL_Driver/Src/stm32h7xx_hal_rcc.c ****       {
 1172              		.loc 1 667 7 is_stmt 1 view .LVU378
 667:Drivers/STM32H7xx_HAL_Driver/Src/stm32h7xx_hal_rcc.c ****       {
 1173              		.loc 1 667 11 is_stmt 0 view .LVU379
 1174 03fe FFF7FEFF 		bl	HAL_GetTick
 1175              	.LVL106:
 667:Drivers/STM32H7xx_HAL_Driver/Src/stm32h7xx_hal_rcc.c ****       {
 1176              		.loc 1 667 25 view .LVU380
 1177 0402 401B     		subs	r0, r0, r5
 667:Drivers/STM32H7xx_HAL_Driver/Src/stm32h7xx_hal_rcc.c ****       {
 1178              		.loc 1 667 9 view .LVU381
 1179 0404 6428     		cmp	r0, #100
 1180 0406 F5D9     		bls	.L83
 669:Drivers/STM32H7xx_HAL_Driver/Src/stm32h7xx_hal_rcc.c ****       }
 1181              		.loc 1 669 16 view .LVU382
 1182 0408 0320     		movs	r0, #3
 1183 040a D0E0     		b	.L33
 1184              	.L140:
 674:Drivers/STM32H7xx_HAL_Driver/Src/stm32h7xx_hal_rcc.c ****     /* Check the LSE State */
 1185              		.loc 1 674 5 is_stmt 1 view .LVU383
 674:Drivers/STM32H7xx_HAL_Driver/Src/stm32h7xx_hal_rcc.c ****     /* Check the LSE State */
 1186              		.loc 1 674 5 view .LVU384
 1187 040c A368     		ldr	r3, [r4, #8]
 1188 040e 012B     		cmp	r3, #1
 1189 0410 0AD0     		beq	.L141
 674:Drivers/STM32H7xx_HAL_Driver/Src/stm32h7xx_hal_rcc.c ****     /* Check the LSE State */
 1190              		.loc 1 674 5 discriminator 2 view .LVU385
 1191 0412 0BBB     		cbnz	r3, .L87
 674:Drivers/STM32H7xx_HAL_Driver/Src/stm32h7xx_hal_rcc.c ****     /* Check the LSE State */
 1192              		.loc 1 674 5 discriminator 3 view .LVU386
 1193 0414 5B4B     		ldr	r3, .L147
 1194 0416 1A6F     		ldr	r2, [r3, #112]
 1195 0418 22F00102 		bic	r2, r2, #1
 1196 041c 1A67     		str	r2, [r3, #112]
 674:Drivers/STM32H7xx_HAL_Driver/Src/stm32h7xx_hal_rcc.c ****     /* Check the LSE State */
 1197              		.loc 1 674 5 discriminator 3 view .LVU387
 1198 041e 1A6F     		ldr	r2, [r3, #112]
 1199 0420 22F00402 		bic	r2, r2, #4
 1200 0424 1A67     		str	r2, [r3, #112]
 1201 0426 04E0     		b	.L86
 1202              	.L141:
 674:Drivers/STM32H7xx_HAL_Driver/Src/stm32h7xx_hal_rcc.c ****     /* Check the LSE State */
 1203              		.loc 1 674 5 discriminator 1 view .LVU388
 1204 0428 564A     		ldr	r2, .L147
 1205 042a 136F     		ldr	r3, [r2, #112]
 1206 042c 43F00103 		orr	r3, r3, #1
 1207 0430 1367     		str	r3, [r2, #112]
 1208              	.L86:
 676:Drivers/STM32H7xx_HAL_Driver/Src/stm32h7xx_hal_rcc.c ****     {
 1209              		.loc 1 676 5 view .LVU389
 676:Drivers/STM32H7xx_HAL_Driver/Src/stm32h7xx_hal_rcc.c ****     {
 1210              		.loc 1 676 26 is_stmt 0 view .LVU390
 1211 0432 A368     		ldr	r3, [r4, #8]
 676:Drivers/STM32H7xx_HAL_Driver/Src/stm32h7xx_hal_rcc.c ****     {
 1212              		.loc 1 676 7 view .LVU391
ARM GAS  /tmp/cconV3EI.s 			page 40


 1213 0434 33B3     		cbz	r3, .L89
 679:Drivers/STM32H7xx_HAL_Driver/Src/stm32h7xx_hal_rcc.c **** 
 1214              		.loc 1 679 7 is_stmt 1 view .LVU392
 679:Drivers/STM32H7xx_HAL_Driver/Src/stm32h7xx_hal_rcc.c **** 
 1215              		.loc 1 679 19 is_stmt 0 view .LVU393
 1216 0436 FFF7FEFF 		bl	HAL_GetTick
 1217              	.LVL107:
 1218 043a 0546     		mov	r5, r0
 1219              	.LVL108:
 682:Drivers/STM32H7xx_HAL_Driver/Src/stm32h7xx_hal_rcc.c ****       {
 1220              		.loc 1 682 7 is_stmt 1 view .LVU394
 1221              	.L90:
 682:Drivers/STM32H7xx_HAL_Driver/Src/stm32h7xx_hal_rcc.c ****       {
 1222              		.loc 1 682 13 is_stmt 0 view .LVU395
 1223 043c 514B     		ldr	r3, .L147
 1224 043e 1B6F     		ldr	r3, [r3, #112]
 682:Drivers/STM32H7xx_HAL_Driver/Src/stm32h7xx_hal_rcc.c ****       {
 1225              		.loc 1 682 12 view .LVU396
 1226 0440 13F0020F 		tst	r3, #2
 1227 0444 ACD1     		bne	.L82
 684:Drivers/STM32H7xx_HAL_Driver/Src/stm32h7xx_hal_rcc.c ****         {
 1228              		.loc 1 684 9 is_stmt 1 view .LVU397
 684:Drivers/STM32H7xx_HAL_Driver/Src/stm32h7xx_hal_rcc.c ****         {
 1229              		.loc 1 684 13 is_stmt 0 view .LVU398
 1230 0446 FFF7FEFF 		bl	HAL_GetTick
 1231              	.LVL109:
 684:Drivers/STM32H7xx_HAL_Driver/Src/stm32h7xx_hal_rcc.c ****         {
 1232              		.loc 1 684 27 view .LVU399
 1233 044a 401B     		subs	r0, r0, r5
 684:Drivers/STM32H7xx_HAL_Driver/Src/stm32h7xx_hal_rcc.c ****         {
 1234              		.loc 1 684 11 view .LVU400
 1235 044c 41F28833 		movw	r3, #5000
 1236 0450 9842     		cmp	r0, r3
 1237 0452 F3D9     		bls	.L90
 686:Drivers/STM32H7xx_HAL_Driver/Src/stm32h7xx_hal_rcc.c ****         }
 1238              		.loc 1 686 18 view .LVU401
 1239 0454 0320     		movs	r0, #3
 1240 0456 AAE0     		b	.L33
 1241              	.L87:
 674:Drivers/STM32H7xx_HAL_Driver/Src/stm32h7xx_hal_rcc.c ****     /* Check the LSE State */
 1242              		.loc 1 674 5 is_stmt 1 discriminator 4 view .LVU402
 1243 0458 052B     		cmp	r3, #5
 1244 045a 09D0     		beq	.L142
 674:Drivers/STM32H7xx_HAL_Driver/Src/stm32h7xx_hal_rcc.c ****     /* Check the LSE State */
 1245              		.loc 1 674 5 discriminator 6 view .LVU403
 1246 045c 494B     		ldr	r3, .L147
 1247 045e 1A6F     		ldr	r2, [r3, #112]
 1248 0460 22F00102 		bic	r2, r2, #1
 1249 0464 1A67     		str	r2, [r3, #112]
 674:Drivers/STM32H7xx_HAL_Driver/Src/stm32h7xx_hal_rcc.c ****     /* Check the LSE State */
 1250              		.loc 1 674 5 discriminator 6 view .LVU404
 1251 0466 1A6F     		ldr	r2, [r3, #112]
 1252 0468 22F00402 		bic	r2, r2, #4
 1253 046c 1A67     		str	r2, [r3, #112]
 1254 046e E0E7     		b	.L86
 1255              	.L142:
 674:Drivers/STM32H7xx_HAL_Driver/Src/stm32h7xx_hal_rcc.c ****     /* Check the LSE State */
ARM GAS  /tmp/cconV3EI.s 			page 41


 1256              		.loc 1 674 5 discriminator 5 view .LVU405
 1257 0470 444B     		ldr	r3, .L147
 1258 0472 1A6F     		ldr	r2, [r3, #112]
 1259 0474 42F00402 		orr	r2, r2, #4
 1260 0478 1A67     		str	r2, [r3, #112]
 674:Drivers/STM32H7xx_HAL_Driver/Src/stm32h7xx_hal_rcc.c ****     /* Check the LSE State */
 1261              		.loc 1 674 5 discriminator 5 view .LVU406
 1262 047a 1A6F     		ldr	r2, [r3, #112]
 1263 047c 42F00102 		orr	r2, r2, #1
 1264 0480 1A67     		str	r2, [r3, #112]
 1265 0482 D6E7     		b	.L86
 1266              	.L89:
 693:Drivers/STM32H7xx_HAL_Driver/Src/stm32h7xx_hal_rcc.c **** 
 1267              		.loc 1 693 7 view .LVU407
 693:Drivers/STM32H7xx_HAL_Driver/Src/stm32h7xx_hal_rcc.c **** 
 1268              		.loc 1 693 19 is_stmt 0 view .LVU408
 1269 0484 FFF7FEFF 		bl	HAL_GetTick
 1270              	.LVL110:
 1271 0488 0546     		mov	r5, r0
 1272              	.LVL111:
 696:Drivers/STM32H7xx_HAL_Driver/Src/stm32h7xx_hal_rcc.c ****       {
 1273              		.loc 1 696 7 is_stmt 1 view .LVU409
 1274              	.L92:
 696:Drivers/STM32H7xx_HAL_Driver/Src/stm32h7xx_hal_rcc.c ****       {
 1275              		.loc 1 696 13 is_stmt 0 view .LVU410
 1276 048a 3E4B     		ldr	r3, .L147
 1277 048c 1B6F     		ldr	r3, [r3, #112]
 696:Drivers/STM32H7xx_HAL_Driver/Src/stm32h7xx_hal_rcc.c ****       {
 1278              		.loc 1 696 12 view .LVU411
 1279 048e 13F0020F 		tst	r3, #2
 1280 0492 85D0     		beq	.L82
 698:Drivers/STM32H7xx_HAL_Driver/Src/stm32h7xx_hal_rcc.c ****         {
 1281              		.loc 1 698 9 is_stmt 1 view .LVU412
 698:Drivers/STM32H7xx_HAL_Driver/Src/stm32h7xx_hal_rcc.c ****         {
 1282              		.loc 1 698 13 is_stmt 0 view .LVU413
 1283 0494 FFF7FEFF 		bl	HAL_GetTick
 1284              	.LVL112:
 698:Drivers/STM32H7xx_HAL_Driver/Src/stm32h7xx_hal_rcc.c ****         {
 1285              		.loc 1 698 27 view .LVU414
 1286 0498 401B     		subs	r0, r0, r5
 698:Drivers/STM32H7xx_HAL_Driver/Src/stm32h7xx_hal_rcc.c ****         {
 1287              		.loc 1 698 11 view .LVU415
 1288 049a 41F28833 		movw	r3, #5000
 1289 049e 9842     		cmp	r0, r3
 1290 04a0 F3D9     		bls	.L92
 700:Drivers/STM32H7xx_HAL_Driver/Src/stm32h7xx_hal_rcc.c ****         }
 1291              		.loc 1 700 18 view .LVU416
 1292 04a2 0320     		movs	r0, #3
 1293 04a4 83E0     		b	.L33
 1294              	.LVL113:
 1295              	.L138:
 716:Drivers/STM32H7xx_HAL_Driver/Src/stm32h7xx_hal_rcc.c ****         assert_param(IS_RCC_PLLM_VALUE(RCC_OscInitStruct->PLL.PLLM));
 1296              		.loc 1 716 9 is_stmt 1 view .LVU417
 717:Drivers/STM32H7xx_HAL_Driver/Src/stm32h7xx_hal_rcc.c ****         assert_param(IS_RCC_PLLN_VALUE(RCC_OscInitStruct->PLL.PLLN));
 1297              		.loc 1 717 9 view .LVU418
 718:Drivers/STM32H7xx_HAL_Driver/Src/stm32h7xx_hal_rcc.c ****         assert_param(IS_RCC_PLLP_VALUE(RCC_OscInitStruct->PLL.PLLP));
 1298              		.loc 1 718 9 view .LVU419
ARM GAS  /tmp/cconV3EI.s 			page 42


 719:Drivers/STM32H7xx_HAL_Driver/Src/stm32h7xx_hal_rcc.c ****         assert_param(IS_RCC_PLLQ_VALUE(RCC_OscInitStruct->PLL.PLLQ));
 1299              		.loc 1 719 9 view .LVU420
 720:Drivers/STM32H7xx_HAL_Driver/Src/stm32h7xx_hal_rcc.c ****         assert_param(IS_RCC_PLLR_VALUE(RCC_OscInitStruct->PLL.PLLR));
 1300              		.loc 1 720 9 view .LVU421
 721:Drivers/STM32H7xx_HAL_Driver/Src/stm32h7xx_hal_rcc.c ****         assert_param(IS_RCC_PLLFRACN_VALUE(RCC_OscInitStruct->PLL.PLLFRACN));
 1301              		.loc 1 721 9 view .LVU422
 722:Drivers/STM32H7xx_HAL_Driver/Src/stm32h7xx_hal_rcc.c **** 
 1302              		.loc 1 722 9 view .LVU423
 725:Drivers/STM32H7xx_HAL_Driver/Src/stm32h7xx_hal_rcc.c **** 
 1303              		.loc 1 725 9 view .LVU424
 1304 04a6 374A     		ldr	r2, .L147
 1305 04a8 1368     		ldr	r3, [r2]
 1306 04aa 23F08073 		bic	r3, r3, #16777216
 1307 04ae 1360     		str	r3, [r2]
 728:Drivers/STM32H7xx_HAL_Driver/Src/stm32h7xx_hal_rcc.c **** 
 1308              		.loc 1 728 9 view .LVU425
 728:Drivers/STM32H7xx_HAL_Driver/Src/stm32h7xx_hal_rcc.c **** 
 1309              		.loc 1 728 21 is_stmt 0 view .LVU426
 1310 04b0 FFF7FEFF 		bl	HAL_GetTick
 1311              	.LVL114:
 1312 04b4 0546     		mov	r5, r0
 1313              	.LVL115:
 731:Drivers/STM32H7xx_HAL_Driver/Src/stm32h7xx_hal_rcc.c ****         {
 1314              		.loc 1 731 9 is_stmt 1 view .LVU427
 1315              	.L95:
 731:Drivers/STM32H7xx_HAL_Driver/Src/stm32h7xx_hal_rcc.c ****         {
 1316              		.loc 1 731 15 is_stmt 0 view .LVU428
 1317 04b6 334B     		ldr	r3, .L147
 1318 04b8 1B68     		ldr	r3, [r3]
 731:Drivers/STM32H7xx_HAL_Driver/Src/stm32h7xx_hal_rcc.c ****         {
 1319              		.loc 1 731 14 view .LVU429
 1320 04ba 13F0007F 		tst	r3, #33554432
 1321 04be 06D0     		beq	.L143
 733:Drivers/STM32H7xx_HAL_Driver/Src/stm32h7xx_hal_rcc.c ****           {
 1322              		.loc 1 733 11 is_stmt 1 view .LVU430
 733:Drivers/STM32H7xx_HAL_Driver/Src/stm32h7xx_hal_rcc.c ****           {
 1323              		.loc 1 733 15 is_stmt 0 view .LVU431
 1324 04c0 FFF7FEFF 		bl	HAL_GetTick
 1325              	.LVL116:
 733:Drivers/STM32H7xx_HAL_Driver/Src/stm32h7xx_hal_rcc.c ****           {
 1326              		.loc 1 733 29 view .LVU432
 1327 04c4 401B     		subs	r0, r0, r5
 733:Drivers/STM32H7xx_HAL_Driver/Src/stm32h7xx_hal_rcc.c ****           {
 1328              		.loc 1 733 13 view .LVU433
 1329 04c6 0228     		cmp	r0, #2
 1330 04c8 F5D9     		bls	.L95
 735:Drivers/STM32H7xx_HAL_Driver/Src/stm32h7xx_hal_rcc.c ****           }
 1331              		.loc 1 735 20 view .LVU434
 1332 04ca 0320     		movs	r0, #3
 1333 04cc 6FE0     		b	.L33
 1334              	.L143:
 740:Drivers/STM32H7xx_HAL_Driver/Src/stm32h7xx_hal_rcc.c ****                              RCC_OscInitStruct->PLL.PLLM,
 1335              		.loc 1 740 9 is_stmt 1 view .LVU435
 740:Drivers/STM32H7xx_HAL_Driver/Src/stm32h7xx_hal_rcc.c ****                              RCC_OscInitStruct->PLL.PLLM,
 1336              		.loc 1 740 9 view .LVU436
 1337 04ce 2D4B     		ldr	r3, .L147
 1338 04d0 996A     		ldr	r1, [r3, #40]
ARM GAS  /tmp/cconV3EI.s 			page 43


 1339 04d2 2E4A     		ldr	r2, .L147+8
 1340 04d4 0A40     		ands	r2, r2, r1
 1341 04d6 A16A     		ldr	r1, [r4, #40]
 1342 04d8 E06A     		ldr	r0, [r4, #44]
 1343 04da 41EA0011 		orr	r1, r1, r0, lsl #4
 1344 04de 0A43     		orrs	r2, r2, r1
 1345 04e0 9A62     		str	r2, [r3, #40]
 740:Drivers/STM32H7xx_HAL_Driver/Src/stm32h7xx_hal_rcc.c ****                              RCC_OscInitStruct->PLL.PLLM,
 1346              		.loc 1 740 9 view .LVU437
 1347 04e2 226B     		ldr	r2, [r4, #48]
 1348 04e4 013A     		subs	r2, r2, #1
 1349 04e6 C2F30802 		ubfx	r2, r2, #0, #9
 1350 04ea 616B     		ldr	r1, [r4, #52]
 1351 04ec 0139     		subs	r1, r1, #1
 1352 04ee 4902     		lsls	r1, r1, #9
 1353 04f0 89B2     		uxth	r1, r1
 1354 04f2 0A43     		orrs	r2, r2, r1
 1355 04f4 A16B     		ldr	r1, [r4, #56]
 1356 04f6 0139     		subs	r1, r1, #1
 1357 04f8 0904     		lsls	r1, r1, #16
 1358 04fa 01F4FE01 		and	r1, r1, #8323072
 1359 04fe 0A43     		orrs	r2, r2, r1
 1360 0500 E16B     		ldr	r1, [r4, #60]
 1361 0502 0139     		subs	r1, r1, #1
 1362 0504 0906     		lsls	r1, r1, #24
 1363 0506 01F0FE41 		and	r1, r1, #2130706432
 1364 050a 0A43     		orrs	r2, r2, r1
 1365 050c 1A63     		str	r2, [r3, #48]
 748:Drivers/STM32H7xx_HAL_Driver/Src/stm32h7xx_hal_rcc.c **** 
 1366              		.loc 1 748 10 view .LVU438
 1367 050e DA6A     		ldr	r2, [r3, #44]
 1368 0510 22F00102 		bic	r2, r2, #1
 1369 0514 DA62     		str	r2, [r3, #44]
 751:Drivers/STM32H7xx_HAL_Driver/Src/stm32h7xx_hal_rcc.c **** 
 1370              		.loc 1 751 10 view .LVU439
 1371 0516 596B     		ldr	r1, [r3, #52]
 1372 0518 1D4A     		ldr	r2, .L147+12
 1373 051a 0A40     		ands	r2, r2, r1
 1374 051c A16C     		ldr	r1, [r4, #72]
 1375 051e 42EAC102 		orr	r2, r2, r1, lsl #3
 1376 0522 5A63     		str	r2, [r3, #52]
 754:Drivers/STM32H7xx_HAL_Driver/Src/stm32h7xx_hal_rcc.c **** 
 1377              		.loc 1 754 9 view .LVU440
 1378 0524 DA6A     		ldr	r2, [r3, #44]
 1379 0526 22F00C02 		bic	r2, r2, #12
 1380 052a 216C     		ldr	r1, [r4, #64]
 1381 052c 0A43     		orrs	r2, r2, r1
 1382 052e DA62     		str	r2, [r3, #44]
 757:Drivers/STM32H7xx_HAL_Driver/Src/stm32h7xx_hal_rcc.c **** 
 1383              		.loc 1 757 9 view .LVU441
 1384 0530 DA6A     		ldr	r2, [r3, #44]
 1385 0532 22F00202 		bic	r2, r2, #2
 1386 0536 616C     		ldr	r1, [r4, #68]
 1387 0538 0A43     		orrs	r2, r2, r1
 1388 053a DA62     		str	r2, [r3, #44]
 760:Drivers/STM32H7xx_HAL_Driver/Src/stm32h7xx_hal_rcc.c **** 
 1389              		.loc 1 760 10 view .LVU442
ARM GAS  /tmp/cconV3EI.s 			page 44


 1390 053c DA6A     		ldr	r2, [r3, #44]
 1391 053e 42F48032 		orr	r2, r2, #65536
 1392 0542 DA62     		str	r2, [r3, #44]
 763:Drivers/STM32H7xx_HAL_Driver/Src/stm32h7xx_hal_rcc.c **** 
 1393              		.loc 1 763 10 view .LVU443
 1394 0544 DA6A     		ldr	r2, [r3, #44]
 1395 0546 42F40032 		orr	r2, r2, #131072
 1396 054a DA62     		str	r2, [r3, #44]
 766:Drivers/STM32H7xx_HAL_Driver/Src/stm32h7xx_hal_rcc.c **** 
 1397              		.loc 1 766 10 view .LVU444
 1398 054c DA6A     		ldr	r2, [r3, #44]
 1399 054e 42F48022 		orr	r2, r2, #262144
 1400 0552 DA62     		str	r2, [r3, #44]
 769:Drivers/STM32H7xx_HAL_Driver/Src/stm32h7xx_hal_rcc.c **** 
 1401              		.loc 1 769 10 view .LVU445
 1402 0554 DA6A     		ldr	r2, [r3, #44]
 1403 0556 42F00102 		orr	r2, r2, #1
 1404 055a DA62     		str	r2, [r3, #44]
 772:Drivers/STM32H7xx_HAL_Driver/Src/stm32h7xx_hal_rcc.c **** 
 1405              		.loc 1 772 9 view .LVU446
 1406 055c 1A68     		ldr	r2, [r3]
 1407 055e 42F08072 		orr	r2, r2, #16777216
 1408 0562 1A60     		str	r2, [r3]
 775:Drivers/STM32H7xx_HAL_Driver/Src/stm32h7xx_hal_rcc.c **** 
 1409              		.loc 1 775 9 view .LVU447
 775:Drivers/STM32H7xx_HAL_Driver/Src/stm32h7xx_hal_rcc.c **** 
 1410              		.loc 1 775 21 is_stmt 0 view .LVU448
 1411 0564 FFF7FEFF 		bl	HAL_GetTick
 1412              	.LVL117:
 1413 0568 0446     		mov	r4, r0
 1414              	.LVL118:
 778:Drivers/STM32H7xx_HAL_Driver/Src/stm32h7xx_hal_rcc.c ****         {
 1415              		.loc 1 778 9 is_stmt 1 view .LVU449
 1416              	.L97:
 778:Drivers/STM32H7xx_HAL_Driver/Src/stm32h7xx_hal_rcc.c ****         {
 1417              		.loc 1 778 15 is_stmt 0 view .LVU450
 1418 056a 064B     		ldr	r3, .L147
 1419 056c 1B68     		ldr	r3, [r3]
 778:Drivers/STM32H7xx_HAL_Driver/Src/stm32h7xx_hal_rcc.c ****         {
 1420              		.loc 1 778 14 view .LVU451
 1421 056e 13F0007F 		tst	r3, #33554432
 1422 0572 0FD1     		bne	.L144
 780:Drivers/STM32H7xx_HAL_Driver/Src/stm32h7xx_hal_rcc.c ****           {
 1423              		.loc 1 780 11 is_stmt 1 view .LVU452
 780:Drivers/STM32H7xx_HAL_Driver/Src/stm32h7xx_hal_rcc.c ****           {
 1424              		.loc 1 780 15 is_stmt 0 view .LVU453
 1425 0574 FFF7FEFF 		bl	HAL_GetTick
 1426              	.LVL119:
 780:Drivers/STM32H7xx_HAL_Driver/Src/stm32h7xx_hal_rcc.c ****           {
 1427              		.loc 1 780 29 view .LVU454
 1428 0578 001B     		subs	r0, r0, r4
 780:Drivers/STM32H7xx_HAL_Driver/Src/stm32h7xx_hal_rcc.c ****           {
 1429              		.loc 1 780 13 view .LVU455
 1430 057a 0228     		cmp	r0, #2
 1431 057c F5D9     		bls	.L97
 782:Drivers/STM32H7xx_HAL_Driver/Src/stm32h7xx_hal_rcc.c ****           }
 1432              		.loc 1 782 20 view .LVU456
ARM GAS  /tmp/cconV3EI.s 			page 45


 1433 057e 0320     		movs	r0, #3
 1434 0580 15E0     		b	.L33
 1435              	.L148:
 1436 0582 00BF     		.align	2
 1437              	.L147:
 1438 0584 00440258 		.word	1476543488
 1439 0588 00480258 		.word	1476544512
 1440 058c 0CFCFFFF 		.word	-1012
 1441 0590 0700FFFF 		.word	-65529
 1442              	.L144:
 800:Drivers/STM32H7xx_HAL_Driver/Src/stm32h7xx_hal_rcc.c ****           }
 801:Drivers/STM32H7xx_HAL_Driver/Src/stm32h7xx_hal_rcc.c ****         }
 802:Drivers/STM32H7xx_HAL_Driver/Src/stm32h7xx_hal_rcc.c ****       }
 803:Drivers/STM32H7xx_HAL_Driver/Src/stm32h7xx_hal_rcc.c ****     }
 804:Drivers/STM32H7xx_HAL_Driver/Src/stm32h7xx_hal_rcc.c ****     else
 805:Drivers/STM32H7xx_HAL_Driver/Src/stm32h7xx_hal_rcc.c ****     {
 806:Drivers/STM32H7xx_HAL_Driver/Src/stm32h7xx_hal_rcc.c ****       return HAL_ERROR;
 807:Drivers/STM32H7xx_HAL_Driver/Src/stm32h7xx_hal_rcc.c ****     }
 808:Drivers/STM32H7xx_HAL_Driver/Src/stm32h7xx_hal_rcc.c ****   }
 809:Drivers/STM32H7xx_HAL_Driver/Src/stm32h7xx_hal_rcc.c ****   return HAL_OK;
 1443              		.loc 1 809 10 view .LVU457
 1444 0594 0020     		movs	r0, #0
 1445 0596 0AE0     		b	.L33
 1446              	.L139:
 1447              		.loc 1 809 10 view .LVU458
 1448 0598 0020     		movs	r0, #0
 1449 059a 08E0     		b	.L33
 1450              	.LVL120:
 1451              	.L101:
 1452              	.LCFI2:
 1453              		.cfi_def_cfa_offset 0
 1454              		.cfi_restore 3
 1455              		.cfi_restore 4
 1456              		.cfi_restore 5
 1457              		.cfi_restore 14
 364:Drivers/STM32H7xx_HAL_Driver/Src/stm32h7xx_hal_rcc.c ****   }
 1458              		.loc 1 364 12 view .LVU459
 1459 059c 0120     		movs	r0, #1
 1460              	.LVL121:
 810:Drivers/STM32H7xx_HAL_Driver/Src/stm32h7xx_hal_rcc.c **** }
 1461              		.loc 1 810 1 view .LVU460
 1462 059e 7047     		bx	lr
 1463              	.LVL122:
 1464              	.L130:
 1465              	.LCFI3:
 1466              		.cfi_def_cfa_offset 16
 1467              		.cfi_offset 3, -16
 1468              		.cfi_offset 4, -12
 1469              		.cfi_offset 5, -8
 1470              		.cfi_offset 14, -4
 1471              	.LBB10:
 382:Drivers/STM32H7xx_HAL_Driver/Src/stm32h7xx_hal_rcc.c ****       }
 1472              		.loc 1 382 16 view .LVU461
 1473 05a0 0120     		movs	r0, #1
 1474              	.LVL123:
 382:Drivers/STM32H7xx_HAL_Driver/Src/stm32h7xx_hal_rcc.c ****       }
 1475              		.loc 1 382 16 view .LVU462
ARM GAS  /tmp/cconV3EI.s 			page 46


 1476 05a2 04E0     		b	.L33
 1477              	.LVL124:
 1478              	.L105:
 382:Drivers/STM32H7xx_HAL_Driver/Src/stm32h7xx_hal_rcc.c ****       }
 1479              		.loc 1 382 16 view .LVU463
 1480              	.LBE10:
 1481              	.LBB11:
 436:Drivers/STM32H7xx_HAL_Driver/Src/stm32h7xx_hal_rcc.c ****       }
 1482              		.loc 1 436 16 view .LVU464
 1483 05a4 0120     		movs	r0, #1
 1484 05a6 02E0     		b	.L33
 1485              	.LVL125:
 1486              	.L109:
 436:Drivers/STM32H7xx_HAL_Driver/Src/stm32h7xx_hal_rcc.c ****       }
 1487              		.loc 1 436 16 view .LVU465
 1488              	.LBE11:
 1489              	.LBB12:
 517:Drivers/STM32H7xx_HAL_Driver/Src/stm32h7xx_hal_rcc.c ****       }
 1490              		.loc 1 517 16 view .LVU466
 1491 05a8 0120     		movs	r0, #1
 1492 05aa 00E0     		b	.L33
 1493              	.L119:
 517:Drivers/STM32H7xx_HAL_Driver/Src/stm32h7xx_hal_rcc.c ****       }
 1494              		.loc 1 517 16 view .LVU467
 1495              	.LBE12:
 809:Drivers/STM32H7xx_HAL_Driver/Src/stm32h7xx_hal_rcc.c **** }
 1496              		.loc 1 809 10 view .LVU468
 1497 05ac 0020     		movs	r0, #0
 1498              	.LVL126:
 1499              	.L33:
 1500              		.loc 1 810 1 view .LVU469
 1501 05ae 38BD     		pop	{r3, r4, r5, pc}
 1502              	.LVL127:
 1503              	.L120:
 806:Drivers/STM32H7xx_HAL_Driver/Src/stm32h7xx_hal_rcc.c ****     }
 1504              		.loc 1 806 14 view .LVU470
 1505 05b0 0120     		movs	r0, #1
 1506 05b2 FCE7     		b	.L33
 1507              		.cfi_endproc
 1508              	.LFE142:
 1510              		.section	.text.HAL_RCC_MCOConfig,"ax",%progbits
 1511              		.align	1
 1512              		.global	HAL_RCC_MCOConfig
 1513              		.syntax unified
 1514              		.thumb
 1515              		.thumb_func
 1516              		.fpu fpv5-d16
 1518              	HAL_RCC_MCOConfig:
 1519              	.LVL128:
 1520              	.LFB144:
 811:Drivers/STM32H7xx_HAL_Driver/Src/stm32h7xx_hal_rcc.c **** 
 812:Drivers/STM32H7xx_HAL_Driver/Src/stm32h7xx_hal_rcc.c **** /**
 813:Drivers/STM32H7xx_HAL_Driver/Src/stm32h7xx_hal_rcc.c ****   * @brief  Initializes the CPU, AHB and APB buses clocks according to the specified
 814:Drivers/STM32H7xx_HAL_Driver/Src/stm32h7xx_hal_rcc.c ****   *         parameters in the RCC_ClkInitStruct.
 815:Drivers/STM32H7xx_HAL_Driver/Src/stm32h7xx_hal_rcc.c ****   * @param  RCC_ClkInitStruct: pointer to an RCC_OscInitTypeDef structure that
 816:Drivers/STM32H7xx_HAL_Driver/Src/stm32h7xx_hal_rcc.c ****   *         contains the configuration information for the RCC peripheral.
 817:Drivers/STM32H7xx_HAL_Driver/Src/stm32h7xx_hal_rcc.c ****   * @param  FLatency: FLASH Latency, this parameter depend on device selected
ARM GAS  /tmp/cconV3EI.s 			page 47


 818:Drivers/STM32H7xx_HAL_Driver/Src/stm32h7xx_hal_rcc.c ****   *
 819:Drivers/STM32H7xx_HAL_Driver/Src/stm32h7xx_hal_rcc.c ****   * @note   The SystemCoreClock CMSIS variable is used to store System Clock Frequency
 820:Drivers/STM32H7xx_HAL_Driver/Src/stm32h7xx_hal_rcc.c ****   *         and updated by HAL_InitTick() function called within this function
 821:Drivers/STM32H7xx_HAL_Driver/Src/stm32h7xx_hal_rcc.c ****   *
 822:Drivers/STM32H7xx_HAL_Driver/Src/stm32h7xx_hal_rcc.c ****   * @note   The HSI is used (enabled by hardware) as system clock source after
 823:Drivers/STM32H7xx_HAL_Driver/Src/stm32h7xx_hal_rcc.c ****   *         start-up from Reset, wake-up from STOP and STANDBY mode, or in case
 824:Drivers/STM32H7xx_HAL_Driver/Src/stm32h7xx_hal_rcc.c ****   *         of failure of the HSE used directly or indirectly as system clock
 825:Drivers/STM32H7xx_HAL_Driver/Src/stm32h7xx_hal_rcc.c ****   *         (if the Clock Security System CSS is enabled).
 826:Drivers/STM32H7xx_HAL_Driver/Src/stm32h7xx_hal_rcc.c ****   *
 827:Drivers/STM32H7xx_HAL_Driver/Src/stm32h7xx_hal_rcc.c ****   * @note   A switch from one clock source to another occurs only if the target
 828:Drivers/STM32H7xx_HAL_Driver/Src/stm32h7xx_hal_rcc.c ****   *         clock source is ready (clock stable after start-up delay or PLL locked).
 829:Drivers/STM32H7xx_HAL_Driver/Src/stm32h7xx_hal_rcc.c ****   *         If a clock source which is not yet ready is selected, the switch will
 830:Drivers/STM32H7xx_HAL_Driver/Src/stm32h7xx_hal_rcc.c ****   *         occur when the clock source will be ready.
 831:Drivers/STM32H7xx_HAL_Driver/Src/stm32h7xx_hal_rcc.c ****   *         You can use HAL_RCC_GetClockConfig() function to know which clock is
 832:Drivers/STM32H7xx_HAL_Driver/Src/stm32h7xx_hal_rcc.c ****   *         currently used as system clock source.
 833:Drivers/STM32H7xx_HAL_Driver/Src/stm32h7xx_hal_rcc.c ****   * @note   Depending on the device voltage range, the software has to set correctly
 834:Drivers/STM32H7xx_HAL_Driver/Src/stm32h7xx_hal_rcc.c ****   *         D1CPRE[3:0] bits to ensure that  Domain1 core clock not exceed the maximum allowed freq
 835:Drivers/STM32H7xx_HAL_Driver/Src/stm32h7xx_hal_rcc.c ****   *         (for more details refer to section above "Initialization/de-initialization functions")
 836:Drivers/STM32H7xx_HAL_Driver/Src/stm32h7xx_hal_rcc.c ****   * @retval None
 837:Drivers/STM32H7xx_HAL_Driver/Src/stm32h7xx_hal_rcc.c ****   */
 838:Drivers/STM32H7xx_HAL_Driver/Src/stm32h7xx_hal_rcc.c **** HAL_StatusTypeDef HAL_RCC_ClockConfig(RCC_ClkInitTypeDef  *RCC_ClkInitStruct, uint32_t FLatency)
 839:Drivers/STM32H7xx_HAL_Driver/Src/stm32h7xx_hal_rcc.c **** {
 840:Drivers/STM32H7xx_HAL_Driver/Src/stm32h7xx_hal_rcc.c ****   HAL_StatusTypeDef halstatus;
 841:Drivers/STM32H7xx_HAL_Driver/Src/stm32h7xx_hal_rcc.c ****   uint32_t tickstart;
 842:Drivers/STM32H7xx_HAL_Driver/Src/stm32h7xx_hal_rcc.c **** 
 843:Drivers/STM32H7xx_HAL_Driver/Src/stm32h7xx_hal_rcc.c ****    /* Check Null pointer */
 844:Drivers/STM32H7xx_HAL_Driver/Src/stm32h7xx_hal_rcc.c ****   if(RCC_ClkInitStruct == NULL)
 845:Drivers/STM32H7xx_HAL_Driver/Src/stm32h7xx_hal_rcc.c ****   {
 846:Drivers/STM32H7xx_HAL_Driver/Src/stm32h7xx_hal_rcc.c ****     return HAL_ERROR;
 847:Drivers/STM32H7xx_HAL_Driver/Src/stm32h7xx_hal_rcc.c ****   }
 848:Drivers/STM32H7xx_HAL_Driver/Src/stm32h7xx_hal_rcc.c **** 
 849:Drivers/STM32H7xx_HAL_Driver/Src/stm32h7xx_hal_rcc.c ****   /* Check the parameters */
 850:Drivers/STM32H7xx_HAL_Driver/Src/stm32h7xx_hal_rcc.c ****   assert_param(IS_RCC_CLOCKTYPE(RCC_ClkInitStruct->ClockType));
 851:Drivers/STM32H7xx_HAL_Driver/Src/stm32h7xx_hal_rcc.c ****   assert_param(IS_FLASH_LATENCY(FLatency));
 852:Drivers/STM32H7xx_HAL_Driver/Src/stm32h7xx_hal_rcc.c **** 
 853:Drivers/STM32H7xx_HAL_Driver/Src/stm32h7xx_hal_rcc.c ****   /* To correctly read data from FLASH memory, the number of wait states (LATENCY)
 854:Drivers/STM32H7xx_HAL_Driver/Src/stm32h7xx_hal_rcc.c ****     must be correctly programmed according to the frequency of the CPU clock
 855:Drivers/STM32H7xx_HAL_Driver/Src/stm32h7xx_hal_rcc.c ****     (HCLK) and the supply voltage of the device. */
 856:Drivers/STM32H7xx_HAL_Driver/Src/stm32h7xx_hal_rcc.c **** 
 857:Drivers/STM32H7xx_HAL_Driver/Src/stm32h7xx_hal_rcc.c ****   /* Increasing the CPU frequency */
 858:Drivers/STM32H7xx_HAL_Driver/Src/stm32h7xx_hal_rcc.c ****   if(FLatency > __HAL_FLASH_GET_LATENCY())
 859:Drivers/STM32H7xx_HAL_Driver/Src/stm32h7xx_hal_rcc.c ****   {
 860:Drivers/STM32H7xx_HAL_Driver/Src/stm32h7xx_hal_rcc.c ****     /* Program the new number of wait states to the LATENCY bits in the FLASH_ACR register */
 861:Drivers/STM32H7xx_HAL_Driver/Src/stm32h7xx_hal_rcc.c ****     __HAL_FLASH_SET_LATENCY(FLatency);
 862:Drivers/STM32H7xx_HAL_Driver/Src/stm32h7xx_hal_rcc.c **** 
 863:Drivers/STM32H7xx_HAL_Driver/Src/stm32h7xx_hal_rcc.c ****     /* Check that the new number of wait states is taken into account to access the Flash
 864:Drivers/STM32H7xx_HAL_Driver/Src/stm32h7xx_hal_rcc.c ****     memory by reading the FLASH_ACR register */
 865:Drivers/STM32H7xx_HAL_Driver/Src/stm32h7xx_hal_rcc.c ****     if(__HAL_FLASH_GET_LATENCY() != FLatency)
 866:Drivers/STM32H7xx_HAL_Driver/Src/stm32h7xx_hal_rcc.c ****     {
 867:Drivers/STM32H7xx_HAL_Driver/Src/stm32h7xx_hal_rcc.c ****       return HAL_ERROR;
 868:Drivers/STM32H7xx_HAL_Driver/Src/stm32h7xx_hal_rcc.c ****     }
 869:Drivers/STM32H7xx_HAL_Driver/Src/stm32h7xx_hal_rcc.c **** 
 870:Drivers/STM32H7xx_HAL_Driver/Src/stm32h7xx_hal_rcc.c ****   }
 871:Drivers/STM32H7xx_HAL_Driver/Src/stm32h7xx_hal_rcc.c **** 
 872:Drivers/STM32H7xx_HAL_Driver/Src/stm32h7xx_hal_rcc.c ****   /* Increasing the BUS frequency divider */
 873:Drivers/STM32H7xx_HAL_Driver/Src/stm32h7xx_hal_rcc.c ****   /*-------------------------- D1PCLK1 Configuration ---------------------------*/
 874:Drivers/STM32H7xx_HAL_Driver/Src/stm32h7xx_hal_rcc.c ****   if(((RCC_ClkInitStruct->ClockType) & RCC_CLOCKTYPE_D1PCLK1) == RCC_CLOCKTYPE_D1PCLK1)
ARM GAS  /tmp/cconV3EI.s 			page 48


 875:Drivers/STM32H7xx_HAL_Driver/Src/stm32h7xx_hal_rcc.c ****   {
 876:Drivers/STM32H7xx_HAL_Driver/Src/stm32h7xx_hal_rcc.c ****     if((RCC_ClkInitStruct->APB3CLKDivider) > (RCC->D1CFGR & RCC_D1CFGR_D1PPRE))
 877:Drivers/STM32H7xx_HAL_Driver/Src/stm32h7xx_hal_rcc.c ****     {
 878:Drivers/STM32H7xx_HAL_Driver/Src/stm32h7xx_hal_rcc.c ****       assert_param(IS_RCC_D1PCLK1(RCC_ClkInitStruct->APB3CLKDivider));
 879:Drivers/STM32H7xx_HAL_Driver/Src/stm32h7xx_hal_rcc.c ****       MODIFY_REG(RCC->D1CFGR, RCC_D1CFGR_D1PPRE, RCC_ClkInitStruct->APB3CLKDivider);
 880:Drivers/STM32H7xx_HAL_Driver/Src/stm32h7xx_hal_rcc.c ****     }
 881:Drivers/STM32H7xx_HAL_Driver/Src/stm32h7xx_hal_rcc.c ****   }
 882:Drivers/STM32H7xx_HAL_Driver/Src/stm32h7xx_hal_rcc.c **** 
 883:Drivers/STM32H7xx_HAL_Driver/Src/stm32h7xx_hal_rcc.c ****   /*-------------------------- PCLK1 Configuration ---------------------------*/
 884:Drivers/STM32H7xx_HAL_Driver/Src/stm32h7xx_hal_rcc.c ****   if(((RCC_ClkInitStruct->ClockType) & RCC_CLOCKTYPE_PCLK1) == RCC_CLOCKTYPE_PCLK1)
 885:Drivers/STM32H7xx_HAL_Driver/Src/stm32h7xx_hal_rcc.c ****   {
 886:Drivers/STM32H7xx_HAL_Driver/Src/stm32h7xx_hal_rcc.c ****     if((RCC_ClkInitStruct->APB1CLKDivider) > (RCC->D2CFGR & RCC_D2CFGR_D2PPRE1))
 887:Drivers/STM32H7xx_HAL_Driver/Src/stm32h7xx_hal_rcc.c ****     {
 888:Drivers/STM32H7xx_HAL_Driver/Src/stm32h7xx_hal_rcc.c ****       assert_param(IS_RCC_PCLK1(RCC_ClkInitStruct->APB1CLKDivider));
 889:Drivers/STM32H7xx_HAL_Driver/Src/stm32h7xx_hal_rcc.c ****       MODIFY_REG(RCC->D2CFGR, RCC_D2CFGR_D2PPRE1, (RCC_ClkInitStruct->APB1CLKDivider));
 890:Drivers/STM32H7xx_HAL_Driver/Src/stm32h7xx_hal_rcc.c ****     }
 891:Drivers/STM32H7xx_HAL_Driver/Src/stm32h7xx_hal_rcc.c ****   }
 892:Drivers/STM32H7xx_HAL_Driver/Src/stm32h7xx_hal_rcc.c **** 
 893:Drivers/STM32H7xx_HAL_Driver/Src/stm32h7xx_hal_rcc.c ****   /*-------------------------- PCLK2 Configuration ---------------------------*/
 894:Drivers/STM32H7xx_HAL_Driver/Src/stm32h7xx_hal_rcc.c ****   if(((RCC_ClkInitStruct->ClockType) & RCC_CLOCKTYPE_PCLK2) == RCC_CLOCKTYPE_PCLK2)
 895:Drivers/STM32H7xx_HAL_Driver/Src/stm32h7xx_hal_rcc.c ****   {
 896:Drivers/STM32H7xx_HAL_Driver/Src/stm32h7xx_hal_rcc.c ****     if((RCC_ClkInitStruct->APB2CLKDivider) > (RCC->D2CFGR & RCC_D2CFGR_D2PPRE2))
 897:Drivers/STM32H7xx_HAL_Driver/Src/stm32h7xx_hal_rcc.c ****     {
 898:Drivers/STM32H7xx_HAL_Driver/Src/stm32h7xx_hal_rcc.c ****       assert_param(IS_RCC_PCLK2(RCC_ClkInitStruct->APB2CLKDivider));
 899:Drivers/STM32H7xx_HAL_Driver/Src/stm32h7xx_hal_rcc.c ****       MODIFY_REG(RCC->D2CFGR, RCC_D2CFGR_D2PPRE2, (RCC_ClkInitStruct->APB2CLKDivider));
 900:Drivers/STM32H7xx_HAL_Driver/Src/stm32h7xx_hal_rcc.c ****     }
 901:Drivers/STM32H7xx_HAL_Driver/Src/stm32h7xx_hal_rcc.c ****   }
 902:Drivers/STM32H7xx_HAL_Driver/Src/stm32h7xx_hal_rcc.c **** 
 903:Drivers/STM32H7xx_HAL_Driver/Src/stm32h7xx_hal_rcc.c ****   /*-------------------------- D3PCLK1 Configuration ---------------------------*/
 904:Drivers/STM32H7xx_HAL_Driver/Src/stm32h7xx_hal_rcc.c ****   if(((RCC_ClkInitStruct->ClockType) & RCC_CLOCKTYPE_D3PCLK1) == RCC_CLOCKTYPE_D3PCLK1)
 905:Drivers/STM32H7xx_HAL_Driver/Src/stm32h7xx_hal_rcc.c ****   {
 906:Drivers/STM32H7xx_HAL_Driver/Src/stm32h7xx_hal_rcc.c ****     if((RCC_ClkInitStruct->APB4CLKDivider) > (RCC->D3CFGR & RCC_D3CFGR_D3PPRE))
 907:Drivers/STM32H7xx_HAL_Driver/Src/stm32h7xx_hal_rcc.c ****     {
 908:Drivers/STM32H7xx_HAL_Driver/Src/stm32h7xx_hal_rcc.c ****       assert_param(IS_RCC_D3PCLK1(RCC_ClkInitStruct->APB4CLKDivider));
 909:Drivers/STM32H7xx_HAL_Driver/Src/stm32h7xx_hal_rcc.c ****       MODIFY_REG(RCC->D3CFGR, RCC_D3CFGR_D3PPRE, (RCC_ClkInitStruct->APB4CLKDivider) );
 910:Drivers/STM32H7xx_HAL_Driver/Src/stm32h7xx_hal_rcc.c ****     }
 911:Drivers/STM32H7xx_HAL_Driver/Src/stm32h7xx_hal_rcc.c ****   }
 912:Drivers/STM32H7xx_HAL_Driver/Src/stm32h7xx_hal_rcc.c **** 
 913:Drivers/STM32H7xx_HAL_Driver/Src/stm32h7xx_hal_rcc.c ****    /*-------------------------- HCLK Configuration --------------------------*/
 914:Drivers/STM32H7xx_HAL_Driver/Src/stm32h7xx_hal_rcc.c ****   if(((RCC_ClkInitStruct->ClockType) & RCC_CLOCKTYPE_HCLK) == RCC_CLOCKTYPE_HCLK)
 915:Drivers/STM32H7xx_HAL_Driver/Src/stm32h7xx_hal_rcc.c ****   {
 916:Drivers/STM32H7xx_HAL_Driver/Src/stm32h7xx_hal_rcc.c ****     if((RCC_ClkInitStruct->AHBCLKDivider) > (RCC->D1CFGR & RCC_D1CFGR_HPRE))
 917:Drivers/STM32H7xx_HAL_Driver/Src/stm32h7xx_hal_rcc.c ****     {
 918:Drivers/STM32H7xx_HAL_Driver/Src/stm32h7xx_hal_rcc.c ****       /* Set the new HCLK clock divider */
 919:Drivers/STM32H7xx_HAL_Driver/Src/stm32h7xx_hal_rcc.c ****       assert_param(IS_RCC_HCLK(RCC_ClkInitStruct->AHBCLKDivider));
 920:Drivers/STM32H7xx_HAL_Driver/Src/stm32h7xx_hal_rcc.c ****       MODIFY_REG(RCC->D1CFGR, RCC_D1CFGR_HPRE, RCC_ClkInitStruct->AHBCLKDivider);
 921:Drivers/STM32H7xx_HAL_Driver/Src/stm32h7xx_hal_rcc.c ****     }
 922:Drivers/STM32H7xx_HAL_Driver/Src/stm32h7xx_hal_rcc.c ****   }
 923:Drivers/STM32H7xx_HAL_Driver/Src/stm32h7xx_hal_rcc.c **** 
 924:Drivers/STM32H7xx_HAL_Driver/Src/stm32h7xx_hal_rcc.c ****     /*------------------------- SYSCLK Configuration -------------------------*/
 925:Drivers/STM32H7xx_HAL_Driver/Src/stm32h7xx_hal_rcc.c ****     if(((RCC_ClkInitStruct->ClockType) & RCC_CLOCKTYPE_SYSCLK) == RCC_CLOCKTYPE_SYSCLK)
 926:Drivers/STM32H7xx_HAL_Driver/Src/stm32h7xx_hal_rcc.c ****     {
 927:Drivers/STM32H7xx_HAL_Driver/Src/stm32h7xx_hal_rcc.c ****       assert_param(IS_RCC_SYSCLK(RCC_ClkInitStruct->SYSCLKDivider));
 928:Drivers/STM32H7xx_HAL_Driver/Src/stm32h7xx_hal_rcc.c ****       assert_param(IS_RCC_SYSCLKSOURCE(RCC_ClkInitStruct->SYSCLKSource));
 929:Drivers/STM32H7xx_HAL_Driver/Src/stm32h7xx_hal_rcc.c ****       MODIFY_REG(RCC->D1CFGR, RCC_D1CFGR_D1CPRE, RCC_ClkInitStruct->SYSCLKDivider);
 930:Drivers/STM32H7xx_HAL_Driver/Src/stm32h7xx_hal_rcc.c ****       /* HSE is selected as System Clock Source */
 931:Drivers/STM32H7xx_HAL_Driver/Src/stm32h7xx_hal_rcc.c ****       if(RCC_ClkInitStruct->SYSCLKSource == RCC_SYSCLKSOURCE_HSE)
ARM GAS  /tmp/cconV3EI.s 			page 49


 932:Drivers/STM32H7xx_HAL_Driver/Src/stm32h7xx_hal_rcc.c ****       {
 933:Drivers/STM32H7xx_HAL_Driver/Src/stm32h7xx_hal_rcc.c ****         /* Check the HSE ready flag */
 934:Drivers/STM32H7xx_HAL_Driver/Src/stm32h7xx_hal_rcc.c ****         if(__HAL_RCC_GET_FLAG(RCC_FLAG_HSERDY) == 0U)
 935:Drivers/STM32H7xx_HAL_Driver/Src/stm32h7xx_hal_rcc.c ****         {
 936:Drivers/STM32H7xx_HAL_Driver/Src/stm32h7xx_hal_rcc.c ****           return HAL_ERROR;
 937:Drivers/STM32H7xx_HAL_Driver/Src/stm32h7xx_hal_rcc.c ****         }
 938:Drivers/STM32H7xx_HAL_Driver/Src/stm32h7xx_hal_rcc.c ****       }
 939:Drivers/STM32H7xx_HAL_Driver/Src/stm32h7xx_hal_rcc.c ****       /* PLL is selected as System Clock Source */
 940:Drivers/STM32H7xx_HAL_Driver/Src/stm32h7xx_hal_rcc.c ****       else if(RCC_ClkInitStruct->SYSCLKSource == RCC_SYSCLKSOURCE_PLLCLK)
 941:Drivers/STM32H7xx_HAL_Driver/Src/stm32h7xx_hal_rcc.c ****       {
 942:Drivers/STM32H7xx_HAL_Driver/Src/stm32h7xx_hal_rcc.c ****         /* Check the PLL ready flag */
 943:Drivers/STM32H7xx_HAL_Driver/Src/stm32h7xx_hal_rcc.c ****         if(__HAL_RCC_GET_FLAG(RCC_FLAG_PLLRDY) == 0U)
 944:Drivers/STM32H7xx_HAL_Driver/Src/stm32h7xx_hal_rcc.c ****         {
 945:Drivers/STM32H7xx_HAL_Driver/Src/stm32h7xx_hal_rcc.c ****           return HAL_ERROR;
 946:Drivers/STM32H7xx_HAL_Driver/Src/stm32h7xx_hal_rcc.c ****         }
 947:Drivers/STM32H7xx_HAL_Driver/Src/stm32h7xx_hal_rcc.c ****       }
 948:Drivers/STM32H7xx_HAL_Driver/Src/stm32h7xx_hal_rcc.c ****       /* CSI is selected as System Clock Source */
 949:Drivers/STM32H7xx_HAL_Driver/Src/stm32h7xx_hal_rcc.c ****       else if(RCC_ClkInitStruct->SYSCLKSource == RCC_SYSCLKSOURCE_CSI)
 950:Drivers/STM32H7xx_HAL_Driver/Src/stm32h7xx_hal_rcc.c ****       {
 951:Drivers/STM32H7xx_HAL_Driver/Src/stm32h7xx_hal_rcc.c ****         /* Check the PLL ready flag */
 952:Drivers/STM32H7xx_HAL_Driver/Src/stm32h7xx_hal_rcc.c ****         if(__HAL_RCC_GET_FLAG(RCC_FLAG_CSIRDY) == 0U)
 953:Drivers/STM32H7xx_HAL_Driver/Src/stm32h7xx_hal_rcc.c ****         {
 954:Drivers/STM32H7xx_HAL_Driver/Src/stm32h7xx_hal_rcc.c ****           return HAL_ERROR;
 955:Drivers/STM32H7xx_HAL_Driver/Src/stm32h7xx_hal_rcc.c ****         }
 956:Drivers/STM32H7xx_HAL_Driver/Src/stm32h7xx_hal_rcc.c ****       }
 957:Drivers/STM32H7xx_HAL_Driver/Src/stm32h7xx_hal_rcc.c ****       /* HSI is selected as System Clock Source */
 958:Drivers/STM32H7xx_HAL_Driver/Src/stm32h7xx_hal_rcc.c ****       else
 959:Drivers/STM32H7xx_HAL_Driver/Src/stm32h7xx_hal_rcc.c ****       {
 960:Drivers/STM32H7xx_HAL_Driver/Src/stm32h7xx_hal_rcc.c ****         /* Check the HSI ready flag */
 961:Drivers/STM32H7xx_HAL_Driver/Src/stm32h7xx_hal_rcc.c ****         if(__HAL_RCC_GET_FLAG(RCC_FLAG_HSIRDY) == 0U)
 962:Drivers/STM32H7xx_HAL_Driver/Src/stm32h7xx_hal_rcc.c ****         {
 963:Drivers/STM32H7xx_HAL_Driver/Src/stm32h7xx_hal_rcc.c ****           return HAL_ERROR;
 964:Drivers/STM32H7xx_HAL_Driver/Src/stm32h7xx_hal_rcc.c ****         }
 965:Drivers/STM32H7xx_HAL_Driver/Src/stm32h7xx_hal_rcc.c ****       }
 966:Drivers/STM32H7xx_HAL_Driver/Src/stm32h7xx_hal_rcc.c ****       MODIFY_REG(RCC->CFGR, RCC_CFGR_SW, RCC_ClkInitStruct->SYSCLKSource);
 967:Drivers/STM32H7xx_HAL_Driver/Src/stm32h7xx_hal_rcc.c **** 
 968:Drivers/STM32H7xx_HAL_Driver/Src/stm32h7xx_hal_rcc.c ****       /* Get Start Tick*/
 969:Drivers/STM32H7xx_HAL_Driver/Src/stm32h7xx_hal_rcc.c ****       tickstart = HAL_GetTick();
 970:Drivers/STM32H7xx_HAL_Driver/Src/stm32h7xx_hal_rcc.c **** 
 971:Drivers/STM32H7xx_HAL_Driver/Src/stm32h7xx_hal_rcc.c ****         while (__HAL_RCC_GET_SYSCLK_SOURCE() !=  (RCC_ClkInitStruct->SYSCLKSource << RCC_CFGR_SWS_P
 972:Drivers/STM32H7xx_HAL_Driver/Src/stm32h7xx_hal_rcc.c ****         {
 973:Drivers/STM32H7xx_HAL_Driver/Src/stm32h7xx_hal_rcc.c ****           if((HAL_GetTick() - tickstart ) > CLOCKSWITCH_TIMEOUT_VALUE)
 974:Drivers/STM32H7xx_HAL_Driver/Src/stm32h7xx_hal_rcc.c ****           {
 975:Drivers/STM32H7xx_HAL_Driver/Src/stm32h7xx_hal_rcc.c ****             return HAL_TIMEOUT;
 976:Drivers/STM32H7xx_HAL_Driver/Src/stm32h7xx_hal_rcc.c ****           }
 977:Drivers/STM32H7xx_HAL_Driver/Src/stm32h7xx_hal_rcc.c ****         }
 978:Drivers/STM32H7xx_HAL_Driver/Src/stm32h7xx_hal_rcc.c **** 
 979:Drivers/STM32H7xx_HAL_Driver/Src/stm32h7xx_hal_rcc.c ****     }
 980:Drivers/STM32H7xx_HAL_Driver/Src/stm32h7xx_hal_rcc.c **** 
 981:Drivers/STM32H7xx_HAL_Driver/Src/stm32h7xx_hal_rcc.c ****     /* Decreasing the BUS frequency divider */
 982:Drivers/STM32H7xx_HAL_Driver/Src/stm32h7xx_hal_rcc.c ****    /*-------------------------- HCLK Configuration --------------------------*/
 983:Drivers/STM32H7xx_HAL_Driver/Src/stm32h7xx_hal_rcc.c ****   if(((RCC_ClkInitStruct->ClockType) & RCC_CLOCKTYPE_HCLK) == RCC_CLOCKTYPE_HCLK)
 984:Drivers/STM32H7xx_HAL_Driver/Src/stm32h7xx_hal_rcc.c ****   {
 985:Drivers/STM32H7xx_HAL_Driver/Src/stm32h7xx_hal_rcc.c ****     if((RCC_ClkInitStruct->AHBCLKDivider) < (RCC->D1CFGR & RCC_D1CFGR_HPRE))
 986:Drivers/STM32H7xx_HAL_Driver/Src/stm32h7xx_hal_rcc.c ****     {
 987:Drivers/STM32H7xx_HAL_Driver/Src/stm32h7xx_hal_rcc.c ****       /* Set the new HCLK clock divider */
 988:Drivers/STM32H7xx_HAL_Driver/Src/stm32h7xx_hal_rcc.c ****       assert_param(IS_RCC_HCLK(RCC_ClkInitStruct->AHBCLKDivider));
ARM GAS  /tmp/cconV3EI.s 			page 50


 989:Drivers/STM32H7xx_HAL_Driver/Src/stm32h7xx_hal_rcc.c ****       MODIFY_REG(RCC->D1CFGR, RCC_D1CFGR_HPRE, RCC_ClkInitStruct->AHBCLKDivider);
 990:Drivers/STM32H7xx_HAL_Driver/Src/stm32h7xx_hal_rcc.c ****     }
 991:Drivers/STM32H7xx_HAL_Driver/Src/stm32h7xx_hal_rcc.c ****   }
 992:Drivers/STM32H7xx_HAL_Driver/Src/stm32h7xx_hal_rcc.c **** 
 993:Drivers/STM32H7xx_HAL_Driver/Src/stm32h7xx_hal_rcc.c ****   /* Decreasing the number of wait states because of lower CPU frequency */
 994:Drivers/STM32H7xx_HAL_Driver/Src/stm32h7xx_hal_rcc.c ****   if(FLatency < __HAL_FLASH_GET_LATENCY())
 995:Drivers/STM32H7xx_HAL_Driver/Src/stm32h7xx_hal_rcc.c ****   {
 996:Drivers/STM32H7xx_HAL_Driver/Src/stm32h7xx_hal_rcc.c ****     /* Program the new number of wait states to the LATENCY bits in the FLASH_ACR register */
 997:Drivers/STM32H7xx_HAL_Driver/Src/stm32h7xx_hal_rcc.c ****     __HAL_FLASH_SET_LATENCY(FLatency);
 998:Drivers/STM32H7xx_HAL_Driver/Src/stm32h7xx_hal_rcc.c **** 
 999:Drivers/STM32H7xx_HAL_Driver/Src/stm32h7xx_hal_rcc.c ****     /* Check that the new number of wait states is taken into account to access the Flash
1000:Drivers/STM32H7xx_HAL_Driver/Src/stm32h7xx_hal_rcc.c ****     memory by reading the FLASH_ACR register */
1001:Drivers/STM32H7xx_HAL_Driver/Src/stm32h7xx_hal_rcc.c ****     if(__HAL_FLASH_GET_LATENCY() != FLatency)
1002:Drivers/STM32H7xx_HAL_Driver/Src/stm32h7xx_hal_rcc.c ****     {
1003:Drivers/STM32H7xx_HAL_Driver/Src/stm32h7xx_hal_rcc.c ****       return HAL_ERROR;
1004:Drivers/STM32H7xx_HAL_Driver/Src/stm32h7xx_hal_rcc.c ****     }
1005:Drivers/STM32H7xx_HAL_Driver/Src/stm32h7xx_hal_rcc.c ****  }
1006:Drivers/STM32H7xx_HAL_Driver/Src/stm32h7xx_hal_rcc.c **** 
1007:Drivers/STM32H7xx_HAL_Driver/Src/stm32h7xx_hal_rcc.c ****   /*-------------------------- D1PCLK1 Configuration ---------------------------*/
1008:Drivers/STM32H7xx_HAL_Driver/Src/stm32h7xx_hal_rcc.c ****  if(((RCC_ClkInitStruct->ClockType) & RCC_CLOCKTYPE_D1PCLK1) == RCC_CLOCKTYPE_D1PCLK1)
1009:Drivers/STM32H7xx_HAL_Driver/Src/stm32h7xx_hal_rcc.c ****  {
1010:Drivers/STM32H7xx_HAL_Driver/Src/stm32h7xx_hal_rcc.c ****    if((RCC_ClkInitStruct->APB3CLKDivider) < (RCC->D1CFGR & RCC_D1CFGR_D1PPRE))
1011:Drivers/STM32H7xx_HAL_Driver/Src/stm32h7xx_hal_rcc.c ****    {
1012:Drivers/STM32H7xx_HAL_Driver/Src/stm32h7xx_hal_rcc.c ****      assert_param(IS_RCC_D1PCLK1(RCC_ClkInitStruct->APB3CLKDivider));
1013:Drivers/STM32H7xx_HAL_Driver/Src/stm32h7xx_hal_rcc.c ****      MODIFY_REG(RCC->D1CFGR, RCC_D1CFGR_D1PPRE, RCC_ClkInitStruct->APB3CLKDivider);
1014:Drivers/STM32H7xx_HAL_Driver/Src/stm32h7xx_hal_rcc.c ****    }
1015:Drivers/STM32H7xx_HAL_Driver/Src/stm32h7xx_hal_rcc.c ****  }
1016:Drivers/STM32H7xx_HAL_Driver/Src/stm32h7xx_hal_rcc.c **** 
1017:Drivers/STM32H7xx_HAL_Driver/Src/stm32h7xx_hal_rcc.c ****   /*-------------------------- PCLK1 Configuration ---------------------------*/
1018:Drivers/STM32H7xx_HAL_Driver/Src/stm32h7xx_hal_rcc.c ****  if(((RCC_ClkInitStruct->ClockType) & RCC_CLOCKTYPE_PCLK1) == RCC_CLOCKTYPE_PCLK1)
1019:Drivers/STM32H7xx_HAL_Driver/Src/stm32h7xx_hal_rcc.c ****  {
1020:Drivers/STM32H7xx_HAL_Driver/Src/stm32h7xx_hal_rcc.c ****    if((RCC_ClkInitStruct->APB1CLKDivider) < (RCC->D2CFGR & RCC_D2CFGR_D2PPRE1))
1021:Drivers/STM32H7xx_HAL_Driver/Src/stm32h7xx_hal_rcc.c ****    {
1022:Drivers/STM32H7xx_HAL_Driver/Src/stm32h7xx_hal_rcc.c ****      assert_param(IS_RCC_PCLK1(RCC_ClkInitStruct->APB1CLKDivider));
1023:Drivers/STM32H7xx_HAL_Driver/Src/stm32h7xx_hal_rcc.c ****      MODIFY_REG(RCC->D2CFGR, RCC_D2CFGR_D2PPRE1, (RCC_ClkInitStruct->APB1CLKDivider));
1024:Drivers/STM32H7xx_HAL_Driver/Src/stm32h7xx_hal_rcc.c ****    }
1025:Drivers/STM32H7xx_HAL_Driver/Src/stm32h7xx_hal_rcc.c ****  }
1026:Drivers/STM32H7xx_HAL_Driver/Src/stm32h7xx_hal_rcc.c **** 
1027:Drivers/STM32H7xx_HAL_Driver/Src/stm32h7xx_hal_rcc.c ****   /*-------------------------- PCLK2 Configuration ---------------------------*/
1028:Drivers/STM32H7xx_HAL_Driver/Src/stm32h7xx_hal_rcc.c ****  if(((RCC_ClkInitStruct->ClockType) & RCC_CLOCKTYPE_PCLK2) == RCC_CLOCKTYPE_PCLK2)
1029:Drivers/STM32H7xx_HAL_Driver/Src/stm32h7xx_hal_rcc.c ****  {
1030:Drivers/STM32H7xx_HAL_Driver/Src/stm32h7xx_hal_rcc.c ****    if((RCC_ClkInitStruct->APB2CLKDivider) < (RCC->D2CFGR & RCC_D2CFGR_D2PPRE2))
1031:Drivers/STM32H7xx_HAL_Driver/Src/stm32h7xx_hal_rcc.c ****    {
1032:Drivers/STM32H7xx_HAL_Driver/Src/stm32h7xx_hal_rcc.c ****      assert_param(IS_RCC_PCLK2(RCC_ClkInitStruct->APB2CLKDivider));
1033:Drivers/STM32H7xx_HAL_Driver/Src/stm32h7xx_hal_rcc.c ****      MODIFY_REG(RCC->D2CFGR, RCC_D2CFGR_D2PPRE2, (RCC_ClkInitStruct->APB2CLKDivider));
1034:Drivers/STM32H7xx_HAL_Driver/Src/stm32h7xx_hal_rcc.c ****    }
1035:Drivers/STM32H7xx_HAL_Driver/Src/stm32h7xx_hal_rcc.c ****  }
1036:Drivers/STM32H7xx_HAL_Driver/Src/stm32h7xx_hal_rcc.c **** 
1037:Drivers/STM32H7xx_HAL_Driver/Src/stm32h7xx_hal_rcc.c ****   /*-------------------------- D3PCLK1 Configuration ---------------------------*/
1038:Drivers/STM32H7xx_HAL_Driver/Src/stm32h7xx_hal_rcc.c ****  if(((RCC_ClkInitStruct->ClockType) & RCC_CLOCKTYPE_D3PCLK1) == RCC_CLOCKTYPE_D3PCLK1)
1039:Drivers/STM32H7xx_HAL_Driver/Src/stm32h7xx_hal_rcc.c ****  {
1040:Drivers/STM32H7xx_HAL_Driver/Src/stm32h7xx_hal_rcc.c ****    if((RCC_ClkInitStruct->APB4CLKDivider) < (RCC->D3CFGR & RCC_D3CFGR_D3PPRE))
1041:Drivers/STM32H7xx_HAL_Driver/Src/stm32h7xx_hal_rcc.c ****    {
1042:Drivers/STM32H7xx_HAL_Driver/Src/stm32h7xx_hal_rcc.c ****      assert_param(IS_RCC_D3PCLK1(RCC_ClkInitStruct->APB4CLKDivider));
1043:Drivers/STM32H7xx_HAL_Driver/Src/stm32h7xx_hal_rcc.c ****      MODIFY_REG(RCC->D3CFGR, RCC_D3CFGR_D3PPRE, (RCC_ClkInitStruct->APB4CLKDivider) );
1044:Drivers/STM32H7xx_HAL_Driver/Src/stm32h7xx_hal_rcc.c ****    }
1045:Drivers/STM32H7xx_HAL_Driver/Src/stm32h7xx_hal_rcc.c ****  }
ARM GAS  /tmp/cconV3EI.s 			page 51


1046:Drivers/STM32H7xx_HAL_Driver/Src/stm32h7xx_hal_rcc.c **** 
1047:Drivers/STM32H7xx_HAL_Driver/Src/stm32h7xx_hal_rcc.c ****   /* Update the SystemCoreClock global variable */
1048:Drivers/STM32H7xx_HAL_Driver/Src/stm32h7xx_hal_rcc.c ****   SystemCoreClock = HAL_RCC_GetSysClockFreq() >> ((D1CorePrescTable[(RCC->D1CFGR & RCC_D1CFGR_D1CPR
1049:Drivers/STM32H7xx_HAL_Driver/Src/stm32h7xx_hal_rcc.c **** 
1050:Drivers/STM32H7xx_HAL_Driver/Src/stm32h7xx_hal_rcc.c ****   /* Configure the source of time base considering new system clocks settings*/
1051:Drivers/STM32H7xx_HAL_Driver/Src/stm32h7xx_hal_rcc.c ****   halstatus = HAL_InitTick (uwTickPrio);
1052:Drivers/STM32H7xx_HAL_Driver/Src/stm32h7xx_hal_rcc.c **** 
1053:Drivers/STM32H7xx_HAL_Driver/Src/stm32h7xx_hal_rcc.c ****   return halstatus;
1054:Drivers/STM32H7xx_HAL_Driver/Src/stm32h7xx_hal_rcc.c **** }
1055:Drivers/STM32H7xx_HAL_Driver/Src/stm32h7xx_hal_rcc.c **** 
1056:Drivers/STM32H7xx_HAL_Driver/Src/stm32h7xx_hal_rcc.c **** /**
1057:Drivers/STM32H7xx_HAL_Driver/Src/stm32h7xx_hal_rcc.c ****   * @}
1058:Drivers/STM32H7xx_HAL_Driver/Src/stm32h7xx_hal_rcc.c ****   */
1059:Drivers/STM32H7xx_HAL_Driver/Src/stm32h7xx_hal_rcc.c **** 
1060:Drivers/STM32H7xx_HAL_Driver/Src/stm32h7xx_hal_rcc.c **** /** @defgroup RCC_Group2 Peripheral Control functions
1061:Drivers/STM32H7xx_HAL_Driver/Src/stm32h7xx_hal_rcc.c ****  *  @brief   RCC clocks control functions
1062:Drivers/STM32H7xx_HAL_Driver/Src/stm32h7xx_hal_rcc.c ****  *
1063:Drivers/STM32H7xx_HAL_Driver/Src/stm32h7xx_hal_rcc.c **** @verbatim
1064:Drivers/STM32H7xx_HAL_Driver/Src/stm32h7xx_hal_rcc.c ****  ===============================================================================
1065:Drivers/STM32H7xx_HAL_Driver/Src/stm32h7xx_hal_rcc.c ****                       ##### Peripheral Control functions #####
1066:Drivers/STM32H7xx_HAL_Driver/Src/stm32h7xx_hal_rcc.c ****  ===============================================================================
1067:Drivers/STM32H7xx_HAL_Driver/Src/stm32h7xx_hal_rcc.c ****     [..]
1068:Drivers/STM32H7xx_HAL_Driver/Src/stm32h7xx_hal_rcc.c ****     This subsection provides a set of functions allowing to control the RCC Clocks
1069:Drivers/STM32H7xx_HAL_Driver/Src/stm32h7xx_hal_rcc.c ****     frequencies.
1070:Drivers/STM32H7xx_HAL_Driver/Src/stm32h7xx_hal_rcc.c **** 
1071:Drivers/STM32H7xx_HAL_Driver/Src/stm32h7xx_hal_rcc.c **** @endverbatim
1072:Drivers/STM32H7xx_HAL_Driver/Src/stm32h7xx_hal_rcc.c ****   * @{
1073:Drivers/STM32H7xx_HAL_Driver/Src/stm32h7xx_hal_rcc.c ****   */
1074:Drivers/STM32H7xx_HAL_Driver/Src/stm32h7xx_hal_rcc.c **** 
1075:Drivers/STM32H7xx_HAL_Driver/Src/stm32h7xx_hal_rcc.c **** /**
1076:Drivers/STM32H7xx_HAL_Driver/Src/stm32h7xx_hal_rcc.c ****   * @brief  Selects the clock source to output on MCO1 pin(PA8) or on MCO2 pin(PC9).
1077:Drivers/STM32H7xx_HAL_Driver/Src/stm32h7xx_hal_rcc.c ****   * @note   PA8/PC9 should be configured in alternate function mode.
1078:Drivers/STM32H7xx_HAL_Driver/Src/stm32h7xx_hal_rcc.c ****   * @param  RCC_MCOx: specifies the output direction for the clock source.
1079:Drivers/STM32H7xx_HAL_Driver/Src/stm32h7xx_hal_rcc.c ****   *          This parameter can be one of the following values:
1080:Drivers/STM32H7xx_HAL_Driver/Src/stm32h7xx_hal_rcc.c ****   *            @arg RCC_MCO1: Clock source to output on MCO1 pin(PA8).
1081:Drivers/STM32H7xx_HAL_Driver/Src/stm32h7xx_hal_rcc.c ****   *            @arg RCC_MCO2: Clock source to output on MCO2 pin(PC9).
1082:Drivers/STM32H7xx_HAL_Driver/Src/stm32h7xx_hal_rcc.c ****   * @param  RCC_MCOSource: specifies the clock source to output.
1083:Drivers/STM32H7xx_HAL_Driver/Src/stm32h7xx_hal_rcc.c ****   *          This parameter can be one of the following values:
1084:Drivers/STM32H7xx_HAL_Driver/Src/stm32h7xx_hal_rcc.c ****   *            @arg RCC_MCO1SOURCE_HSI: HSI clock selected as MCO1 source
1085:Drivers/STM32H7xx_HAL_Driver/Src/stm32h7xx_hal_rcc.c ****   *            @arg RCC_MCO1SOURCE_LSE: LSE clock selected as MCO1 source
1086:Drivers/STM32H7xx_HAL_Driver/Src/stm32h7xx_hal_rcc.c ****   *            @arg RCC_MCO1SOURCE_HSE: HSE clock selected as MCO1 source
1087:Drivers/STM32H7xx_HAL_Driver/Src/stm32h7xx_hal_rcc.c ****   *            @arg RCC_MCO1SOURCE_PLL1QCLK:  PLL1Q clock selected as MCO1 source
1088:Drivers/STM32H7xx_HAL_Driver/Src/stm32h7xx_hal_rcc.c ****   *            @arg RCC_MCO1SOURCE_HSI48: HSI48 (48MHZ) selected as MCO1 source
1089:Drivers/STM32H7xx_HAL_Driver/Src/stm32h7xx_hal_rcc.c ****   *            @arg RCC_MCO2SOURCE_SYSCLK: System clock (SYSCLK) selected as MCO2 source
1090:Drivers/STM32H7xx_HAL_Driver/Src/stm32h7xx_hal_rcc.c ****   *            @arg RCC_MCO2SOURCE_PLL2PCLK: PLL2P clock selected as MCO2 source
1091:Drivers/STM32H7xx_HAL_Driver/Src/stm32h7xx_hal_rcc.c ****   *            @arg RCC_MCO2SOURCE_HSE: HSE clock selected as MCO2 source
1092:Drivers/STM32H7xx_HAL_Driver/Src/stm32h7xx_hal_rcc.c ****   *            @arg RCC_MCO2SOURCE_PLLCLK:  PLL1P clock selected as MCO2 source
1093:Drivers/STM32H7xx_HAL_Driver/Src/stm32h7xx_hal_rcc.c ****   *            @arg RCC_MCO2SOURCE_CSICLK:  CSI clock selected as MCO2 source
1094:Drivers/STM32H7xx_HAL_Driver/Src/stm32h7xx_hal_rcc.c ****   *            @arg RCC_MCO2SOURCE_LSICLK:  LSI clock selected as MCO2 source
1095:Drivers/STM32H7xx_HAL_Driver/Src/stm32h7xx_hal_rcc.c ****   * @param  RCC_MCODiv: specifies the MCOx pre-scaler.
1096:Drivers/STM32H7xx_HAL_Driver/Src/stm32h7xx_hal_rcc.c ****   *          This parameter can be one of the following values:
1097:Drivers/STM32H7xx_HAL_Driver/Src/stm32h7xx_hal_rcc.c ****   *            @arg RCC_MCODIV_1 up to RCC_MCODIV_15  : divider applied to MCOx clock
1098:Drivers/STM32H7xx_HAL_Driver/Src/stm32h7xx_hal_rcc.c ****   * @retval None
1099:Drivers/STM32H7xx_HAL_Driver/Src/stm32h7xx_hal_rcc.c ****   */
1100:Drivers/STM32H7xx_HAL_Driver/Src/stm32h7xx_hal_rcc.c **** void HAL_RCC_MCOConfig(uint32_t RCC_MCOx, uint32_t RCC_MCOSource, uint32_t RCC_MCODiv)
1101:Drivers/STM32H7xx_HAL_Driver/Src/stm32h7xx_hal_rcc.c **** {
 1521              		.loc 1 1101 1 is_stmt 1 view -0
ARM GAS  /tmp/cconV3EI.s 			page 52


 1522              		.cfi_startproc
 1523              		@ args = 0, pretend = 0, frame = 32
 1524              		@ frame_needed = 0, uses_anonymous_args = 0
 1525              		.loc 1 1101 1 is_stmt 0 view .LVU472
 1526 0000 70B5     		push	{r4, r5, r6, lr}
 1527              	.LCFI4:
 1528              		.cfi_def_cfa_offset 16
 1529              		.cfi_offset 4, -16
 1530              		.cfi_offset 5, -12
 1531              		.cfi_offset 6, -8
 1532              		.cfi_offset 14, -4
 1533 0002 88B0     		sub	sp, sp, #32
 1534              	.LCFI5:
 1535              		.cfi_def_cfa_offset 48
 1536 0004 0C46     		mov	r4, r1
 1537 0006 1546     		mov	r5, r2
1102:Drivers/STM32H7xx_HAL_Driver/Src/stm32h7xx_hal_rcc.c ****   GPIO_InitTypeDef GPIO_InitStruct;
 1538              		.loc 1 1102 3 is_stmt 1 view .LVU473
1103:Drivers/STM32H7xx_HAL_Driver/Src/stm32h7xx_hal_rcc.c ****   /* Check the parameters */
1104:Drivers/STM32H7xx_HAL_Driver/Src/stm32h7xx_hal_rcc.c ****   assert_param(IS_RCC_MCO(RCC_MCOx));
 1539              		.loc 1 1104 3 view .LVU474
1105:Drivers/STM32H7xx_HAL_Driver/Src/stm32h7xx_hal_rcc.c ****   assert_param(IS_RCC_MCODIV(RCC_MCODiv));
 1540              		.loc 1 1105 3 view .LVU475
1106:Drivers/STM32H7xx_HAL_Driver/Src/stm32h7xx_hal_rcc.c ****   /* RCC_MCO1 */
1107:Drivers/STM32H7xx_HAL_Driver/Src/stm32h7xx_hal_rcc.c ****   if(RCC_MCOx == RCC_MCO1)
 1541              		.loc 1 1107 3 view .LVU476
 1542              		.loc 1 1107 5 is_stmt 0 view .LVU477
 1543 0008 10BB     		cbnz	r0, .L150
1108:Drivers/STM32H7xx_HAL_Driver/Src/stm32h7xx_hal_rcc.c ****   {
1109:Drivers/STM32H7xx_HAL_Driver/Src/stm32h7xx_hal_rcc.c ****     assert_param(IS_RCC_MCO1SOURCE(RCC_MCOSource));
 1544              		.loc 1 1109 5 is_stmt 1 view .LVU478
1110:Drivers/STM32H7xx_HAL_Driver/Src/stm32h7xx_hal_rcc.c **** 
1111:Drivers/STM32H7xx_HAL_Driver/Src/stm32h7xx_hal_rcc.c ****     /* MCO1 Clock Enable */
1112:Drivers/STM32H7xx_HAL_Driver/Src/stm32h7xx_hal_rcc.c ****     MCO1_CLK_ENABLE();
 1545              		.loc 1 1112 5 view .LVU479
 1546              	.LBB13:
 1547              		.loc 1 1112 5 view .LVU480
 1548              		.loc 1 1112 5 view .LVU481
 1549 000a 234E     		ldr	r6, .L153
 1550 000c D6F8E030 		ldr	r3, [r6, #224]
 1551 0010 43F00103 		orr	r3, r3, #1
 1552 0014 C6F8E030 		str	r3, [r6, #224]
 1553              		.loc 1 1112 5 view .LVU482
 1554 0018 D6F8E030 		ldr	r3, [r6, #224]
 1555 001c 03F00103 		and	r3, r3, #1
 1556 0020 0193     		str	r3, [sp, #4]
 1557              		.loc 1 1112 5 view .LVU483
 1558 0022 019B     		ldr	r3, [sp, #4]
 1559              	.LBE13:
1113:Drivers/STM32H7xx_HAL_Driver/Src/stm32h7xx_hal_rcc.c **** 
1114:Drivers/STM32H7xx_HAL_Driver/Src/stm32h7xx_hal_rcc.c ****     /* Configure the MCO1 pin in alternate function mode */
1115:Drivers/STM32H7xx_HAL_Driver/Src/stm32h7xx_hal_rcc.c ****     GPIO_InitStruct.Pin = MCO1_PIN;
 1560              		.loc 1 1115 5 view .LVU484
 1561              		.loc 1 1115 25 is_stmt 0 view .LVU485
 1562 0024 4FF48073 		mov	r3, #256
 1563 0028 0393     		str	r3, [sp, #12]
1116:Drivers/STM32H7xx_HAL_Driver/Src/stm32h7xx_hal_rcc.c ****     GPIO_InitStruct.Mode = GPIO_MODE_AF_PP;
ARM GAS  /tmp/cconV3EI.s 			page 53


 1564              		.loc 1 1116 5 is_stmt 1 view .LVU486
 1565              		.loc 1 1116 26 is_stmt 0 view .LVU487
 1566 002a 0223     		movs	r3, #2
 1567 002c 0493     		str	r3, [sp, #16]
1117:Drivers/STM32H7xx_HAL_Driver/Src/stm32h7xx_hal_rcc.c ****     GPIO_InitStruct.Speed = GPIO_SPEED_FREQ_VERY_HIGH;
 1568              		.loc 1 1117 5 is_stmt 1 view .LVU488
 1569              		.loc 1 1117 27 is_stmt 0 view .LVU489
 1570 002e 0323     		movs	r3, #3
 1571 0030 0693     		str	r3, [sp, #24]
1118:Drivers/STM32H7xx_HAL_Driver/Src/stm32h7xx_hal_rcc.c ****     GPIO_InitStruct.Pull = GPIO_NOPULL;
 1572              		.loc 1 1118 5 is_stmt 1 view .LVU490
 1573              		.loc 1 1118 26 is_stmt 0 view .LVU491
 1574 0032 0023     		movs	r3, #0
 1575 0034 0593     		str	r3, [sp, #20]
1119:Drivers/STM32H7xx_HAL_Driver/Src/stm32h7xx_hal_rcc.c ****     GPIO_InitStruct.Alternate = GPIO_AF0_MCO;
 1576              		.loc 1 1119 5 is_stmt 1 view .LVU492
 1577              		.loc 1 1119 31 is_stmt 0 view .LVU493
 1578 0036 0793     		str	r3, [sp, #28]
1120:Drivers/STM32H7xx_HAL_Driver/Src/stm32h7xx_hal_rcc.c ****     HAL_GPIO_Init(MCO1_GPIO_PORT, &GPIO_InitStruct);
 1579              		.loc 1 1120 5 is_stmt 1 view .LVU494
 1580 0038 03A9     		add	r1, sp, #12
 1581              	.LVL129:
 1582              		.loc 1 1120 5 is_stmt 0 view .LVU495
 1583 003a 1848     		ldr	r0, .L153+4
 1584              	.LVL130:
 1585              		.loc 1 1120 5 view .LVU496
 1586 003c FFF7FEFF 		bl	HAL_GPIO_Init
 1587              	.LVL131:
1121:Drivers/STM32H7xx_HAL_Driver/Src/stm32h7xx_hal_rcc.c **** 
1122:Drivers/STM32H7xx_HAL_Driver/Src/stm32h7xx_hal_rcc.c ****     /* Mask MCO1 and MCO1PRE[3:0] bits then Select MCO1 clock source and pre-scaler */
1123:Drivers/STM32H7xx_HAL_Driver/Src/stm32h7xx_hal_rcc.c ****     MODIFY_REG(RCC->CFGR, (RCC_CFGR_MCO1 | RCC_CFGR_MCO1PRE), (RCC_MCOSource | RCC_MCODiv));
 1588              		.loc 1 1123 5 is_stmt 1 view .LVU497
 1589 0040 3369     		ldr	r3, [r6, #16]
 1590 0042 23F0FE73 		bic	r3, r3, #33292288
 1591 0046 2C43     		orrs	r4, r4, r5
 1592              	.LVL132:
 1593              		.loc 1 1123 5 is_stmt 0 view .LVU498
 1594 0048 1C43     		orrs	r4, r4, r3
 1595 004a 3461     		str	r4, [r6, #16]
 1596              	.L149:
1124:Drivers/STM32H7xx_HAL_Driver/Src/stm32h7xx_hal_rcc.c ****   }
1125:Drivers/STM32H7xx_HAL_Driver/Src/stm32h7xx_hal_rcc.c ****   else
1126:Drivers/STM32H7xx_HAL_Driver/Src/stm32h7xx_hal_rcc.c ****   {
1127:Drivers/STM32H7xx_HAL_Driver/Src/stm32h7xx_hal_rcc.c ****     assert_param(IS_RCC_MCO2SOURCE(RCC_MCOSource));
1128:Drivers/STM32H7xx_HAL_Driver/Src/stm32h7xx_hal_rcc.c **** 
1129:Drivers/STM32H7xx_HAL_Driver/Src/stm32h7xx_hal_rcc.c ****     /* MCO2 Clock Enable */
1130:Drivers/STM32H7xx_HAL_Driver/Src/stm32h7xx_hal_rcc.c ****     MCO2_CLK_ENABLE();
1131:Drivers/STM32H7xx_HAL_Driver/Src/stm32h7xx_hal_rcc.c **** 
1132:Drivers/STM32H7xx_HAL_Driver/Src/stm32h7xx_hal_rcc.c ****     /* Configure the MCO2 pin in alternate function mode */
1133:Drivers/STM32H7xx_HAL_Driver/Src/stm32h7xx_hal_rcc.c ****     GPIO_InitStruct.Pin = MCO2_PIN;
1134:Drivers/STM32H7xx_HAL_Driver/Src/stm32h7xx_hal_rcc.c ****     GPIO_InitStruct.Mode = GPIO_MODE_AF_PP;
1135:Drivers/STM32H7xx_HAL_Driver/Src/stm32h7xx_hal_rcc.c ****     GPIO_InitStruct.Speed = GPIO_SPEED_FREQ_VERY_HIGH;
1136:Drivers/STM32H7xx_HAL_Driver/Src/stm32h7xx_hal_rcc.c ****     GPIO_InitStruct.Pull = GPIO_NOPULL;
1137:Drivers/STM32H7xx_HAL_Driver/Src/stm32h7xx_hal_rcc.c ****     GPIO_InitStruct.Alternate = GPIO_AF0_MCO;
1138:Drivers/STM32H7xx_HAL_Driver/Src/stm32h7xx_hal_rcc.c ****     HAL_GPIO_Init(MCO2_GPIO_PORT, &GPIO_InitStruct);
1139:Drivers/STM32H7xx_HAL_Driver/Src/stm32h7xx_hal_rcc.c **** 
1140:Drivers/STM32H7xx_HAL_Driver/Src/stm32h7xx_hal_rcc.c ****     /* Mask MCO2 and MCO2PRE[3:0] bits then Select MCO2 clock source and pre-scaler */
ARM GAS  /tmp/cconV3EI.s 			page 54


1141:Drivers/STM32H7xx_HAL_Driver/Src/stm32h7xx_hal_rcc.c ****     MODIFY_REG(RCC->CFGR, (RCC_CFGR_MCO2 | RCC_CFGR_MCO2PRE), (RCC_MCOSource | (RCC_MCODiv << 7U)))
1142:Drivers/STM32H7xx_HAL_Driver/Src/stm32h7xx_hal_rcc.c ****   }
1143:Drivers/STM32H7xx_HAL_Driver/Src/stm32h7xx_hal_rcc.c **** }
 1597              		.loc 1 1143 1 view .LVU499
 1598 004c 08B0     		add	sp, sp, #32
 1599              	.LCFI6:
 1600              		.cfi_remember_state
 1601              		.cfi_def_cfa_offset 16
 1602              		@ sp needed
 1603 004e 70BD     		pop	{r4, r5, r6, pc}
 1604              	.LVL133:
 1605              	.L150:
 1606              	.LCFI7:
 1607              		.cfi_restore_state
1127:Drivers/STM32H7xx_HAL_Driver/Src/stm32h7xx_hal_rcc.c **** 
 1608              		.loc 1 1127 5 is_stmt 1 view .LVU500
1130:Drivers/STM32H7xx_HAL_Driver/Src/stm32h7xx_hal_rcc.c **** 
 1609              		.loc 1 1130 5 view .LVU501
 1610              	.LBB14:
1130:Drivers/STM32H7xx_HAL_Driver/Src/stm32h7xx_hal_rcc.c **** 
 1611              		.loc 1 1130 5 view .LVU502
1130:Drivers/STM32H7xx_HAL_Driver/Src/stm32h7xx_hal_rcc.c **** 
 1612              		.loc 1 1130 5 view .LVU503
 1613 0050 114E     		ldr	r6, .L153
 1614 0052 D6F8E030 		ldr	r3, [r6, #224]
 1615 0056 43F00403 		orr	r3, r3, #4
 1616 005a C6F8E030 		str	r3, [r6, #224]
1130:Drivers/STM32H7xx_HAL_Driver/Src/stm32h7xx_hal_rcc.c **** 
 1617              		.loc 1 1130 5 view .LVU504
 1618 005e D6F8E030 		ldr	r3, [r6, #224]
 1619 0062 03F00403 		and	r3, r3, #4
 1620 0066 0293     		str	r3, [sp, #8]
1130:Drivers/STM32H7xx_HAL_Driver/Src/stm32h7xx_hal_rcc.c **** 
 1621              		.loc 1 1130 5 view .LVU505
 1622 0068 029B     		ldr	r3, [sp, #8]
 1623              	.LBE14:
1133:Drivers/STM32H7xx_HAL_Driver/Src/stm32h7xx_hal_rcc.c ****     GPIO_InitStruct.Mode = GPIO_MODE_AF_PP;
 1624              		.loc 1 1133 5 view .LVU506
1133:Drivers/STM32H7xx_HAL_Driver/Src/stm32h7xx_hal_rcc.c ****     GPIO_InitStruct.Mode = GPIO_MODE_AF_PP;
 1625              		.loc 1 1133 25 is_stmt 0 view .LVU507
 1626 006a 4FF40073 		mov	r3, #512
 1627 006e 0393     		str	r3, [sp, #12]
1134:Drivers/STM32H7xx_HAL_Driver/Src/stm32h7xx_hal_rcc.c ****     GPIO_InitStruct.Speed = GPIO_SPEED_FREQ_VERY_HIGH;
 1628              		.loc 1 1134 5 is_stmt 1 view .LVU508
1134:Drivers/STM32H7xx_HAL_Driver/Src/stm32h7xx_hal_rcc.c ****     GPIO_InitStruct.Speed = GPIO_SPEED_FREQ_VERY_HIGH;
 1629              		.loc 1 1134 26 is_stmt 0 view .LVU509
 1630 0070 0223     		movs	r3, #2
 1631 0072 0493     		str	r3, [sp, #16]
1135:Drivers/STM32H7xx_HAL_Driver/Src/stm32h7xx_hal_rcc.c ****     GPIO_InitStruct.Pull = GPIO_NOPULL;
 1632              		.loc 1 1135 5 is_stmt 1 view .LVU510
1135:Drivers/STM32H7xx_HAL_Driver/Src/stm32h7xx_hal_rcc.c ****     GPIO_InitStruct.Pull = GPIO_NOPULL;
 1633              		.loc 1 1135 27 is_stmt 0 view .LVU511
 1634 0074 0323     		movs	r3, #3
 1635 0076 0693     		str	r3, [sp, #24]
1136:Drivers/STM32H7xx_HAL_Driver/Src/stm32h7xx_hal_rcc.c ****     GPIO_InitStruct.Alternate = GPIO_AF0_MCO;
 1636              		.loc 1 1136 5 is_stmt 1 view .LVU512
1136:Drivers/STM32H7xx_HAL_Driver/Src/stm32h7xx_hal_rcc.c ****     GPIO_InitStruct.Alternate = GPIO_AF0_MCO;
ARM GAS  /tmp/cconV3EI.s 			page 55


 1637              		.loc 1 1136 26 is_stmt 0 view .LVU513
 1638 0078 0023     		movs	r3, #0
 1639 007a 0593     		str	r3, [sp, #20]
1137:Drivers/STM32H7xx_HAL_Driver/Src/stm32h7xx_hal_rcc.c ****     HAL_GPIO_Init(MCO2_GPIO_PORT, &GPIO_InitStruct);
 1640              		.loc 1 1137 5 is_stmt 1 view .LVU514
1137:Drivers/STM32H7xx_HAL_Driver/Src/stm32h7xx_hal_rcc.c ****     HAL_GPIO_Init(MCO2_GPIO_PORT, &GPIO_InitStruct);
 1641              		.loc 1 1137 31 is_stmt 0 view .LVU515
 1642 007c 0793     		str	r3, [sp, #28]
1138:Drivers/STM32H7xx_HAL_Driver/Src/stm32h7xx_hal_rcc.c **** 
 1643              		.loc 1 1138 5 is_stmt 1 view .LVU516
 1644 007e 03A9     		add	r1, sp, #12
 1645              	.LVL134:
1138:Drivers/STM32H7xx_HAL_Driver/Src/stm32h7xx_hal_rcc.c **** 
 1646              		.loc 1 1138 5 is_stmt 0 view .LVU517
 1647 0080 0748     		ldr	r0, .L153+8
 1648              	.LVL135:
1138:Drivers/STM32H7xx_HAL_Driver/Src/stm32h7xx_hal_rcc.c **** 
 1649              		.loc 1 1138 5 view .LVU518
 1650 0082 FFF7FEFF 		bl	HAL_GPIO_Init
 1651              	.LVL136:
1141:Drivers/STM32H7xx_HAL_Driver/Src/stm32h7xx_hal_rcc.c ****   }
 1652              		.loc 1 1141 5 is_stmt 1 view .LVU519
 1653 0086 3369     		ldr	r3, [r6, #16]
 1654 0088 23F07E43 		bic	r3, r3, #-33554432
 1655 008c 44EAC514 		orr	r4, r4, r5, lsl #7
 1656              	.LVL137:
1141:Drivers/STM32H7xx_HAL_Driver/Src/stm32h7xx_hal_rcc.c ****   }
 1657              		.loc 1 1141 5 is_stmt 0 view .LVU520
 1658 0090 1C43     		orrs	r4, r4, r3
 1659 0092 3461     		str	r4, [r6, #16]
 1660              		.loc 1 1143 1 view .LVU521
 1661 0094 DAE7     		b	.L149
 1662              	.L154:
 1663 0096 00BF     		.align	2
 1664              	.L153:
 1665 0098 00440258 		.word	1476543488
 1666 009c 00000258 		.word	1476526080
 1667 00a0 00080258 		.word	1476528128
 1668              		.cfi_endproc
 1669              	.LFE144:
 1671              		.section	.text.HAL_RCC_EnableCSS,"ax",%progbits
 1672              		.align	1
 1673              		.global	HAL_RCC_EnableCSS
 1674              		.syntax unified
 1675              		.thumb
 1676              		.thumb_func
 1677              		.fpu fpv5-d16
 1679              	HAL_RCC_EnableCSS:
 1680              	.LFB145:
1144:Drivers/STM32H7xx_HAL_Driver/Src/stm32h7xx_hal_rcc.c **** 
1145:Drivers/STM32H7xx_HAL_Driver/Src/stm32h7xx_hal_rcc.c **** /**
1146:Drivers/STM32H7xx_HAL_Driver/Src/stm32h7xx_hal_rcc.c ****   * @brief  Enables the Clock Security System.
1147:Drivers/STM32H7xx_HAL_Driver/Src/stm32h7xx_hal_rcc.c ****   * @note   If a failure is detected on the HSE oscillator clock, this oscillator
1148:Drivers/STM32H7xx_HAL_Driver/Src/stm32h7xx_hal_rcc.c ****   *         is automatically disabled and an interrupt is generated to inform the
1149:Drivers/STM32H7xx_HAL_Driver/Src/stm32h7xx_hal_rcc.c ****   *         software about the failure (Clock Security System Interrupt, CSSI),
1150:Drivers/STM32H7xx_HAL_Driver/Src/stm32h7xx_hal_rcc.c ****   *         allowing the MCU to perform rescue operations. The CSSI is linked to
1151:Drivers/STM32H7xx_HAL_Driver/Src/stm32h7xx_hal_rcc.c ****   *         the Cortex-M NMI (Non-Mask-able Interrupt) exception vector.
ARM GAS  /tmp/cconV3EI.s 			page 56


1152:Drivers/STM32H7xx_HAL_Driver/Src/stm32h7xx_hal_rcc.c ****   * @retval None
1153:Drivers/STM32H7xx_HAL_Driver/Src/stm32h7xx_hal_rcc.c ****   */
1154:Drivers/STM32H7xx_HAL_Driver/Src/stm32h7xx_hal_rcc.c **** void HAL_RCC_EnableCSS(void)
1155:Drivers/STM32H7xx_HAL_Driver/Src/stm32h7xx_hal_rcc.c **** {
 1681              		.loc 1 1155 1 is_stmt 1 view -0
 1682              		.cfi_startproc
 1683              		@ args = 0, pretend = 0, frame = 0
 1684              		@ frame_needed = 0, uses_anonymous_args = 0
 1685              		@ link register save eliminated.
1156:Drivers/STM32H7xx_HAL_Driver/Src/stm32h7xx_hal_rcc.c ****   SET_BIT(RCC->CR, RCC_CR_CSSHSEON) ;
 1686              		.loc 1 1156 3 view .LVU523
 1687 0000 024A     		ldr	r2, .L156
 1688 0002 1368     		ldr	r3, [r2]
 1689 0004 43F40023 		orr	r3, r3, #524288
 1690 0008 1360     		str	r3, [r2]
1157:Drivers/STM32H7xx_HAL_Driver/Src/stm32h7xx_hal_rcc.c **** }
 1691              		.loc 1 1157 1 is_stmt 0 view .LVU524
 1692 000a 7047     		bx	lr
 1693              	.L157:
 1694              		.align	2
 1695              	.L156:
 1696 000c 00440258 		.word	1476543488
 1697              		.cfi_endproc
 1698              	.LFE145:
 1700              		.section	.text.HAL_RCC_DisableCSS,"ax",%progbits
 1701              		.align	1
 1702              		.global	HAL_RCC_DisableCSS
 1703              		.syntax unified
 1704              		.thumb
 1705              		.thumb_func
 1706              		.fpu fpv5-d16
 1708              	HAL_RCC_DisableCSS:
 1709              	.LFB146:
1158:Drivers/STM32H7xx_HAL_Driver/Src/stm32h7xx_hal_rcc.c **** 
1159:Drivers/STM32H7xx_HAL_Driver/Src/stm32h7xx_hal_rcc.c **** /**
1160:Drivers/STM32H7xx_HAL_Driver/Src/stm32h7xx_hal_rcc.c ****   * @brief  Disables the Clock Security System.
1161:Drivers/STM32H7xx_HAL_Driver/Src/stm32h7xx_hal_rcc.c ****   * @retval None
1162:Drivers/STM32H7xx_HAL_Driver/Src/stm32h7xx_hal_rcc.c ****   */
1163:Drivers/STM32H7xx_HAL_Driver/Src/stm32h7xx_hal_rcc.c **** void HAL_RCC_DisableCSS(void)
1164:Drivers/STM32H7xx_HAL_Driver/Src/stm32h7xx_hal_rcc.c **** {
 1710              		.loc 1 1164 1 is_stmt 1 view -0
 1711              		.cfi_startproc
 1712              		@ args = 0, pretend = 0, frame = 0
 1713              		@ frame_needed = 0, uses_anonymous_args = 0
 1714              		@ link register save eliminated.
1165:Drivers/STM32H7xx_HAL_Driver/Src/stm32h7xx_hal_rcc.c ****   CLEAR_BIT(RCC->CR, RCC_CR_CSSHSEON);
 1715              		.loc 1 1165 3 view .LVU526
 1716 0000 024A     		ldr	r2, .L159
 1717 0002 1368     		ldr	r3, [r2]
 1718 0004 23F40023 		bic	r3, r3, #524288
 1719 0008 1360     		str	r3, [r2]
1166:Drivers/STM32H7xx_HAL_Driver/Src/stm32h7xx_hal_rcc.c **** }
 1720              		.loc 1 1166 1 is_stmt 0 view .LVU527
 1721 000a 7047     		bx	lr
 1722              	.L160:
 1723              		.align	2
 1724              	.L159:
ARM GAS  /tmp/cconV3EI.s 			page 57


 1725 000c 00440258 		.word	1476543488
 1726              		.cfi_endproc
 1727              	.LFE146:
 1729              		.section	.text.HAL_RCC_GetSysClockFreq,"ax",%progbits
 1730              		.align	1
 1731              		.global	HAL_RCC_GetSysClockFreq
 1732              		.syntax unified
 1733              		.thumb
 1734              		.thumb_func
 1735              		.fpu fpv5-d16
 1737              	HAL_RCC_GetSysClockFreq:
 1738              	.LFB147:
1167:Drivers/STM32H7xx_HAL_Driver/Src/stm32h7xx_hal_rcc.c **** 
1168:Drivers/STM32H7xx_HAL_Driver/Src/stm32h7xx_hal_rcc.c **** /**
1169:Drivers/STM32H7xx_HAL_Driver/Src/stm32h7xx_hal_rcc.c ****   * @brief  Returns the SYSCLK frequency
1170:Drivers/STM32H7xx_HAL_Driver/Src/stm32h7xx_hal_rcc.c ****   *
1171:Drivers/STM32H7xx_HAL_Driver/Src/stm32h7xx_hal_rcc.c ****   * @note   The system frequency computed by this function is not the real
1172:Drivers/STM32H7xx_HAL_Driver/Src/stm32h7xx_hal_rcc.c ****   *         frequency in the chip. It is calculated based on the predefined
1173:Drivers/STM32H7xx_HAL_Driver/Src/stm32h7xx_hal_rcc.c ****   *         constant and the selected clock source:
1174:Drivers/STM32H7xx_HAL_Driver/Src/stm32h7xx_hal_rcc.c ****   * @note     If SYSCLK source is CSI, function returns values based on CSI_VALUE(*)
1175:Drivers/STM32H7xx_HAL_Driver/Src/stm32h7xx_hal_rcc.c ****   * @note     If SYSCLK source is HSI, function returns values based on HSI_VALUE(**)
1176:Drivers/STM32H7xx_HAL_Driver/Src/stm32h7xx_hal_rcc.c ****   * @note     If SYSCLK source is HSE, function returns values based on HSE_VALUE(***)
1177:Drivers/STM32H7xx_HAL_Driver/Src/stm32h7xx_hal_rcc.c ****   * @note     If SYSCLK source is PLL, function returns values based on CSI_VALUE(*),
1178:Drivers/STM32H7xx_HAL_Driver/Src/stm32h7xx_hal_rcc.c ****   *           HSI_VALUE(**) or HSE_VALUE(***) multiplied/divided by the PLL factors.
1179:Drivers/STM32H7xx_HAL_Driver/Src/stm32h7xx_hal_rcc.c ****   * @note     (*) CSI_VALUE is a constant defined in stm32h7xx_hal_conf.h file (default value
1180:Drivers/STM32H7xx_HAL_Driver/Src/stm32h7xx_hal_rcc.c ****   *               4 MHz) but the real value may vary depending on the variations
1181:Drivers/STM32H7xx_HAL_Driver/Src/stm32h7xx_hal_rcc.c ****   *               in voltage and temperature.
1182:Drivers/STM32H7xx_HAL_Driver/Src/stm32h7xx_hal_rcc.c ****   * @note     (**) HSI_VALUE is a constant defined in stm32h7xx_hal_conf.h file (default value
1183:Drivers/STM32H7xx_HAL_Driver/Src/stm32h7xx_hal_rcc.c ****   *               64 MHz) but the real value may vary depending on the variations
1184:Drivers/STM32H7xx_HAL_Driver/Src/stm32h7xx_hal_rcc.c ****   *               in voltage and temperature.
1185:Drivers/STM32H7xx_HAL_Driver/Src/stm32h7xx_hal_rcc.c ****   * @note     (***) HSE_VALUE is a constant defined in stm32h7xx_hal_conf.h file (default value
1186:Drivers/STM32H7xx_HAL_Driver/Src/stm32h7xx_hal_rcc.c ****   *                25 MHz), user has to ensure that HSE_VALUE is same as the real
1187:Drivers/STM32H7xx_HAL_Driver/Src/stm32h7xx_hal_rcc.c ****   *                frequency of the crystal used. Otherwise, this function may
1188:Drivers/STM32H7xx_HAL_Driver/Src/stm32h7xx_hal_rcc.c ****   *                have wrong result.
1189:Drivers/STM32H7xx_HAL_Driver/Src/stm32h7xx_hal_rcc.c ****   *
1190:Drivers/STM32H7xx_HAL_Driver/Src/stm32h7xx_hal_rcc.c ****   * @note   The result of this function could be not correct when using fractional
1191:Drivers/STM32H7xx_HAL_Driver/Src/stm32h7xx_hal_rcc.c ****   *         value for HSE crystal.
1192:Drivers/STM32H7xx_HAL_Driver/Src/stm32h7xx_hal_rcc.c ****   *
1193:Drivers/STM32H7xx_HAL_Driver/Src/stm32h7xx_hal_rcc.c ****   * @note   This function can be used by the user application to compute the
1194:Drivers/STM32H7xx_HAL_Driver/Src/stm32h7xx_hal_rcc.c ****   *         baud rate for the communication peripherals or configure other parameters.
1195:Drivers/STM32H7xx_HAL_Driver/Src/stm32h7xx_hal_rcc.c ****   *
1196:Drivers/STM32H7xx_HAL_Driver/Src/stm32h7xx_hal_rcc.c ****   * @note   Each time SYSCLK changes, this function must be called to update the
1197:Drivers/STM32H7xx_HAL_Driver/Src/stm32h7xx_hal_rcc.c ****   *         right SYSCLK value. Otherwise, any configuration based on this function will be incorre
1198:Drivers/STM32H7xx_HAL_Driver/Src/stm32h7xx_hal_rcc.c ****   *
1199:Drivers/STM32H7xx_HAL_Driver/Src/stm32h7xx_hal_rcc.c ****   *
1200:Drivers/STM32H7xx_HAL_Driver/Src/stm32h7xx_hal_rcc.c ****   * @retval SYSCLK frequency
1201:Drivers/STM32H7xx_HAL_Driver/Src/stm32h7xx_hal_rcc.c ****   */
1202:Drivers/STM32H7xx_HAL_Driver/Src/stm32h7xx_hal_rcc.c **** uint32_t HAL_RCC_GetSysClockFreq(void)
1203:Drivers/STM32H7xx_HAL_Driver/Src/stm32h7xx_hal_rcc.c **** {
 1739              		.loc 1 1203 1 is_stmt 1 view -0
 1740              		.cfi_startproc
 1741              		@ args = 0, pretend = 0, frame = 0
 1742              		@ frame_needed = 0, uses_anonymous_args = 0
 1743              		@ link register save eliminated.
1204:Drivers/STM32H7xx_HAL_Driver/Src/stm32h7xx_hal_rcc.c ****   uint32_t pllp, pllsource, pllm, pllfracen, hsivalue;
 1744              		.loc 1 1204 3 view .LVU529
1205:Drivers/STM32H7xx_HAL_Driver/Src/stm32h7xx_hal_rcc.c ****   float_t fracn1, pllvco;
ARM GAS  /tmp/cconV3EI.s 			page 58


 1745              		.loc 1 1205 3 view .LVU530
1206:Drivers/STM32H7xx_HAL_Driver/Src/stm32h7xx_hal_rcc.c ****   uint32_t sysclockfreq;
 1746              		.loc 1 1206 3 view .LVU531
1207:Drivers/STM32H7xx_HAL_Driver/Src/stm32h7xx_hal_rcc.c **** 
1208:Drivers/STM32H7xx_HAL_Driver/Src/stm32h7xx_hal_rcc.c ****   /* Get SYSCLK source -------------------------------------------------------*/
1209:Drivers/STM32H7xx_HAL_Driver/Src/stm32h7xx_hal_rcc.c **** 
1210:Drivers/STM32H7xx_HAL_Driver/Src/stm32h7xx_hal_rcc.c ****   switch (RCC->CFGR & RCC_CFGR_SWS)
 1747              		.loc 1 1210 3 view .LVU532
 1748              		.loc 1 1210 14 is_stmt 0 view .LVU533
 1749 0000 744B     		ldr	r3, .L177
 1750 0002 1B69     		ldr	r3, [r3, #16]
 1751              		.loc 1 1210 21 view .LVU534
 1752 0004 03F03803 		and	r3, r3, #56
 1753              		.loc 1 1210 3 view .LVU535
 1754 0008 102B     		cmp	r3, #16
 1755 000a 00F0DF80 		beq	.L169
 1756 000e 182B     		cmp	r3, #24
 1757 0010 10D0     		beq	.L163
 1758 0012 0BB1     		cbz	r3, .L175
 1759 0014 7048     		ldr	r0, .L177+4
 1760 0016 7047     		bx	lr
 1761              	.L175:
1211:Drivers/STM32H7xx_HAL_Driver/Src/stm32h7xx_hal_rcc.c ****   {
1212:Drivers/STM32H7xx_HAL_Driver/Src/stm32h7xx_hal_rcc.c ****   case RCC_CFGR_SWS_HSI:  /* HSI used as system clock source */
1213:Drivers/STM32H7xx_HAL_Driver/Src/stm32h7xx_hal_rcc.c **** 
1214:Drivers/STM32H7xx_HAL_Driver/Src/stm32h7xx_hal_rcc.c ****    if (__HAL_RCC_GET_FLAG(RCC_FLAG_HSIDIV) != 0U)
 1762              		.loc 1 1214 4 is_stmt 1 view .LVU536
 1763              		.loc 1 1214 8 is_stmt 0 view .LVU537
 1764 0018 6E4B     		ldr	r3, .L177
 1765 001a 1B68     		ldr	r3, [r3]
 1766              		.loc 1 1214 7 view .LVU538
 1767 001c 13F0200F 		tst	r3, #32
 1768 0020 00F0D680 		beq	.L171
1215:Drivers/STM32H7xx_HAL_Driver/Src/stm32h7xx_hal_rcc.c ****       {
1216:Drivers/STM32H7xx_HAL_Driver/Src/stm32h7xx_hal_rcc.c ****         sysclockfreq = (uint32_t) (HSI_VALUE >> (__HAL_RCC_GET_HSI_DIVIDER()>> 3));
 1769              		.loc 1 1216 9 is_stmt 1 view .LVU539
 1770              		.loc 1 1216 50 is_stmt 0 view .LVU540
 1771 0024 6B4B     		ldr	r3, .L177
 1772 0026 1868     		ldr	r0, [r3]
 1773              		.loc 1 1216 77 view .LVU541
 1774 0028 C0F3C100 		ubfx	r0, r0, #3, #2
 1775              		.loc 1 1216 22 view .LVU542
 1776 002c 6B4B     		ldr	r3, .L177+8
 1777 002e 23FA00F0 		lsr	r0, r3, r0
 1778              	.LVL138:
 1779              		.loc 1 1216 22 view .LVU543
 1780 0032 7047     		bx	lr
 1781              	.LVL139:
 1782              	.L163:
1203:Drivers/STM32H7xx_HAL_Driver/Src/stm32h7xx_hal_rcc.c ****   uint32_t pllp, pllsource, pllm, pllfracen, hsivalue;
 1783              		.loc 1 1203 1 view .LVU544
 1784 0034 10B4     		push	{r4}
 1785              	.LCFI8:
 1786              		.cfi_def_cfa_offset 4
 1787              		.cfi_offset 4, -4
1217:Drivers/STM32H7xx_HAL_Driver/Src/stm32h7xx_hal_rcc.c ****       }
1218:Drivers/STM32H7xx_HAL_Driver/Src/stm32h7xx_hal_rcc.c ****       else
ARM GAS  /tmp/cconV3EI.s 			page 59


1219:Drivers/STM32H7xx_HAL_Driver/Src/stm32h7xx_hal_rcc.c ****       {
1220:Drivers/STM32H7xx_HAL_Driver/Src/stm32h7xx_hal_rcc.c ****         sysclockfreq = (uint32_t) HSI_VALUE;
1221:Drivers/STM32H7xx_HAL_Driver/Src/stm32h7xx_hal_rcc.c ****       }
1222:Drivers/STM32H7xx_HAL_Driver/Src/stm32h7xx_hal_rcc.c **** 
1223:Drivers/STM32H7xx_HAL_Driver/Src/stm32h7xx_hal_rcc.c ****     break;
1224:Drivers/STM32H7xx_HAL_Driver/Src/stm32h7xx_hal_rcc.c **** 
1225:Drivers/STM32H7xx_HAL_Driver/Src/stm32h7xx_hal_rcc.c ****   case RCC_CFGR_SWS_CSI:  /* CSI used as system clock  source */
1226:Drivers/STM32H7xx_HAL_Driver/Src/stm32h7xx_hal_rcc.c ****     sysclockfreq = CSI_VALUE;
1227:Drivers/STM32H7xx_HAL_Driver/Src/stm32h7xx_hal_rcc.c ****     break;
1228:Drivers/STM32H7xx_HAL_Driver/Src/stm32h7xx_hal_rcc.c **** 
1229:Drivers/STM32H7xx_HAL_Driver/Src/stm32h7xx_hal_rcc.c ****   case RCC_CFGR_SWS_HSE:  /* HSE used as system clock  source */
1230:Drivers/STM32H7xx_HAL_Driver/Src/stm32h7xx_hal_rcc.c ****     sysclockfreq = HSE_VALUE;
1231:Drivers/STM32H7xx_HAL_Driver/Src/stm32h7xx_hal_rcc.c ****     break;
1232:Drivers/STM32H7xx_HAL_Driver/Src/stm32h7xx_hal_rcc.c **** 
1233:Drivers/STM32H7xx_HAL_Driver/Src/stm32h7xx_hal_rcc.c ****   case RCC_CFGR_SWS_PLL1:  /* PLL1 used as system clock  source */
1234:Drivers/STM32H7xx_HAL_Driver/Src/stm32h7xx_hal_rcc.c **** 
1235:Drivers/STM32H7xx_HAL_Driver/Src/stm32h7xx_hal_rcc.c ****     /* PLL_VCO = (HSE_VALUE or HSI_VALUE or CSI_VALUE/ PLLM) * PLLN
1236:Drivers/STM32H7xx_HAL_Driver/Src/stm32h7xx_hal_rcc.c ****     SYSCLK = PLL_VCO / PLLR
1237:Drivers/STM32H7xx_HAL_Driver/Src/stm32h7xx_hal_rcc.c ****     */
1238:Drivers/STM32H7xx_HAL_Driver/Src/stm32h7xx_hal_rcc.c ****     pllsource = (RCC->PLLCKSELR & RCC_PLLCKSELR_PLLSRC);
 1788              		.loc 1 1238 5 is_stmt 1 view .LVU545
 1789              		.loc 1 1238 21 is_stmt 0 view .LVU546
 1790 0036 674A     		ldr	r2, .L177
 1791 0038 916A     		ldr	r1, [r2, #40]
 1792              		.loc 1 1238 15 view .LVU547
 1793 003a 01F00301 		and	r1, r1, #3
 1794              	.LVL140:
1239:Drivers/STM32H7xx_HAL_Driver/Src/stm32h7xx_hal_rcc.c ****     pllm = ((RCC->PLLCKSELR & RCC_PLLCKSELR_DIVM1)>> 4)  ;
 1795              		.loc 1 1239 5 is_stmt 1 view .LVU548
 1796              		.loc 1 1239 17 is_stmt 0 view .LVU549
 1797 003e 946A     		ldr	r4, [r2, #40]
 1798              		.loc 1 1239 10 view .LVU550
 1799 0040 C4F30510 		ubfx	r0, r4, #4, #6
 1800              	.LVL141:
1240:Drivers/STM32H7xx_HAL_Driver/Src/stm32h7xx_hal_rcc.c ****     pllfracen = ((RCC-> PLLCFGR & RCC_PLLCFGR_PLL1FRACEN)>>RCC_PLLCFGR_PLL1FRACEN_Pos);
 1801              		.loc 1 1240 5 is_stmt 1 view .LVU551
 1802              		.loc 1 1240 22 is_stmt 0 view .LVU552
 1803 0044 D36A     		ldr	r3, [r2, #44]
 1804              		.loc 1 1240 15 view .LVU553
 1805 0046 03F00103 		and	r3, r3, #1
 1806              	.LVL142:
1241:Drivers/STM32H7xx_HAL_Driver/Src/stm32h7xx_hal_rcc.c ****     fracn1 = (float_t)(uint32_t)(pllfracen* ((RCC->PLL1FRACR & RCC_PLL1FRACR_FRACN1)>> 3));
 1807              		.loc 1 1241 5 is_stmt 1 view .LVU554
 1808              		.loc 1 1241 50 is_stmt 0 view .LVU555
 1809 004a 526B     		ldr	r2, [r2, #52]
 1810              		.loc 1 1241 85 view .LVU556
 1811 004c C2F3CC02 		ubfx	r2, r2, #3, #13
 1812              		.loc 1 1241 23 view .LVU557
 1813 0050 03FB02F3 		mul	r3, r3, r2
 1814              	.LVL143:
 1815              		.loc 1 1241 12 view .LVU558
 1816 0054 07EE903A 		vmov	s15, r3	@ int
 1817 0058 F8EE677A 		vcvt.f32.u32	s15, s15
 1818              	.LVL144:
1242:Drivers/STM32H7xx_HAL_Driver/Src/stm32h7xx_hal_rcc.c **** 
1243:Drivers/STM32H7xx_HAL_Driver/Src/stm32h7xx_hal_rcc.c ****     if (pllm != 0U)
 1819              		.loc 1 1243 5 is_stmt 1 view .LVU559
ARM GAS  /tmp/cconV3EI.s 			page 60


 1820              		.loc 1 1243 8 is_stmt 0 view .LVU560
 1821 005c 14F47C7F 		tst	r4, #1008
 1822 0060 00F09480 		beq	.L161
1244:Drivers/STM32H7xx_HAL_Driver/Src/stm32h7xx_hal_rcc.c ****     {
1245:Drivers/STM32H7xx_HAL_Driver/Src/stm32h7xx_hal_rcc.c ****       switch (pllsource)
 1823              		.loc 1 1245 7 is_stmt 1 view .LVU561
 1824 0064 0129     		cmp	r1, #1
 1825 0066 66D0     		beq	.L164
 1826 0068 0229     		cmp	r1, #2
 1827 006a 00F09280 		beq	.L165
 1828 006e E1B1     		cbz	r1, .L176
1246:Drivers/STM32H7xx_HAL_Driver/Src/stm32h7xx_hal_rcc.c ****       {
1247:Drivers/STM32H7xx_HAL_Driver/Src/stm32h7xx_hal_rcc.c ****       case RCC_PLLSOURCE_HSI:  /* HSI used as PLL clock source */
1248:Drivers/STM32H7xx_HAL_Driver/Src/stm32h7xx_hal_rcc.c **** 
1249:Drivers/STM32H7xx_HAL_Driver/Src/stm32h7xx_hal_rcc.c ****        if (__HAL_RCC_GET_FLAG(RCC_FLAG_HSIDIV) != 0U)
1250:Drivers/STM32H7xx_HAL_Driver/Src/stm32h7xx_hal_rcc.c ****         {
1251:Drivers/STM32H7xx_HAL_Driver/Src/stm32h7xx_hal_rcc.c ****           hsivalue= (HSI_VALUE >> (__HAL_RCC_GET_HSI_DIVIDER()>> 3));
1252:Drivers/STM32H7xx_HAL_Driver/Src/stm32h7xx_hal_rcc.c ****           pllvco = ( (float_t)hsivalue / (float_t)pllm) * ((float_t)(uint32_t)(RCC->PLL1DIVR & RCC_
1253:Drivers/STM32H7xx_HAL_Driver/Src/stm32h7xx_hal_rcc.c ****         }
1254:Drivers/STM32H7xx_HAL_Driver/Src/stm32h7xx_hal_rcc.c ****         else
1255:Drivers/STM32H7xx_HAL_Driver/Src/stm32h7xx_hal_rcc.c ****         {
1256:Drivers/STM32H7xx_HAL_Driver/Src/stm32h7xx_hal_rcc.c ****           pllvco = ((float_t)HSI_VALUE / (float_t)pllm) * ((float_t)(uint32_t)(RCC->PLL1DIVR & RCC_
1257:Drivers/STM32H7xx_HAL_Driver/Src/stm32h7xx_hal_rcc.c ****         }
1258:Drivers/STM32H7xx_HAL_Driver/Src/stm32h7xx_hal_rcc.c ****         break;
1259:Drivers/STM32H7xx_HAL_Driver/Src/stm32h7xx_hal_rcc.c **** 
1260:Drivers/STM32H7xx_HAL_Driver/Src/stm32h7xx_hal_rcc.c ****       case RCC_PLLSOURCE_CSI:  /* CSI used as PLL clock source */
1261:Drivers/STM32H7xx_HAL_Driver/Src/stm32h7xx_hal_rcc.c ****         pllvco = ((float_t)CSI_VALUE / (float_t)pllm) * ((float_t)(uint32_t)(RCC->PLL1DIVR & RCC_PL
1262:Drivers/STM32H7xx_HAL_Driver/Src/stm32h7xx_hal_rcc.c ****         break;
1263:Drivers/STM32H7xx_HAL_Driver/Src/stm32h7xx_hal_rcc.c **** 
1264:Drivers/STM32H7xx_HAL_Driver/Src/stm32h7xx_hal_rcc.c ****       case RCC_PLLSOURCE_HSE:  /* HSE used as PLL clock source */
1265:Drivers/STM32H7xx_HAL_Driver/Src/stm32h7xx_hal_rcc.c ****         pllvco = ((float_t)HSE_VALUE / (float_t)pllm) * ((float_t)(uint32_t)(RCC->PLL1DIVR & RCC_PL
1266:Drivers/STM32H7xx_HAL_Driver/Src/stm32h7xx_hal_rcc.c ****         break;
1267:Drivers/STM32H7xx_HAL_Driver/Src/stm32h7xx_hal_rcc.c **** 
1268:Drivers/STM32H7xx_HAL_Driver/Src/stm32h7xx_hal_rcc.c ****       default:
1269:Drivers/STM32H7xx_HAL_Driver/Src/stm32h7xx_hal_rcc.c ****         pllvco = ((float_t)CSI_VALUE / (float_t)pllm) * ((float_t)(uint32_t)(RCC->PLL1DIVR & RCC_PL
 1829              		.loc 1 1269 9 view .LVU562
 1830              		.loc 1 1269 40 is_stmt 0 view .LVU563
 1831 0070 07EE100A 		vmov	s14, r0	@ int
 1832 0074 F8EE476A 		vcvt.f32.u32	s13, s14
 1833              		.loc 1 1269 38 view .LVU564
 1834 0078 9FED596A 		vldr.32	s12, .L177+12
 1835 007c 86EE267A 		vdiv.f32	s14, s12, s13
 1836              		.loc 1 1269 81 view .LVU565
 1837 0080 544B     		ldr	r3, .L177
 1838 0082 1B6B     		ldr	r3, [r3, #48]
 1839              		.loc 1 1269 67 view .LVU566
 1840 0084 C3F30803 		ubfx	r3, r3, #0, #9
 1841              		.loc 1 1269 58 view .LVU567
 1842 0088 06EE903A 		vmov	s13, r3	@ int
 1843 008c F8EE666A 		vcvt.f32.u32	s13, s13
 1844              		.loc 1 1269 120 view .LVU568
 1845 0090 9FED546A 		vldr.32	s12, .L177+16
 1846 0094 67EE867A 		vmul.f32	s15, s15, s12
 1847              	.LVL145:
 1848              		.loc 1 1269 111 view .LVU569
 1849 0098 76EEA77A 		vadd.f32	s15, s13, s15
 1850              		.loc 1 1269 138 view .LVU570
ARM GAS  /tmp/cconV3EI.s 			page 61


 1851 009c F7EE006A 		vmov.f32	s13, #1.0e+0
 1852 00a0 77EEA67A 		vadd.f32	s15, s15, s13
 1853              		.loc 1 1269 16 view .LVU571
 1854 00a4 27EE277A 		vmul.f32	s14, s14, s15
 1855              	.LVL146:
1270:Drivers/STM32H7xx_HAL_Driver/Src/stm32h7xx_hal_rcc.c ****         break;
 1856              		.loc 1 1270 9 is_stmt 1 view .LVU572
 1857 00a8 61E0     		b	.L168
 1858              	.LVL147:
 1859              	.L176:
1249:Drivers/STM32H7xx_HAL_Driver/Src/stm32h7xx_hal_rcc.c ****         {
 1860              		.loc 1 1249 8 view .LVU573
1249:Drivers/STM32H7xx_HAL_Driver/Src/stm32h7xx_hal_rcc.c ****         {
 1861              		.loc 1 1249 12 is_stmt 0 view .LVU574
 1862 00aa 4A4B     		ldr	r3, .L177
 1863 00ac 1B68     		ldr	r3, [r3]
1249:Drivers/STM32H7xx_HAL_Driver/Src/stm32h7xx_hal_rcc.c ****         {
 1864              		.loc 1 1249 11 view .LVU575
 1865 00ae 13F0200F 		tst	r3, #32
 1866 00b2 23D0     		beq	.L167
1251:Drivers/STM32H7xx_HAL_Driver/Src/stm32h7xx_hal_rcc.c ****           pllvco = ( (float_t)hsivalue / (float_t)pllm) * ((float_t)(uint32_t)(RCC->PLL1DIVR & RCC_
 1867              		.loc 1 1251 11 is_stmt 1 view .LVU576
1251:Drivers/STM32H7xx_HAL_Driver/Src/stm32h7xx_hal_rcc.c ****           pllvco = ( (float_t)hsivalue / (float_t)pllm) * ((float_t)(uint32_t)(RCC->PLL1DIVR & RCC_
 1868              		.loc 1 1251 36 is_stmt 0 view .LVU577
 1869 00b4 4749     		ldr	r1, .L177
 1870              	.LVL148:
1251:Drivers/STM32H7xx_HAL_Driver/Src/stm32h7xx_hal_rcc.c ****           pllvco = ( (float_t)hsivalue / (float_t)pllm) * ((float_t)(uint32_t)(RCC->PLL1DIVR & RCC_
 1871              		.loc 1 1251 36 view .LVU578
 1872 00b6 0A68     		ldr	r2, [r1]
1251:Drivers/STM32H7xx_HAL_Driver/Src/stm32h7xx_hal_rcc.c ****           pllvco = ( (float_t)hsivalue / (float_t)pllm) * ((float_t)(uint32_t)(RCC->PLL1DIVR & RCC_
 1873              		.loc 1 1251 63 view .LVU579
 1874 00b8 C2F3C102 		ubfx	r2, r2, #3, #2
1251:Drivers/STM32H7xx_HAL_Driver/Src/stm32h7xx_hal_rcc.c ****           pllvco = ( (float_t)hsivalue / (float_t)pllm) * ((float_t)(uint32_t)(RCC->PLL1DIVR & RCC_
 1875              		.loc 1 1251 19 view .LVU580
 1876 00bc 474B     		ldr	r3, .L177+8
 1877 00be D340     		lsrs	r3, r3, r2
 1878              	.LVL149:
1252:Drivers/STM32H7xx_HAL_Driver/Src/stm32h7xx_hal_rcc.c ****         }
 1879              		.loc 1 1252 11 is_stmt 1 view .LVU581
1252:Drivers/STM32H7xx_HAL_Driver/Src/stm32h7xx_hal_rcc.c ****         }
 1880              		.loc 1 1252 22 is_stmt 0 view .LVU582
 1881 00c0 07EE103A 		vmov	s14, r3	@ int
 1882 00c4 F8EE476A 		vcvt.f32.u32	s13, s14
1252:Drivers/STM32H7xx_HAL_Driver/Src/stm32h7xx_hal_rcc.c ****         }
 1883              		.loc 1 1252 42 view .LVU583
 1884 00c8 07EE100A 		vmov	s14, r0	@ int
 1885 00cc B8EE476A 		vcvt.f32.u32	s12, s14
1252:Drivers/STM32H7xx_HAL_Driver/Src/stm32h7xx_hal_rcc.c ****         }
 1886              		.loc 1 1252 40 view .LVU584
 1887 00d0 86EE867A 		vdiv.f32	s14, s13, s12
1252:Drivers/STM32H7xx_HAL_Driver/Src/stm32h7xx_hal_rcc.c ****         }
 1888              		.loc 1 1252 83 view .LVU585
 1889 00d4 0B6B     		ldr	r3, [r1, #48]
 1890              	.LVL150:
1252:Drivers/STM32H7xx_HAL_Driver/Src/stm32h7xx_hal_rcc.c ****         }
 1891              		.loc 1 1252 69 view .LVU586
 1892 00d6 C3F30803 		ubfx	r3, r3, #0, #9
ARM GAS  /tmp/cconV3EI.s 			page 62


1252:Drivers/STM32H7xx_HAL_Driver/Src/stm32h7xx_hal_rcc.c ****         }
 1893              		.loc 1 1252 60 view .LVU587
 1894 00da 06EE903A 		vmov	s13, r3	@ int
 1895 00de F8EE666A 		vcvt.f32.u32	s13, s13
1252:Drivers/STM32H7xx_HAL_Driver/Src/stm32h7xx_hal_rcc.c ****         }
 1896              		.loc 1 1252 122 view .LVU588
 1897 00e2 9FED406A 		vldr.32	s12, .L177+16
 1898 00e6 67EE867A 		vmul.f32	s15, s15, s12
 1899              	.LVL151:
1252:Drivers/STM32H7xx_HAL_Driver/Src/stm32h7xx_hal_rcc.c ****         }
 1900              		.loc 1 1252 113 view .LVU589
 1901 00ea 76EEA77A 		vadd.f32	s15, s13, s15
1252:Drivers/STM32H7xx_HAL_Driver/Src/stm32h7xx_hal_rcc.c ****         }
 1902              		.loc 1 1252 140 view .LVU590
 1903 00ee F7EE006A 		vmov.f32	s13, #1.0e+0
 1904 00f2 77EEA67A 		vadd.f32	s15, s15, s13
1252:Drivers/STM32H7xx_HAL_Driver/Src/stm32h7xx_hal_rcc.c ****         }
 1905              		.loc 1 1252 18 view .LVU591
 1906 00f6 27EE277A 		vmul.f32	s14, s14, s15
 1907              	.LVL152:
1252:Drivers/STM32H7xx_HAL_Driver/Src/stm32h7xx_hal_rcc.c ****         }
 1908              		.loc 1 1252 18 view .LVU592
 1909 00fa 38E0     		b	.L168
 1910              	.LVL153:
 1911              	.L167:
1256:Drivers/STM32H7xx_HAL_Driver/Src/stm32h7xx_hal_rcc.c ****         }
 1912              		.loc 1 1256 11 is_stmt 1 view .LVU593
1256:Drivers/STM32H7xx_HAL_Driver/Src/stm32h7xx_hal_rcc.c ****         }
 1913              		.loc 1 1256 42 is_stmt 0 view .LVU594
 1914 00fc 07EE100A 		vmov	s14, r0	@ int
 1915 0100 F8EE476A 		vcvt.f32.u32	s13, s14
1256:Drivers/STM32H7xx_HAL_Driver/Src/stm32h7xx_hal_rcc.c ****         }
 1916              		.loc 1 1256 40 view .LVU595
 1917 0104 9FED386A 		vldr.32	s12, .L177+20
 1918 0108 86EE267A 		vdiv.f32	s14, s12, s13
1256:Drivers/STM32H7xx_HAL_Driver/Src/stm32h7xx_hal_rcc.c ****         }
 1919              		.loc 1 1256 83 view .LVU596
 1920 010c 314B     		ldr	r3, .L177
 1921 010e 1B6B     		ldr	r3, [r3, #48]
1256:Drivers/STM32H7xx_HAL_Driver/Src/stm32h7xx_hal_rcc.c ****         }
 1922              		.loc 1 1256 69 view .LVU597
 1923 0110 C3F30803 		ubfx	r3, r3, #0, #9
1256:Drivers/STM32H7xx_HAL_Driver/Src/stm32h7xx_hal_rcc.c ****         }
 1924              		.loc 1 1256 60 view .LVU598
 1925 0114 06EE903A 		vmov	s13, r3	@ int
 1926 0118 F8EE666A 		vcvt.f32.u32	s13, s13
1256:Drivers/STM32H7xx_HAL_Driver/Src/stm32h7xx_hal_rcc.c ****         }
 1927              		.loc 1 1256 122 view .LVU599
 1928 011c 9FED316A 		vldr.32	s12, .L177+16
 1929 0120 67EE867A 		vmul.f32	s15, s15, s12
 1930              	.LVL154:
1256:Drivers/STM32H7xx_HAL_Driver/Src/stm32h7xx_hal_rcc.c ****         }
 1931              		.loc 1 1256 113 view .LVU600
 1932 0124 76EEA77A 		vadd.f32	s15, s13, s15
1256:Drivers/STM32H7xx_HAL_Driver/Src/stm32h7xx_hal_rcc.c ****         }
 1933              		.loc 1 1256 140 view .LVU601
 1934 0128 F7EE006A 		vmov.f32	s13, #1.0e+0
ARM GAS  /tmp/cconV3EI.s 			page 63


 1935 012c 77EEA67A 		vadd.f32	s15, s15, s13
1256:Drivers/STM32H7xx_HAL_Driver/Src/stm32h7xx_hal_rcc.c ****         }
 1936              		.loc 1 1256 18 view .LVU602
 1937 0130 27EE277A 		vmul.f32	s14, s14, s15
 1938              	.LVL155:
1256:Drivers/STM32H7xx_HAL_Driver/Src/stm32h7xx_hal_rcc.c ****         }
 1939              		.loc 1 1256 18 view .LVU603
 1940 0134 1BE0     		b	.L168
 1941              	.LVL156:
 1942              	.L164:
1261:Drivers/STM32H7xx_HAL_Driver/Src/stm32h7xx_hal_rcc.c ****         break;
 1943              		.loc 1 1261 9 is_stmt 1 view .LVU604
1261:Drivers/STM32H7xx_HAL_Driver/Src/stm32h7xx_hal_rcc.c ****         break;
 1944              		.loc 1 1261 40 is_stmt 0 view .LVU605
 1945 0136 07EE100A 		vmov	s14, r0	@ int
 1946 013a F8EE476A 		vcvt.f32.u32	s13, s14
1261:Drivers/STM32H7xx_HAL_Driver/Src/stm32h7xx_hal_rcc.c ****         break;
 1947              		.loc 1 1261 38 view .LVU606
 1948 013e 9FED286A 		vldr.32	s12, .L177+12
 1949 0142 86EE267A 		vdiv.f32	s14, s12, s13
1261:Drivers/STM32H7xx_HAL_Driver/Src/stm32h7xx_hal_rcc.c ****         break;
 1950              		.loc 1 1261 81 view .LVU607
 1951 0146 234B     		ldr	r3, .L177
 1952 0148 1B6B     		ldr	r3, [r3, #48]
1261:Drivers/STM32H7xx_HAL_Driver/Src/stm32h7xx_hal_rcc.c ****         break;
 1953              		.loc 1 1261 67 view .LVU608
 1954 014a C3F30803 		ubfx	r3, r3, #0, #9
1261:Drivers/STM32H7xx_HAL_Driver/Src/stm32h7xx_hal_rcc.c ****         break;
 1955              		.loc 1 1261 58 view .LVU609
 1956 014e 06EE903A 		vmov	s13, r3	@ int
 1957 0152 F8EE666A 		vcvt.f32.u32	s13, s13
1261:Drivers/STM32H7xx_HAL_Driver/Src/stm32h7xx_hal_rcc.c ****         break;
 1958              		.loc 1 1261 120 view .LVU610
 1959 0156 9FED236A 		vldr.32	s12, .L177+16
 1960 015a 67EE867A 		vmul.f32	s15, s15, s12
 1961              	.LVL157:
1261:Drivers/STM32H7xx_HAL_Driver/Src/stm32h7xx_hal_rcc.c ****         break;
 1962              		.loc 1 1261 111 view .LVU611
 1963 015e 76EEA77A 		vadd.f32	s15, s13, s15
1261:Drivers/STM32H7xx_HAL_Driver/Src/stm32h7xx_hal_rcc.c ****         break;
 1964              		.loc 1 1261 138 view .LVU612
 1965 0162 F7EE006A 		vmov.f32	s13, #1.0e+0
 1966 0166 77EEA67A 		vadd.f32	s15, s15, s13
1261:Drivers/STM32H7xx_HAL_Driver/Src/stm32h7xx_hal_rcc.c ****         break;
 1967              		.loc 1 1261 16 view .LVU613
 1968 016a 27EE277A 		vmul.f32	s14, s14, s15
 1969              	.LVL158:
1262:Drivers/STM32H7xx_HAL_Driver/Src/stm32h7xx_hal_rcc.c **** 
 1970              		.loc 1 1262 9 is_stmt 1 view .LVU614
 1971              	.L168:
1271:Drivers/STM32H7xx_HAL_Driver/Src/stm32h7xx_hal_rcc.c ****       }
1272:Drivers/STM32H7xx_HAL_Driver/Src/stm32h7xx_hal_rcc.c ****       pllp = (((RCC->PLL1DIVR & RCC_PLL1DIVR_P1) >>9) + 1U ) ;
 1972              		.loc 1 1272 7 view .LVU615
 1973              		.loc 1 1272 20 is_stmt 0 view .LVU616
 1974 016e 194B     		ldr	r3, .L177
 1975 0170 1B6B     		ldr	r3, [r3, #48]
 1976              		.loc 1 1272 50 view .LVU617
ARM GAS  /tmp/cconV3EI.s 			page 64


 1977 0172 C3F34623 		ubfx	r3, r3, #9, #7
 1978              		.loc 1 1272 12 view .LVU618
 1979 0176 0133     		adds	r3, r3, #1
 1980              	.LVL159:
1273:Drivers/STM32H7xx_HAL_Driver/Src/stm32h7xx_hal_rcc.c ****       sysclockfreq =  (uint32_t)(float_t)(pllvco/(float_t)pllp);
 1981              		.loc 1 1273 7 is_stmt 1 view .LVU619
 1982              		.loc 1 1273 50 is_stmt 0 view .LVU620
 1983 0178 07EE903A 		vmov	s15, r3	@ int
 1984 017c F8EE677A 		vcvt.f32.u32	s15, s15
 1985              		.loc 1 1273 33 view .LVU621
 1986 0180 C7EE276A 		vdiv.f32	s13, s14, s15
 1987              		.loc 1 1273 20 view .LVU622
 1988 0184 FCEEE67A 		vcvt.u32.f32	s15, s13
 1989 0188 17EE900A 		vmov	r0, s15	@ int
 1990              	.LVL160:
 1991              	.L161:
1274:Drivers/STM32H7xx_HAL_Driver/Src/stm32h7xx_hal_rcc.c ****     }
1275:Drivers/STM32H7xx_HAL_Driver/Src/stm32h7xx_hal_rcc.c ****     else
1276:Drivers/STM32H7xx_HAL_Driver/Src/stm32h7xx_hal_rcc.c ****     {
1277:Drivers/STM32H7xx_HAL_Driver/Src/stm32h7xx_hal_rcc.c ****       sysclockfreq = 0U;
1278:Drivers/STM32H7xx_HAL_Driver/Src/stm32h7xx_hal_rcc.c ****     }
1279:Drivers/STM32H7xx_HAL_Driver/Src/stm32h7xx_hal_rcc.c ****     break;
1280:Drivers/STM32H7xx_HAL_Driver/Src/stm32h7xx_hal_rcc.c **** 
1281:Drivers/STM32H7xx_HAL_Driver/Src/stm32h7xx_hal_rcc.c ****   default:
1282:Drivers/STM32H7xx_HAL_Driver/Src/stm32h7xx_hal_rcc.c ****     sysclockfreq = CSI_VALUE;
1283:Drivers/STM32H7xx_HAL_Driver/Src/stm32h7xx_hal_rcc.c ****     break;
1284:Drivers/STM32H7xx_HAL_Driver/Src/stm32h7xx_hal_rcc.c ****   }
1285:Drivers/STM32H7xx_HAL_Driver/Src/stm32h7xx_hal_rcc.c **** 
1286:Drivers/STM32H7xx_HAL_Driver/Src/stm32h7xx_hal_rcc.c ****   return sysclockfreq;
1287:Drivers/STM32H7xx_HAL_Driver/Src/stm32h7xx_hal_rcc.c **** }
 1992              		.loc 1 1287 1 view .LVU623
 1993 018c 5DF8044B 		ldr	r4, [sp], #4
 1994              	.LCFI9:
 1995              		.cfi_remember_state
 1996              		.cfi_restore 4
 1997              		.cfi_def_cfa_offset 0
 1998              	.LVL161:
 1999              		.loc 1 1287 1 view .LVU624
 2000 0190 7047     		bx	lr
 2001              	.LVL162:
 2002              	.L165:
 2003              	.LCFI10:
 2004              		.cfi_restore_state
1265:Drivers/STM32H7xx_HAL_Driver/Src/stm32h7xx_hal_rcc.c ****         break;
 2005              		.loc 1 1265 9 is_stmt 1 view .LVU625
1265:Drivers/STM32H7xx_HAL_Driver/Src/stm32h7xx_hal_rcc.c ****         break;
 2006              		.loc 1 1265 40 is_stmt 0 view .LVU626
 2007 0192 07EE100A 		vmov	s14, r0	@ int
 2008 0196 F8EE476A 		vcvt.f32.u32	s13, s14
1265:Drivers/STM32H7xx_HAL_Driver/Src/stm32h7xx_hal_rcc.c ****         break;
 2009              		.loc 1 1265 38 view .LVU627
 2010 019a 9FED146A 		vldr.32	s12, .L177+24
 2011 019e 86EE267A 		vdiv.f32	s14, s12, s13
1265:Drivers/STM32H7xx_HAL_Driver/Src/stm32h7xx_hal_rcc.c ****         break;
 2012              		.loc 1 1265 81 view .LVU628
 2013 01a2 0C4B     		ldr	r3, .L177
 2014 01a4 1B6B     		ldr	r3, [r3, #48]
ARM GAS  /tmp/cconV3EI.s 			page 65


1265:Drivers/STM32H7xx_HAL_Driver/Src/stm32h7xx_hal_rcc.c ****         break;
 2015              		.loc 1 1265 67 view .LVU629
 2016 01a6 C3F30803 		ubfx	r3, r3, #0, #9
1265:Drivers/STM32H7xx_HAL_Driver/Src/stm32h7xx_hal_rcc.c ****         break;
 2017              		.loc 1 1265 58 view .LVU630
 2018 01aa 06EE903A 		vmov	s13, r3	@ int
 2019 01ae F8EE666A 		vcvt.f32.u32	s13, s13
1265:Drivers/STM32H7xx_HAL_Driver/Src/stm32h7xx_hal_rcc.c ****         break;
 2020              		.loc 1 1265 120 view .LVU631
 2021 01b2 9FED0C6A 		vldr.32	s12, .L177+16
 2022 01b6 67EE867A 		vmul.f32	s15, s15, s12
 2023              	.LVL163:
1265:Drivers/STM32H7xx_HAL_Driver/Src/stm32h7xx_hal_rcc.c ****         break;
 2024              		.loc 1 1265 111 view .LVU632
 2025 01ba 76EEA77A 		vadd.f32	s15, s13, s15
1265:Drivers/STM32H7xx_HAL_Driver/Src/stm32h7xx_hal_rcc.c ****         break;
 2026              		.loc 1 1265 138 view .LVU633
 2027 01be F7EE006A 		vmov.f32	s13, #1.0e+0
 2028 01c2 77EEA67A 		vadd.f32	s15, s15, s13
1265:Drivers/STM32H7xx_HAL_Driver/Src/stm32h7xx_hal_rcc.c ****         break;
 2029              		.loc 1 1265 16 view .LVU634
 2030 01c6 27EE277A 		vmul.f32	s14, s14, s15
 2031              	.LVL164:
1266:Drivers/STM32H7xx_HAL_Driver/Src/stm32h7xx_hal_rcc.c **** 
 2032              		.loc 1 1266 9 is_stmt 1 view .LVU635
 2033 01ca D0E7     		b	.L168
 2034              	.LVL165:
 2035              	.L169:
 2036              	.LCFI11:
 2037              		.cfi_def_cfa_offset 0
 2038              		.cfi_restore 4
1230:Drivers/STM32H7xx_HAL_Driver/Src/stm32h7xx_hal_rcc.c ****     break;
 2039              		.loc 1 1230 18 is_stmt 0 view .LVU636
 2040 01cc 0848     		ldr	r0, .L177+28
 2041 01ce 7047     		bx	lr
 2042              	.L171:
1220:Drivers/STM32H7xx_HAL_Driver/Src/stm32h7xx_hal_rcc.c ****       }
 2043              		.loc 1 1220 22 view .LVU637
 2044 01d0 0248     		ldr	r0, .L177+8
 2045              	.LVL166:
1286:Drivers/STM32H7xx_HAL_Driver/Src/stm32h7xx_hal_rcc.c **** }
 2046              		.loc 1 1286 3 is_stmt 1 view .LVU638
 2047              		.loc 1 1287 1 is_stmt 0 view .LVU639
 2048 01d2 7047     		bx	lr
 2049              	.L178:
 2050              		.align	2
 2051              	.L177:
 2052 01d4 00440258 		.word	1476543488
 2053 01d8 00093D00 		.word	4000000
 2054 01dc 0090D003 		.word	64000000
 2055 01e0 0024744A 		.word	1249125376
 2056 01e4 00000039 		.word	956301312
 2057 01e8 0024744C 		.word	1282679808
 2058 01ec 0024F44A 		.word	1257513984
 2059 01f0 00127A00 		.word	8000000
 2060              		.cfi_endproc
 2061              	.LFE147:
ARM GAS  /tmp/cconV3EI.s 			page 66


 2063              		.section	.text.HAL_RCC_ClockConfig,"ax",%progbits
 2064              		.align	1
 2065              		.global	HAL_RCC_ClockConfig
 2066              		.syntax unified
 2067              		.thumb
 2068              		.thumb_func
 2069              		.fpu fpv5-d16
 2071              	HAL_RCC_ClockConfig:
 2072              	.LVL167:
 2073              	.LFB143:
 839:Drivers/STM32H7xx_HAL_Driver/Src/stm32h7xx_hal_rcc.c ****   HAL_StatusTypeDef halstatus;
 2074              		.loc 1 839 1 is_stmt 1 view -0
 2075              		.cfi_startproc
 2076              		@ args = 0, pretend = 0, frame = 0
 2077              		@ frame_needed = 0, uses_anonymous_args = 0
 840:Drivers/STM32H7xx_HAL_Driver/Src/stm32h7xx_hal_rcc.c ****   uint32_t tickstart;
 2078              		.loc 1 840 3 view .LVU641
 841:Drivers/STM32H7xx_HAL_Driver/Src/stm32h7xx_hal_rcc.c **** 
 2079              		.loc 1 841 3 view .LVU642
 844:Drivers/STM32H7xx_HAL_Driver/Src/stm32h7xx_hal_rcc.c ****   {
 2080              		.loc 1 844 3 view .LVU643
 844:Drivers/STM32H7xx_HAL_Driver/Src/stm32h7xx_hal_rcc.c ****   {
 2081              		.loc 1 844 5 is_stmt 0 view .LVU644
 2082 0000 0028     		cmp	r0, #0
 2083 0002 00F02881 		beq	.L200
 839:Drivers/STM32H7xx_HAL_Driver/Src/stm32h7xx_hal_rcc.c ****   HAL_StatusTypeDef halstatus;
 2084              		.loc 1 839 1 view .LVU645
 2085 0006 70B5     		push	{r4, r5, r6, lr}
 2086              	.LCFI12:
 2087              		.cfi_def_cfa_offset 16
 2088              		.cfi_offset 4, -16
 2089              		.cfi_offset 5, -12
 2090              		.cfi_offset 6, -8
 2091              		.cfi_offset 14, -4
 2092 0008 0D46     		mov	r5, r1
 2093 000a 0446     		mov	r4, r0
 850:Drivers/STM32H7xx_HAL_Driver/Src/stm32h7xx_hal_rcc.c ****   assert_param(IS_FLASH_LATENCY(FLatency));
 2094              		.loc 1 850 3 is_stmt 1 view .LVU646
 851:Drivers/STM32H7xx_HAL_Driver/Src/stm32h7xx_hal_rcc.c **** 
 2095              		.loc 1 851 3 view .LVU647
 858:Drivers/STM32H7xx_HAL_Driver/Src/stm32h7xx_hal_rcc.c ****   {
 2096              		.loc 1 858 3 view .LVU648
 858:Drivers/STM32H7xx_HAL_Driver/Src/stm32h7xx_hal_rcc.c ****   {
 2097              		.loc 1 858 17 is_stmt 0 view .LVU649
 2098 000c 964B     		ldr	r3, .L216
 2099 000e 1B68     		ldr	r3, [r3]
 2100 0010 03F00F03 		and	r3, r3, #15
 858:Drivers/STM32H7xx_HAL_Driver/Src/stm32h7xx_hal_rcc.c ****   {
 2101              		.loc 1 858 5 view .LVU650
 2102 0014 8B42     		cmp	r3, r1
 2103 0016 0BD2     		bcs	.L181
 861:Drivers/STM32H7xx_HAL_Driver/Src/stm32h7xx_hal_rcc.c **** 
 2104              		.loc 1 861 5 is_stmt 1 view .LVU651
 2105 0018 934A     		ldr	r2, .L216
 2106 001a 1368     		ldr	r3, [r2]
 2107 001c 23F00F03 		bic	r3, r3, #15
 2108 0020 0B43     		orrs	r3, r3, r1
ARM GAS  /tmp/cconV3EI.s 			page 67


 2109 0022 1360     		str	r3, [r2]
 865:Drivers/STM32H7xx_HAL_Driver/Src/stm32h7xx_hal_rcc.c ****     {
 2110              		.loc 1 865 5 view .LVU652
 865:Drivers/STM32H7xx_HAL_Driver/Src/stm32h7xx_hal_rcc.c ****     {
 2111              		.loc 1 865 8 is_stmt 0 view .LVU653
 2112 0024 1368     		ldr	r3, [r2]
 2113 0026 03F00F03 		and	r3, r3, #15
 865:Drivers/STM32H7xx_HAL_Driver/Src/stm32h7xx_hal_rcc.c ****     {
 2114              		.loc 1 865 7 view .LVU654
 2115 002a 8B42     		cmp	r3, r1
 2116 002c 40F01581 		bne	.L201
 2117              	.L181:
 874:Drivers/STM32H7xx_HAL_Driver/Src/stm32h7xx_hal_rcc.c ****   {
 2118              		.loc 1 874 3 is_stmt 1 view .LVU655
 874:Drivers/STM32H7xx_HAL_Driver/Src/stm32h7xx_hal_rcc.c ****   {
 2119              		.loc 1 874 25 is_stmt 0 view .LVU656
 2120 0030 2368     		ldr	r3, [r4]
 874:Drivers/STM32H7xx_HAL_Driver/Src/stm32h7xx_hal_rcc.c ****   {
 2121              		.loc 1 874 5 view .LVU657
 2122 0032 13F0040F 		tst	r3, #4
 2123 0036 0CD0     		beq	.L182
 876:Drivers/STM32H7xx_HAL_Driver/Src/stm32h7xx_hal_rcc.c ****     {
 2124              		.loc 1 876 5 is_stmt 1 view .LVU658
 876:Drivers/STM32H7xx_HAL_Driver/Src/stm32h7xx_hal_rcc.c ****     {
 2125              		.loc 1 876 26 is_stmt 0 view .LVU659
 2126 0038 2269     		ldr	r2, [r4, #16]
 876:Drivers/STM32H7xx_HAL_Driver/Src/stm32h7xx_hal_rcc.c ****     {
 2127              		.loc 1 876 50 view .LVU660
 2128 003a 8C4B     		ldr	r3, .L216+4
 2129 003c 9B69     		ldr	r3, [r3, #24]
 876:Drivers/STM32H7xx_HAL_Driver/Src/stm32h7xx_hal_rcc.c ****     {
 2130              		.loc 1 876 59 view .LVU661
 2131 003e 03F07003 		and	r3, r3, #112
 876:Drivers/STM32H7xx_HAL_Driver/Src/stm32h7xx_hal_rcc.c ****     {
 2132              		.loc 1 876 7 view .LVU662
 2133 0042 9A42     		cmp	r2, r3
 2134 0044 05D9     		bls	.L182
 878:Drivers/STM32H7xx_HAL_Driver/Src/stm32h7xx_hal_rcc.c ****       MODIFY_REG(RCC->D1CFGR, RCC_D1CFGR_D1PPRE, RCC_ClkInitStruct->APB3CLKDivider);
 2135              		.loc 1 878 7 is_stmt 1 view .LVU663
 879:Drivers/STM32H7xx_HAL_Driver/Src/stm32h7xx_hal_rcc.c ****     }
 2136              		.loc 1 879 7 view .LVU664
 2137 0046 8949     		ldr	r1, .L216+4
 2138              	.LVL168:
 879:Drivers/STM32H7xx_HAL_Driver/Src/stm32h7xx_hal_rcc.c ****     }
 2139              		.loc 1 879 7 is_stmt 0 view .LVU665
 2140 0048 8B69     		ldr	r3, [r1, #24]
 2141 004a 23F07003 		bic	r3, r3, #112
 2142 004e 1A43     		orrs	r2, r2, r3
 2143 0050 8A61     		str	r2, [r1, #24]
 2144              	.L182:
 884:Drivers/STM32H7xx_HAL_Driver/Src/stm32h7xx_hal_rcc.c ****   {
 2145              		.loc 1 884 3 is_stmt 1 view .LVU666
 884:Drivers/STM32H7xx_HAL_Driver/Src/stm32h7xx_hal_rcc.c ****   {
 2146              		.loc 1 884 25 is_stmt 0 view .LVU667
 2147 0052 2368     		ldr	r3, [r4]
 884:Drivers/STM32H7xx_HAL_Driver/Src/stm32h7xx_hal_rcc.c ****   {
 2148              		.loc 1 884 5 view .LVU668
ARM GAS  /tmp/cconV3EI.s 			page 68


 2149 0054 13F0080F 		tst	r3, #8
 2150 0058 0CD0     		beq	.L183
 886:Drivers/STM32H7xx_HAL_Driver/Src/stm32h7xx_hal_rcc.c ****     {
 2151              		.loc 1 886 5 is_stmt 1 view .LVU669
 886:Drivers/STM32H7xx_HAL_Driver/Src/stm32h7xx_hal_rcc.c ****     {
 2152              		.loc 1 886 26 is_stmt 0 view .LVU670
 2153 005a 6269     		ldr	r2, [r4, #20]
 886:Drivers/STM32H7xx_HAL_Driver/Src/stm32h7xx_hal_rcc.c ****     {
 2154              		.loc 1 886 50 view .LVU671
 2155 005c 834B     		ldr	r3, .L216+4
 2156 005e DB69     		ldr	r3, [r3, #28]
 886:Drivers/STM32H7xx_HAL_Driver/Src/stm32h7xx_hal_rcc.c ****     {
 2157              		.loc 1 886 59 view .LVU672
 2158 0060 03F07003 		and	r3, r3, #112
 886:Drivers/STM32H7xx_HAL_Driver/Src/stm32h7xx_hal_rcc.c ****     {
 2159              		.loc 1 886 7 view .LVU673
 2160 0064 9A42     		cmp	r2, r3
 2161 0066 05D9     		bls	.L183
 888:Drivers/STM32H7xx_HAL_Driver/Src/stm32h7xx_hal_rcc.c ****       MODIFY_REG(RCC->D2CFGR, RCC_D2CFGR_D2PPRE1, (RCC_ClkInitStruct->APB1CLKDivider));
 2162              		.loc 1 888 7 is_stmt 1 view .LVU674
 889:Drivers/STM32H7xx_HAL_Driver/Src/stm32h7xx_hal_rcc.c ****     }
 2163              		.loc 1 889 7 view .LVU675
 2164 0068 8049     		ldr	r1, .L216+4
 2165 006a CB69     		ldr	r3, [r1, #28]
 2166 006c 23F07003 		bic	r3, r3, #112
 2167 0070 1A43     		orrs	r2, r2, r3
 2168 0072 CA61     		str	r2, [r1, #28]
 2169              	.L183:
 894:Drivers/STM32H7xx_HAL_Driver/Src/stm32h7xx_hal_rcc.c ****   {
 2170              		.loc 1 894 3 view .LVU676
 894:Drivers/STM32H7xx_HAL_Driver/Src/stm32h7xx_hal_rcc.c ****   {
 2171              		.loc 1 894 25 is_stmt 0 view .LVU677
 2172 0074 2368     		ldr	r3, [r4]
 894:Drivers/STM32H7xx_HAL_Driver/Src/stm32h7xx_hal_rcc.c ****   {
 2173              		.loc 1 894 5 view .LVU678
 2174 0076 13F0100F 		tst	r3, #16
 2175 007a 0CD0     		beq	.L184
 896:Drivers/STM32H7xx_HAL_Driver/Src/stm32h7xx_hal_rcc.c ****     {
 2176              		.loc 1 896 5 is_stmt 1 view .LVU679
 896:Drivers/STM32H7xx_HAL_Driver/Src/stm32h7xx_hal_rcc.c ****     {
 2177              		.loc 1 896 26 is_stmt 0 view .LVU680
 2178 007c A269     		ldr	r2, [r4, #24]
 896:Drivers/STM32H7xx_HAL_Driver/Src/stm32h7xx_hal_rcc.c ****     {
 2179              		.loc 1 896 50 view .LVU681
 2180 007e 7B4B     		ldr	r3, .L216+4
 2181 0080 DB69     		ldr	r3, [r3, #28]
 896:Drivers/STM32H7xx_HAL_Driver/Src/stm32h7xx_hal_rcc.c ****     {
 2182              		.loc 1 896 59 view .LVU682
 2183 0082 03F4E063 		and	r3, r3, #1792
 896:Drivers/STM32H7xx_HAL_Driver/Src/stm32h7xx_hal_rcc.c ****     {
 2184              		.loc 1 896 7 view .LVU683
 2185 0086 9A42     		cmp	r2, r3
 2186 0088 05D9     		bls	.L184
 898:Drivers/STM32H7xx_HAL_Driver/Src/stm32h7xx_hal_rcc.c ****       MODIFY_REG(RCC->D2CFGR, RCC_D2CFGR_D2PPRE2, (RCC_ClkInitStruct->APB2CLKDivider));
 2187              		.loc 1 898 7 is_stmt 1 view .LVU684
 899:Drivers/STM32H7xx_HAL_Driver/Src/stm32h7xx_hal_rcc.c ****     }
 2188              		.loc 1 899 7 view .LVU685
ARM GAS  /tmp/cconV3EI.s 			page 69


 2189 008a 7849     		ldr	r1, .L216+4
 2190 008c CB69     		ldr	r3, [r1, #28]
 2191 008e 23F4E063 		bic	r3, r3, #1792
 2192 0092 1A43     		orrs	r2, r2, r3
 2193 0094 CA61     		str	r2, [r1, #28]
 2194              	.L184:
 904:Drivers/STM32H7xx_HAL_Driver/Src/stm32h7xx_hal_rcc.c ****   {
 2195              		.loc 1 904 3 view .LVU686
 904:Drivers/STM32H7xx_HAL_Driver/Src/stm32h7xx_hal_rcc.c ****   {
 2196              		.loc 1 904 25 is_stmt 0 view .LVU687
 2197 0096 2368     		ldr	r3, [r4]
 904:Drivers/STM32H7xx_HAL_Driver/Src/stm32h7xx_hal_rcc.c ****   {
 2198              		.loc 1 904 5 view .LVU688
 2199 0098 13F0200F 		tst	r3, #32
 2200 009c 0CD0     		beq	.L185
 906:Drivers/STM32H7xx_HAL_Driver/Src/stm32h7xx_hal_rcc.c ****     {
 2201              		.loc 1 906 5 is_stmt 1 view .LVU689
 906:Drivers/STM32H7xx_HAL_Driver/Src/stm32h7xx_hal_rcc.c ****     {
 2202              		.loc 1 906 26 is_stmt 0 view .LVU690
 2203 009e E269     		ldr	r2, [r4, #28]
 906:Drivers/STM32H7xx_HAL_Driver/Src/stm32h7xx_hal_rcc.c ****     {
 2204              		.loc 1 906 50 view .LVU691
 2205 00a0 724B     		ldr	r3, .L216+4
 2206 00a2 1B6A     		ldr	r3, [r3, #32]
 906:Drivers/STM32H7xx_HAL_Driver/Src/stm32h7xx_hal_rcc.c ****     {
 2207              		.loc 1 906 59 view .LVU692
 2208 00a4 03F07003 		and	r3, r3, #112
 906:Drivers/STM32H7xx_HAL_Driver/Src/stm32h7xx_hal_rcc.c ****     {
 2209              		.loc 1 906 7 view .LVU693
 2210 00a8 9A42     		cmp	r2, r3
 2211 00aa 05D9     		bls	.L185
 908:Drivers/STM32H7xx_HAL_Driver/Src/stm32h7xx_hal_rcc.c ****       MODIFY_REG(RCC->D3CFGR, RCC_D3CFGR_D3PPRE, (RCC_ClkInitStruct->APB4CLKDivider) );
 2212              		.loc 1 908 7 is_stmt 1 view .LVU694
 909:Drivers/STM32H7xx_HAL_Driver/Src/stm32h7xx_hal_rcc.c ****     }
 2213              		.loc 1 909 7 view .LVU695
 2214 00ac 6F49     		ldr	r1, .L216+4
 2215 00ae 0B6A     		ldr	r3, [r1, #32]
 2216 00b0 23F07003 		bic	r3, r3, #112
 2217 00b4 1A43     		orrs	r2, r2, r3
 2218 00b6 0A62     		str	r2, [r1, #32]
 2219              	.L185:
