ARM GAS  /tmp/ccDY5NB6.s 			page 1


   1              		.cpu cortex-m7
   2              		.eabi_attribute 28, 1
   3              		.eabi_attribute 20, 1
   4              		.eabi_attribute 21, 1
   5              		.eabi_attribute 23, 3
   6              		.eabi_attribute 24, 1
   7              		.eabi_attribute 25, 1
   8              		.eabi_attribute 26, 1
   9              		.eabi_attribute 30, 1
  10              		.eabi_attribute 34, 1
  11              		.eabi_attribute 18, 4
  12              		.file	"stm32h7xx_hal_flash.c"
  13              		.text
  14              	.Ltext0:
  15              		.cfi_sections	.debug_frame
  16              		.section	.text.HAL_FLASH_EndOfOperationCallback,"ax",%progbits
  17              		.align	1
  18              		.weak	HAL_FLASH_EndOfOperationCallback
  19              		.arch armv7e-m
  20              		.syntax unified
  21              		.thumb
  22              		.thumb_func
  23              		.fpu fpv5-d16
  25              	HAL_FLASH_EndOfOperationCallback:
  26              	.LVL0:
  27              	.LFB144:
  28              		.file 1 "Drivers/STM32H7xx_HAL_Driver/Src/stm32h7xx_hal_flash.c"
   1:Drivers/STM32H7xx_HAL_Driver/Src/stm32h7xx_hal_flash.c **** /**
   2:Drivers/STM32H7xx_HAL_Driver/Src/stm32h7xx_hal_flash.c ****   ******************************************************************************
   3:Drivers/STM32H7xx_HAL_Driver/Src/stm32h7xx_hal_flash.c ****   * @file    stm32h7xx_hal_flash.c
   4:Drivers/STM32H7xx_HAL_Driver/Src/stm32h7xx_hal_flash.c ****   * @author  MCD Application Team
   5:Drivers/STM32H7xx_HAL_Driver/Src/stm32h7xx_hal_flash.c ****   * @brief   FLASH HAL module driver.
   6:Drivers/STM32H7xx_HAL_Driver/Src/stm32h7xx_hal_flash.c ****   *          This file provides firmware functions to manage the following
   7:Drivers/STM32H7xx_HAL_Driver/Src/stm32h7xx_hal_flash.c ****   *          functionalities of the internal FLASH memory:
   8:Drivers/STM32H7xx_HAL_Driver/Src/stm32h7xx_hal_flash.c ****   *           + Program operations functions
   9:Drivers/STM32H7xx_HAL_Driver/Src/stm32h7xx_hal_flash.c ****   *           + Memory Control functions
  10:Drivers/STM32H7xx_HAL_Driver/Src/stm32h7xx_hal_flash.c ****   *           + Peripheral Errors functions
  11:Drivers/STM32H7xx_HAL_Driver/Src/stm32h7xx_hal_flash.c ****   *
  12:Drivers/STM32H7xx_HAL_Driver/Src/stm32h7xx_hal_flash.c ****  @verbatim
  13:Drivers/STM32H7xx_HAL_Driver/Src/stm32h7xx_hal_flash.c ****   ==============================================================================
  14:Drivers/STM32H7xx_HAL_Driver/Src/stm32h7xx_hal_flash.c ****                         ##### FLASH peripheral features #####
  15:Drivers/STM32H7xx_HAL_Driver/Src/stm32h7xx_hal_flash.c ****   ==============================================================================
  16:Drivers/STM32H7xx_HAL_Driver/Src/stm32h7xx_hal_flash.c **** 
  17:Drivers/STM32H7xx_HAL_Driver/Src/stm32h7xx_hal_flash.c ****   [..] The Flash memory interface manages CPU AXI I-Code and D-Code accesses
  18:Drivers/STM32H7xx_HAL_Driver/Src/stm32h7xx_hal_flash.c ****        to the Flash memory. It implements the erase and program Flash memory operations
  19:Drivers/STM32H7xx_HAL_Driver/Src/stm32h7xx_hal_flash.c ****        and the read and write protection mechanisms.
  20:Drivers/STM32H7xx_HAL_Driver/Src/stm32h7xx_hal_flash.c **** 
  21:Drivers/STM32H7xx_HAL_Driver/Src/stm32h7xx_hal_flash.c ****   [..] The FLASH main features are:
  22:Drivers/STM32H7xx_HAL_Driver/Src/stm32h7xx_hal_flash.c ****       (+) Flash memory read operations
  23:Drivers/STM32H7xx_HAL_Driver/Src/stm32h7xx_hal_flash.c ****       (+) Flash memory program/erase operations
  24:Drivers/STM32H7xx_HAL_Driver/Src/stm32h7xx_hal_flash.c ****       (+) Read / write protections
  25:Drivers/STM32H7xx_HAL_Driver/Src/stm32h7xx_hal_flash.c ****       (+) Option bytes programming
  26:Drivers/STM32H7xx_HAL_Driver/Src/stm32h7xx_hal_flash.c ****       (+) Error code correction (ECC) : Data in flash are 266-bits word
  27:Drivers/STM32H7xx_HAL_Driver/Src/stm32h7xx_hal_flash.c ****           (10 bits added per flash word)
  28:Drivers/STM32H7xx_HAL_Driver/Src/stm32h7xx_hal_flash.c **** 
  29:Drivers/STM32H7xx_HAL_Driver/Src/stm32h7xx_hal_flash.c ****                         ##### How to use this driver #####
  30:Drivers/STM32H7xx_HAL_Driver/Src/stm32h7xx_hal_flash.c ****  ==============================================================================
ARM GAS  /tmp/ccDY5NB6.s 			page 2


  31:Drivers/STM32H7xx_HAL_Driver/Src/stm32h7xx_hal_flash.c ****     [..]
  32:Drivers/STM32H7xx_HAL_Driver/Src/stm32h7xx_hal_flash.c ****       This driver provides functions and macros to configure and program the FLASH
  33:Drivers/STM32H7xx_HAL_Driver/Src/stm32h7xx_hal_flash.c ****       memory of all STM32H7xx devices.
  34:Drivers/STM32H7xx_HAL_Driver/Src/stm32h7xx_hal_flash.c **** 
  35:Drivers/STM32H7xx_HAL_Driver/Src/stm32h7xx_hal_flash.c ****       (#) FLASH Memory IO Programming functions:
  36:Drivers/STM32H7xx_HAL_Driver/Src/stm32h7xx_hal_flash.c ****            (++) Lock and Unlock the FLASH interface using HAL_FLASH_Unlock() and
  37:Drivers/STM32H7xx_HAL_Driver/Src/stm32h7xx_hal_flash.c ****                 HAL_FLASH_Lock() functions
  38:Drivers/STM32H7xx_HAL_Driver/Src/stm32h7xx_hal_flash.c ****            (++) Program functions: 256-bit word only
  39:Drivers/STM32H7xx_HAL_Driver/Src/stm32h7xx_hal_flash.c ****            (++) There Two modes of programming :
  40:Drivers/STM32H7xx_HAL_Driver/Src/stm32h7xx_hal_flash.c ****             (+++) Polling mode using HAL_FLASH_Program() function
  41:Drivers/STM32H7xx_HAL_Driver/Src/stm32h7xx_hal_flash.c ****             (+++) Interrupt mode using HAL_FLASH_Program_IT() function
  42:Drivers/STM32H7xx_HAL_Driver/Src/stm32h7xx_hal_flash.c **** 
  43:Drivers/STM32H7xx_HAL_Driver/Src/stm32h7xx_hal_flash.c ****       (#) Interrupts and flags management functions :
  44:Drivers/STM32H7xx_HAL_Driver/Src/stm32h7xx_hal_flash.c ****            (++) Handle FLASH interrupts by calling HAL_FLASH_IRQHandler()
  45:Drivers/STM32H7xx_HAL_Driver/Src/stm32h7xx_hal_flash.c ****            (++) Callback functions are called when the flash operations are finished :
  46:Drivers/STM32H7xx_HAL_Driver/Src/stm32h7xx_hal_flash.c ****                 HAL_FLASH_EndOfOperationCallback() when everything is ok, otherwise
  47:Drivers/STM32H7xx_HAL_Driver/Src/stm32h7xx_hal_flash.c ****                 HAL_FLASH_OperationErrorCallback()
  48:Drivers/STM32H7xx_HAL_Driver/Src/stm32h7xx_hal_flash.c ****            (++) Get error flag status by calling HAL_FLASH_GetError()
  49:Drivers/STM32H7xx_HAL_Driver/Src/stm32h7xx_hal_flash.c **** 
  50:Drivers/STM32H7xx_HAL_Driver/Src/stm32h7xx_hal_flash.c ****       (#) Option bytes management functions :
  51:Drivers/STM32H7xx_HAL_Driver/Src/stm32h7xx_hal_flash.c ****            (++) Lock and Unlock the option bytes using HAL_FLASH_OB_Unlock() and
  52:Drivers/STM32H7xx_HAL_Driver/Src/stm32h7xx_hal_flash.c ****                 HAL_FLASH_OB_Lock() functions
  53:Drivers/STM32H7xx_HAL_Driver/Src/stm32h7xx_hal_flash.c ****            (++) Launch the reload of the option bytes using HAL_FLASH_OB_Launch() function.
  54:Drivers/STM32H7xx_HAL_Driver/Src/stm32h7xx_hal_flash.c ****                 In this case, a reset is generated
  55:Drivers/STM32H7xx_HAL_Driver/Src/stm32h7xx_hal_flash.c ****     [..]
  56:Drivers/STM32H7xx_HAL_Driver/Src/stm32h7xx_hal_flash.c ****       In addition to these functions, this driver includes a set of macros allowing
  57:Drivers/STM32H7xx_HAL_Driver/Src/stm32h7xx_hal_flash.c ****       to handle the following operations:
  58:Drivers/STM32H7xx_HAL_Driver/Src/stm32h7xx_hal_flash.c ****        (+) Set the latency
  59:Drivers/STM32H7xx_HAL_Driver/Src/stm32h7xx_hal_flash.c ****        (+) Enable/Disable the FLASH interrupts
  60:Drivers/STM32H7xx_HAL_Driver/Src/stm32h7xx_hal_flash.c ****        (+) Monitor the FLASH flags status
  61:Drivers/STM32H7xx_HAL_Driver/Src/stm32h7xx_hal_flash.c ****      [..]
  62:Drivers/STM32H7xx_HAL_Driver/Src/stm32h7xx_hal_flash.c ****     (@) For any Flash memory program operation (erase or program), the CPU clock frequency
  63:Drivers/STM32H7xx_HAL_Driver/Src/stm32h7xx_hal_flash.c ****         (HCLK) must be at least 1MHz.
  64:Drivers/STM32H7xx_HAL_Driver/Src/stm32h7xx_hal_flash.c ****     (@) The contents of the Flash memory are not guaranteed if a device reset occurs during
  65:Drivers/STM32H7xx_HAL_Driver/Src/stm32h7xx_hal_flash.c ****         a Flash memory operation.
  66:Drivers/STM32H7xx_HAL_Driver/Src/stm32h7xx_hal_flash.c ****     (@) The application can simultaneously request a read and a write operation through each AXI
  67:Drivers/STM32H7xx_HAL_Driver/Src/stm32h7xx_hal_flash.c ****         interface.
  68:Drivers/STM32H7xx_HAL_Driver/Src/stm32h7xx_hal_flash.c ****         As the Flash memory is divided into two independent banks, the embedded Flash
  69:Drivers/STM32H7xx_HAL_Driver/Src/stm32h7xx_hal_flash.c ****         memory interface can drive different operations at the same time on each bank. For
  70:Drivers/STM32H7xx_HAL_Driver/Src/stm32h7xx_hal_flash.c ****         example a read, write or erase operation can be executed on bank 1 while another read,
  71:Drivers/STM32H7xx_HAL_Driver/Src/stm32h7xx_hal_flash.c ****         write or erase operation is executed on bank 2.
  72:Drivers/STM32H7xx_HAL_Driver/Src/stm32h7xx_hal_flash.c **** 
  73:Drivers/STM32H7xx_HAL_Driver/Src/stm32h7xx_hal_flash.c ****  @endverbatim
  74:Drivers/STM32H7xx_HAL_Driver/Src/stm32h7xx_hal_flash.c ****   ******************************************************************************
  75:Drivers/STM32H7xx_HAL_Driver/Src/stm32h7xx_hal_flash.c ****   * @attention
  76:Drivers/STM32H7xx_HAL_Driver/Src/stm32h7xx_hal_flash.c ****   *
  77:Drivers/STM32H7xx_HAL_Driver/Src/stm32h7xx_hal_flash.c ****   * <h2><center>&copy; COPYRIGHT(c) 2017 STMicroelectronics.
  78:Drivers/STM32H7xx_HAL_Driver/Src/stm32h7xx_hal_flash.c ****   * All rights reserved.</center></h2>
  79:Drivers/STM32H7xx_HAL_Driver/Src/stm32h7xx_hal_flash.c ****   *
  80:Drivers/STM32H7xx_HAL_Driver/Src/stm32h7xx_hal_flash.c ****   * This software component is licensed by ST under BSD 3-Clause license,
  81:Drivers/STM32H7xx_HAL_Driver/Src/stm32h7xx_hal_flash.c ****   * the "License"; You may not use this file except in compliance with the
  82:Drivers/STM32H7xx_HAL_Driver/Src/stm32h7xx_hal_flash.c ****   * License. You may obtain a copy of the License at:
  83:Drivers/STM32H7xx_HAL_Driver/Src/stm32h7xx_hal_flash.c ****   *                       opensource.org/licenses/BSD-3-Clause
  84:Drivers/STM32H7xx_HAL_Driver/Src/stm32h7xx_hal_flash.c ****   *
  85:Drivers/STM32H7xx_HAL_Driver/Src/stm32h7xx_hal_flash.c ****   ******************************************************************************
  86:Drivers/STM32H7xx_HAL_Driver/Src/stm32h7xx_hal_flash.c ****   */
  87:Drivers/STM32H7xx_HAL_Driver/Src/stm32h7xx_hal_flash.c **** 
ARM GAS  /tmp/ccDY5NB6.s 			page 3


  88:Drivers/STM32H7xx_HAL_Driver/Src/stm32h7xx_hal_flash.c **** /* Includes ------------------------------------------------------------------*/
  89:Drivers/STM32H7xx_HAL_Driver/Src/stm32h7xx_hal_flash.c **** #include "stm32h7xx_hal.h"
  90:Drivers/STM32H7xx_HAL_Driver/Src/stm32h7xx_hal_flash.c **** 
  91:Drivers/STM32H7xx_HAL_Driver/Src/stm32h7xx_hal_flash.c **** /** @addtogroup STM32H7xx_HAL_Driver
  92:Drivers/STM32H7xx_HAL_Driver/Src/stm32h7xx_hal_flash.c ****   * @{
  93:Drivers/STM32H7xx_HAL_Driver/Src/stm32h7xx_hal_flash.c ****   */
  94:Drivers/STM32H7xx_HAL_Driver/Src/stm32h7xx_hal_flash.c **** 
  95:Drivers/STM32H7xx_HAL_Driver/Src/stm32h7xx_hal_flash.c **** /** @defgroup FLASH FLASH
  96:Drivers/STM32H7xx_HAL_Driver/Src/stm32h7xx_hal_flash.c ****   * @brief FLASH HAL module driver
  97:Drivers/STM32H7xx_HAL_Driver/Src/stm32h7xx_hal_flash.c ****   * @{
  98:Drivers/STM32H7xx_HAL_Driver/Src/stm32h7xx_hal_flash.c ****   */
  99:Drivers/STM32H7xx_HAL_Driver/Src/stm32h7xx_hal_flash.c **** 
 100:Drivers/STM32H7xx_HAL_Driver/Src/stm32h7xx_hal_flash.c **** #ifdef HAL_FLASH_MODULE_ENABLED
 101:Drivers/STM32H7xx_HAL_Driver/Src/stm32h7xx_hal_flash.c **** 
 102:Drivers/STM32H7xx_HAL_Driver/Src/stm32h7xx_hal_flash.c **** /* Private typedef -----------------------------------------------------------*/
 103:Drivers/STM32H7xx_HAL_Driver/Src/stm32h7xx_hal_flash.c **** /* Private define ------------------------------------------------------------*/
 104:Drivers/STM32H7xx_HAL_Driver/Src/stm32h7xx_hal_flash.c **** /** @addtogroup FLASH_Private_Constants
 105:Drivers/STM32H7xx_HAL_Driver/Src/stm32h7xx_hal_flash.c ****   * @{
 106:Drivers/STM32H7xx_HAL_Driver/Src/stm32h7xx_hal_flash.c ****   */
 107:Drivers/STM32H7xx_HAL_Driver/Src/stm32h7xx_hal_flash.c **** #define FLASH_TIMEOUT_VALUE              50000U /* 50 s */
 108:Drivers/STM32H7xx_HAL_Driver/Src/stm32h7xx_hal_flash.c **** /**
 109:Drivers/STM32H7xx_HAL_Driver/Src/stm32h7xx_hal_flash.c ****   * @}
 110:Drivers/STM32H7xx_HAL_Driver/Src/stm32h7xx_hal_flash.c ****   */
 111:Drivers/STM32H7xx_HAL_Driver/Src/stm32h7xx_hal_flash.c **** /* Private macro -------------------------------------------------------------*/
 112:Drivers/STM32H7xx_HAL_Driver/Src/stm32h7xx_hal_flash.c **** /* Private variables ---------------------------------------------------------*/
 113:Drivers/STM32H7xx_HAL_Driver/Src/stm32h7xx_hal_flash.c **** FLASH_ProcessTypeDef pFlash;
 114:Drivers/STM32H7xx_HAL_Driver/Src/stm32h7xx_hal_flash.c **** /* Private function prototypes -----------------------------------------------*/
 115:Drivers/STM32H7xx_HAL_Driver/Src/stm32h7xx_hal_flash.c **** /* Exported functions ---------------------------------------------------------*/
 116:Drivers/STM32H7xx_HAL_Driver/Src/stm32h7xx_hal_flash.c **** 
 117:Drivers/STM32H7xx_HAL_Driver/Src/stm32h7xx_hal_flash.c **** /** @defgroup FLASH_Exported_Functions FLASH Exported functions
 118:Drivers/STM32H7xx_HAL_Driver/Src/stm32h7xx_hal_flash.c ****   * @{
 119:Drivers/STM32H7xx_HAL_Driver/Src/stm32h7xx_hal_flash.c ****   */
 120:Drivers/STM32H7xx_HAL_Driver/Src/stm32h7xx_hal_flash.c **** 
 121:Drivers/STM32H7xx_HAL_Driver/Src/stm32h7xx_hal_flash.c **** /** @defgroup FLASH_Exported_Functions_Group1 Programming operation functions
 122:Drivers/STM32H7xx_HAL_Driver/Src/stm32h7xx_hal_flash.c ****  *  @brief   Programming operation functions
 123:Drivers/STM32H7xx_HAL_Driver/Src/stm32h7xx_hal_flash.c ****  *
 124:Drivers/STM32H7xx_HAL_Driver/Src/stm32h7xx_hal_flash.c **** @verbatim
 125:Drivers/STM32H7xx_HAL_Driver/Src/stm32h7xx_hal_flash.c ****  ===============================================================================
 126:Drivers/STM32H7xx_HAL_Driver/Src/stm32h7xx_hal_flash.c ****                   ##### Programming operation functions #####
 127:Drivers/STM32H7xx_HAL_Driver/Src/stm32h7xx_hal_flash.c ****  ===============================================================================
 128:Drivers/STM32H7xx_HAL_Driver/Src/stm32h7xx_hal_flash.c ****     [..]
 129:Drivers/STM32H7xx_HAL_Driver/Src/stm32h7xx_hal_flash.c ****     This subsection provides a set of functions allowing to manage the FLASH
 130:Drivers/STM32H7xx_HAL_Driver/Src/stm32h7xx_hal_flash.c ****     program operations.
 131:Drivers/STM32H7xx_HAL_Driver/Src/stm32h7xx_hal_flash.c **** 
 132:Drivers/STM32H7xx_HAL_Driver/Src/stm32h7xx_hal_flash.c **** @endverbatim
 133:Drivers/STM32H7xx_HAL_Driver/Src/stm32h7xx_hal_flash.c ****   * @{
 134:Drivers/STM32H7xx_HAL_Driver/Src/stm32h7xx_hal_flash.c ****   */
 135:Drivers/STM32H7xx_HAL_Driver/Src/stm32h7xx_hal_flash.c **** 
 136:Drivers/STM32H7xx_HAL_Driver/Src/stm32h7xx_hal_flash.c **** /**
 137:Drivers/STM32H7xx_HAL_Driver/Src/stm32h7xx_hal_flash.c ****   * @brief  Program flash word of 256 bits at a specified address
 138:Drivers/STM32H7xx_HAL_Driver/Src/stm32h7xx_hal_flash.c ****   * @param  TypeProgram Indicate the way to program at a specified address.
 139:Drivers/STM32H7xx_HAL_Driver/Src/stm32h7xx_hal_flash.c ****   *         This parameter can be a value of @ref FLASH_Type_Program
 140:Drivers/STM32H7xx_HAL_Driver/Src/stm32h7xx_hal_flash.c ****   * @param  FlashAddress specifies the address to be programmed.
 141:Drivers/STM32H7xx_HAL_Driver/Src/stm32h7xx_hal_flash.c ****   * @param  DataAddress specifies the address of data (256 bits) to be programmed
 142:Drivers/STM32H7xx_HAL_Driver/Src/stm32h7xx_hal_flash.c ****   *
 143:Drivers/STM32H7xx_HAL_Driver/Src/stm32h7xx_hal_flash.c ****   * @retval HAL_StatusTypeDef HAL Status
 144:Drivers/STM32H7xx_HAL_Driver/Src/stm32h7xx_hal_flash.c ****   */
ARM GAS  /tmp/ccDY5NB6.s 			page 4


 145:Drivers/STM32H7xx_HAL_Driver/Src/stm32h7xx_hal_flash.c **** HAL_StatusTypeDef HAL_FLASH_Program(uint32_t TypeProgram, uint32_t FlashAddress, uint32_t DataAddre
 146:Drivers/STM32H7xx_HAL_Driver/Src/stm32h7xx_hal_flash.c **** {
 147:Drivers/STM32H7xx_HAL_Driver/Src/stm32h7xx_hal_flash.c ****   HAL_StatusTypeDef status;
 148:Drivers/STM32H7xx_HAL_Driver/Src/stm32h7xx_hal_flash.c ****   __IO uint32_t *dest_addr = (__IO uint32_t *)FlashAddress;
 149:Drivers/STM32H7xx_HAL_Driver/Src/stm32h7xx_hal_flash.c ****   __IO uint32_t *src_addr = (__IO uint32_t*)DataAddress;
 150:Drivers/STM32H7xx_HAL_Driver/Src/stm32h7xx_hal_flash.c ****   uint32_t bank;
 151:Drivers/STM32H7xx_HAL_Driver/Src/stm32h7xx_hal_flash.c ****   uint8_t row_index = FLASH_NB_32BITWORD_IN_FLASHWORD;
 152:Drivers/STM32H7xx_HAL_Driver/Src/stm32h7xx_hal_flash.c **** 
 153:Drivers/STM32H7xx_HAL_Driver/Src/stm32h7xx_hal_flash.c ****   /* Check the parameters */
 154:Drivers/STM32H7xx_HAL_Driver/Src/stm32h7xx_hal_flash.c ****   assert_param(IS_FLASH_TYPEPROGRAM(TypeProgram));
 155:Drivers/STM32H7xx_HAL_Driver/Src/stm32h7xx_hal_flash.c ****   assert_param(IS_FLASH_PROGRAM_ADDRESS(FlashAddress));
 156:Drivers/STM32H7xx_HAL_Driver/Src/stm32h7xx_hal_flash.c **** 
 157:Drivers/STM32H7xx_HAL_Driver/Src/stm32h7xx_hal_flash.c ****   /* Process Locked */
 158:Drivers/STM32H7xx_HAL_Driver/Src/stm32h7xx_hal_flash.c ****   __HAL_LOCK(&pFlash);
 159:Drivers/STM32H7xx_HAL_Driver/Src/stm32h7xx_hal_flash.c **** 
 160:Drivers/STM32H7xx_HAL_Driver/Src/stm32h7xx_hal_flash.c ****   if(IS_FLASH_PROGRAM_ADDRESS_BANK1(FlashAddress))
 161:Drivers/STM32H7xx_HAL_Driver/Src/stm32h7xx_hal_flash.c ****   {
 162:Drivers/STM32H7xx_HAL_Driver/Src/stm32h7xx_hal_flash.c ****     bank = FLASH_BANK_1;
 163:Drivers/STM32H7xx_HAL_Driver/Src/stm32h7xx_hal_flash.c ****   }
 164:Drivers/STM32H7xx_HAL_Driver/Src/stm32h7xx_hal_flash.c ****   else
 165:Drivers/STM32H7xx_HAL_Driver/Src/stm32h7xx_hal_flash.c ****   {
 166:Drivers/STM32H7xx_HAL_Driver/Src/stm32h7xx_hal_flash.c ****     bank = FLASH_BANK_2;
 167:Drivers/STM32H7xx_HAL_Driver/Src/stm32h7xx_hal_flash.c ****   }
 168:Drivers/STM32H7xx_HAL_Driver/Src/stm32h7xx_hal_flash.c **** 
 169:Drivers/STM32H7xx_HAL_Driver/Src/stm32h7xx_hal_flash.c ****   /* Reset error code */
 170:Drivers/STM32H7xx_HAL_Driver/Src/stm32h7xx_hal_flash.c ****   pFlash.ErrorCode = HAL_FLASH_ERROR_NONE;
 171:Drivers/STM32H7xx_HAL_Driver/Src/stm32h7xx_hal_flash.c **** 
 172:Drivers/STM32H7xx_HAL_Driver/Src/stm32h7xx_hal_flash.c ****   /* Wait for last operation to be completed */
 173:Drivers/STM32H7xx_HAL_Driver/Src/stm32h7xx_hal_flash.c ****   status = FLASH_WaitForLastOperation((uint32_t)FLASH_TIMEOUT_VALUE, bank);
 174:Drivers/STM32H7xx_HAL_Driver/Src/stm32h7xx_hal_flash.c **** 
 175:Drivers/STM32H7xx_HAL_Driver/Src/stm32h7xx_hal_flash.c ****   if(status == HAL_OK)
 176:Drivers/STM32H7xx_HAL_Driver/Src/stm32h7xx_hal_flash.c ****   {
 177:Drivers/STM32H7xx_HAL_Driver/Src/stm32h7xx_hal_flash.c ****     if(bank == FLASH_BANK_1)
 178:Drivers/STM32H7xx_HAL_Driver/Src/stm32h7xx_hal_flash.c ****     {
 179:Drivers/STM32H7xx_HAL_Driver/Src/stm32h7xx_hal_flash.c ****       /* Set PG bit */
 180:Drivers/STM32H7xx_HAL_Driver/Src/stm32h7xx_hal_flash.c ****       SET_BIT(FLASH->CR1, FLASH_CR_PG);
 181:Drivers/STM32H7xx_HAL_Driver/Src/stm32h7xx_hal_flash.c ****     }
 182:Drivers/STM32H7xx_HAL_Driver/Src/stm32h7xx_hal_flash.c ****     else
 183:Drivers/STM32H7xx_HAL_Driver/Src/stm32h7xx_hal_flash.c ****     {
 184:Drivers/STM32H7xx_HAL_Driver/Src/stm32h7xx_hal_flash.c ****       /* Set PG bit */
 185:Drivers/STM32H7xx_HAL_Driver/Src/stm32h7xx_hal_flash.c ****       SET_BIT(FLASH->CR2, FLASH_CR_PG);
 186:Drivers/STM32H7xx_HAL_Driver/Src/stm32h7xx_hal_flash.c ****     }
 187:Drivers/STM32H7xx_HAL_Driver/Src/stm32h7xx_hal_flash.c **** 
 188:Drivers/STM32H7xx_HAL_Driver/Src/stm32h7xx_hal_flash.c ****     __ISB();
 189:Drivers/STM32H7xx_HAL_Driver/Src/stm32h7xx_hal_flash.c ****     __DSB();
 190:Drivers/STM32H7xx_HAL_Driver/Src/stm32h7xx_hal_flash.c **** 
 191:Drivers/STM32H7xx_HAL_Driver/Src/stm32h7xx_hal_flash.c ****     /* Program the 256 bits flash word */
 192:Drivers/STM32H7xx_HAL_Driver/Src/stm32h7xx_hal_flash.c ****     do
 193:Drivers/STM32H7xx_HAL_Driver/Src/stm32h7xx_hal_flash.c ****     {
 194:Drivers/STM32H7xx_HAL_Driver/Src/stm32h7xx_hal_flash.c ****       *dest_addr = *src_addr;
 195:Drivers/STM32H7xx_HAL_Driver/Src/stm32h7xx_hal_flash.c ****       dest_addr++;
 196:Drivers/STM32H7xx_HAL_Driver/Src/stm32h7xx_hal_flash.c ****       src_addr++;
 197:Drivers/STM32H7xx_HAL_Driver/Src/stm32h7xx_hal_flash.c ****       row_index--;
 198:Drivers/STM32H7xx_HAL_Driver/Src/stm32h7xx_hal_flash.c ****     } while (row_index != 0U);
 199:Drivers/STM32H7xx_HAL_Driver/Src/stm32h7xx_hal_flash.c **** 
 200:Drivers/STM32H7xx_HAL_Driver/Src/stm32h7xx_hal_flash.c ****     __ISB();
 201:Drivers/STM32H7xx_HAL_Driver/Src/stm32h7xx_hal_flash.c ****     __DSB();
ARM GAS  /tmp/ccDY5NB6.s 			page 5


 202:Drivers/STM32H7xx_HAL_Driver/Src/stm32h7xx_hal_flash.c **** 
 203:Drivers/STM32H7xx_HAL_Driver/Src/stm32h7xx_hal_flash.c ****     /* Wait for last operation to be completed */
 204:Drivers/STM32H7xx_HAL_Driver/Src/stm32h7xx_hal_flash.c ****     status = FLASH_WaitForLastOperation((uint32_t)FLASH_TIMEOUT_VALUE, bank);
 205:Drivers/STM32H7xx_HAL_Driver/Src/stm32h7xx_hal_flash.c **** 
 206:Drivers/STM32H7xx_HAL_Driver/Src/stm32h7xx_hal_flash.c ****     if(bank == FLASH_BANK_1)
 207:Drivers/STM32H7xx_HAL_Driver/Src/stm32h7xx_hal_flash.c ****     {
 208:Drivers/STM32H7xx_HAL_Driver/Src/stm32h7xx_hal_flash.c ****       /* If the program operation is completed, disable the PG */
 209:Drivers/STM32H7xx_HAL_Driver/Src/stm32h7xx_hal_flash.c ****       CLEAR_BIT(FLASH->CR1, FLASH_CR_PG);
 210:Drivers/STM32H7xx_HAL_Driver/Src/stm32h7xx_hal_flash.c ****     }
 211:Drivers/STM32H7xx_HAL_Driver/Src/stm32h7xx_hal_flash.c ****     else
 212:Drivers/STM32H7xx_HAL_Driver/Src/stm32h7xx_hal_flash.c ****     {
 213:Drivers/STM32H7xx_HAL_Driver/Src/stm32h7xx_hal_flash.c ****       /* If the program operation is completed, disable the PG */
 214:Drivers/STM32H7xx_HAL_Driver/Src/stm32h7xx_hal_flash.c ****       CLEAR_BIT(FLASH->CR2, FLASH_CR_PG);
 215:Drivers/STM32H7xx_HAL_Driver/Src/stm32h7xx_hal_flash.c ****     }
 216:Drivers/STM32H7xx_HAL_Driver/Src/stm32h7xx_hal_flash.c ****   }
 217:Drivers/STM32H7xx_HAL_Driver/Src/stm32h7xx_hal_flash.c **** 
 218:Drivers/STM32H7xx_HAL_Driver/Src/stm32h7xx_hal_flash.c ****   /* Process Unlocked */
 219:Drivers/STM32H7xx_HAL_Driver/Src/stm32h7xx_hal_flash.c ****   __HAL_UNLOCK(&pFlash);
 220:Drivers/STM32H7xx_HAL_Driver/Src/stm32h7xx_hal_flash.c **** 
 221:Drivers/STM32H7xx_HAL_Driver/Src/stm32h7xx_hal_flash.c ****   return status;
 222:Drivers/STM32H7xx_HAL_Driver/Src/stm32h7xx_hal_flash.c **** }
 223:Drivers/STM32H7xx_HAL_Driver/Src/stm32h7xx_hal_flash.c **** 
 224:Drivers/STM32H7xx_HAL_Driver/Src/stm32h7xx_hal_flash.c **** /**
 225:Drivers/STM32H7xx_HAL_Driver/Src/stm32h7xx_hal_flash.c ****   * @brief  Program flash words of 256 bits at a specified address with interrupt enabled.
 226:Drivers/STM32H7xx_HAL_Driver/Src/stm32h7xx_hal_flash.c ****   * @param  TypeProgram Indicate the way to program at a specified address.
 227:Drivers/STM32H7xx_HAL_Driver/Src/stm32h7xx_hal_flash.c ****   *                      This parameter can be a value of @ref FLASH_Type_Program
 228:Drivers/STM32H7xx_HAL_Driver/Src/stm32h7xx_hal_flash.c ****   * @param  FlashAddress specifies the address to be programmed.
 229:Drivers/STM32H7xx_HAL_Driver/Src/stm32h7xx_hal_flash.c ****   * @param  DataAddress specifies the address of data (256 bits) to be programmed
 230:Drivers/STM32H7xx_HAL_Driver/Src/stm32h7xx_hal_flash.c ****   *
 231:Drivers/STM32H7xx_HAL_Driver/Src/stm32h7xx_hal_flash.c ****   * @retval HAL Status
 232:Drivers/STM32H7xx_HAL_Driver/Src/stm32h7xx_hal_flash.c ****   */
 233:Drivers/STM32H7xx_HAL_Driver/Src/stm32h7xx_hal_flash.c **** HAL_StatusTypeDef HAL_FLASH_Program_IT(uint32_t TypeProgram, uint32_t FlashAddress, uint32_t DataAd
 234:Drivers/STM32H7xx_HAL_Driver/Src/stm32h7xx_hal_flash.c **** {
 235:Drivers/STM32H7xx_HAL_Driver/Src/stm32h7xx_hal_flash.c ****   HAL_StatusTypeDef status;
 236:Drivers/STM32H7xx_HAL_Driver/Src/stm32h7xx_hal_flash.c ****   __IO uint32_t *dest_addr = (__IO uint32_t*)FlashAddress;
 237:Drivers/STM32H7xx_HAL_Driver/Src/stm32h7xx_hal_flash.c ****   __IO uint32_t *src_addr = (__IO uint32_t*)DataAddress;
 238:Drivers/STM32H7xx_HAL_Driver/Src/stm32h7xx_hal_flash.c ****   uint32_t bank;
 239:Drivers/STM32H7xx_HAL_Driver/Src/stm32h7xx_hal_flash.c ****   uint8_t row_index = FLASH_NB_32BITWORD_IN_FLASHWORD;
 240:Drivers/STM32H7xx_HAL_Driver/Src/stm32h7xx_hal_flash.c **** 
 241:Drivers/STM32H7xx_HAL_Driver/Src/stm32h7xx_hal_flash.c ****   /* Check the parameters */
 242:Drivers/STM32H7xx_HAL_Driver/Src/stm32h7xx_hal_flash.c ****   assert_param(IS_FLASH_TYPEPROGRAM(TypeProgram));
 243:Drivers/STM32H7xx_HAL_Driver/Src/stm32h7xx_hal_flash.c ****   assert_param(IS_FLASH_PROGRAM_ADDRESS(FlashAddress));
 244:Drivers/STM32H7xx_HAL_Driver/Src/stm32h7xx_hal_flash.c **** 
 245:Drivers/STM32H7xx_HAL_Driver/Src/stm32h7xx_hal_flash.c ****   /* Process Locked */
 246:Drivers/STM32H7xx_HAL_Driver/Src/stm32h7xx_hal_flash.c ****   __HAL_LOCK(&pFlash);
 247:Drivers/STM32H7xx_HAL_Driver/Src/stm32h7xx_hal_flash.c **** 
 248:Drivers/STM32H7xx_HAL_Driver/Src/stm32h7xx_hal_flash.c ****   /* Reset error code */
 249:Drivers/STM32H7xx_HAL_Driver/Src/stm32h7xx_hal_flash.c ****   pFlash.ErrorCode = HAL_FLASH_ERROR_NONE;
 250:Drivers/STM32H7xx_HAL_Driver/Src/stm32h7xx_hal_flash.c **** 
 251:Drivers/STM32H7xx_HAL_Driver/Src/stm32h7xx_hal_flash.c ****   if(IS_FLASH_PROGRAM_ADDRESS_BANK1(FlashAddress))
 252:Drivers/STM32H7xx_HAL_Driver/Src/stm32h7xx_hal_flash.c ****   {
 253:Drivers/STM32H7xx_HAL_Driver/Src/stm32h7xx_hal_flash.c ****     bank = FLASH_BANK_1;
 254:Drivers/STM32H7xx_HAL_Driver/Src/stm32h7xx_hal_flash.c ****   }
 255:Drivers/STM32H7xx_HAL_Driver/Src/stm32h7xx_hal_flash.c ****   else
 256:Drivers/STM32H7xx_HAL_Driver/Src/stm32h7xx_hal_flash.c ****   {
 257:Drivers/STM32H7xx_HAL_Driver/Src/stm32h7xx_hal_flash.c ****     bank = FLASH_BANK_2;
 258:Drivers/STM32H7xx_HAL_Driver/Src/stm32h7xx_hal_flash.c ****   }
ARM GAS  /tmp/ccDY5NB6.s 			page 6


 259:Drivers/STM32H7xx_HAL_Driver/Src/stm32h7xx_hal_flash.c **** 
 260:Drivers/STM32H7xx_HAL_Driver/Src/stm32h7xx_hal_flash.c ****   /* Wait for last operation to be completed */
 261:Drivers/STM32H7xx_HAL_Driver/Src/stm32h7xx_hal_flash.c ****   status = FLASH_WaitForLastOperation((uint32_t)FLASH_TIMEOUT_VALUE, bank);
 262:Drivers/STM32H7xx_HAL_Driver/Src/stm32h7xx_hal_flash.c **** 
 263:Drivers/STM32H7xx_HAL_Driver/Src/stm32h7xx_hal_flash.c ****   if (status != HAL_OK)
 264:Drivers/STM32H7xx_HAL_Driver/Src/stm32h7xx_hal_flash.c ****   {
 265:Drivers/STM32H7xx_HAL_Driver/Src/stm32h7xx_hal_flash.c ****     /* Process Unlocked */
 266:Drivers/STM32H7xx_HAL_Driver/Src/stm32h7xx_hal_flash.c ****     __HAL_UNLOCK(&pFlash);
 267:Drivers/STM32H7xx_HAL_Driver/Src/stm32h7xx_hal_flash.c ****   }
 268:Drivers/STM32H7xx_HAL_Driver/Src/stm32h7xx_hal_flash.c ****   else
 269:Drivers/STM32H7xx_HAL_Driver/Src/stm32h7xx_hal_flash.c ****   {
 270:Drivers/STM32H7xx_HAL_Driver/Src/stm32h7xx_hal_flash.c ****     pFlash.Address = FlashAddress;
 271:Drivers/STM32H7xx_HAL_Driver/Src/stm32h7xx_hal_flash.c **** 
 272:Drivers/STM32H7xx_HAL_Driver/Src/stm32h7xx_hal_flash.c ****     if(bank == FLASH_BANK_1)
 273:Drivers/STM32H7xx_HAL_Driver/Src/stm32h7xx_hal_flash.c ****     {
 274:Drivers/STM32H7xx_HAL_Driver/Src/stm32h7xx_hal_flash.c ****       /* Set internal variables used by the IRQ handler */
 275:Drivers/STM32H7xx_HAL_Driver/Src/stm32h7xx_hal_flash.c ****       pFlash.ProcedureOnGoing = FLASH_PROC_PROGRAM_BANK1;
 276:Drivers/STM32H7xx_HAL_Driver/Src/stm32h7xx_hal_flash.c **** 
 277:Drivers/STM32H7xx_HAL_Driver/Src/stm32h7xx_hal_flash.c ****       /* Set PG bit */
 278:Drivers/STM32H7xx_HAL_Driver/Src/stm32h7xx_hal_flash.c ****       SET_BIT(FLASH->CR1, FLASH_CR_PG);
 279:Drivers/STM32H7xx_HAL_Driver/Src/stm32h7xx_hal_flash.c **** 
 280:Drivers/STM32H7xx_HAL_Driver/Src/stm32h7xx_hal_flash.c ****       /* Enable End of Operation and Error interrupts for Bank 1 */
 281:Drivers/STM32H7xx_HAL_Driver/Src/stm32h7xx_hal_flash.c ****       __HAL_FLASH_ENABLE_IT_BANK1(FLASH_IT_EOP_BANK1     | FLASH_IT_WRPERR_BANK1 | FLASH_IT_PGSERR_
 282:Drivers/STM32H7xx_HAL_Driver/Src/stm32h7xx_hal_flash.c ****                                   FLASH_IT_STRBERR_BANK1 | FLASH_IT_INCERR_BANK1 | FLASH_IT_OPERR_B
 283:Drivers/STM32H7xx_HAL_Driver/Src/stm32h7xx_hal_flash.c ****     }
 284:Drivers/STM32H7xx_HAL_Driver/Src/stm32h7xx_hal_flash.c ****     else
 285:Drivers/STM32H7xx_HAL_Driver/Src/stm32h7xx_hal_flash.c ****     {
 286:Drivers/STM32H7xx_HAL_Driver/Src/stm32h7xx_hal_flash.c ****       /* Set internal variables used by the IRQ handler */
 287:Drivers/STM32H7xx_HAL_Driver/Src/stm32h7xx_hal_flash.c ****       pFlash.ProcedureOnGoing = FLASH_PROC_PROGRAM_BANK2;
 288:Drivers/STM32H7xx_HAL_Driver/Src/stm32h7xx_hal_flash.c **** 
 289:Drivers/STM32H7xx_HAL_Driver/Src/stm32h7xx_hal_flash.c ****       /* Set PG bit */
 290:Drivers/STM32H7xx_HAL_Driver/Src/stm32h7xx_hal_flash.c ****       SET_BIT(FLASH->CR2, FLASH_CR_PG);
 291:Drivers/STM32H7xx_HAL_Driver/Src/stm32h7xx_hal_flash.c **** 
 292:Drivers/STM32H7xx_HAL_Driver/Src/stm32h7xx_hal_flash.c ****       /* Enable End of Operation and Error interrupts for Bank2 */
 293:Drivers/STM32H7xx_HAL_Driver/Src/stm32h7xx_hal_flash.c ****       __HAL_FLASH_ENABLE_IT_BANK2(FLASH_IT_EOP_BANK2     | FLASH_IT_WRPERR_BANK2 | FLASH_IT_PGSERR_
 294:Drivers/STM32H7xx_HAL_Driver/Src/stm32h7xx_hal_flash.c ****                                   FLASH_IT_STRBERR_BANK2 | FLASH_IT_INCERR_BANK2 | FLASH_IT_OPERR_B
 295:Drivers/STM32H7xx_HAL_Driver/Src/stm32h7xx_hal_flash.c ****     }
 296:Drivers/STM32H7xx_HAL_Driver/Src/stm32h7xx_hal_flash.c **** 
 297:Drivers/STM32H7xx_HAL_Driver/Src/stm32h7xx_hal_flash.c ****     __ISB();
 298:Drivers/STM32H7xx_HAL_Driver/Src/stm32h7xx_hal_flash.c ****     __DSB();
 299:Drivers/STM32H7xx_HAL_Driver/Src/stm32h7xx_hal_flash.c **** 
 300:Drivers/STM32H7xx_HAL_Driver/Src/stm32h7xx_hal_flash.c ****     /* Program the 256 bits flash word */
 301:Drivers/STM32H7xx_HAL_Driver/Src/stm32h7xx_hal_flash.c ****     do
 302:Drivers/STM32H7xx_HAL_Driver/Src/stm32h7xx_hal_flash.c ****     {
 303:Drivers/STM32H7xx_HAL_Driver/Src/stm32h7xx_hal_flash.c ****       *dest_addr = *src_addr;
 304:Drivers/STM32H7xx_HAL_Driver/Src/stm32h7xx_hal_flash.c ****       dest_addr++;
 305:Drivers/STM32H7xx_HAL_Driver/Src/stm32h7xx_hal_flash.c ****       src_addr++;
 306:Drivers/STM32H7xx_HAL_Driver/Src/stm32h7xx_hal_flash.c ****       row_index--;
 307:Drivers/STM32H7xx_HAL_Driver/Src/stm32h7xx_hal_flash.c ****     } while (row_index != 0U);
 308:Drivers/STM32H7xx_HAL_Driver/Src/stm32h7xx_hal_flash.c **** 
 309:Drivers/STM32H7xx_HAL_Driver/Src/stm32h7xx_hal_flash.c ****     __ISB();
 310:Drivers/STM32H7xx_HAL_Driver/Src/stm32h7xx_hal_flash.c ****     __DSB();
 311:Drivers/STM32H7xx_HAL_Driver/Src/stm32h7xx_hal_flash.c ****   }
 312:Drivers/STM32H7xx_HAL_Driver/Src/stm32h7xx_hal_flash.c **** 
 313:Drivers/STM32H7xx_HAL_Driver/Src/stm32h7xx_hal_flash.c ****   return status;
 314:Drivers/STM32H7xx_HAL_Driver/Src/stm32h7xx_hal_flash.c **** }
 315:Drivers/STM32H7xx_HAL_Driver/Src/stm32h7xx_hal_flash.c **** 
ARM GAS  /tmp/ccDY5NB6.s 			page 7


 316:Drivers/STM32H7xx_HAL_Driver/Src/stm32h7xx_hal_flash.c **** /**
 317:Drivers/STM32H7xx_HAL_Driver/Src/stm32h7xx_hal_flash.c ****   * @brief This function handles FLASH interrupt request.
 318:Drivers/STM32H7xx_HAL_Driver/Src/stm32h7xx_hal_flash.c ****   * @retval None
 319:Drivers/STM32H7xx_HAL_Driver/Src/stm32h7xx_hal_flash.c ****   */
 320:Drivers/STM32H7xx_HAL_Driver/Src/stm32h7xx_hal_flash.c **** void HAL_FLASH_IRQHandler(void)
 321:Drivers/STM32H7xx_HAL_Driver/Src/stm32h7xx_hal_flash.c **** {
 322:Drivers/STM32H7xx_HAL_Driver/Src/stm32h7xx_hal_flash.c ****   uint32_t temp;
 323:Drivers/STM32H7xx_HAL_Driver/Src/stm32h7xx_hal_flash.c ****   uint32_t errorflag;
 324:Drivers/STM32H7xx_HAL_Driver/Src/stm32h7xx_hal_flash.c ****   FLASH_ProcedureTypeDef procedure;
 325:Drivers/STM32H7xx_HAL_Driver/Src/stm32h7xx_hal_flash.c **** 
 326:Drivers/STM32H7xx_HAL_Driver/Src/stm32h7xx_hal_flash.c ****   /* Check FLASH Bank1 End of Operation flag  */
 327:Drivers/STM32H7xx_HAL_Driver/Src/stm32h7xx_hal_flash.c ****   if(__HAL_FLASH_GET_FLAG_BANK1(FLASH_SR_EOP) != RESET)
 328:Drivers/STM32H7xx_HAL_Driver/Src/stm32h7xx_hal_flash.c ****   {
 329:Drivers/STM32H7xx_HAL_Driver/Src/stm32h7xx_hal_flash.c ****     if(pFlash.ProcedureOnGoing == FLASH_PROC_SECTERASE_BANK1)
 330:Drivers/STM32H7xx_HAL_Driver/Src/stm32h7xx_hal_flash.c ****     {
 331:Drivers/STM32H7xx_HAL_Driver/Src/stm32h7xx_hal_flash.c ****       /* Nb of sector to erased can be decreased */
 332:Drivers/STM32H7xx_HAL_Driver/Src/stm32h7xx_hal_flash.c ****       pFlash.NbSectorsToErase--;
 333:Drivers/STM32H7xx_HAL_Driver/Src/stm32h7xx_hal_flash.c **** 
 334:Drivers/STM32H7xx_HAL_Driver/Src/stm32h7xx_hal_flash.c ****       /* Check if there are still sectors to erase */
 335:Drivers/STM32H7xx_HAL_Driver/Src/stm32h7xx_hal_flash.c ****       if(pFlash.NbSectorsToErase != 0U)
 336:Drivers/STM32H7xx_HAL_Driver/Src/stm32h7xx_hal_flash.c ****       {
 337:Drivers/STM32H7xx_HAL_Driver/Src/stm32h7xx_hal_flash.c ****         /* Indicate user which sector has been erased */
 338:Drivers/STM32H7xx_HAL_Driver/Src/stm32h7xx_hal_flash.c ****         HAL_FLASH_EndOfOperationCallback(pFlash.Sector);
 339:Drivers/STM32H7xx_HAL_Driver/Src/stm32h7xx_hal_flash.c **** 
 340:Drivers/STM32H7xx_HAL_Driver/Src/stm32h7xx_hal_flash.c ****         /* Clear bank 1 End of Operation pending bit */
 341:Drivers/STM32H7xx_HAL_Driver/Src/stm32h7xx_hal_flash.c ****         __HAL_FLASH_CLEAR_FLAG_BANK1(FLASH_FLAG_EOP_BANK1);
 342:Drivers/STM32H7xx_HAL_Driver/Src/stm32h7xx_hal_flash.c **** 
 343:Drivers/STM32H7xx_HAL_Driver/Src/stm32h7xx_hal_flash.c ****         /* Increment sector number */
 344:Drivers/STM32H7xx_HAL_Driver/Src/stm32h7xx_hal_flash.c ****         pFlash.Sector++;
 345:Drivers/STM32H7xx_HAL_Driver/Src/stm32h7xx_hal_flash.c ****         temp = pFlash.Sector;
 346:Drivers/STM32H7xx_HAL_Driver/Src/stm32h7xx_hal_flash.c ****         FLASH_Erase_Sector(temp, FLASH_BANK_1, pFlash.VoltageForErase);
 347:Drivers/STM32H7xx_HAL_Driver/Src/stm32h7xx_hal_flash.c ****       }
 348:Drivers/STM32H7xx_HAL_Driver/Src/stm32h7xx_hal_flash.c ****       else
 349:Drivers/STM32H7xx_HAL_Driver/Src/stm32h7xx_hal_flash.c ****       {
 350:Drivers/STM32H7xx_HAL_Driver/Src/stm32h7xx_hal_flash.c ****         /* No more sectors to Erase, user callback can be called */
 351:Drivers/STM32H7xx_HAL_Driver/Src/stm32h7xx_hal_flash.c ****         /* Reset Sector and stop Erase sectors procedure */
 352:Drivers/STM32H7xx_HAL_Driver/Src/stm32h7xx_hal_flash.c ****         pFlash.Sector = 0xFFFFFFFFU;
 353:Drivers/STM32H7xx_HAL_Driver/Src/stm32h7xx_hal_flash.c ****         pFlash.ProcedureOnGoing = FLASH_PROC_NONE;
 354:Drivers/STM32H7xx_HAL_Driver/Src/stm32h7xx_hal_flash.c **** 
 355:Drivers/STM32H7xx_HAL_Driver/Src/stm32h7xx_hal_flash.c ****         /* FLASH EOP interrupt user callback */
 356:Drivers/STM32H7xx_HAL_Driver/Src/stm32h7xx_hal_flash.c ****         HAL_FLASH_EndOfOperationCallback(pFlash.Sector);
 357:Drivers/STM32H7xx_HAL_Driver/Src/stm32h7xx_hal_flash.c **** 
 358:Drivers/STM32H7xx_HAL_Driver/Src/stm32h7xx_hal_flash.c ****         /* Clear FLASH End of Operation pending bit */
 359:Drivers/STM32H7xx_HAL_Driver/Src/stm32h7xx_hal_flash.c ****         __HAL_FLASH_CLEAR_FLAG_BANK1(FLASH_FLAG_EOP_BANK1);
 360:Drivers/STM32H7xx_HAL_Driver/Src/stm32h7xx_hal_flash.c ****       }
 361:Drivers/STM32H7xx_HAL_Driver/Src/stm32h7xx_hal_flash.c ****     }
 362:Drivers/STM32H7xx_HAL_Driver/Src/stm32h7xx_hal_flash.c ****     else
 363:Drivers/STM32H7xx_HAL_Driver/Src/stm32h7xx_hal_flash.c ****     {
 364:Drivers/STM32H7xx_HAL_Driver/Src/stm32h7xx_hal_flash.c ****       procedure = pFlash.ProcedureOnGoing;
 365:Drivers/STM32H7xx_HAL_Driver/Src/stm32h7xx_hal_flash.c **** 
 366:Drivers/STM32H7xx_HAL_Driver/Src/stm32h7xx_hal_flash.c ****       if((procedure == FLASH_PROC_MASSERASE_BANK1) || (procedure == FLASH_PROC_ALLBANK_MASSERASE))
 367:Drivers/STM32H7xx_HAL_Driver/Src/stm32h7xx_hal_flash.c ****       {
 368:Drivers/STM32H7xx_HAL_Driver/Src/stm32h7xx_hal_flash.c ****         /* MassErase ended. Return the selected bank */
 369:Drivers/STM32H7xx_HAL_Driver/Src/stm32h7xx_hal_flash.c ****         /* FLASH EOP interrupt user callback */
 370:Drivers/STM32H7xx_HAL_Driver/Src/stm32h7xx_hal_flash.c ****         HAL_FLASH_EndOfOperationCallback(FLASH_BANK_1);
 371:Drivers/STM32H7xx_HAL_Driver/Src/stm32h7xx_hal_flash.c ****       }
 372:Drivers/STM32H7xx_HAL_Driver/Src/stm32h7xx_hal_flash.c ****       else if(procedure == FLASH_PROC_PROGRAM_BANK1)
ARM GAS  /tmp/ccDY5NB6.s 			page 8


 373:Drivers/STM32H7xx_HAL_Driver/Src/stm32h7xx_hal_flash.c ****       {
 374:Drivers/STM32H7xx_HAL_Driver/Src/stm32h7xx_hal_flash.c ****         /* Program ended. Return the selected address */
 375:Drivers/STM32H7xx_HAL_Driver/Src/stm32h7xx_hal_flash.c ****         /* FLASH EOP interrupt user callback */
 376:Drivers/STM32H7xx_HAL_Driver/Src/stm32h7xx_hal_flash.c ****         HAL_FLASH_EndOfOperationCallback(pFlash.Address);
 377:Drivers/STM32H7xx_HAL_Driver/Src/stm32h7xx_hal_flash.c ****       }
 378:Drivers/STM32H7xx_HAL_Driver/Src/stm32h7xx_hal_flash.c ****       else
 379:Drivers/STM32H7xx_HAL_Driver/Src/stm32h7xx_hal_flash.c ****       {
 380:Drivers/STM32H7xx_HAL_Driver/Src/stm32h7xx_hal_flash.c ****         /* Nothing to do */
 381:Drivers/STM32H7xx_HAL_Driver/Src/stm32h7xx_hal_flash.c ****       }
 382:Drivers/STM32H7xx_HAL_Driver/Src/stm32h7xx_hal_flash.c **** 
 383:Drivers/STM32H7xx_HAL_Driver/Src/stm32h7xx_hal_flash.c ****       if((procedure != FLASH_PROC_SECTERASE_BANK2) && \
 384:Drivers/STM32H7xx_HAL_Driver/Src/stm32h7xx_hal_flash.c ****          (procedure != FLASH_PROC_MASSERASE_BANK2) && \
 385:Drivers/STM32H7xx_HAL_Driver/Src/stm32h7xx_hal_flash.c ****          (procedure != FLASH_PROC_PROGRAM_BANK2))
 386:Drivers/STM32H7xx_HAL_Driver/Src/stm32h7xx_hal_flash.c ****       {
 387:Drivers/STM32H7xx_HAL_Driver/Src/stm32h7xx_hal_flash.c ****         pFlash.ProcedureOnGoing = FLASH_PROC_NONE;
 388:Drivers/STM32H7xx_HAL_Driver/Src/stm32h7xx_hal_flash.c ****         /* Clear FLASH End of Operation pending bit */
 389:Drivers/STM32H7xx_HAL_Driver/Src/stm32h7xx_hal_flash.c ****         __HAL_FLASH_CLEAR_FLAG_BANK1(FLASH_FLAG_EOP_BANK1);
 390:Drivers/STM32H7xx_HAL_Driver/Src/stm32h7xx_hal_flash.c ****       }
 391:Drivers/STM32H7xx_HAL_Driver/Src/stm32h7xx_hal_flash.c ****     }
 392:Drivers/STM32H7xx_HAL_Driver/Src/stm32h7xx_hal_flash.c ****   }
 393:Drivers/STM32H7xx_HAL_Driver/Src/stm32h7xx_hal_flash.c **** 
 394:Drivers/STM32H7xx_HAL_Driver/Src/stm32h7xx_hal_flash.c ****  /* Check FLASH Bank2 End of Operation flag  */
 395:Drivers/STM32H7xx_HAL_Driver/Src/stm32h7xx_hal_flash.c ****   if(__HAL_FLASH_GET_FLAG_BANK2(FLASH_SR_EOP) != RESET)
 396:Drivers/STM32H7xx_HAL_Driver/Src/stm32h7xx_hal_flash.c ****   {
 397:Drivers/STM32H7xx_HAL_Driver/Src/stm32h7xx_hal_flash.c ****     if(pFlash.ProcedureOnGoing == FLASH_PROC_SECTERASE_BANK2)
 398:Drivers/STM32H7xx_HAL_Driver/Src/stm32h7xx_hal_flash.c ****     {
 399:Drivers/STM32H7xx_HAL_Driver/Src/stm32h7xx_hal_flash.c ****       /*Nb of sector to erased can be decreased*/
 400:Drivers/STM32H7xx_HAL_Driver/Src/stm32h7xx_hal_flash.c ****       pFlash.NbSectorsToErase--;
 401:Drivers/STM32H7xx_HAL_Driver/Src/stm32h7xx_hal_flash.c **** 
 402:Drivers/STM32H7xx_HAL_Driver/Src/stm32h7xx_hal_flash.c ****       /* Check if there are still sectors to erase*/
 403:Drivers/STM32H7xx_HAL_Driver/Src/stm32h7xx_hal_flash.c ****       if(pFlash.NbSectorsToErase != 0U)
 404:Drivers/STM32H7xx_HAL_Driver/Src/stm32h7xx_hal_flash.c ****       {
 405:Drivers/STM32H7xx_HAL_Driver/Src/stm32h7xx_hal_flash.c ****         /*Indicate user which sector has been erased*/
 406:Drivers/STM32H7xx_HAL_Driver/Src/stm32h7xx_hal_flash.c ****         HAL_FLASH_EndOfOperationCallback(pFlash.Sector);
 407:Drivers/STM32H7xx_HAL_Driver/Src/stm32h7xx_hal_flash.c **** 
 408:Drivers/STM32H7xx_HAL_Driver/Src/stm32h7xx_hal_flash.c ****         /* Clear bank 2 End of Operation pending bit */
 409:Drivers/STM32H7xx_HAL_Driver/Src/stm32h7xx_hal_flash.c ****         __HAL_FLASH_CLEAR_FLAG_BANK2(FLASH_FLAG_EOP_BANK2);
 410:Drivers/STM32H7xx_HAL_Driver/Src/stm32h7xx_hal_flash.c **** 
 411:Drivers/STM32H7xx_HAL_Driver/Src/stm32h7xx_hal_flash.c ****         /*Increment sector number*/
 412:Drivers/STM32H7xx_HAL_Driver/Src/stm32h7xx_hal_flash.c ****         pFlash.Sector++;
 413:Drivers/STM32H7xx_HAL_Driver/Src/stm32h7xx_hal_flash.c ****         temp = pFlash.Sector;
 414:Drivers/STM32H7xx_HAL_Driver/Src/stm32h7xx_hal_flash.c ****         FLASH_Erase_Sector(temp, FLASH_BANK_2, pFlash.VoltageForErase);
 415:Drivers/STM32H7xx_HAL_Driver/Src/stm32h7xx_hal_flash.c ****       }
 416:Drivers/STM32H7xx_HAL_Driver/Src/stm32h7xx_hal_flash.c ****       else
 417:Drivers/STM32H7xx_HAL_Driver/Src/stm32h7xx_hal_flash.c ****       {
 418:Drivers/STM32H7xx_HAL_Driver/Src/stm32h7xx_hal_flash.c ****         /* No more sectors to Erase, user callback can be called */
 419:Drivers/STM32H7xx_HAL_Driver/Src/stm32h7xx_hal_flash.c ****         /* Reset Sector and stop Erase sectors procedure */
 420:Drivers/STM32H7xx_HAL_Driver/Src/stm32h7xx_hal_flash.c ****         pFlash.Sector = 0xFFFFFFFFU;
 421:Drivers/STM32H7xx_HAL_Driver/Src/stm32h7xx_hal_flash.c ****         pFlash.ProcedureOnGoing = FLASH_PROC_NONE;
 422:Drivers/STM32H7xx_HAL_Driver/Src/stm32h7xx_hal_flash.c **** 
 423:Drivers/STM32H7xx_HAL_Driver/Src/stm32h7xx_hal_flash.c ****         /* FLASH EOP interrupt user callback */
 424:Drivers/STM32H7xx_HAL_Driver/Src/stm32h7xx_hal_flash.c ****         HAL_FLASH_EndOfOperationCallback(pFlash.Sector);
 425:Drivers/STM32H7xx_HAL_Driver/Src/stm32h7xx_hal_flash.c **** 
 426:Drivers/STM32H7xx_HAL_Driver/Src/stm32h7xx_hal_flash.c ****         /* Clear FLASH End of Operation pending bit */
 427:Drivers/STM32H7xx_HAL_Driver/Src/stm32h7xx_hal_flash.c ****         __HAL_FLASH_CLEAR_FLAG_BANK2(FLASH_FLAG_EOP_BANK2);
 428:Drivers/STM32H7xx_HAL_Driver/Src/stm32h7xx_hal_flash.c ****       }
 429:Drivers/STM32H7xx_HAL_Driver/Src/stm32h7xx_hal_flash.c ****     }
ARM GAS  /tmp/ccDY5NB6.s 			page 9


 430:Drivers/STM32H7xx_HAL_Driver/Src/stm32h7xx_hal_flash.c ****     else
 431:Drivers/STM32H7xx_HAL_Driver/Src/stm32h7xx_hal_flash.c ****     {
 432:Drivers/STM32H7xx_HAL_Driver/Src/stm32h7xx_hal_flash.c ****       procedure = pFlash.ProcedureOnGoing;
 433:Drivers/STM32H7xx_HAL_Driver/Src/stm32h7xx_hal_flash.c **** 
 434:Drivers/STM32H7xx_HAL_Driver/Src/stm32h7xx_hal_flash.c ****       if((procedure == FLASH_PROC_MASSERASE_BANK2) || (procedure == FLASH_PROC_ALLBANK_MASSERASE))
 435:Drivers/STM32H7xx_HAL_Driver/Src/stm32h7xx_hal_flash.c ****       {
 436:Drivers/STM32H7xx_HAL_Driver/Src/stm32h7xx_hal_flash.c ****         /*MassErase ended. Return the selected bank*/
 437:Drivers/STM32H7xx_HAL_Driver/Src/stm32h7xx_hal_flash.c ****         /* FLASH EOP interrupt user callback */
 438:Drivers/STM32H7xx_HAL_Driver/Src/stm32h7xx_hal_flash.c ****         HAL_FLASH_EndOfOperationCallback(FLASH_BANK_2);
 439:Drivers/STM32H7xx_HAL_Driver/Src/stm32h7xx_hal_flash.c ****       }
 440:Drivers/STM32H7xx_HAL_Driver/Src/stm32h7xx_hal_flash.c ****       else if(procedure == FLASH_PROC_PROGRAM_BANK2)
 441:Drivers/STM32H7xx_HAL_Driver/Src/stm32h7xx_hal_flash.c ****       {
 442:Drivers/STM32H7xx_HAL_Driver/Src/stm32h7xx_hal_flash.c ****         /* Program ended. Return the selected address */
 443:Drivers/STM32H7xx_HAL_Driver/Src/stm32h7xx_hal_flash.c ****         /* FLASH EOP interrupt user callback */
 444:Drivers/STM32H7xx_HAL_Driver/Src/stm32h7xx_hal_flash.c ****         HAL_FLASH_EndOfOperationCallback(pFlash.Address);
 445:Drivers/STM32H7xx_HAL_Driver/Src/stm32h7xx_hal_flash.c ****       }
 446:Drivers/STM32H7xx_HAL_Driver/Src/stm32h7xx_hal_flash.c ****       else
 447:Drivers/STM32H7xx_HAL_Driver/Src/stm32h7xx_hal_flash.c ****       {
 448:Drivers/STM32H7xx_HAL_Driver/Src/stm32h7xx_hal_flash.c ****         /* Nothing to do */
 449:Drivers/STM32H7xx_HAL_Driver/Src/stm32h7xx_hal_flash.c ****       }
 450:Drivers/STM32H7xx_HAL_Driver/Src/stm32h7xx_hal_flash.c **** 
 451:Drivers/STM32H7xx_HAL_Driver/Src/stm32h7xx_hal_flash.c ****       if((procedure != FLASH_PROC_SECTERASE_BANK1) && \
 452:Drivers/STM32H7xx_HAL_Driver/Src/stm32h7xx_hal_flash.c ****          (procedure != FLASH_PROC_MASSERASE_BANK1) && \
 453:Drivers/STM32H7xx_HAL_Driver/Src/stm32h7xx_hal_flash.c ****          (procedure != FLASH_PROC_PROGRAM_BANK1))
 454:Drivers/STM32H7xx_HAL_Driver/Src/stm32h7xx_hal_flash.c ****       {
 455:Drivers/STM32H7xx_HAL_Driver/Src/stm32h7xx_hal_flash.c ****         pFlash.ProcedureOnGoing = FLASH_PROC_NONE;
 456:Drivers/STM32H7xx_HAL_Driver/Src/stm32h7xx_hal_flash.c ****         /* Clear FLASH End of Operation pending bit */
 457:Drivers/STM32H7xx_HAL_Driver/Src/stm32h7xx_hal_flash.c ****         __HAL_FLASH_CLEAR_FLAG_BANK2(FLASH_FLAG_EOP_BANK2);
 458:Drivers/STM32H7xx_HAL_Driver/Src/stm32h7xx_hal_flash.c ****       }
 459:Drivers/STM32H7xx_HAL_Driver/Src/stm32h7xx_hal_flash.c ****     }
 460:Drivers/STM32H7xx_HAL_Driver/Src/stm32h7xx_hal_flash.c ****   }
 461:Drivers/STM32H7xx_HAL_Driver/Src/stm32h7xx_hal_flash.c **** 
 462:Drivers/STM32H7xx_HAL_Driver/Src/stm32h7xx_hal_flash.c ****   /* Check FLASH Bank1 operation error flags */
 463:Drivers/STM32H7xx_HAL_Driver/Src/stm32h7xx_hal_flash.c ****   errorflag = FLASH->SR1 & (FLASH_FLAG_WRPERR_BANK1 | FLASH_FLAG_PGSERR_BANK1 | FLASH_FLAG_STRBERR_
 464:Drivers/STM32H7xx_HAL_Driver/Src/stm32h7xx_hal_flash.c ****                             FLASH_FLAG_INCERR_BANK1 | FLASH_FLAG_OPERR_BANK1);
 465:Drivers/STM32H7xx_HAL_Driver/Src/stm32h7xx_hal_flash.c **** 
 466:Drivers/STM32H7xx_HAL_Driver/Src/stm32h7xx_hal_flash.c ****   if(errorflag != 0U)
 467:Drivers/STM32H7xx_HAL_Driver/Src/stm32h7xx_hal_flash.c ****   {
 468:Drivers/STM32H7xx_HAL_Driver/Src/stm32h7xx_hal_flash.c ****     /* Save the error code */
 469:Drivers/STM32H7xx_HAL_Driver/Src/stm32h7xx_hal_flash.c ****     pFlash.ErrorCode |= errorflag;
 470:Drivers/STM32H7xx_HAL_Driver/Src/stm32h7xx_hal_flash.c **** 
 471:Drivers/STM32H7xx_HAL_Driver/Src/stm32h7xx_hal_flash.c ****     /* Clear error programming flags */
 472:Drivers/STM32H7xx_HAL_Driver/Src/stm32h7xx_hal_flash.c ****     __HAL_FLASH_CLEAR_FLAG_BANK1(errorflag);
 473:Drivers/STM32H7xx_HAL_Driver/Src/stm32h7xx_hal_flash.c **** 
 474:Drivers/STM32H7xx_HAL_Driver/Src/stm32h7xx_hal_flash.c ****     procedure = pFlash.ProcedureOnGoing;
 475:Drivers/STM32H7xx_HAL_Driver/Src/stm32h7xx_hal_flash.c **** 
 476:Drivers/STM32H7xx_HAL_Driver/Src/stm32h7xx_hal_flash.c ****     if(procedure == FLASH_PROC_SECTERASE_BANK1)
 477:Drivers/STM32H7xx_HAL_Driver/Src/stm32h7xx_hal_flash.c ****     {
 478:Drivers/STM32H7xx_HAL_Driver/Src/stm32h7xx_hal_flash.c ****       /* Return the faulty sector */
 479:Drivers/STM32H7xx_HAL_Driver/Src/stm32h7xx_hal_flash.c ****       temp = pFlash.Sector;
 480:Drivers/STM32H7xx_HAL_Driver/Src/stm32h7xx_hal_flash.c ****       pFlash.Sector = 0xFFFFFFFFU;
 481:Drivers/STM32H7xx_HAL_Driver/Src/stm32h7xx_hal_flash.c ****     }
 482:Drivers/STM32H7xx_HAL_Driver/Src/stm32h7xx_hal_flash.c ****     else if((procedure == FLASH_PROC_MASSERASE_BANK1) || (procedure == FLASH_PROC_ALLBANK_MASSERASE
 483:Drivers/STM32H7xx_HAL_Driver/Src/stm32h7xx_hal_flash.c ****     {
 484:Drivers/STM32H7xx_HAL_Driver/Src/stm32h7xx_hal_flash.c ****       /* Return the faulty bank */
 485:Drivers/STM32H7xx_HAL_Driver/Src/stm32h7xx_hal_flash.c ****       temp = FLASH_BANK_1;
 486:Drivers/STM32H7xx_HAL_Driver/Src/stm32h7xx_hal_flash.c ****     }
ARM GAS  /tmp/ccDY5NB6.s 			page 10


 487:Drivers/STM32H7xx_HAL_Driver/Src/stm32h7xx_hal_flash.c ****     else
 488:Drivers/STM32H7xx_HAL_Driver/Src/stm32h7xx_hal_flash.c ****     {
 489:Drivers/STM32H7xx_HAL_Driver/Src/stm32h7xx_hal_flash.c ****       /* Return the faulty address */
 490:Drivers/STM32H7xx_HAL_Driver/Src/stm32h7xx_hal_flash.c ****       temp = pFlash.Address;
 491:Drivers/STM32H7xx_HAL_Driver/Src/stm32h7xx_hal_flash.c ****     }
 492:Drivers/STM32H7xx_HAL_Driver/Src/stm32h7xx_hal_flash.c **** 
 493:Drivers/STM32H7xx_HAL_Driver/Src/stm32h7xx_hal_flash.c ****     /* Stop the procedure ongoing*/
 494:Drivers/STM32H7xx_HAL_Driver/Src/stm32h7xx_hal_flash.c ****     pFlash.ProcedureOnGoing = FLASH_PROC_NONE;
 495:Drivers/STM32H7xx_HAL_Driver/Src/stm32h7xx_hal_flash.c **** 
 496:Drivers/STM32H7xx_HAL_Driver/Src/stm32h7xx_hal_flash.c ****     /* FLASH error interrupt user callback */
 497:Drivers/STM32H7xx_HAL_Driver/Src/stm32h7xx_hal_flash.c ****     HAL_FLASH_OperationErrorCallback(temp);
 498:Drivers/STM32H7xx_HAL_Driver/Src/stm32h7xx_hal_flash.c ****   }
 499:Drivers/STM32H7xx_HAL_Driver/Src/stm32h7xx_hal_flash.c **** 
 500:Drivers/STM32H7xx_HAL_Driver/Src/stm32h7xx_hal_flash.c ****   /* Check FLASH Bank2 operation error flags */
 501:Drivers/STM32H7xx_HAL_Driver/Src/stm32h7xx_hal_flash.c ****   errorflag = FLASH->SR2 & ((FLASH_FLAG_WRPERR_BANK2 | FLASH_FLAG_PGSERR_BANK2 | FLASH_FLAG_STRBERR
 502:Drivers/STM32H7xx_HAL_Driver/Src/stm32h7xx_hal_flash.c ****                              FLASH_FLAG_INCERR_BANK2 | FLASH_FLAG_OPERR_BANK2) & 0x7FFFFFFFU);
 503:Drivers/STM32H7xx_HAL_Driver/Src/stm32h7xx_hal_flash.c **** 
 504:Drivers/STM32H7xx_HAL_Driver/Src/stm32h7xx_hal_flash.c ****  /* Check FLASH Bank2 operation error flags */
 505:Drivers/STM32H7xx_HAL_Driver/Src/stm32h7xx_hal_flash.c ****   if(errorflag != 0U)
 506:Drivers/STM32H7xx_HAL_Driver/Src/stm32h7xx_hal_flash.c ****   {
 507:Drivers/STM32H7xx_HAL_Driver/Src/stm32h7xx_hal_flash.c ****     /* Save the error code */
 508:Drivers/STM32H7xx_HAL_Driver/Src/stm32h7xx_hal_flash.c ****     pFlash.ErrorCode |= (errorflag | 0x80000000U);
 509:Drivers/STM32H7xx_HAL_Driver/Src/stm32h7xx_hal_flash.c **** 
 510:Drivers/STM32H7xx_HAL_Driver/Src/stm32h7xx_hal_flash.c ****     /* Clear error programming flags */
 511:Drivers/STM32H7xx_HAL_Driver/Src/stm32h7xx_hal_flash.c ****     __HAL_FLASH_CLEAR_FLAG_BANK2(errorflag);
 512:Drivers/STM32H7xx_HAL_Driver/Src/stm32h7xx_hal_flash.c **** 
 513:Drivers/STM32H7xx_HAL_Driver/Src/stm32h7xx_hal_flash.c ****     procedure = pFlash.ProcedureOnGoing;
 514:Drivers/STM32H7xx_HAL_Driver/Src/stm32h7xx_hal_flash.c **** 
 515:Drivers/STM32H7xx_HAL_Driver/Src/stm32h7xx_hal_flash.c ****     if(procedure== FLASH_PROC_SECTERASE_BANK2)
 516:Drivers/STM32H7xx_HAL_Driver/Src/stm32h7xx_hal_flash.c ****     {
 517:Drivers/STM32H7xx_HAL_Driver/Src/stm32h7xx_hal_flash.c ****       /*return the faulty sector*/
 518:Drivers/STM32H7xx_HAL_Driver/Src/stm32h7xx_hal_flash.c ****       temp = pFlash.Sector;
 519:Drivers/STM32H7xx_HAL_Driver/Src/stm32h7xx_hal_flash.c ****       pFlash.Sector = 0xFFFFFFFFU;
 520:Drivers/STM32H7xx_HAL_Driver/Src/stm32h7xx_hal_flash.c ****     }
 521:Drivers/STM32H7xx_HAL_Driver/Src/stm32h7xx_hal_flash.c ****     else if((procedure == FLASH_PROC_MASSERASE_BANK2) || (procedure == FLASH_PROC_ALLBANK_MASSERASE
 522:Drivers/STM32H7xx_HAL_Driver/Src/stm32h7xx_hal_flash.c ****     {
 523:Drivers/STM32H7xx_HAL_Driver/Src/stm32h7xx_hal_flash.c ****       /*return the faulty bank*/
 524:Drivers/STM32H7xx_HAL_Driver/Src/stm32h7xx_hal_flash.c ****       temp = FLASH_BANK_2;
 525:Drivers/STM32H7xx_HAL_Driver/Src/stm32h7xx_hal_flash.c ****     }
 526:Drivers/STM32H7xx_HAL_Driver/Src/stm32h7xx_hal_flash.c ****     else
 527:Drivers/STM32H7xx_HAL_Driver/Src/stm32h7xx_hal_flash.c ****     {
 528:Drivers/STM32H7xx_HAL_Driver/Src/stm32h7xx_hal_flash.c ****       /*return the faulty address*/
 529:Drivers/STM32H7xx_HAL_Driver/Src/stm32h7xx_hal_flash.c ****       temp = pFlash.Address;
 530:Drivers/STM32H7xx_HAL_Driver/Src/stm32h7xx_hal_flash.c ****     }
 531:Drivers/STM32H7xx_HAL_Driver/Src/stm32h7xx_hal_flash.c **** 
 532:Drivers/STM32H7xx_HAL_Driver/Src/stm32h7xx_hal_flash.c ****     /*Stop the procedure ongoing*/
 533:Drivers/STM32H7xx_HAL_Driver/Src/stm32h7xx_hal_flash.c ****     pFlash.ProcedureOnGoing = FLASH_PROC_NONE;
 534:Drivers/STM32H7xx_HAL_Driver/Src/stm32h7xx_hal_flash.c **** 
 535:Drivers/STM32H7xx_HAL_Driver/Src/stm32h7xx_hal_flash.c ****     /* FLASH error interrupt user callback */
 536:Drivers/STM32H7xx_HAL_Driver/Src/stm32h7xx_hal_flash.c ****     HAL_FLASH_OperationErrorCallback(temp);
 537:Drivers/STM32H7xx_HAL_Driver/Src/stm32h7xx_hal_flash.c ****   }
 538:Drivers/STM32H7xx_HAL_Driver/Src/stm32h7xx_hal_flash.c **** 
 539:Drivers/STM32H7xx_HAL_Driver/Src/stm32h7xx_hal_flash.c ****   if(pFlash.ProcedureOnGoing == FLASH_PROC_NONE)
 540:Drivers/STM32H7xx_HAL_Driver/Src/stm32h7xx_hal_flash.c ****   {
 541:Drivers/STM32H7xx_HAL_Driver/Src/stm32h7xx_hal_flash.c ****     /* Disable Bank1 Operation and Error source interrupt */
 542:Drivers/STM32H7xx_HAL_Driver/Src/stm32h7xx_hal_flash.c ****     __HAL_FLASH_DISABLE_IT_BANK1(FLASH_IT_EOP_BANK1    | FLASH_IT_WRPERR_BANK1 | FLASH_IT_PGSERR_BA
 543:Drivers/STM32H7xx_HAL_Driver/Src/stm32h7xx_hal_flash.c ****                                  FLASH_IT_STRBERR_BANK1 | FLASH_IT_INCERR_BANK1 | FLASH_IT_OPERR_BA
ARM GAS  /tmp/ccDY5NB6.s 			page 11


 544:Drivers/STM32H7xx_HAL_Driver/Src/stm32h7xx_hal_flash.c **** 
 545:Drivers/STM32H7xx_HAL_Driver/Src/stm32h7xx_hal_flash.c ****     /* Disable Bank2 Operation and Error source interrupt */
 546:Drivers/STM32H7xx_HAL_Driver/Src/stm32h7xx_hal_flash.c ****     __HAL_FLASH_DISABLE_IT_BANK2(FLASH_IT_EOP_BANK2    | FLASH_IT_WRPERR_BANK2 | FLASH_IT_PGSERR_BA
 547:Drivers/STM32H7xx_HAL_Driver/Src/stm32h7xx_hal_flash.c ****                                  FLASH_IT_STRBERR_BANK2 | FLASH_IT_INCERR_BANK2 | FLASH_IT_OPERR_BA
 548:Drivers/STM32H7xx_HAL_Driver/Src/stm32h7xx_hal_flash.c **** 
 549:Drivers/STM32H7xx_HAL_Driver/Src/stm32h7xx_hal_flash.c ****     /* Process Unlocked */
 550:Drivers/STM32H7xx_HAL_Driver/Src/stm32h7xx_hal_flash.c ****     __HAL_UNLOCK(&pFlash);
 551:Drivers/STM32H7xx_HAL_Driver/Src/stm32h7xx_hal_flash.c ****   }
 552:Drivers/STM32H7xx_HAL_Driver/Src/stm32h7xx_hal_flash.c **** }
 553:Drivers/STM32H7xx_HAL_Driver/Src/stm32h7xx_hal_flash.c **** 
 554:Drivers/STM32H7xx_HAL_Driver/Src/stm32h7xx_hal_flash.c **** /**
 555:Drivers/STM32H7xx_HAL_Driver/Src/stm32h7xx_hal_flash.c ****   * @brief  FLASH end of operation interrupt callback
 556:Drivers/STM32H7xx_HAL_Driver/Src/stm32h7xx_hal_flash.c ****   * @param  ReturnValue The value saved in this parameter depends on the ongoing procedure
 557:Drivers/STM32H7xx_HAL_Driver/Src/stm32h7xx_hal_flash.c ****   *                  Mass Erase: Bank number which has been requested to erase
 558:Drivers/STM32H7xx_HAL_Driver/Src/stm32h7xx_hal_flash.c ****   *                  Sectors Erase: Sector which has been erased
 559:Drivers/STM32H7xx_HAL_Driver/Src/stm32h7xx_hal_flash.c ****   *                    (if 0xFFFFFFFF, it means that all the selected sectors have been erased)
 560:Drivers/STM32H7xx_HAL_Driver/Src/stm32h7xx_hal_flash.c ****   *                  Program: Address which was selected for data program
 561:Drivers/STM32H7xx_HAL_Driver/Src/stm32h7xx_hal_flash.c ****   * @retval None
 562:Drivers/STM32H7xx_HAL_Driver/Src/stm32h7xx_hal_flash.c ****   */
 563:Drivers/STM32H7xx_HAL_Driver/Src/stm32h7xx_hal_flash.c **** __weak void HAL_FLASH_EndOfOperationCallback(uint32_t ReturnValue)
 564:Drivers/STM32H7xx_HAL_Driver/Src/stm32h7xx_hal_flash.c **** {
  29              		.loc 1 564 1 view -0
  30              		.cfi_startproc
  31              		@ args = 0, pretend = 0, frame = 0
  32              		@ frame_needed = 0, uses_anonymous_args = 0
  33              		@ link register save eliminated.
 565:Drivers/STM32H7xx_HAL_Driver/Src/stm32h7xx_hal_flash.c ****   /* Prevent unused argument(s) compilation warning */
 566:Drivers/STM32H7xx_HAL_Driver/Src/stm32h7xx_hal_flash.c ****   UNUSED(ReturnValue);
  34              		.loc 1 566 3 view .LVU1
 567:Drivers/STM32H7xx_HAL_Driver/Src/stm32h7xx_hal_flash.c **** 
 568:Drivers/STM32H7xx_HAL_Driver/Src/stm32h7xx_hal_flash.c ****   /* NOTE : This function Should not be modified, when the callback is needed,
 569:Drivers/STM32H7xx_HAL_Driver/Src/stm32h7xx_hal_flash.c ****             the HAL_FLASH_EndOfOperationCallback could be implemented in the user file
 570:Drivers/STM32H7xx_HAL_Driver/Src/stm32h7xx_hal_flash.c ****    */
 571:Drivers/STM32H7xx_HAL_Driver/Src/stm32h7xx_hal_flash.c **** }
  35              		.loc 1 571 1 is_stmt 0 view .LVU2
  36 0000 7047     		bx	lr
  37              		.cfi_endproc
  38              	.LFE144:
  40              		.section	.text.HAL_FLASH_OperationErrorCallback,"ax",%progbits
  41              		.align	1
  42              		.weak	HAL_FLASH_OperationErrorCallback
  43              		.syntax unified
  44              		.thumb
  45              		.thumb_func
  46              		.fpu fpv5-d16
  48              	HAL_FLASH_OperationErrorCallback:
  49              	.LVL1:
  50              	.LFB145:
 572:Drivers/STM32H7xx_HAL_Driver/Src/stm32h7xx_hal_flash.c **** 
 573:Drivers/STM32H7xx_HAL_Driver/Src/stm32h7xx_hal_flash.c **** /**
 574:Drivers/STM32H7xx_HAL_Driver/Src/stm32h7xx_hal_flash.c ****   * @brief  FLASH operation error interrupt callback
 575:Drivers/STM32H7xx_HAL_Driver/Src/stm32h7xx_hal_flash.c ****   * @param  ReturnValue The value saved in this parameter depends on the ongoing procedure
 576:Drivers/STM32H7xx_HAL_Driver/Src/stm32h7xx_hal_flash.c ****   *                 Mass Erase: Bank number which has been requested to erase
 577:Drivers/STM32H7xx_HAL_Driver/Src/stm32h7xx_hal_flash.c ****   *                 Sectors Erase: Sector number which returned an error
 578:Drivers/STM32H7xx_HAL_Driver/Src/stm32h7xx_hal_flash.c ****   *                 Program: Address which was selected for data program
 579:Drivers/STM32H7xx_HAL_Driver/Src/stm32h7xx_hal_flash.c ****   * @retval None
 580:Drivers/STM32H7xx_HAL_Driver/Src/stm32h7xx_hal_flash.c ****   */
ARM GAS  /tmp/ccDY5NB6.s 			page 12


 581:Drivers/STM32H7xx_HAL_Driver/Src/stm32h7xx_hal_flash.c **** __weak void HAL_FLASH_OperationErrorCallback(uint32_t ReturnValue)
 582:Drivers/STM32H7xx_HAL_Driver/Src/stm32h7xx_hal_flash.c **** {
  51              		.loc 1 582 1 is_stmt 1 view -0
  52              		.cfi_startproc
  53              		@ args = 0, pretend = 0, frame = 0
  54              		@ frame_needed = 0, uses_anonymous_args = 0
  55              		@ link register save eliminated.
 583:Drivers/STM32H7xx_HAL_Driver/Src/stm32h7xx_hal_flash.c ****   /* Prevent unused argument(s) compilation warning */
 584:Drivers/STM32H7xx_HAL_Driver/Src/stm32h7xx_hal_flash.c ****   UNUSED(ReturnValue);
  56              		.loc 1 584 3 view .LVU4
 585:Drivers/STM32H7xx_HAL_Driver/Src/stm32h7xx_hal_flash.c **** 
 586:Drivers/STM32H7xx_HAL_Driver/Src/stm32h7xx_hal_flash.c ****   /* NOTE : This function Should not be modified, when the callback is needed,
 587:Drivers/STM32H7xx_HAL_Driver/Src/stm32h7xx_hal_flash.c ****             the HAL_FLASH_OperationErrorCallback could be implemented in the user file
 588:Drivers/STM32H7xx_HAL_Driver/Src/stm32h7xx_hal_flash.c ****    */
 589:Drivers/STM32H7xx_HAL_Driver/Src/stm32h7xx_hal_flash.c **** }
  57              		.loc 1 589 1 is_stmt 0 view .LVU5
  58 0000 7047     		bx	lr
  59              		.cfi_endproc
  60              	.LFE145:
  62              		.section	.text.HAL_FLASH_IRQHandler,"ax",%progbits
  63              		.align	1
  64              		.global	HAL_FLASH_IRQHandler
  65              		.syntax unified
  66              		.thumb
  67              		.thumb_func
  68              		.fpu fpv5-d16
  70              	HAL_FLASH_IRQHandler:
  71              	.LFB143:
 321:Drivers/STM32H7xx_HAL_Driver/Src/stm32h7xx_hal_flash.c ****   uint32_t temp;
  72              		.loc 1 321 1 is_stmt 1 view -0
  73              		.cfi_startproc
  74              		@ args = 0, pretend = 0, frame = 0
  75              		@ frame_needed = 0, uses_anonymous_args = 0
  76 0000 10B5     		push	{r4, lr}
  77              	.LCFI0:
  78              		.cfi_def_cfa_offset 8
  79              		.cfi_offset 4, -8
  80              		.cfi_offset 14, -4
 322:Drivers/STM32H7xx_HAL_Driver/Src/stm32h7xx_hal_flash.c ****   uint32_t errorflag;
  81              		.loc 1 322 3 view .LVU7
 323:Drivers/STM32H7xx_HAL_Driver/Src/stm32h7xx_hal_flash.c ****   FLASH_ProcedureTypeDef procedure;
  82              		.loc 1 323 3 view .LVU8
 324:Drivers/STM32H7xx_HAL_Driver/Src/stm32h7xx_hal_flash.c **** 
  83              		.loc 1 324 3 view .LVU9
 327:Drivers/STM32H7xx_HAL_Driver/Src/stm32h7xx_hal_flash.c ****   {
  84              		.loc 1 327 3 view .LVU10
 327:Drivers/STM32H7xx_HAL_Driver/Src/stm32h7xx_hal_flash.c ****   {
  85              		.loc 1 327 6 is_stmt 0 view .LVU11
  86 0002 7B4B     		ldr	r3, .L32
  87 0004 1B69     		ldr	r3, [r3, #16]
 327:Drivers/STM32H7xx_HAL_Driver/Src/stm32h7xx_hal_flash.c ****   {
  88              		.loc 1 327 5 view .LVU12
  89 0006 13F4803F 		tst	r3, #65536
  90 000a 18D0     		beq	.L4
 329:Drivers/STM32H7xx_HAL_Driver/Src/stm32h7xx_hal_flash.c ****     {
  91              		.loc 1 329 5 is_stmt 1 view .LVU13
 329:Drivers/STM32H7xx_HAL_Driver/Src/stm32h7xx_hal_flash.c ****     {
ARM GAS  /tmp/ccDY5NB6.s 			page 13


  92              		.loc 1 329 14 is_stmt 0 view .LVU14
  93 000c 794B     		ldr	r3, .L32+4
  94 000e 1B78     		ldrb	r3, [r3]	@ zero_extendqisi2
  95 0010 DBB2     		uxtb	r3, r3
 329:Drivers/STM32H7xx_HAL_Driver/Src/stm32h7xx_hal_flash.c ****     {
  96              		.loc 1 329 7 view .LVU15
  97 0012 012B     		cmp	r3, #1
  98 0014 4AD0     		beq	.L24
 364:Drivers/STM32H7xx_HAL_Driver/Src/stm32h7xx_hal_flash.c **** 
  99              		.loc 1 364 7 is_stmt 1 view .LVU16
 364:Drivers/STM32H7xx_HAL_Driver/Src/stm32h7xx_hal_flash.c **** 
 100              		.loc 1 364 17 is_stmt 0 view .LVU17
 101 0016 774B     		ldr	r3, .L32+4
 102 0018 1C78     		ldrb	r4, [r3]	@ zero_extendqisi2
 103 001a E4B2     		uxtb	r4, r4
 104              	.LVL2:
 366:Drivers/STM32H7xx_HAL_Driver/Src/stm32h7xx_hal_flash.c ****       {
 105              		.loc 1 366 7 is_stmt 1 view .LVU18
 366:Drivers/STM32H7xx_HAL_Driver/Src/stm32h7xx_hal_flash.c ****       {
 106              		.loc 1 366 9 is_stmt 0 view .LVU19
 107 001c 072C     		cmp	r4, #7
 108 001e 18BF     		it	ne
 109 0020 022C     		cmpne	r4, #2
 110 0022 68D0     		beq	.L25
 372:Drivers/STM32H7xx_HAL_Driver/Src/stm32h7xx_hal_flash.c ****       {
 111              		.loc 1 372 12 is_stmt 1 view .LVU20
 372:Drivers/STM32H7xx_HAL_Driver/Src/stm32h7xx_hal_flash.c ****       {
 112              		.loc 1 372 14 is_stmt 0 view .LVU21
 113 0024 032C     		cmp	r4, #3
 114 0026 6AD0     		beq	.L26
 115              	.L8:
 381:Drivers/STM32H7xx_HAL_Driver/Src/stm32h7xx_hal_flash.c **** 
 116              		.loc 1 381 7 is_stmt 1 view .LVU22
 383:Drivers/STM32H7xx_HAL_Driver/Src/stm32h7xx_hal_flash.c ****          (procedure != FLASH_PROC_MASSERASE_BANK2) && \
 117              		.loc 1 383 7 view .LVU23
 384:Drivers/STM32H7xx_HAL_Driver/Src/stm32h7xx_hal_flash.c ****          (procedure != FLASH_PROC_PROGRAM_BANK2))
 118              		.loc 1 384 52 is_stmt 0 view .LVU24
 119 0028 043C     		subs	r4, r4, #4
 120              	.LVL3:
 384:Drivers/STM32H7xx_HAL_Driver/Src/stm32h7xx_hal_flash.c ****          (procedure != FLASH_PROC_PROGRAM_BANK2))
 121              		.loc 1 384 52 view .LVU25
 122 002a E4B2     		uxtb	r4, r4
 123              	.LVL4:
 383:Drivers/STM32H7xx_HAL_Driver/Src/stm32h7xx_hal_flash.c ****          (procedure != FLASH_PROC_MASSERASE_BANK2) && \
 124              		.loc 1 383 9 view .LVU26
 125 002c 022C     		cmp	r4, #2
 126 002e 06D9     		bls	.L4
 387:Drivers/STM32H7xx_HAL_Driver/Src/stm32h7xx_hal_flash.c ****         /* Clear FLASH End of Operation pending bit */
 127              		.loc 1 387 9 is_stmt 1 view .LVU27
 387:Drivers/STM32H7xx_HAL_Driver/Src/stm32h7xx_hal_flash.c ****         /* Clear FLASH End of Operation pending bit */
 128              		.loc 1 387 33 is_stmt 0 view .LVU28
 129 0030 704B     		ldr	r3, .L32+4
 130 0032 0022     		movs	r2, #0
 131 0034 1A70     		strb	r2, [r3]
 389:Drivers/STM32H7xx_HAL_Driver/Src/stm32h7xx_hal_flash.c ****       }
 132              		.loc 1 389 9 is_stmt 1 view .LVU29
 133 0036 6E4B     		ldr	r3, .L32
ARM GAS  /tmp/ccDY5NB6.s 			page 14


 134 0038 4FF48032 		mov	r2, #65536
 135 003c 5A61     		str	r2, [r3, #20]
 136              	.L4:
 395:Drivers/STM32H7xx_HAL_Driver/Src/stm32h7xx_hal_flash.c ****   {
 137              		.loc 1 395 3 view .LVU30
 395:Drivers/STM32H7xx_HAL_Driver/Src/stm32h7xx_hal_flash.c ****   {
 138              		.loc 1 395 6 is_stmt 0 view .LVU31
 139 003e 6C4B     		ldr	r3, .L32
 140 0040 D3F81031 		ldr	r3, [r3, #272]
 395:Drivers/STM32H7xx_HAL_Driver/Src/stm32h7xx_hal_flash.c ****   {
 141              		.loc 1 395 5 view .LVU32
 142 0044 13F4803F 		tst	r3, #65536
 143 0048 19D0     		beq	.L9
 397:Drivers/STM32H7xx_HAL_Driver/Src/stm32h7xx_hal_flash.c ****     {
 144              		.loc 1 397 5 is_stmt 1 view .LVU33
 397:Drivers/STM32H7xx_HAL_Driver/Src/stm32h7xx_hal_flash.c ****     {
 145              		.loc 1 397 14 is_stmt 0 view .LVU34
 146 004a 6A4B     		ldr	r3, .L32+4
 147 004c 1B78     		ldrb	r3, [r3]	@ zero_extendqisi2
 148 004e DBB2     		uxtb	r3, r3
 397:Drivers/STM32H7xx_HAL_Driver/Src/stm32h7xx_hal_flash.c ****     {
 149              		.loc 1 397 7 view .LVU35
 150 0050 042B     		cmp	r3, #4
 151 0052 59D0     		beq	.L27
 432:Drivers/STM32H7xx_HAL_Driver/Src/stm32h7xx_hal_flash.c **** 
 152              		.loc 1 432 7 is_stmt 1 view .LVU36
 432:Drivers/STM32H7xx_HAL_Driver/Src/stm32h7xx_hal_flash.c **** 
 153              		.loc 1 432 17 is_stmt 0 view .LVU37
 154 0054 674B     		ldr	r3, .L32+4
 155 0056 1C78     		ldrb	r4, [r3]	@ zero_extendqisi2
 156 0058 E4B2     		uxtb	r4, r4
 157              	.LVL5:
 434:Drivers/STM32H7xx_HAL_Driver/Src/stm32h7xx_hal_flash.c ****       {
 158              		.loc 1 434 7 is_stmt 1 view .LVU38
 434:Drivers/STM32H7xx_HAL_Driver/Src/stm32h7xx_hal_flash.c ****       {
 159              		.loc 1 434 9 is_stmt 0 view .LVU39
 160 005a 072C     		cmp	r4, #7
 161 005c 18BF     		it	ne
 162 005e 052C     		cmpne	r4, #5
 163 0060 79D0     		beq	.L28
 440:Drivers/STM32H7xx_HAL_Driver/Src/stm32h7xx_hal_flash.c ****       {
 164              		.loc 1 440 12 is_stmt 1 view .LVU40
 440:Drivers/STM32H7xx_HAL_Driver/Src/stm32h7xx_hal_flash.c ****       {
 165              		.loc 1 440 14 is_stmt 0 view .LVU41
 166 0062 062C     		cmp	r4, #6
 167 0064 7BD0     		beq	.L29
 168              	.L13:
 449:Drivers/STM32H7xx_HAL_Driver/Src/stm32h7xx_hal_flash.c **** 
 169              		.loc 1 449 7 is_stmt 1 view .LVU42
 451:Drivers/STM32H7xx_HAL_Driver/Src/stm32h7xx_hal_flash.c ****          (procedure != FLASH_PROC_MASSERASE_BANK1) && \
 170              		.loc 1 451 7 view .LVU43
 452:Drivers/STM32H7xx_HAL_Driver/Src/stm32h7xx_hal_flash.c ****          (procedure != FLASH_PROC_PROGRAM_BANK1))
 171              		.loc 1 452 52 is_stmt 0 view .LVU44
 172 0066 013C     		subs	r4, r4, #1
 173              	.LVL6:
 452:Drivers/STM32H7xx_HAL_Driver/Src/stm32h7xx_hal_flash.c ****          (procedure != FLASH_PROC_PROGRAM_BANK1))
 174              		.loc 1 452 52 view .LVU45
ARM GAS  /tmp/ccDY5NB6.s 			page 15


 175 0068 E4B2     		uxtb	r4, r4
 176              	.LVL7:
 451:Drivers/STM32H7xx_HAL_Driver/Src/stm32h7xx_hal_flash.c ****          (procedure != FLASH_PROC_MASSERASE_BANK1) && \
 177              		.loc 1 451 9 view .LVU46
 178 006a 022C     		cmp	r4, #2
 179 006c 07D9     		bls	.L9
 455:Drivers/STM32H7xx_HAL_Driver/Src/stm32h7xx_hal_flash.c ****         /* Clear FLASH End of Operation pending bit */
 180              		.loc 1 455 9 is_stmt 1 view .LVU47
 455:Drivers/STM32H7xx_HAL_Driver/Src/stm32h7xx_hal_flash.c ****         /* Clear FLASH End of Operation pending bit */
 181              		.loc 1 455 33 is_stmt 0 view .LVU48
 182 006e 614B     		ldr	r3, .L32+4
 183 0070 0022     		movs	r2, #0
 184 0072 1A70     		strb	r2, [r3]
 457:Drivers/STM32H7xx_HAL_Driver/Src/stm32h7xx_hal_flash.c ****       }
 185              		.loc 1 457 9 is_stmt 1 view .LVU49
 186 0074 5E4B     		ldr	r3, .L32
 187 0076 4FF48032 		mov	r2, #65536
 188 007a C3F81421 		str	r2, [r3, #276]
 189              	.L9:
 463:Drivers/STM32H7xx_HAL_Driver/Src/stm32h7xx_hal_flash.c ****                             FLASH_FLAG_INCERR_BANK1 | FLASH_FLAG_OPERR_BANK1);
 190              		.loc 1 463 3 view .LVU50
 463:Drivers/STM32H7xx_HAL_Driver/Src/stm32h7xx_hal_flash.c ****                             FLASH_FLAG_INCERR_BANK1 | FLASH_FLAG_OPERR_BANK1);
 191              		.loc 1 463 20 is_stmt 0 view .LVU51
 192 007e 5C4B     		ldr	r3, .L32
 193 0080 1B69     		ldr	r3, [r3, #16]
 194              	.LVL8:
 466:Drivers/STM32H7xx_HAL_Driver/Src/stm32h7xx_hal_flash.c ****   {
 195              		.loc 1 466 3 is_stmt 1 view .LVU52
 466:Drivers/STM32H7xx_HAL_Driver/Src/stm32h7xx_hal_flash.c ****   {
 196              		.loc 1 466 5 is_stmt 0 view .LVU53
 197 0082 13F4DC03 		ands	r3, r3, #7208960
 198              	.LVL9:
 466:Drivers/STM32H7xx_HAL_Driver/Src/stm32h7xx_hal_flash.c ****   {
 199              		.loc 1 466 5 view .LVU54
 200 0086 79D0     		beq	.L14
 469:Drivers/STM32H7xx_HAL_Driver/Src/stm32h7xx_hal_flash.c **** 
 201              		.loc 1 469 5 is_stmt 1 view .LVU55
 469:Drivers/STM32H7xx_HAL_Driver/Src/stm32h7xx_hal_flash.c **** 
 202              		.loc 1 469 22 is_stmt 0 view .LVU56
 203 0088 5A4A     		ldr	r2, .L32+4
 204 008a 9169     		ldr	r1, [r2, #24]
 205 008c 1943     		orrs	r1, r1, r3
 206 008e 9161     		str	r1, [r2, #24]
 472:Drivers/STM32H7xx_HAL_Driver/Src/stm32h7xx_hal_flash.c **** 
 207              		.loc 1 472 5 is_stmt 1 view .LVU57
 208 0090 5749     		ldr	r1, .L32
 209 0092 4B61     		str	r3, [r1, #20]
 474:Drivers/STM32H7xx_HAL_Driver/Src/stm32h7xx_hal_flash.c **** 
 210              		.loc 1 474 5 view .LVU58
 474:Drivers/STM32H7xx_HAL_Driver/Src/stm32h7xx_hal_flash.c **** 
 211              		.loc 1 474 15 is_stmt 0 view .LVU59
 212 0094 1378     		ldrb	r3, [r2]	@ zero_extendqisi2
 213              	.LVL10:
 474:Drivers/STM32H7xx_HAL_Driver/Src/stm32h7xx_hal_flash.c **** 
 214              		.loc 1 474 15 view .LVU60
 215 0096 DBB2     		uxtb	r3, r3
 216              	.LVL11:
ARM GAS  /tmp/ccDY5NB6.s 			page 16


 476:Drivers/STM32H7xx_HAL_Driver/Src/stm32h7xx_hal_flash.c ****     {
 217              		.loc 1 476 5 is_stmt 1 view .LVU61
 476:Drivers/STM32H7xx_HAL_Driver/Src/stm32h7xx_hal_flash.c ****     {
 218              		.loc 1 476 7 is_stmt 0 view .LVU62
 219 0098 012B     		cmp	r3, #1
 220 009a 65D0     		beq	.L30
 482:Drivers/STM32H7xx_HAL_Driver/Src/stm32h7xx_hal_flash.c ****     {
 221              		.loc 1 482 10 is_stmt 1 view .LVU63
 482:Drivers/STM32H7xx_HAL_Driver/Src/stm32h7xx_hal_flash.c ****     {
 222              		.loc 1 482 12 is_stmt 0 view .LVU64
 223 009c 072B     		cmp	r3, #7
 224 009e 18BF     		it	ne
 225 00a0 022B     		cmpne	r3, #2
 226 00a2 00F08580 		beq	.L21
 490:Drivers/STM32H7xx_HAL_Driver/Src/stm32h7xx_hal_flash.c ****     }
 227              		.loc 1 490 7 is_stmt 1 view .LVU65
 490:Drivers/STM32H7xx_HAL_Driver/Src/stm32h7xx_hal_flash.c ****     }
 228              		.loc 1 490 12 is_stmt 0 view .LVU66
 229 00a6 534B     		ldr	r3, .L32+4
 230              	.LVL12:
 490:Drivers/STM32H7xx_HAL_Driver/Src/stm32h7xx_hal_flash.c ****     }
 231              		.loc 1 490 12 view .LVU67
 232 00a8 1869     		ldr	r0, [r3, #16]
 233              	.LVL13:
 490:Drivers/STM32H7xx_HAL_Driver/Src/stm32h7xx_hal_flash.c ****     }
 234              		.loc 1 490 12 view .LVU68
 235 00aa 62E0     		b	.L16
 236              	.LVL14:
 237              	.L24:
 332:Drivers/STM32H7xx_HAL_Driver/Src/stm32h7xx_hal_flash.c **** 
 238              		.loc 1 332 7 is_stmt 1 view .LVU69
 332:Drivers/STM32H7xx_HAL_Driver/Src/stm32h7xx_hal_flash.c **** 
 239              		.loc 1 332 13 is_stmt 0 view .LVU70
 240 00ac 514B     		ldr	r3, .L32+4
 241 00ae 5A68     		ldr	r2, [r3, #4]
 332:Drivers/STM32H7xx_HAL_Driver/Src/stm32h7xx_hal_flash.c **** 
 242              		.loc 1 332 30 view .LVU71
 243 00b0 013A     		subs	r2, r2, #1
 244 00b2 5A60     		str	r2, [r3, #4]
 335:Drivers/STM32H7xx_HAL_Driver/Src/stm32h7xx_hal_flash.c ****       {
 245              		.loc 1 335 7 is_stmt 1 view .LVU72
 335:Drivers/STM32H7xx_HAL_Driver/Src/stm32h7xx_hal_flash.c ****       {
 246              		.loc 1 335 16 is_stmt 0 view .LVU73
 247 00b4 5B68     		ldr	r3, [r3, #4]
 335:Drivers/STM32H7xx_HAL_Driver/Src/stm32h7xx_hal_flash.c ****       {
 248              		.loc 1 335 9 view .LVU74
 249 00b6 83B1     		cbz	r3, .L6
 338:Drivers/STM32H7xx_HAL_Driver/Src/stm32h7xx_hal_flash.c **** 
 250              		.loc 1 338 9 is_stmt 1 view .LVU75
 251 00b8 4E4C     		ldr	r4, .L32+4
 252 00ba E068     		ldr	r0, [r4, #12]
 253 00bc FFF7FEFF 		bl	HAL_FLASH_EndOfOperationCallback
 254              	.LVL15:
 341:Drivers/STM32H7xx_HAL_Driver/Src/stm32h7xx_hal_flash.c **** 
 255              		.loc 1 341 9 view .LVU76
 256 00c0 4B4B     		ldr	r3, .L32
 257 00c2 4FF48032 		mov	r2, #65536
ARM GAS  /tmp/ccDY5NB6.s 			page 17


 258 00c6 5A61     		str	r2, [r3, #20]
 344:Drivers/STM32H7xx_HAL_Driver/Src/stm32h7xx_hal_flash.c ****         temp = pFlash.Sector;
 259              		.loc 1 344 9 view .LVU77
 344:Drivers/STM32H7xx_HAL_Driver/Src/stm32h7xx_hal_flash.c ****         temp = pFlash.Sector;
 260              		.loc 1 344 15 is_stmt 0 view .LVU78
 261 00c8 E368     		ldr	r3, [r4, #12]
 344:Drivers/STM32H7xx_HAL_Driver/Src/stm32h7xx_hal_flash.c ****         temp = pFlash.Sector;
 262              		.loc 1 344 22 view .LVU79
 263 00ca 0133     		adds	r3, r3, #1
 264 00cc E360     		str	r3, [r4, #12]
 345:Drivers/STM32H7xx_HAL_Driver/Src/stm32h7xx_hal_flash.c ****         FLASH_Erase_Sector(temp, FLASH_BANK_1, pFlash.VoltageForErase);
 265              		.loc 1 345 9 is_stmt 1 view .LVU80
 345:Drivers/STM32H7xx_HAL_Driver/Src/stm32h7xx_hal_flash.c ****         FLASH_Erase_Sector(temp, FLASH_BANK_1, pFlash.VoltageForErase);
 266              		.loc 1 345 14 is_stmt 0 view .LVU81
 267 00ce E068     		ldr	r0, [r4, #12]
 268              	.LVL16:
 346:Drivers/STM32H7xx_HAL_Driver/Src/stm32h7xx_hal_flash.c ****       }
 269              		.loc 1 346 9 is_stmt 1 view .LVU82
 270 00d0 A268     		ldr	r2, [r4, #8]
 271 00d2 0121     		movs	r1, #1
 272 00d4 FFF7FEFF 		bl	FLASH_Erase_Sector
 273              	.LVL17:
 346:Drivers/STM32H7xx_HAL_Driver/Src/stm32h7xx_hal_flash.c ****       }
 274              		.loc 1 346 9 is_stmt 0 view .LVU83
 275 00d8 B1E7     		b	.L4
 276              	.L6:
 352:Drivers/STM32H7xx_HAL_Driver/Src/stm32h7xx_hal_flash.c ****         pFlash.ProcedureOnGoing = FLASH_PROC_NONE;
 277              		.loc 1 352 9 is_stmt 1 view .LVU84
 352:Drivers/STM32H7xx_HAL_Driver/Src/stm32h7xx_hal_flash.c ****         pFlash.ProcedureOnGoing = FLASH_PROC_NONE;
 278              		.loc 1 352 23 is_stmt 0 view .LVU85
 279 00da 464B     		ldr	r3, .L32+4
 280 00dc 4FF0FF32 		mov	r2, #-1
 281 00e0 DA60     		str	r2, [r3, #12]
 353:Drivers/STM32H7xx_HAL_Driver/Src/stm32h7xx_hal_flash.c **** 
 282              		.loc 1 353 9 is_stmt 1 view .LVU86
 353:Drivers/STM32H7xx_HAL_Driver/Src/stm32h7xx_hal_flash.c **** 
 283              		.loc 1 353 33 is_stmt 0 view .LVU87
 284 00e2 0022     		movs	r2, #0
 285 00e4 1A70     		strb	r2, [r3]
 356:Drivers/STM32H7xx_HAL_Driver/Src/stm32h7xx_hal_flash.c **** 
 286              		.loc 1 356 9 is_stmt 1 view .LVU88
 287 00e6 D868     		ldr	r0, [r3, #12]
 288 00e8 FFF7FEFF 		bl	HAL_FLASH_EndOfOperationCallback
 289              	.LVL18:
 359:Drivers/STM32H7xx_HAL_Driver/Src/stm32h7xx_hal_flash.c ****       }
 290              		.loc 1 359 9 view .LVU89
 291 00ec 404B     		ldr	r3, .L32
 292 00ee 4FF48032 		mov	r2, #65536
 293 00f2 5A61     		str	r2, [r3, #20]
 294 00f4 A3E7     		b	.L4
 295              	.LVL19:
 296              	.L25:
 370:Drivers/STM32H7xx_HAL_Driver/Src/stm32h7xx_hal_flash.c ****       }
 297              		.loc 1 370 9 view .LVU90
 298 00f6 0120     		movs	r0, #1
 299 00f8 FFF7FEFF 		bl	HAL_FLASH_EndOfOperationCallback
 300              	.LVL20:
ARM GAS  /tmp/ccDY5NB6.s 			page 18


 301 00fc 94E7     		b	.L8
 302              	.L26:
 376:Drivers/STM32H7xx_HAL_Driver/Src/stm32h7xx_hal_flash.c ****       }
 303              		.loc 1 376 9 view .LVU91
 304 00fe 3D4B     		ldr	r3, .L32+4
 305 0100 1869     		ldr	r0, [r3, #16]
 306 0102 FFF7FEFF 		bl	HAL_FLASH_EndOfOperationCallback
 307              	.LVL21:
 308 0106 8FE7     		b	.L8
 309              	.LVL22:
 310              	.L27:
 400:Drivers/STM32H7xx_HAL_Driver/Src/stm32h7xx_hal_flash.c **** 
 311              		.loc 1 400 7 view .LVU92
 400:Drivers/STM32H7xx_HAL_Driver/Src/stm32h7xx_hal_flash.c **** 
 312              		.loc 1 400 13 is_stmt 0 view .LVU93
 313 0108 3A4B     		ldr	r3, .L32+4
 314 010a 5A68     		ldr	r2, [r3, #4]
 400:Drivers/STM32H7xx_HAL_Driver/Src/stm32h7xx_hal_flash.c **** 
 315              		.loc 1 400 30 view .LVU94
 316 010c 013A     		subs	r2, r2, #1
 317 010e 5A60     		str	r2, [r3, #4]
 403:Drivers/STM32H7xx_HAL_Driver/Src/stm32h7xx_hal_flash.c ****       {
 318              		.loc 1 403 7 is_stmt 1 view .LVU95
 403:Drivers/STM32H7xx_HAL_Driver/Src/stm32h7xx_hal_flash.c ****       {
 319              		.loc 1 403 16 is_stmt 0 view .LVU96
 320 0110 5B68     		ldr	r3, [r3, #4]
 403:Drivers/STM32H7xx_HAL_Driver/Src/stm32h7xx_hal_flash.c ****       {
 321              		.loc 1 403 9 view .LVU97
 322 0112 8BB1     		cbz	r3, .L11
 406:Drivers/STM32H7xx_HAL_Driver/Src/stm32h7xx_hal_flash.c **** 
 323              		.loc 1 406 9 is_stmt 1 view .LVU98
 324 0114 374C     		ldr	r4, .L32+4
 325 0116 E068     		ldr	r0, [r4, #12]
 326 0118 FFF7FEFF 		bl	HAL_FLASH_EndOfOperationCallback
 327              	.LVL23:
 409:Drivers/STM32H7xx_HAL_Driver/Src/stm32h7xx_hal_flash.c **** 
 328              		.loc 1 409 9 view .LVU99
 329 011c 344B     		ldr	r3, .L32
 330 011e 4FF48032 		mov	r2, #65536
 331 0122 C3F81421 		str	r2, [r3, #276]
 412:Drivers/STM32H7xx_HAL_Driver/Src/stm32h7xx_hal_flash.c ****         temp = pFlash.Sector;
 332              		.loc 1 412 9 view .LVU100
 412:Drivers/STM32H7xx_HAL_Driver/Src/stm32h7xx_hal_flash.c ****         temp = pFlash.Sector;
 333              		.loc 1 412 15 is_stmt 0 view .LVU101
 334 0126 E368     		ldr	r3, [r4, #12]
 412:Drivers/STM32H7xx_HAL_Driver/Src/stm32h7xx_hal_flash.c ****         temp = pFlash.Sector;
 335              		.loc 1 412 22 view .LVU102
 336 0128 0133     		adds	r3, r3, #1
 337 012a E360     		str	r3, [r4, #12]
 413:Drivers/STM32H7xx_HAL_Driver/Src/stm32h7xx_hal_flash.c ****         FLASH_Erase_Sector(temp, FLASH_BANK_2, pFlash.VoltageForErase);
 338              		.loc 1 413 9 is_stmt 1 view .LVU103
 413:Drivers/STM32H7xx_HAL_Driver/Src/stm32h7xx_hal_flash.c ****         FLASH_Erase_Sector(temp, FLASH_BANK_2, pFlash.VoltageForErase);
 339              		.loc 1 413 14 is_stmt 0 view .LVU104
 340 012c E068     		ldr	r0, [r4, #12]
 341              	.LVL24:
 414:Drivers/STM32H7xx_HAL_Driver/Src/stm32h7xx_hal_flash.c ****       }
 342              		.loc 1 414 9 is_stmt 1 view .LVU105
ARM GAS  /tmp/ccDY5NB6.s 			page 19


 343 012e A268     		ldr	r2, [r4, #8]
 344 0130 0221     		movs	r1, #2
 345 0132 FFF7FEFF 		bl	FLASH_Erase_Sector
 346              	.LVL25:
 414:Drivers/STM32H7xx_HAL_Driver/Src/stm32h7xx_hal_flash.c ****       }
 347              		.loc 1 414 9 is_stmt 0 view .LVU106
 348 0136 A2E7     		b	.L9
 349              	.L11:
 420:Drivers/STM32H7xx_HAL_Driver/Src/stm32h7xx_hal_flash.c ****         pFlash.ProcedureOnGoing = FLASH_PROC_NONE;
 350              		.loc 1 420 9 is_stmt 1 view .LVU107
 420:Drivers/STM32H7xx_HAL_Driver/Src/stm32h7xx_hal_flash.c ****         pFlash.ProcedureOnGoing = FLASH_PROC_NONE;
 351              		.loc 1 420 23 is_stmt 0 view .LVU108
 352 0138 2E4B     		ldr	r3, .L32+4
 353 013a 4FF0FF32 		mov	r2, #-1
 354 013e DA60     		str	r2, [r3, #12]
 421:Drivers/STM32H7xx_HAL_Driver/Src/stm32h7xx_hal_flash.c **** 
 355              		.loc 1 421 9 is_stmt 1 view .LVU109
 421:Drivers/STM32H7xx_HAL_Driver/Src/stm32h7xx_hal_flash.c **** 
 356              		.loc 1 421 33 is_stmt 0 view .LVU110
 357 0140 0022     		movs	r2, #0
 358 0142 1A70     		strb	r2, [r3]
 424:Drivers/STM32H7xx_HAL_Driver/Src/stm32h7xx_hal_flash.c **** 
 359              		.loc 1 424 9 is_stmt 1 view .LVU111
 360 0144 D868     		ldr	r0, [r3, #12]
 361 0146 FFF7FEFF 		bl	HAL_FLASH_EndOfOperationCallback
 362              	.LVL26:
 427:Drivers/STM32H7xx_HAL_Driver/Src/stm32h7xx_hal_flash.c ****       }
 363              		.loc 1 427 9 view .LVU112
 364 014a 294B     		ldr	r3, .L32
 365 014c 4FF48032 		mov	r2, #65536
 366 0150 C3F81421 		str	r2, [r3, #276]
 367 0154 93E7     		b	.L9
 368              	.LVL27:
 369              	.L28:
 438:Drivers/STM32H7xx_HAL_Driver/Src/stm32h7xx_hal_flash.c ****       }
 370              		.loc 1 438 9 view .LVU113
 371 0156 0220     		movs	r0, #2
 372 0158 FFF7FEFF 		bl	HAL_FLASH_EndOfOperationCallback
 373              	.LVL28:
 374 015c 83E7     		b	.L13
 375              	.L29:
 444:Drivers/STM32H7xx_HAL_Driver/Src/stm32h7xx_hal_flash.c ****       }
 376              		.loc 1 444 9 view .LVU114
 377 015e 254B     		ldr	r3, .L32+4
 378 0160 1869     		ldr	r0, [r3, #16]
 379 0162 FFF7FEFF 		bl	HAL_FLASH_EndOfOperationCallback
 380              	.LVL29:
 381 0166 7EE7     		b	.L13
 382              	.LVL30:
 383              	.L30:
 479:Drivers/STM32H7xx_HAL_Driver/Src/stm32h7xx_hal_flash.c ****       pFlash.Sector = 0xFFFFFFFFU;
 384              		.loc 1 479 7 view .LVU115
 479:Drivers/STM32H7xx_HAL_Driver/Src/stm32h7xx_hal_flash.c ****       pFlash.Sector = 0xFFFFFFFFU;
 385              		.loc 1 479 12 is_stmt 0 view .LVU116
 386 0168 1346     		mov	r3, r2
 387              	.LVL31:
 479:Drivers/STM32H7xx_HAL_Driver/Src/stm32h7xx_hal_flash.c ****       pFlash.Sector = 0xFFFFFFFFU;
ARM GAS  /tmp/ccDY5NB6.s 			page 20


 388              		.loc 1 479 12 view .LVU117
 389 016a D068     		ldr	r0, [r2, #12]
 390              	.LVL32:
 480:Drivers/STM32H7xx_HAL_Driver/Src/stm32h7xx_hal_flash.c ****     }
 391              		.loc 1 480 7 is_stmt 1 view .LVU118
 480:Drivers/STM32H7xx_HAL_Driver/Src/stm32h7xx_hal_flash.c ****     }
 392              		.loc 1 480 21 is_stmt 0 view .LVU119
 393 016c 4FF0FF32 		mov	r2, #-1
 480:Drivers/STM32H7xx_HAL_Driver/Src/stm32h7xx_hal_flash.c ****     }
 394              		.loc 1 480 21 view .LVU120
 395 0170 DA60     		str	r2, [r3, #12]
 396              	.LVL33:
 397              	.L16:
 494:Drivers/STM32H7xx_HAL_Driver/Src/stm32h7xx_hal_flash.c **** 
 398              		.loc 1 494 5 is_stmt 1 view .LVU121
 494:Drivers/STM32H7xx_HAL_Driver/Src/stm32h7xx_hal_flash.c **** 
 399              		.loc 1 494 29 is_stmt 0 view .LVU122
 400 0172 204B     		ldr	r3, .L32+4
 494:Drivers/STM32H7xx_HAL_Driver/Src/stm32h7xx_hal_flash.c **** 
 401              		.loc 1 494 29 view .LVU123
 402 0174 0022     		movs	r2, #0
 403 0176 1A70     		strb	r2, [r3]
 404              	.LVL34:
 497:Drivers/STM32H7xx_HAL_Driver/Src/stm32h7xx_hal_flash.c ****   }
 405              		.loc 1 497 5 is_stmt 1 view .LVU124
 406 0178 FFF7FEFF 		bl	HAL_FLASH_OperationErrorCallback
 407              	.LVL35:
 408              	.L14:
 501:Drivers/STM32H7xx_HAL_Driver/Src/stm32h7xx_hal_flash.c ****                              FLASH_FLAG_INCERR_BANK2 | FLASH_FLAG_OPERR_BANK2) & 0x7FFFFFFFU);
 409              		.loc 1 501 3 view .LVU125
 501:Drivers/STM32H7xx_HAL_Driver/Src/stm32h7xx_hal_flash.c ****                              FLASH_FLAG_INCERR_BANK2 | FLASH_FLAG_OPERR_BANK2) & 0x7FFFFFFFU);
 410              		.loc 1 501 20 is_stmt 0 view .LVU126
 411 017c 1C4B     		ldr	r3, .L32
 412 017e D3F81031 		ldr	r3, [r3, #272]
 413              	.LVL36:
 505:Drivers/STM32H7xx_HAL_Driver/Src/stm32h7xx_hal_flash.c ****   {
 414              		.loc 1 505 3 is_stmt 1 view .LVU127
 505:Drivers/STM32H7xx_HAL_Driver/Src/stm32h7xx_hal_flash.c ****   {
 415              		.loc 1 505 5 is_stmt 0 view .LVU128
 416 0182 13F4DC03 		ands	r3, r3, #7208960
 417              	.LVL37:
 505:Drivers/STM32H7xx_HAL_Driver/Src/stm32h7xx_hal_flash.c ****   {
 418              		.loc 1 505 5 view .LVU129
 419 0186 1ED0     		beq	.L17
 508:Drivers/STM32H7xx_HAL_Driver/Src/stm32h7xx_hal_flash.c **** 
 420              		.loc 1 508 5 is_stmt 1 view .LVU130
 508:Drivers/STM32H7xx_HAL_Driver/Src/stm32h7xx_hal_flash.c **** 
 421              		.loc 1 508 22 is_stmt 0 view .LVU131
 422 0188 1A49     		ldr	r1, .L32+4
 423 018a 8A69     		ldr	r2, [r1, #24]
 424 018c 1A43     		orrs	r2, r2, r3
 425 018e 42F00042 		orr	r2, r2, #-2147483648
 426 0192 8A61     		str	r2, [r1, #24]
 511:Drivers/STM32H7xx_HAL_Driver/Src/stm32h7xx_hal_flash.c **** 
 427              		.loc 1 511 5 is_stmt 1 view .LVU132
 428 0194 164A     		ldr	r2, .L32
 429 0196 C2F81431 		str	r3, [r2, #276]
ARM GAS  /tmp/ccDY5NB6.s 			page 21


 513:Drivers/STM32H7xx_HAL_Driver/Src/stm32h7xx_hal_flash.c **** 
 430              		.loc 1 513 5 view .LVU133
 513:Drivers/STM32H7xx_HAL_Driver/Src/stm32h7xx_hal_flash.c **** 
 431              		.loc 1 513 15 is_stmt 0 view .LVU134
 432 019a 0B78     		ldrb	r3, [r1]	@ zero_extendqisi2
 433              	.LVL38:
 513:Drivers/STM32H7xx_HAL_Driver/Src/stm32h7xx_hal_flash.c **** 
 434              		.loc 1 513 15 view .LVU135
 435 019c DBB2     		uxtb	r3, r3
 436              	.LVL39:
 515:Drivers/STM32H7xx_HAL_Driver/Src/stm32h7xx_hal_flash.c ****     {
 437              		.loc 1 515 5 is_stmt 1 view .LVU136
 515:Drivers/STM32H7xx_HAL_Driver/Src/stm32h7xx_hal_flash.c ****     {
 438              		.loc 1 515 7 is_stmt 0 view .LVU137
 439 019e 042B     		cmp	r3, #4
 440 01a0 08D0     		beq	.L31
 521:Drivers/STM32H7xx_HAL_Driver/Src/stm32h7xx_hal_flash.c ****     {
 441              		.loc 1 521 10 is_stmt 1 view .LVU138
 521:Drivers/STM32H7xx_HAL_Driver/Src/stm32h7xx_hal_flash.c ****     {
 442              		.loc 1 521 12 is_stmt 0 view .LVU139
 443 01a2 072B     		cmp	r3, #7
 444 01a4 18BF     		it	ne
 445 01a6 052B     		cmpne	r3, #5
 446 01a8 1FD0     		beq	.L22
 529:Drivers/STM32H7xx_HAL_Driver/Src/stm32h7xx_hal_flash.c ****     }
 447              		.loc 1 529 7 is_stmt 1 view .LVU140
 529:Drivers/STM32H7xx_HAL_Driver/Src/stm32h7xx_hal_flash.c ****     }
 448              		.loc 1 529 12 is_stmt 0 view .LVU141
 449 01aa 124B     		ldr	r3, .L32+4
 450              	.LVL40:
 529:Drivers/STM32H7xx_HAL_Driver/Src/stm32h7xx_hal_flash.c ****     }
 451              		.loc 1 529 12 view .LVU142
 452 01ac 1869     		ldr	r0, [r3, #16]
 453              	.LVL41:
 529:Drivers/STM32H7xx_HAL_Driver/Src/stm32h7xx_hal_flash.c ****     }
 454              		.loc 1 529 12 view .LVU143
 455 01ae 05E0     		b	.L19
 456              	.LVL42:
 457              	.L21:
 485:Drivers/STM32H7xx_HAL_Driver/Src/stm32h7xx_hal_flash.c ****     }
 458              		.loc 1 485 12 view .LVU144
 459 01b0 0120     		movs	r0, #1
 460 01b2 DEE7     		b	.L16
 461              	.LVL43:
 462              	.L31:
 518:Drivers/STM32H7xx_HAL_Driver/Src/stm32h7xx_hal_flash.c ****       pFlash.Sector = 0xFFFFFFFFU;
 463              		.loc 1 518 7 is_stmt 1 view .LVU145
 518:Drivers/STM32H7xx_HAL_Driver/Src/stm32h7xx_hal_flash.c ****       pFlash.Sector = 0xFFFFFFFFU;
 464              		.loc 1 518 12 is_stmt 0 view .LVU146
 465 01b4 C868     		ldr	r0, [r1, #12]
 466              	.LVL44:
 519:Drivers/STM32H7xx_HAL_Driver/Src/stm32h7xx_hal_flash.c ****     }
 467              		.loc 1 519 7 is_stmt 1 view .LVU147
 519:Drivers/STM32H7xx_HAL_Driver/Src/stm32h7xx_hal_flash.c ****     }
 468              		.loc 1 519 21 is_stmt 0 view .LVU148
 469 01b6 4FF0FF32 		mov	r2, #-1
 470              	.LVL45:
ARM GAS  /tmp/ccDY5NB6.s 			page 22


 519:Drivers/STM32H7xx_HAL_Driver/Src/stm32h7xx_hal_flash.c ****     }
 471              		.loc 1 519 21 view .LVU149
 472 01ba CA60     		str	r2, [r1, #12]
 473              	.LVL46:
 474              	.L19:
 533:Drivers/STM32H7xx_HAL_Driver/Src/stm32h7xx_hal_flash.c **** 
 475              		.loc 1 533 5 is_stmt 1 view .LVU150
 533:Drivers/STM32H7xx_HAL_Driver/Src/stm32h7xx_hal_flash.c **** 
 476              		.loc 1 533 29 is_stmt 0 view .LVU151
 477 01bc 0D4B     		ldr	r3, .L32+4
 478 01be 0022     		movs	r2, #0
 479 01c0 1A70     		strb	r2, [r3]
 480              	.LVL47:
 536:Drivers/STM32H7xx_HAL_Driver/Src/stm32h7xx_hal_flash.c ****   }
 481              		.loc 1 536 5 is_stmt 1 view .LVU152
 482 01c2 FFF7FEFF 		bl	HAL_FLASH_OperationErrorCallback
 483              	.LVL48:
 484              	.L17:
 539:Drivers/STM32H7xx_HAL_Driver/Src/stm32h7xx_hal_flash.c ****   {
 485              		.loc 1 539 3 view .LVU153
 539:Drivers/STM32H7xx_HAL_Driver/Src/stm32h7xx_hal_flash.c ****   {
 486              		.loc 1 539 12 is_stmt 0 view .LVU154
 487 01c6 0B4B     		ldr	r3, .L32+4
 488 01c8 1B78     		ldrb	r3, [r3]	@ zero_extendqisi2
 539:Drivers/STM32H7xx_HAL_Driver/Src/stm32h7xx_hal_flash.c ****   {
 489              		.loc 1 539 5 view .LVU155
 490 01ca 6BB9     		cbnz	r3, .L3
 542:Drivers/STM32H7xx_HAL_Driver/Src/stm32h7xx_hal_flash.c ****                                  FLASH_IT_STRBERR_BANK1 | FLASH_IT_INCERR_BANK1 | FLASH_IT_OPERR_BA
 491              		.loc 1 542 5 is_stmt 1 view .LVU156
 492 01cc 084B     		ldr	r3, .L32
 493 01ce DA68     		ldr	r2, [r3, #12]
 494 01d0 22F4DE02 		bic	r2, r2, #7274496
 495 01d4 DA60     		str	r2, [r3, #12]
 546:Drivers/STM32H7xx_HAL_Driver/Src/stm32h7xx_hal_flash.c ****                                  FLASH_IT_STRBERR_BANK2 | FLASH_IT_INCERR_BANK2 | FLASH_IT_OPERR_BA
 496              		.loc 1 546 5 view .LVU157
 497 01d6 D3F80C21 		ldr	r2, [r3, #268]
 498 01da 22F4DE02 		bic	r2, r2, #7274496
 499 01de C3F80C21 		str	r2, [r3, #268]
 550:Drivers/STM32H7xx_HAL_Driver/Src/stm32h7xx_hal_flash.c ****   }
 500              		.loc 1 550 5 view .LVU158
 550:Drivers/STM32H7xx_HAL_Driver/Src/stm32h7xx_hal_flash.c ****   }
 501              		.loc 1 550 5 view .LVU159
 502 01e2 044B     		ldr	r3, .L32+4
 503 01e4 0022     		movs	r2, #0
 504 01e6 1A75     		strb	r2, [r3, #20]
 505              	.L3:
 552:Drivers/STM32H7xx_HAL_Driver/Src/stm32h7xx_hal_flash.c **** 
 506              		.loc 1 552 1 is_stmt 0 view .LVU160
 507 01e8 10BD     		pop	{r4, pc}
 508              	.LVL49:
 509              	.L22:
 524:Drivers/STM32H7xx_HAL_Driver/Src/stm32h7xx_hal_flash.c ****     }
 510              		.loc 1 524 12 view .LVU161
 511 01ea 0220     		movs	r0, #2
 512 01ec E6E7     		b	.L19
 513              	.L33:
 514 01ee 00BF     		.align	2
ARM GAS  /tmp/ccDY5NB6.s 			page 23


 515              	.L32:
 516 01f0 00200052 		.word	1375739904
 517 01f4 00000000 		.word	pFlash
 518              		.cfi_endproc
 519              	.LFE143:
 521              		.section	.text.HAL_FLASH_Unlock,"ax",%progbits
 522              		.align	1
 523              		.global	HAL_FLASH_Unlock
 524              		.syntax unified
 525              		.thumb
 526              		.thumb_func
 527              		.fpu fpv5-d16
 529              	HAL_FLASH_Unlock:
 530              	.LFB146:
 590:Drivers/STM32H7xx_HAL_Driver/Src/stm32h7xx_hal_flash.c **** 
 591:Drivers/STM32H7xx_HAL_Driver/Src/stm32h7xx_hal_flash.c **** /**
 592:Drivers/STM32H7xx_HAL_Driver/Src/stm32h7xx_hal_flash.c ****   * @}
 593:Drivers/STM32H7xx_HAL_Driver/Src/stm32h7xx_hal_flash.c ****   */
 594:Drivers/STM32H7xx_HAL_Driver/Src/stm32h7xx_hal_flash.c **** 
 595:Drivers/STM32H7xx_HAL_Driver/Src/stm32h7xx_hal_flash.c **** /** @defgroup FLASH_Exported_Functions_Group2 Peripheral Control functions
 596:Drivers/STM32H7xx_HAL_Driver/Src/stm32h7xx_hal_flash.c ****  *  @brief   Management functions
 597:Drivers/STM32H7xx_HAL_Driver/Src/stm32h7xx_hal_flash.c ****  *
 598:Drivers/STM32H7xx_HAL_Driver/Src/stm32h7xx_hal_flash.c **** @verbatim
 599:Drivers/STM32H7xx_HAL_Driver/Src/stm32h7xx_hal_flash.c ****  ===============================================================================
 600:Drivers/STM32H7xx_HAL_Driver/Src/stm32h7xx_hal_flash.c ****                       ##### Peripheral Control functions #####
 601:Drivers/STM32H7xx_HAL_Driver/Src/stm32h7xx_hal_flash.c ****  ===============================================================================
 602:Drivers/STM32H7xx_HAL_Driver/Src/stm32h7xx_hal_flash.c ****     [..]
 603:Drivers/STM32H7xx_HAL_Driver/Src/stm32h7xx_hal_flash.c ****     This subsection provides a set of functions allowing to control the FLASH
 604:Drivers/STM32H7xx_HAL_Driver/Src/stm32h7xx_hal_flash.c ****     memory operations.
 605:Drivers/STM32H7xx_HAL_Driver/Src/stm32h7xx_hal_flash.c **** 
 606:Drivers/STM32H7xx_HAL_Driver/Src/stm32h7xx_hal_flash.c **** @endverbatim
 607:Drivers/STM32H7xx_HAL_Driver/Src/stm32h7xx_hal_flash.c ****   * @{
 608:Drivers/STM32H7xx_HAL_Driver/Src/stm32h7xx_hal_flash.c ****   */
 609:Drivers/STM32H7xx_HAL_Driver/Src/stm32h7xx_hal_flash.c **** 
 610:Drivers/STM32H7xx_HAL_Driver/Src/stm32h7xx_hal_flash.c **** /**
 611:Drivers/STM32H7xx_HAL_Driver/Src/stm32h7xx_hal_flash.c ****   * @brief  Unlock the FLASH control registers access
 612:Drivers/STM32H7xx_HAL_Driver/Src/stm32h7xx_hal_flash.c ****   * @retval HAL Status
 613:Drivers/STM32H7xx_HAL_Driver/Src/stm32h7xx_hal_flash.c ****   */
 614:Drivers/STM32H7xx_HAL_Driver/Src/stm32h7xx_hal_flash.c **** HAL_StatusTypeDef HAL_FLASH_Unlock(void)
 615:Drivers/STM32H7xx_HAL_Driver/Src/stm32h7xx_hal_flash.c **** {
 531              		.loc 1 615 1 is_stmt 1 view -0
 532              		.cfi_startproc
 533              		@ args = 0, pretend = 0, frame = 0
 534              		@ frame_needed = 0, uses_anonymous_args = 0
 535              		@ link register save eliminated.
 616:Drivers/STM32H7xx_HAL_Driver/Src/stm32h7xx_hal_flash.c ****   if(READ_BIT(FLASH->CR1, FLASH_CR_LOCK) != 0U)
 536              		.loc 1 616 3 view .LVU163
 537              		.loc 1 616 6 is_stmt 0 view .LVU164
 538 0000 144B     		ldr	r3, .L40
 539 0002 DB68     		ldr	r3, [r3, #12]
 540              		.loc 1 616 5 view .LVU165
 541 0004 13F0010F 		tst	r3, #1
 542 0008 09D0     		beq	.L35
 617:Drivers/STM32H7xx_HAL_Driver/Src/stm32h7xx_hal_flash.c ****   {
 618:Drivers/STM32H7xx_HAL_Driver/Src/stm32h7xx_hal_flash.c ****     /* Authorize the FLASH Bank1 Registers access */
 619:Drivers/STM32H7xx_HAL_Driver/Src/stm32h7xx_hal_flash.c ****     WRITE_REG(FLASH->KEYR1, FLASH_KEY1);
 543              		.loc 1 619 5 is_stmt 1 view .LVU166
ARM GAS  /tmp/ccDY5NB6.s 			page 24


 544 000a 124B     		ldr	r3, .L40
 545 000c 124A     		ldr	r2, .L40+4
 546 000e 5A60     		str	r2, [r3, #4]
 620:Drivers/STM32H7xx_HAL_Driver/Src/stm32h7xx_hal_flash.c ****     WRITE_REG(FLASH->KEYR1, FLASH_KEY2);
 547              		.loc 1 620 5 view .LVU167
 548 0010 02F18832 		add	r2, r2, #-2004318072
 549 0014 5A60     		str	r2, [r3, #4]
 621:Drivers/STM32H7xx_HAL_Driver/Src/stm32h7xx_hal_flash.c **** 
 622:Drivers/STM32H7xx_HAL_Driver/Src/stm32h7xx_hal_flash.c ****     /* Verify Flash Bank1 is unlocked */
 623:Drivers/STM32H7xx_HAL_Driver/Src/stm32h7xx_hal_flash.c ****     if (READ_BIT(FLASH->CR1, FLASH_CR_LOCK) != 0U)
 550              		.loc 1 623 5 view .LVU168
 551              		.loc 1 623 9 is_stmt 0 view .LVU169
 552 0016 DB68     		ldr	r3, [r3, #12]
 553              		.loc 1 623 8 view .LVU170
 554 0018 13F0010F 		tst	r3, #1
 555 001c 14D1     		bne	.L37
 556              	.L35:
 624:Drivers/STM32H7xx_HAL_Driver/Src/stm32h7xx_hal_flash.c ****     {
 625:Drivers/STM32H7xx_HAL_Driver/Src/stm32h7xx_hal_flash.c ****       return HAL_ERROR;
 626:Drivers/STM32H7xx_HAL_Driver/Src/stm32h7xx_hal_flash.c ****     }
 627:Drivers/STM32H7xx_HAL_Driver/Src/stm32h7xx_hal_flash.c ****   }
 628:Drivers/STM32H7xx_HAL_Driver/Src/stm32h7xx_hal_flash.c **** 
 629:Drivers/STM32H7xx_HAL_Driver/Src/stm32h7xx_hal_flash.c ****   if(READ_BIT(FLASH->CR2, FLASH_CR_LOCK) != 0U)
 557              		.loc 1 629 3 is_stmt 1 view .LVU171
 558              		.loc 1 629 6 is_stmt 0 view .LVU172
 559 001e 0D4B     		ldr	r3, .L40
 560 0020 D3F80C31 		ldr	r3, [r3, #268]
 561              		.loc 1 629 5 view .LVU173
 562 0024 13F0010F 		tst	r3, #1
 563 0028 10D0     		beq	.L38
 630:Drivers/STM32H7xx_HAL_Driver/Src/stm32h7xx_hal_flash.c ****   {
 631:Drivers/STM32H7xx_HAL_Driver/Src/stm32h7xx_hal_flash.c ****     /* Authorize the FLASH Bank2 Registers access */
 632:Drivers/STM32H7xx_HAL_Driver/Src/stm32h7xx_hal_flash.c ****     WRITE_REG(FLASH->KEYR2, FLASH_KEY1);
 564              		.loc 1 632 5 is_stmt 1 view .LVU174
 565 002a 0A4B     		ldr	r3, .L40
 566 002c 0A4A     		ldr	r2, .L40+4
 567 002e C3F80421 		str	r2, [r3, #260]
 633:Drivers/STM32H7xx_HAL_Driver/Src/stm32h7xx_hal_flash.c ****     WRITE_REG(FLASH->KEYR2, FLASH_KEY2);
 568              		.loc 1 633 5 view .LVU175
 569 0032 02F18832 		add	r2, r2, #-2004318072
 570 0036 C3F80421 		str	r2, [r3, #260]
 634:Drivers/STM32H7xx_HAL_Driver/Src/stm32h7xx_hal_flash.c **** 
 635:Drivers/STM32H7xx_HAL_Driver/Src/stm32h7xx_hal_flash.c ****     /* Verify Flash Bank2 is unlocked */
 636:Drivers/STM32H7xx_HAL_Driver/Src/stm32h7xx_hal_flash.c ****     if (READ_BIT(FLASH->CR2, FLASH_CR_LOCK) != 0U)
 571              		.loc 1 636 5 view .LVU176
 572              		.loc 1 636 9 is_stmt 0 view .LVU177
 573 003a D3F80C31 		ldr	r3, [r3, #268]
 574              		.loc 1 636 8 view .LVU178
 575 003e 13F0010F 		tst	r3, #1
 576 0042 05D1     		bne	.L39
 637:Drivers/STM32H7xx_HAL_Driver/Src/stm32h7xx_hal_flash.c ****     {
 638:Drivers/STM32H7xx_HAL_Driver/Src/stm32h7xx_hal_flash.c ****       return HAL_ERROR;
 639:Drivers/STM32H7xx_HAL_Driver/Src/stm32h7xx_hal_flash.c ****     }
 640:Drivers/STM32H7xx_HAL_Driver/Src/stm32h7xx_hal_flash.c ****   }
 641:Drivers/STM32H7xx_HAL_Driver/Src/stm32h7xx_hal_flash.c **** 
 642:Drivers/STM32H7xx_HAL_Driver/Src/stm32h7xx_hal_flash.c ****   return HAL_OK;
 577              		.loc 1 642 10 view .LVU179
ARM GAS  /tmp/ccDY5NB6.s 			page 25


 578 0044 0020     		movs	r0, #0
 579 0046 7047     		bx	lr
 580              	.L37:
 625:Drivers/STM32H7xx_HAL_Driver/Src/stm32h7xx_hal_flash.c ****     }
 581              		.loc 1 625 14 view .LVU180
 582 0048 0120     		movs	r0, #1
 583 004a 7047     		bx	lr
 584              	.L38:
 585              		.loc 1 642 10 view .LVU181
 586 004c 0020     		movs	r0, #0
 587 004e 7047     		bx	lr
 588              	.L39:
 638:Drivers/STM32H7xx_HAL_Driver/Src/stm32h7xx_hal_flash.c ****     }
 589              		.loc 1 638 14 view .LVU182
 590 0050 0120     		movs	r0, #1
 643:Drivers/STM32H7xx_HAL_Driver/Src/stm32h7xx_hal_flash.c **** }
 591              		.loc 1 643 1 view .LVU183
 592 0052 7047     		bx	lr
 593              	.L41:
 594              		.align	2
 595              	.L40:
 596 0054 00200052 		.word	1375739904
 597 0058 23016745 		.word	1164378403
 598              		.cfi_endproc
 599              	.LFE146:
 601              		.section	.text.HAL_FLASH_Lock,"ax",%progbits
 602              		.align	1
 603              		.global	HAL_FLASH_Lock
 604              		.syntax unified
 605              		.thumb
 606              		.thumb_func
 607              		.fpu fpv5-d16
 609              	HAL_FLASH_Lock:
 610              	.LFB147:
 644:Drivers/STM32H7xx_HAL_Driver/Src/stm32h7xx_hal_flash.c **** 
 645:Drivers/STM32H7xx_HAL_Driver/Src/stm32h7xx_hal_flash.c **** /**
 646:Drivers/STM32H7xx_HAL_Driver/Src/stm32h7xx_hal_flash.c ****   * @brief  Locks the FLASH control registers access
 647:Drivers/STM32H7xx_HAL_Driver/Src/stm32h7xx_hal_flash.c ****   * @retval HAL Status
 648:Drivers/STM32H7xx_HAL_Driver/Src/stm32h7xx_hal_flash.c ****   */
 649:Drivers/STM32H7xx_HAL_Driver/Src/stm32h7xx_hal_flash.c **** HAL_StatusTypeDef HAL_FLASH_Lock(void)
 650:Drivers/STM32H7xx_HAL_Driver/Src/stm32h7xx_hal_flash.c **** {
 611              		.loc 1 650 1 is_stmt 1 view -0
 612              		.cfi_startproc
 613              		@ args = 0, pretend = 0, frame = 0
 614              		@ frame_needed = 0, uses_anonymous_args = 0
 615              		@ link register save eliminated.
 651:Drivers/STM32H7xx_HAL_Driver/Src/stm32h7xx_hal_flash.c ****   /* Set the LOCK Bit to lock the FLASH Bank1 Control Register access */
 652:Drivers/STM32H7xx_HAL_Driver/Src/stm32h7xx_hal_flash.c ****   SET_BIT(FLASH->CR1, FLASH_CR_LOCK);
 616              		.loc 1 652 3 view .LVU185
 617 0000 0D4B     		ldr	r3, .L46
 618 0002 DA68     		ldr	r2, [r3, #12]
 619 0004 42F00102 		orr	r2, r2, #1
 620 0008 DA60     		str	r2, [r3, #12]
 653:Drivers/STM32H7xx_HAL_Driver/Src/stm32h7xx_hal_flash.c **** 
 654:Drivers/STM32H7xx_HAL_Driver/Src/stm32h7xx_hal_flash.c ****   /* Verify Flash Bank1 is locked */
 655:Drivers/STM32H7xx_HAL_Driver/Src/stm32h7xx_hal_flash.c ****   if (READ_BIT(FLASH->CR1, FLASH_CR_LOCK) == 0U)
 621              		.loc 1 655 3 view .LVU186
ARM GAS  /tmp/ccDY5NB6.s 			page 26


 622              		.loc 1 655 7 is_stmt 0 view .LVU187
 623 000a DB68     		ldr	r3, [r3, #12]
 624              		.loc 1 655 6 view .LVU188
 625 000c 13F0010F 		tst	r3, #1
 626 0010 0DD0     		beq	.L44
 656:Drivers/STM32H7xx_HAL_Driver/Src/stm32h7xx_hal_flash.c ****   {
 657:Drivers/STM32H7xx_HAL_Driver/Src/stm32h7xx_hal_flash.c ****     return HAL_ERROR;
 658:Drivers/STM32H7xx_HAL_Driver/Src/stm32h7xx_hal_flash.c ****   }
 659:Drivers/STM32H7xx_HAL_Driver/Src/stm32h7xx_hal_flash.c **** 
 660:Drivers/STM32H7xx_HAL_Driver/Src/stm32h7xx_hal_flash.c ****   /* Set the LOCK Bit to lock the FLASH Bank2 Control Register access */
 661:Drivers/STM32H7xx_HAL_Driver/Src/stm32h7xx_hal_flash.c ****   SET_BIT(FLASH->CR2, FLASH_CR_LOCK);
 627              		.loc 1 661 3 is_stmt 1 view .LVU189
 628 0012 094B     		ldr	r3, .L46
 629 0014 D3F80C21 		ldr	r2, [r3, #268]
 630 0018 42F00102 		orr	r2, r2, #1
 631 001c C3F80C21 		str	r2, [r3, #268]
 662:Drivers/STM32H7xx_HAL_Driver/Src/stm32h7xx_hal_flash.c **** 
 663:Drivers/STM32H7xx_HAL_Driver/Src/stm32h7xx_hal_flash.c ****   /* Verify Flash Bank2 is locked */
 664:Drivers/STM32H7xx_HAL_Driver/Src/stm32h7xx_hal_flash.c ****   if (READ_BIT(FLASH->CR2, FLASH_CR_LOCK) == 0U)
 632              		.loc 1 664 3 view .LVU190
 633              		.loc 1 664 7 is_stmt 0 view .LVU191
 634 0020 D3F80C31 		ldr	r3, [r3, #268]
 635              		.loc 1 664 6 view .LVU192
 636 0024 13F0010F 		tst	r3, #1
 637 0028 03D0     		beq	.L45
 665:Drivers/STM32H7xx_HAL_Driver/Src/stm32h7xx_hal_flash.c ****   {
 666:Drivers/STM32H7xx_HAL_Driver/Src/stm32h7xx_hal_flash.c ****     return HAL_ERROR;
 667:Drivers/STM32H7xx_HAL_Driver/Src/stm32h7xx_hal_flash.c ****   }
 668:Drivers/STM32H7xx_HAL_Driver/Src/stm32h7xx_hal_flash.c **** 
 669:Drivers/STM32H7xx_HAL_Driver/Src/stm32h7xx_hal_flash.c ****   return HAL_OK;
 638              		.loc 1 669 10 view .LVU193
 639 002a 0020     		movs	r0, #0
 640 002c 7047     		bx	lr
 641              	.L44:
 657:Drivers/STM32H7xx_HAL_Driver/Src/stm32h7xx_hal_flash.c ****   }
 642              		.loc 1 657 12 view .LVU194
 643 002e 0120     		movs	r0, #1
 644 0030 7047     		bx	lr
 645              	.L45:
 666:Drivers/STM32H7xx_HAL_Driver/Src/stm32h7xx_hal_flash.c ****   }
 646              		.loc 1 666 12 view .LVU195
 647 0032 0120     		movs	r0, #1
 670:Drivers/STM32H7xx_HAL_Driver/Src/stm32h7xx_hal_flash.c **** }
 648              		.loc 1 670 1 view .LVU196
 649 0034 7047     		bx	lr
 650              	.L47:
 651 0036 00BF     		.align	2
 652              	.L46:
 653 0038 00200052 		.word	1375739904
 654              		.cfi_endproc
 655              	.LFE147:
 657              		.section	.text.HAL_FLASH_OB_Unlock,"ax",%progbits
 658              		.align	1
 659              		.global	HAL_FLASH_OB_Unlock
 660              		.syntax unified
 661              		.thumb
 662              		.thumb_func
ARM GAS  /tmp/ccDY5NB6.s 			page 27


 663              		.fpu fpv5-d16
 665              	HAL_FLASH_OB_Unlock:
 666              	.LFB148:
 671:Drivers/STM32H7xx_HAL_Driver/Src/stm32h7xx_hal_flash.c **** 
 672:Drivers/STM32H7xx_HAL_Driver/Src/stm32h7xx_hal_flash.c **** /**
 673:Drivers/STM32H7xx_HAL_Driver/Src/stm32h7xx_hal_flash.c ****   * @brief  Unlock the FLASH Option Control Registers access.
 674:Drivers/STM32H7xx_HAL_Driver/Src/stm32h7xx_hal_flash.c ****   * @retval HAL Status
 675:Drivers/STM32H7xx_HAL_Driver/Src/stm32h7xx_hal_flash.c ****   */
 676:Drivers/STM32H7xx_HAL_Driver/Src/stm32h7xx_hal_flash.c **** HAL_StatusTypeDef HAL_FLASH_OB_Unlock(void)
 677:Drivers/STM32H7xx_HAL_Driver/Src/stm32h7xx_hal_flash.c **** {
 667              		.loc 1 677 1 is_stmt 1 view -0
 668              		.cfi_startproc
 669              		@ args = 0, pretend = 0, frame = 0
 670              		@ frame_needed = 0, uses_anonymous_args = 0
 671              		@ link register save eliminated.
 678:Drivers/STM32H7xx_HAL_Driver/Src/stm32h7xx_hal_flash.c ****   if(READ_BIT(FLASH->OPTCR, FLASH_OPTCR_OPTLOCK) != 0U)
 672              		.loc 1 678 3 view .LVU198
 673              		.loc 1 678 6 is_stmt 0 view .LVU199
 674 0000 0A4B     		ldr	r3, .L52
 675 0002 9B69     		ldr	r3, [r3, #24]
 676              		.loc 1 678 5 view .LVU200
 677 0004 13F0010F 		tst	r3, #1
 678 0008 0BD0     		beq	.L50
 679:Drivers/STM32H7xx_HAL_Driver/Src/stm32h7xx_hal_flash.c ****   {
 680:Drivers/STM32H7xx_HAL_Driver/Src/stm32h7xx_hal_flash.c ****     /* Authorizes the Option Byte registers programming */
 681:Drivers/STM32H7xx_HAL_Driver/Src/stm32h7xx_hal_flash.c ****     WRITE_REG(FLASH->OPTKEYR, FLASH_OPT_KEY1);
 679              		.loc 1 681 5 is_stmt 1 view .LVU201
 680 000a 084B     		ldr	r3, .L52
 681 000c 084A     		ldr	r2, .L52+4
 682 000e 9A60     		str	r2, [r3, #8]
 682:Drivers/STM32H7xx_HAL_Driver/Src/stm32h7xx_hal_flash.c ****     WRITE_REG(FLASH->OPTKEYR, FLASH_OPT_KEY2);
 683              		.loc 1 682 5 view .LVU202
 684 0010 02F14432 		add	r2, r2, #1145324612
 685 0014 9A60     		str	r2, [r3, #8]
 683:Drivers/STM32H7xx_HAL_Driver/Src/stm32h7xx_hal_flash.c **** 
 684:Drivers/STM32H7xx_HAL_Driver/Src/stm32h7xx_hal_flash.c ****     /* Verify that the Option Bytes are unlocked */
 685:Drivers/STM32H7xx_HAL_Driver/Src/stm32h7xx_hal_flash.c ****     if (READ_BIT(FLASH->OPTCR, FLASH_OPTCR_OPTLOCK) != 0U)
 686              		.loc 1 685 5 view .LVU203
 687              		.loc 1 685 9 is_stmt 0 view .LVU204
 688 0016 9B69     		ldr	r3, [r3, #24]
 689              		.loc 1 685 8 view .LVU205
 690 0018 13F0010F 		tst	r3, #1
 691 001c 03D1     		bne	.L51
 686:Drivers/STM32H7xx_HAL_Driver/Src/stm32h7xx_hal_flash.c ****     {
 687:Drivers/STM32H7xx_HAL_Driver/Src/stm32h7xx_hal_flash.c ****       return HAL_ERROR;
 688:Drivers/STM32H7xx_HAL_Driver/Src/stm32h7xx_hal_flash.c ****     }
 689:Drivers/STM32H7xx_HAL_Driver/Src/stm32h7xx_hal_flash.c ****   }
 690:Drivers/STM32H7xx_HAL_Driver/Src/stm32h7xx_hal_flash.c **** 
 691:Drivers/STM32H7xx_HAL_Driver/Src/stm32h7xx_hal_flash.c ****   return HAL_OK;
 692              		.loc 1 691 10 view .LVU206
 693 001e 0020     		movs	r0, #0
 694 0020 7047     		bx	lr
 695              	.L50:
 696 0022 0020     		movs	r0, #0
 697 0024 7047     		bx	lr
 698              	.L51:
 687:Drivers/STM32H7xx_HAL_Driver/Src/stm32h7xx_hal_flash.c ****     }
ARM GAS  /tmp/ccDY5NB6.s 			page 28


 699              		.loc 1 687 14 view .LVU207
 700 0026 0120     		movs	r0, #1
 692:Drivers/STM32H7xx_HAL_Driver/Src/stm32h7xx_hal_flash.c **** }
 701              		.loc 1 692 1 view .LVU208
 702 0028 7047     		bx	lr
 703              	.L53:
 704 002a 00BF     		.align	2
 705              	.L52:
 706 002c 00200052 		.word	1375739904
 707 0030 3B2A1908 		.word	135866939
 708              		.cfi_endproc
 709              	.LFE148:
 711              		.section	.text.HAL_FLASH_OB_Lock,"ax",%progbits
 712              		.align	1
 713              		.global	HAL_FLASH_OB_Lock
 714              		.syntax unified
 715              		.thumb
 716              		.thumb_func
 717              		.fpu fpv5-d16
 719              	HAL_FLASH_OB_Lock:
 720              	.LFB149:
 693:Drivers/STM32H7xx_HAL_Driver/Src/stm32h7xx_hal_flash.c **** 
 694:Drivers/STM32H7xx_HAL_Driver/Src/stm32h7xx_hal_flash.c **** /**
 695:Drivers/STM32H7xx_HAL_Driver/Src/stm32h7xx_hal_flash.c ****   * @brief  Lock the FLASH Option Control Registers access.
 696:Drivers/STM32H7xx_HAL_Driver/Src/stm32h7xx_hal_flash.c ****   * @retval HAL Status
 697:Drivers/STM32H7xx_HAL_Driver/Src/stm32h7xx_hal_flash.c ****   */
 698:Drivers/STM32H7xx_HAL_Driver/Src/stm32h7xx_hal_flash.c **** HAL_StatusTypeDef HAL_FLASH_OB_Lock(void)
 699:Drivers/STM32H7xx_HAL_Driver/Src/stm32h7xx_hal_flash.c **** {
 721              		.loc 1 699 1 is_stmt 1 view -0
 722              		.cfi_startproc
 723              		@ args = 0, pretend = 0, frame = 0
 724              		@ frame_needed = 0, uses_anonymous_args = 0
 725              		@ link register save eliminated.
 700:Drivers/STM32H7xx_HAL_Driver/Src/stm32h7xx_hal_flash.c ****   /* Set the OPTLOCK Bit to lock the FLASH Option Byte Registers access */
 701:Drivers/STM32H7xx_HAL_Driver/Src/stm32h7xx_hal_flash.c ****   SET_BIT(FLASH->OPTCR, FLASH_OPTCR_OPTLOCK);
 726              		.loc 1 701 3 view .LVU210
 727 0000 064B     		ldr	r3, .L57
 728 0002 9A69     		ldr	r2, [r3, #24]
 729 0004 42F00102 		orr	r2, r2, #1
 730 0008 9A61     		str	r2, [r3, #24]
 702:Drivers/STM32H7xx_HAL_Driver/Src/stm32h7xx_hal_flash.c **** 
 703:Drivers/STM32H7xx_HAL_Driver/Src/stm32h7xx_hal_flash.c ****   /* Verify that the Option Bytes are locked */
 704:Drivers/STM32H7xx_HAL_Driver/Src/stm32h7xx_hal_flash.c ****   if (READ_BIT(FLASH->OPTCR, FLASH_OPTCR_OPTLOCK) == 0U)
 731              		.loc 1 704 3 view .LVU211
 732              		.loc 1 704 7 is_stmt 0 view .LVU212
 733 000a 9B69     		ldr	r3, [r3, #24]
 734              		.loc 1 704 6 view .LVU213
 735 000c 13F0010F 		tst	r3, #1
 736 0010 01D0     		beq	.L56
 705:Drivers/STM32H7xx_HAL_Driver/Src/stm32h7xx_hal_flash.c ****   {
 706:Drivers/STM32H7xx_HAL_Driver/Src/stm32h7xx_hal_flash.c ****     return HAL_ERROR;
 707:Drivers/STM32H7xx_HAL_Driver/Src/stm32h7xx_hal_flash.c ****   }
 708:Drivers/STM32H7xx_HAL_Driver/Src/stm32h7xx_hal_flash.c **** 
 709:Drivers/STM32H7xx_HAL_Driver/Src/stm32h7xx_hal_flash.c ****   return HAL_OK;
 737              		.loc 1 709 10 view .LVU214
 738 0012 0020     		movs	r0, #0
 739 0014 7047     		bx	lr
ARM GAS  /tmp/ccDY5NB6.s 			page 29


 740              	.L56:
 706:Drivers/STM32H7xx_HAL_Driver/Src/stm32h7xx_hal_flash.c ****   }
 741              		.loc 1 706 12 view .LVU215
 742 0016 0120     		movs	r0, #1
 710:Drivers/STM32H7xx_HAL_Driver/Src/stm32h7xx_hal_flash.c **** }
 743              		.loc 1 710 1 view .LVU216
 744 0018 7047     		bx	lr
 745              	.L58:
 746 001a 00BF     		.align	2
 747              	.L57:
 748 001c 00200052 		.word	1375739904
 749              		.cfi_endproc
 750              	.LFE149:
 752              		.section	.text.HAL_FLASH_GetError,"ax",%progbits
 753              		.align	1
 754              		.global	HAL_FLASH_GetError
 755              		.syntax unified
 756              		.thumb
 757              		.thumb_func
 758              		.fpu fpv5-d16
 760              	HAL_FLASH_GetError:
 761              	.LFB151:
 711:Drivers/STM32H7xx_HAL_Driver/Src/stm32h7xx_hal_flash.c **** 
 712:Drivers/STM32H7xx_HAL_Driver/Src/stm32h7xx_hal_flash.c **** /**
 713:Drivers/STM32H7xx_HAL_Driver/Src/stm32h7xx_hal_flash.c ****   * @brief  Launch the option bytes loading.
 714:Drivers/STM32H7xx_HAL_Driver/Src/stm32h7xx_hal_flash.c ****   * @retval HAL Status
 715:Drivers/STM32H7xx_HAL_Driver/Src/stm32h7xx_hal_flash.c ****   */
 716:Drivers/STM32H7xx_HAL_Driver/Src/stm32h7xx_hal_flash.c **** HAL_StatusTypeDef HAL_FLASH_OB_Launch(void)
 717:Drivers/STM32H7xx_HAL_Driver/Src/stm32h7xx_hal_flash.c **** {
 718:Drivers/STM32H7xx_HAL_Driver/Src/stm32h7xx_hal_flash.c ****   HAL_StatusTypeDef status;
 719:Drivers/STM32H7xx_HAL_Driver/Src/stm32h7xx_hal_flash.c **** 
 720:Drivers/STM32H7xx_HAL_Driver/Src/stm32h7xx_hal_flash.c ****   /* Wait for CRC computation to be completed */
 721:Drivers/STM32H7xx_HAL_Driver/Src/stm32h7xx_hal_flash.c ****   if (FLASH_CRC_WaitForLastOperation((uint32_t)FLASH_TIMEOUT_VALUE, FLASH_BANK_1) != HAL_OK)
 722:Drivers/STM32H7xx_HAL_Driver/Src/stm32h7xx_hal_flash.c ****   {
 723:Drivers/STM32H7xx_HAL_Driver/Src/stm32h7xx_hal_flash.c ****     status = HAL_ERROR;
 724:Drivers/STM32H7xx_HAL_Driver/Src/stm32h7xx_hal_flash.c ****   }
 725:Drivers/STM32H7xx_HAL_Driver/Src/stm32h7xx_hal_flash.c ****   else if (FLASH_CRC_WaitForLastOperation((uint32_t)FLASH_TIMEOUT_VALUE, FLASH_BANK_2) != HAL_OK)
 726:Drivers/STM32H7xx_HAL_Driver/Src/stm32h7xx_hal_flash.c ****   {
 727:Drivers/STM32H7xx_HAL_Driver/Src/stm32h7xx_hal_flash.c ****     status = HAL_ERROR;
 728:Drivers/STM32H7xx_HAL_Driver/Src/stm32h7xx_hal_flash.c ****   }
 729:Drivers/STM32H7xx_HAL_Driver/Src/stm32h7xx_hal_flash.c ****   else
 730:Drivers/STM32H7xx_HAL_Driver/Src/stm32h7xx_hal_flash.c ****   {
 731:Drivers/STM32H7xx_HAL_Driver/Src/stm32h7xx_hal_flash.c ****     status = HAL_OK;
 732:Drivers/STM32H7xx_HAL_Driver/Src/stm32h7xx_hal_flash.c ****   }
 733:Drivers/STM32H7xx_HAL_Driver/Src/stm32h7xx_hal_flash.c **** 
 734:Drivers/STM32H7xx_HAL_Driver/Src/stm32h7xx_hal_flash.c ****   if (status == HAL_OK)
 735:Drivers/STM32H7xx_HAL_Driver/Src/stm32h7xx_hal_flash.c ****   {
 736:Drivers/STM32H7xx_HAL_Driver/Src/stm32h7xx_hal_flash.c ****     /* Set OPTSTRT Bit */
 737:Drivers/STM32H7xx_HAL_Driver/Src/stm32h7xx_hal_flash.c ****     SET_BIT(FLASH->OPTCR, FLASH_OPTCR_OPTSTART);
 738:Drivers/STM32H7xx_HAL_Driver/Src/stm32h7xx_hal_flash.c **** 
 739:Drivers/STM32H7xx_HAL_Driver/Src/stm32h7xx_hal_flash.c ****     /* Wait for OB change operation to be completed */
 740:Drivers/STM32H7xx_HAL_Driver/Src/stm32h7xx_hal_flash.c ****     status = FLASH_OB_WaitForLastOperation((uint32_t)FLASH_TIMEOUT_VALUE);
 741:Drivers/STM32H7xx_HAL_Driver/Src/stm32h7xx_hal_flash.c ****   }
 742:Drivers/STM32H7xx_HAL_Driver/Src/stm32h7xx_hal_flash.c **** 
 743:Drivers/STM32H7xx_HAL_Driver/Src/stm32h7xx_hal_flash.c ****   return status;
 744:Drivers/STM32H7xx_HAL_Driver/Src/stm32h7xx_hal_flash.c **** }
 745:Drivers/STM32H7xx_HAL_Driver/Src/stm32h7xx_hal_flash.c **** 
ARM GAS  /tmp/ccDY5NB6.s 			page 30


 746:Drivers/STM32H7xx_HAL_Driver/Src/stm32h7xx_hal_flash.c **** /**
 747:Drivers/STM32H7xx_HAL_Driver/Src/stm32h7xx_hal_flash.c ****   * @}
 748:Drivers/STM32H7xx_HAL_Driver/Src/stm32h7xx_hal_flash.c ****   */
 749:Drivers/STM32H7xx_HAL_Driver/Src/stm32h7xx_hal_flash.c **** 
 750:Drivers/STM32H7xx_HAL_Driver/Src/stm32h7xx_hal_flash.c **** /** @defgroup FLASH_Exported_Functions_Group3 Peripheral State and Errors functions
 751:Drivers/STM32H7xx_HAL_Driver/Src/stm32h7xx_hal_flash.c ****  *  @brief   Peripheral Errors functions
 752:Drivers/STM32H7xx_HAL_Driver/Src/stm32h7xx_hal_flash.c ****  *
 753:Drivers/STM32H7xx_HAL_Driver/Src/stm32h7xx_hal_flash.c **** @verbatim
 754:Drivers/STM32H7xx_HAL_Driver/Src/stm32h7xx_hal_flash.c ****  ===============================================================================
 755:Drivers/STM32H7xx_HAL_Driver/Src/stm32h7xx_hal_flash.c ****                 ##### Peripheral Errors functions #####
 756:Drivers/STM32H7xx_HAL_Driver/Src/stm32h7xx_hal_flash.c ****  ===============================================================================
 757:Drivers/STM32H7xx_HAL_Driver/Src/stm32h7xx_hal_flash.c ****     [..]
 758:Drivers/STM32H7xx_HAL_Driver/Src/stm32h7xx_hal_flash.c ****     This subsection permits to get in run-time Errors of the FLASH peripheral.
 759:Drivers/STM32H7xx_HAL_Driver/Src/stm32h7xx_hal_flash.c **** 
 760:Drivers/STM32H7xx_HAL_Driver/Src/stm32h7xx_hal_flash.c **** @endverbatim
 761:Drivers/STM32H7xx_HAL_Driver/Src/stm32h7xx_hal_flash.c ****   * @{
 762:Drivers/STM32H7xx_HAL_Driver/Src/stm32h7xx_hal_flash.c ****   */
 763:Drivers/STM32H7xx_HAL_Driver/Src/stm32h7xx_hal_flash.c **** 
 764:Drivers/STM32H7xx_HAL_Driver/Src/stm32h7xx_hal_flash.c **** /**
 765:Drivers/STM32H7xx_HAL_Driver/Src/stm32h7xx_hal_flash.c ****   * @brief  Get the specific FLASH error flag.
 766:Drivers/STM32H7xx_HAL_Driver/Src/stm32h7xx_hal_flash.c ****   * @retval HAL_FLASH_ERRORCode The returned value can be:
 767:Drivers/STM32H7xx_HAL_Driver/Src/stm32h7xx_hal_flash.c ****   *            @arg HAL_FLASH_ERROR_NONE       : No error set
 768:Drivers/STM32H7xx_HAL_Driver/Src/stm32h7xx_hal_flash.c ****   *
 769:Drivers/STM32H7xx_HAL_Driver/Src/stm32h7xx_hal_flash.c ****   *            @arg HAL_FLASH_ERROR_WRP_BANK1  : Write Protection Error on Bank 1
 770:Drivers/STM32H7xx_HAL_Driver/Src/stm32h7xx_hal_flash.c ****   *            @arg HAL_FLASH_ERROR_PGS_BANK1  : Program Sequence Error on Bank 1
 771:Drivers/STM32H7xx_HAL_Driver/Src/stm32h7xx_hal_flash.c ****   *            @arg HAL_FLASH_ERROR_STRB_BANK1 : Strobe Error on Bank 1
 772:Drivers/STM32H7xx_HAL_Driver/Src/stm32h7xx_hal_flash.c ****   *            @arg HAL_FLASH_ERROR_INC_BANK1  : Inconsistency Error on Bank 1
 773:Drivers/STM32H7xx_HAL_Driver/Src/stm32h7xx_hal_flash.c ****   *            @arg HAL_FLASH_ERROR_OPE_BANK1  : Operation Error on Bank 1
 774:Drivers/STM32H7xx_HAL_Driver/Src/stm32h7xx_hal_flash.c ****   *            @arg HAL_FLASH_ERROR_RDP_BANK1  : Read Protection Error on Bank 1
 775:Drivers/STM32H7xx_HAL_Driver/Src/stm32h7xx_hal_flash.c ****   *            @arg HAL_FLASH_ERROR_RDS_BANK1  : Read Secured Error on Bank 1
 776:Drivers/STM32H7xx_HAL_Driver/Src/stm32h7xx_hal_flash.c ****   *            @arg HAL_FLASH_ERROR_SNECC_BANK1: ECC Single Correction Error on Bank 1
 777:Drivers/STM32H7xx_HAL_Driver/Src/stm32h7xx_hal_flash.c ****   *            @arg HAL_FLASH_ERROR_DBECC_BANK1: ECC Double Detection Error on Bank 1
 778:Drivers/STM32H7xx_HAL_Driver/Src/stm32h7xx_hal_flash.c ****   *            @arg HAL_FLASH_ERROR_CRCRD_BANK1: CRC Read Error on Bank 1
 779:Drivers/STM32H7xx_HAL_Driver/Src/stm32h7xx_hal_flash.c ****   *
 780:Drivers/STM32H7xx_HAL_Driver/Src/stm32h7xx_hal_flash.c ****   *            @arg HAL_FLASH_ERROR_WRP_BANK2  : Write Protection Error on Bank 2
 781:Drivers/STM32H7xx_HAL_Driver/Src/stm32h7xx_hal_flash.c ****   *            @arg HAL_FLASH_ERROR_PGS_BANK2  : Program Sequence Error on Bank 2
 782:Drivers/STM32H7xx_HAL_Driver/Src/stm32h7xx_hal_flash.c ****   *            @arg HAL_FLASH_ERROR_STRB_BANK2 : Strobe Error on Bank 2
 783:Drivers/STM32H7xx_HAL_Driver/Src/stm32h7xx_hal_flash.c ****   *            @arg HAL_FLASH_ERROR_INC_BANK2  : Inconsistency Error on Bank 2
 784:Drivers/STM32H7xx_HAL_Driver/Src/stm32h7xx_hal_flash.c ****   *            @arg HAL_FLASH_ERROR_OPE_BANK2  : Operation Error on Bank 2
 785:Drivers/STM32H7xx_HAL_Driver/Src/stm32h7xx_hal_flash.c ****   *            @arg HAL_FLASH_ERROR_RDP_BANK2  : Read Protection Error on Bank 2
 786:Drivers/STM32H7xx_HAL_Driver/Src/stm32h7xx_hal_flash.c ****   *            @arg HAL_FLASH_ERROR_RDS_BANK2  : Read Secured Error on Bank 2
 787:Drivers/STM32H7xx_HAL_Driver/Src/stm32h7xx_hal_flash.c ****   *            @arg HAL_FLASH_ERROR_SNECC_BANK2: SNECC Error on Bank 2
 788:Drivers/STM32H7xx_HAL_Driver/Src/stm32h7xx_hal_flash.c ****   *            @arg HAL_FLASH_ERROR_DBECC_BANK2: Double Detection ECC on Bank 2
 789:Drivers/STM32H7xx_HAL_Driver/Src/stm32h7xx_hal_flash.c ****   *            @arg HAL_FLASH_ERROR_CRCRD_BANK2: CRC Read Error on Bank 2
 790:Drivers/STM32H7xx_HAL_Driver/Src/stm32h7xx_hal_flash.c **** */
 791:Drivers/STM32H7xx_HAL_Driver/Src/stm32h7xx_hal_flash.c **** 
 792:Drivers/STM32H7xx_HAL_Driver/Src/stm32h7xx_hal_flash.c **** uint32_t HAL_FLASH_GetError(void)
 793:Drivers/STM32H7xx_HAL_Driver/Src/stm32h7xx_hal_flash.c **** {
 762              		.loc 1 793 1 is_stmt 1 view -0
 763              		.cfi_startproc
 764              		@ args = 0, pretend = 0, frame = 0
 765              		@ frame_needed = 0, uses_anonymous_args = 0
 766              		@ link register save eliminated.
 794:Drivers/STM32H7xx_HAL_Driver/Src/stm32h7xx_hal_flash.c ****    return pFlash.ErrorCode;
 767              		.loc 1 794 4 view .LVU218
 768              		.loc 1 794 17 is_stmt 0 view .LVU219
 769 0000 014B     		ldr	r3, .L60
ARM GAS  /tmp/ccDY5NB6.s 			page 31


 770 0002 9869     		ldr	r0, [r3, #24]
 795:Drivers/STM32H7xx_HAL_Driver/Src/stm32h7xx_hal_flash.c **** }
 771              		.loc 1 795 1 view .LVU220
 772 0004 7047     		bx	lr
 773              	.L61:
 774 0006 00BF     		.align	2
 775              	.L60:
 776 0008 00000000 		.word	pFlash
 777              		.cfi_endproc
 778              	.LFE151:
 780              		.section	.text.FLASH_WaitForLastOperation,"ax",%progbits
 781              		.align	1
 782              		.global	FLASH_WaitForLastOperation
 783              		.syntax unified
 784              		.thumb
 785              		.thumb_func
 786              		.fpu fpv5-d16
 788              	FLASH_WaitForLastOperation:
 789              	.LVL50:
 790              	.LFB152:
 796:Drivers/STM32H7xx_HAL_Driver/Src/stm32h7xx_hal_flash.c **** 
 797:Drivers/STM32H7xx_HAL_Driver/Src/stm32h7xx_hal_flash.c **** /**
 798:Drivers/STM32H7xx_HAL_Driver/Src/stm32h7xx_hal_flash.c ****   * @}
 799:Drivers/STM32H7xx_HAL_Driver/Src/stm32h7xx_hal_flash.c ****   */
 800:Drivers/STM32H7xx_HAL_Driver/Src/stm32h7xx_hal_flash.c **** 
 801:Drivers/STM32H7xx_HAL_Driver/Src/stm32h7xx_hal_flash.c **** /**
 802:Drivers/STM32H7xx_HAL_Driver/Src/stm32h7xx_hal_flash.c ****   * @}
 803:Drivers/STM32H7xx_HAL_Driver/Src/stm32h7xx_hal_flash.c ****   */
 804:Drivers/STM32H7xx_HAL_Driver/Src/stm32h7xx_hal_flash.c **** 
 805:Drivers/STM32H7xx_HAL_Driver/Src/stm32h7xx_hal_flash.c **** /* Private functions ---------------------------------------------------------*/
 806:Drivers/STM32H7xx_HAL_Driver/Src/stm32h7xx_hal_flash.c **** 
 807:Drivers/STM32H7xx_HAL_Driver/Src/stm32h7xx_hal_flash.c **** /** @addtogroup FLASH_Private_Functions
 808:Drivers/STM32H7xx_HAL_Driver/Src/stm32h7xx_hal_flash.c ****   * @{
 809:Drivers/STM32H7xx_HAL_Driver/Src/stm32h7xx_hal_flash.c ****   */
 810:Drivers/STM32H7xx_HAL_Driver/Src/stm32h7xx_hal_flash.c **** 
 811:Drivers/STM32H7xx_HAL_Driver/Src/stm32h7xx_hal_flash.c **** /**
 812:Drivers/STM32H7xx_HAL_Driver/Src/stm32h7xx_hal_flash.c ****   * @brief  Wait for a FLASH operation to complete.
 813:Drivers/STM32H7xx_HAL_Driver/Src/stm32h7xx_hal_flash.c ****   * @param  Timeout maximum flash operation timeout
 814:Drivers/STM32H7xx_HAL_Driver/Src/stm32h7xx_hal_flash.c ****   * @param  Bank flash FLASH_BANK_1 or FLASH_BANK_2
 815:Drivers/STM32H7xx_HAL_Driver/Src/stm32h7xx_hal_flash.c ****   * @retval HAL_StatusTypeDef HAL Status
 816:Drivers/STM32H7xx_HAL_Driver/Src/stm32h7xx_hal_flash.c ****   */
 817:Drivers/STM32H7xx_HAL_Driver/Src/stm32h7xx_hal_flash.c **** HAL_StatusTypeDef FLASH_WaitForLastOperation(uint32_t Timeout, uint32_t Bank)
 818:Drivers/STM32H7xx_HAL_Driver/Src/stm32h7xx_hal_flash.c **** {
 791              		.loc 1 818 1 is_stmt 1 view -0
 792              		.cfi_startproc
 793              		@ args = 0, pretend = 0, frame = 0
 794              		@ frame_needed = 0, uses_anonymous_args = 0
 795              		.loc 1 818 1 is_stmt 0 view .LVU222
 796 0000 F8B5     		push	{r3, r4, r5, r6, r7, lr}
 797              	.LCFI1:
 798              		.cfi_def_cfa_offset 24
 799              		.cfi_offset 3, -24
 800              		.cfi_offset 4, -20
 801              		.cfi_offset 5, -16
 802              		.cfi_offset 6, -12
 803              		.cfi_offset 7, -8
 804              		.cfi_offset 14, -4
ARM GAS  /tmp/ccDY5NB6.s 			page 32


 805 0002 0546     		mov	r5, r0
 806 0004 0E46     		mov	r6, r1
 819:Drivers/STM32H7xx_HAL_Driver/Src/stm32h7xx_hal_flash.c ****   /* Wait for the FLASH operation to complete by polling on QW flag to be reset.
 820:Drivers/STM32H7xx_HAL_Driver/Src/stm32h7xx_hal_flash.c ****      Even if the FLASH operation fails, the QW flag will be reset and an error
 821:Drivers/STM32H7xx_HAL_Driver/Src/stm32h7xx_hal_flash.c ****      flag will be set */
 822:Drivers/STM32H7xx_HAL_Driver/Src/stm32h7xx_hal_flash.c **** 
 823:Drivers/STM32H7xx_HAL_Driver/Src/stm32h7xx_hal_flash.c ****   uint32_t bsyflag, errorflag;
 807              		.loc 1 823 3 is_stmt 1 view .LVU223
 824:Drivers/STM32H7xx_HAL_Driver/Src/stm32h7xx_hal_flash.c ****   uint32_t tickstart = HAL_GetTick();
 808              		.loc 1 824 3 view .LVU224
 809              		.loc 1 824 24 is_stmt 0 view .LVU225
 810 0006 FFF7FEFF 		bl	HAL_GetTick
 811              	.LVL51:
 812              		.loc 1 824 24 view .LVU226
 813 000a 0746     		mov	r7, r0
 814              	.LVL52:
 825:Drivers/STM32H7xx_HAL_Driver/Src/stm32h7xx_hal_flash.c **** 
 826:Drivers/STM32H7xx_HAL_Driver/Src/stm32h7xx_hal_flash.c ****   assert_param(IS_FLASH_BANK_EXCLUSIVE(Bank));
 815              		.loc 1 826 3 is_stmt 1 view .LVU227
 827:Drivers/STM32H7xx_HAL_Driver/Src/stm32h7xx_hal_flash.c **** 
 828:Drivers/STM32H7xx_HAL_Driver/Src/stm32h7xx_hal_flash.c ****   /* Select bsyflag depending on Bank */
 829:Drivers/STM32H7xx_HAL_Driver/Src/stm32h7xx_hal_flash.c ****   if(Bank == FLASH_BANK_1)
 816              		.loc 1 829 3 view .LVU228
 817              		.loc 1 829 5 is_stmt 0 view .LVU229
 818 000c 012E     		cmp	r6, #1
 819 000e 09D0     		beq	.L63
 830:Drivers/STM32H7xx_HAL_Driver/Src/stm32h7xx_hal_flash.c ****   {
 831:Drivers/STM32H7xx_HAL_Driver/Src/stm32h7xx_hal_flash.c ****     bsyflag = FLASH_FLAG_QW_BANK1;
 832:Drivers/STM32H7xx_HAL_Driver/Src/stm32h7xx_hal_flash.c ****   }
 833:Drivers/STM32H7xx_HAL_Driver/Src/stm32h7xx_hal_flash.c ****   else
 834:Drivers/STM32H7xx_HAL_Driver/Src/stm32h7xx_hal_flash.c ****   {
 835:Drivers/STM32H7xx_HAL_Driver/Src/stm32h7xx_hal_flash.c ****     bsyflag = FLASH_FLAG_QW_BANK2;
 820              		.loc 1 835 13 view .LVU230
 821 0010 354C     		ldr	r4, .L88
 822 0012 17E0     		b	.L65
 823              	.LVL53:
 824              	.L83:
 836:Drivers/STM32H7xx_HAL_Driver/Src/stm32h7xx_hal_flash.c ****   }
 837:Drivers/STM32H7xx_HAL_Driver/Src/stm32h7xx_hal_flash.c **** 
 838:Drivers/STM32H7xx_HAL_Driver/Src/stm32h7xx_hal_flash.c ****   while(__HAL_FLASH_GET_FLAG(bsyflag))
 839:Drivers/STM32H7xx_HAL_Driver/Src/stm32h7xx_hal_flash.c ****   {
 840:Drivers/STM32H7xx_HAL_Driver/Src/stm32h7xx_hal_flash.c ****     if(Timeout != HAL_MAX_DELAY)
 841:Drivers/STM32H7xx_HAL_Driver/Src/stm32h7xx_hal_flash.c ****     {
 842:Drivers/STM32H7xx_HAL_Driver/Src/stm32h7xx_hal_flash.c ****       if(((HAL_GetTick() - tickstart) > Timeout) || (Timeout == 0U))
 825              		.loc 1 842 7 is_stmt 1 view .LVU231
 826              		.loc 1 842 12 is_stmt 0 view .LVU232
 827 0014 FFF7FEFF 		bl	HAL_GetTick
 828              	.LVL54:
 829              		.loc 1 842 26 view .LVU233
 830 0018 C01B     		subs	r0, r0, r7
 831              		.loc 1 842 9 view .LVU234
 832 001a A842     		cmp	r0, r5
 833 001c 5ED8     		bhi	.L77
 834              		.loc 1 842 50 discriminator 1 view .LVU235
 835 001e 8DB9     		cbnz	r5, .L65
 843:Drivers/STM32H7xx_HAL_Driver/Src/stm32h7xx_hal_flash.c ****       {
 844:Drivers/STM32H7xx_HAL_Driver/Src/stm32h7xx_hal_flash.c ****         return HAL_TIMEOUT;
ARM GAS  /tmp/ccDY5NB6.s 			page 33


 836              		.loc 1 844 16 view .LVU236
 837 0020 0320     		movs	r0, #3
 838 0022 4CE0     		b	.L66
 839              	.LVL55:
 840              	.L63:
 831:Drivers/STM32H7xx_HAL_Driver/Src/stm32h7xx_hal_flash.c ****   }
 841              		.loc 1 831 13 view .LVU237
 842 0024 0424     		movs	r4, #4
 843 0026 0DE0     		b	.L65
 844              	.LVL56:
 845              	.L68:
 838:Drivers/STM32H7xx_HAL_Driver/Src/stm32h7xx_hal_flash.c ****   {
 846              		.loc 1 838 9 discriminator 2 view .LVU238
 847 0028 304B     		ldr	r3, .L88+4
 848 002a D3F81031 		ldr	r3, [r3, #272]
 849 002e 24EA0303 		bic	r3, r4, r3
 850 0032 33F00043 		bics	r3, r3, #-2147483648
 851 0036 0CBF     		ite	eq
 852 0038 0123     		moveq	r3, #1
 853 003a 0023     		movne	r3, #0
 854              	.L69:
 838:Drivers/STM32H7xx_HAL_Driver/Src/stm32h7xx_hal_flash.c ****   {
 855              		.loc 1 838 8 discriminator 4 view .LVU239
 856 003c 6BB1     		cbz	r3, .L82
 840:Drivers/STM32H7xx_HAL_Driver/Src/stm32h7xx_hal_flash.c ****     {
 857              		.loc 1 840 5 is_stmt 1 view .LVU240
 840:Drivers/STM32H7xx_HAL_Driver/Src/stm32h7xx_hal_flash.c ****     {
 858              		.loc 1 840 7 is_stmt 0 view .LVU241
 859 003e B5F1FF3F 		cmp	r5, #-1
 860 0042 E7D1     		bne	.L83
 861              	.LVL57:
 862              	.L65:
 838:Drivers/STM32H7xx_HAL_Driver/Src/stm32h7xx_hal_flash.c ****   {
 863              		.loc 1 838 9 view .LVU242
 864 0044 34F00403 		bics	r3, r4, #4
 865 0048 EED1     		bne	.L68
 838:Drivers/STM32H7xx_HAL_Driver/Src/stm32h7xx_hal_flash.c ****   {
 866              		.loc 1 838 9 discriminator 1 view .LVU243
 867 004a 284B     		ldr	r3, .L88+4
 868 004c 1B69     		ldr	r3, [r3, #16]
 869 004e 34EA0303 		bics	r3, r4, r3
 870 0052 0CBF     		ite	eq
 871 0054 0123     		moveq	r3, #1
 872 0056 0023     		movne	r3, #0
 873 0058 F0E7     		b	.L69
 874              	.L82:
 845:Drivers/STM32H7xx_HAL_Driver/Src/stm32h7xx_hal_flash.c ****       }
 846:Drivers/STM32H7xx_HAL_Driver/Src/stm32h7xx_hal_flash.c ****     }
 847:Drivers/STM32H7xx_HAL_Driver/Src/stm32h7xx_hal_flash.c ****   }
 848:Drivers/STM32H7xx_HAL_Driver/Src/stm32h7xx_hal_flash.c **** 
 849:Drivers/STM32H7xx_HAL_Driver/Src/stm32h7xx_hal_flash.c ****   /* Get Error Flags */
 850:Drivers/STM32H7xx_HAL_Driver/Src/stm32h7xx_hal_flash.c ****   if (Bank == FLASH_BANK_1)
 875              		.loc 1 850 3 is_stmt 1 view .LVU244
 876              		.loc 1 850 6 is_stmt 0 view .LVU245
 877 005a 012E     		cmp	r6, #1
 878 005c 1CD0     		beq	.L84
 851:Drivers/STM32H7xx_HAL_Driver/Src/stm32h7xx_hal_flash.c ****   {
ARM GAS  /tmp/ccDY5NB6.s 			page 34


 852:Drivers/STM32H7xx_HAL_Driver/Src/stm32h7xx_hal_flash.c ****     errorflag = FLASH->SR1 & FLASH_FLAG_ALL_ERRORS_BANK1;
 853:Drivers/STM32H7xx_HAL_Driver/Src/stm32h7xx_hal_flash.c ****   }
 854:Drivers/STM32H7xx_HAL_Driver/Src/stm32h7xx_hal_flash.c ****   else
 855:Drivers/STM32H7xx_HAL_Driver/Src/stm32h7xx_hal_flash.c ****   {
 856:Drivers/STM32H7xx_HAL_Driver/Src/stm32h7xx_hal_flash.c ****     errorflag = (FLASH->SR2 & FLASH_FLAG_ALL_ERRORS_BANK2) | 0x80000000U;
 879              		.loc 1 856 5 is_stmt 1 view .LVU246
 880              		.loc 1 856 23 is_stmt 0 view .LVU247
 881 005e 234B     		ldr	r3, .L88+4
 882 0060 D3F81031 		ldr	r3, [r3, #272]
 883              		.loc 1 856 60 view .LVU248
 884 0064 23F06843 		bic	r3, r3, #-402653184
 885 0068 23F48013 		bic	r3, r3, #1048576
 886 006c 5B0C     		lsrs	r3, r3, #17
 887 006e 5B04     		lsls	r3, r3, #17
 888              		.loc 1 856 15 view .LVU249
 889 0070 43F00043 		orr	r3, r3, #-2147483648
 890              	.LVL58:
 891              	.L72:
 857:Drivers/STM32H7xx_HAL_Driver/Src/stm32h7xx_hal_flash.c ****   }
 858:Drivers/STM32H7xx_HAL_Driver/Src/stm32h7xx_hal_flash.c **** 
 859:Drivers/STM32H7xx_HAL_Driver/Src/stm32h7xx_hal_flash.c ****   /* In case of error reported in Flash SR1 or SR2 register */
 860:Drivers/STM32H7xx_HAL_Driver/Src/stm32h7xx_hal_flash.c ****   if((errorflag & 0x7FFFFFFFU) != 0U)
 892              		.loc 1 860 3 is_stmt 1 view .LVU250
 893              		.loc 1 860 5 is_stmt 0 view .LVU251
 894 0074 33F00041 		bics	r1, r3, #-2147483648
 895 0078 17D1     		bne	.L85
 861:Drivers/STM32H7xx_HAL_Driver/Src/stm32h7xx_hal_flash.c ****   {
 862:Drivers/STM32H7xx_HAL_Driver/Src/stm32h7xx_hal_flash.c ****     /*Save the error code*/
 863:Drivers/STM32H7xx_HAL_Driver/Src/stm32h7xx_hal_flash.c ****     pFlash.ErrorCode |= errorflag;
 864:Drivers/STM32H7xx_HAL_Driver/Src/stm32h7xx_hal_flash.c **** 
 865:Drivers/STM32H7xx_HAL_Driver/Src/stm32h7xx_hal_flash.c ****     /* Clear error programming flags */
 866:Drivers/STM32H7xx_HAL_Driver/Src/stm32h7xx_hal_flash.c ****     __HAL_FLASH_CLEAR_FLAG(errorflag);
 867:Drivers/STM32H7xx_HAL_Driver/Src/stm32h7xx_hal_flash.c **** 
 868:Drivers/STM32H7xx_HAL_Driver/Src/stm32h7xx_hal_flash.c ****     return HAL_ERROR;
 869:Drivers/STM32H7xx_HAL_Driver/Src/stm32h7xx_hal_flash.c ****   }
 870:Drivers/STM32H7xx_HAL_Driver/Src/stm32h7xx_hal_flash.c **** 
 871:Drivers/STM32H7xx_HAL_Driver/Src/stm32h7xx_hal_flash.c ****   /* Check FLASH End of Operation flag  */
 872:Drivers/STM32H7xx_HAL_Driver/Src/stm32h7xx_hal_flash.c ****   if(Bank == FLASH_BANK_1)
 896              		.loc 1 872 3 is_stmt 1 view .LVU252
 897              		.loc 1 872 5 is_stmt 0 view .LVU253
 898 007a 012E     		cmp	r6, #1
 899 007c 23D0     		beq	.L86
 873:Drivers/STM32H7xx_HAL_Driver/Src/stm32h7xx_hal_flash.c ****   {
 874:Drivers/STM32H7xx_HAL_Driver/Src/stm32h7xx_hal_flash.c ****     if (__HAL_FLASH_GET_FLAG_BANK1(FLASH_FLAG_EOP_BANK1))
 875:Drivers/STM32H7xx_HAL_Driver/Src/stm32h7xx_hal_flash.c ****     {
 876:Drivers/STM32H7xx_HAL_Driver/Src/stm32h7xx_hal_flash.c ****       /* Clear FLASH End of Operation pending bit */
 877:Drivers/STM32H7xx_HAL_Driver/Src/stm32h7xx_hal_flash.c ****       __HAL_FLASH_CLEAR_FLAG_BANK1(FLASH_FLAG_EOP_BANK1);
 878:Drivers/STM32H7xx_HAL_Driver/Src/stm32h7xx_hal_flash.c ****     }
 879:Drivers/STM32H7xx_HAL_Driver/Src/stm32h7xx_hal_flash.c ****   }
 880:Drivers/STM32H7xx_HAL_Driver/Src/stm32h7xx_hal_flash.c ****   else
 881:Drivers/STM32H7xx_HAL_Driver/Src/stm32h7xx_hal_flash.c ****   {
 882:Drivers/STM32H7xx_HAL_Driver/Src/stm32h7xx_hal_flash.c ****     if (__HAL_FLASH_GET_FLAG_BANK2(FLASH_FLAG_EOP_BANK2))
 900              		.loc 1 882 5 is_stmt 1 view .LVU254
 901              		.loc 1 882 9 is_stmt 0 view .LVU255
 902 007e 1B4B     		ldr	r3, .L88+4
 903              	.LVL59:
 904              		.loc 1 882 9 view .LVU256
ARM GAS  /tmp/ccDY5NB6.s 			page 35


 905 0080 D3F81031 		ldr	r3, [r3, #272]
 906              		.loc 1 882 8 view .LVU257
 907 0084 13F4803F 		tst	r3, #65536
 908 0088 2CD0     		beq	.L80
 883:Drivers/STM32H7xx_HAL_Driver/Src/stm32h7xx_hal_flash.c ****     {
 884:Drivers/STM32H7xx_HAL_Driver/Src/stm32h7xx_hal_flash.c ****       /* Clear FLASH End of Operation pending bit */
 885:Drivers/STM32H7xx_HAL_Driver/Src/stm32h7xx_hal_flash.c ****       __HAL_FLASH_CLEAR_FLAG_BANK2(FLASH_FLAG_EOP_BANK2);
 909              		.loc 1 885 7 is_stmt 1 view .LVU258
 910 008a 184B     		ldr	r3, .L88+4
 911 008c 4FF48032 		mov	r2, #65536
 912 0090 C3F81421 		str	r2, [r3, #276]
 886:Drivers/STM32H7xx_HAL_Driver/Src/stm32h7xx_hal_flash.c ****     }
 887:Drivers/STM32H7xx_HAL_Driver/Src/stm32h7xx_hal_flash.c ****   }
 888:Drivers/STM32H7xx_HAL_Driver/Src/stm32h7xx_hal_flash.c **** 
 889:Drivers/STM32H7xx_HAL_Driver/Src/stm32h7xx_hal_flash.c ****   return HAL_OK;
 913              		.loc 1 889 10 is_stmt 0 view .LVU259
 914 0094 0020     		movs	r0, #0
 915 0096 12E0     		b	.L66
 916              	.L84:
 852:Drivers/STM32H7xx_HAL_Driver/Src/stm32h7xx_hal_flash.c ****   }
 917              		.loc 1 852 5 is_stmt 1 view .LVU260
 852:Drivers/STM32H7xx_HAL_Driver/Src/stm32h7xx_hal_flash.c ****   }
 918              		.loc 1 852 22 is_stmt 0 view .LVU261
 919 0098 144B     		ldr	r3, .L88+4
 920 009a 1B69     		ldr	r3, [r3, #16]
 852:Drivers/STM32H7xx_HAL_Driver/Src/stm32h7xx_hal_flash.c ****   }
 921              		.loc 1 852 15 view .LVU262
 922 009c 23F06843 		bic	r3, r3, #-402653184
 923 00a0 23F48013 		bic	r3, r3, #1048576
 924 00a4 5B0C     		lsrs	r3, r3, #17
 925 00a6 5B04     		lsls	r3, r3, #17
 926              	.LVL60:
 852:Drivers/STM32H7xx_HAL_Driver/Src/stm32h7xx_hal_flash.c ****   }
 927              		.loc 1 852 15 view .LVU263
 928 00a8 E4E7     		b	.L72
 929              	.L85:
 863:Drivers/STM32H7xx_HAL_Driver/Src/stm32h7xx_hal_flash.c **** 
 930              		.loc 1 863 5 is_stmt 1 view .LVU264
 863:Drivers/STM32H7xx_HAL_Driver/Src/stm32h7xx_hal_flash.c **** 
 931              		.loc 1 863 22 is_stmt 0 view .LVU265
 932 00aa 1148     		ldr	r0, .L88+8
 933 00ac 8269     		ldr	r2, [r0, #24]
 934 00ae 1A43     		orrs	r2, r2, r3
 935 00b0 8261     		str	r2, [r0, #24]
 866:Drivers/STM32H7xx_HAL_Driver/Src/stm32h7xx_hal_flash.c **** 
 936              		.loc 1 866 5 is_stmt 1 view .LVU266
 937 00b2 002B     		cmp	r3, #0
 938 00b4 04DA     		bge	.L87
 866:Drivers/STM32H7xx_HAL_Driver/Src/stm32h7xx_hal_flash.c **** 
 939              		.loc 1 866 5 is_stmt 0 discriminator 2 view .LVU267
 940 00b6 0D4B     		ldr	r3, .L88+4
 941              	.LVL61:
 866:Drivers/STM32H7xx_HAL_Driver/Src/stm32h7xx_hal_flash.c **** 
 942              		.loc 1 866 5 discriminator 2 view .LVU268
 943 00b8 C3F81411 		str	r1, [r3, #276]
 944              	.L75:
 868:Drivers/STM32H7xx_HAL_Driver/Src/stm32h7xx_hal_flash.c ****   }
ARM GAS  /tmp/ccDY5NB6.s 			page 36


 945              		.loc 1 868 5 is_stmt 1 view .LVU269
 868:Drivers/STM32H7xx_HAL_Driver/Src/stm32h7xx_hal_flash.c ****   }
 946              		.loc 1 868 12 is_stmt 0 view .LVU270
 947 00bc 0120     		movs	r0, #1
 948              	.L66:
 890:Drivers/STM32H7xx_HAL_Driver/Src/stm32h7xx_hal_flash.c **** }
 949              		.loc 1 890 1 view .LVU271
 950 00be F8BD     		pop	{r3, r4, r5, r6, r7, pc}
 951              	.LVL62:
 952              	.L87:
 866:Drivers/STM32H7xx_HAL_Driver/Src/stm32h7xx_hal_flash.c **** 
 953              		.loc 1 866 5 discriminator 1 view .LVU272
 954 00c0 0A4A     		ldr	r2, .L88+4
 955 00c2 5361     		str	r3, [r2, #20]
 956 00c4 FAE7     		b	.L75
 957              	.L86:
 874:Drivers/STM32H7xx_HAL_Driver/Src/stm32h7xx_hal_flash.c ****     {
 958              		.loc 1 874 5 is_stmt 1 view .LVU273
 874:Drivers/STM32H7xx_HAL_Driver/Src/stm32h7xx_hal_flash.c ****     {
 959              		.loc 1 874 9 is_stmt 0 view .LVU274
 960 00c6 094B     		ldr	r3, .L88+4
 961              	.LVL63:
 874:Drivers/STM32H7xx_HAL_Driver/Src/stm32h7xx_hal_flash.c ****     {
 962              		.loc 1 874 9 view .LVU275
 963 00c8 1B69     		ldr	r3, [r3, #16]
 874:Drivers/STM32H7xx_HAL_Driver/Src/stm32h7xx_hal_flash.c ****     {
 964              		.loc 1 874 8 view .LVU276
 965 00ca 13F4803F 		tst	r3, #65536
 966 00ce 07D0     		beq	.L79
 877:Drivers/STM32H7xx_HAL_Driver/Src/stm32h7xx_hal_flash.c ****     }
 967              		.loc 1 877 7 is_stmt 1 view .LVU277
 968 00d0 064B     		ldr	r3, .L88+4
 969 00d2 4FF48032 		mov	r2, #65536
 970 00d6 5A61     		str	r2, [r3, #20]
 889:Drivers/STM32H7xx_HAL_Driver/Src/stm32h7xx_hal_flash.c **** }
 971              		.loc 1 889 10 is_stmt 0 view .LVU278
 972 00d8 0020     		movs	r0, #0
 973 00da F0E7     		b	.L66
 974              	.L77:
 844:Drivers/STM32H7xx_HAL_Driver/Src/stm32h7xx_hal_flash.c ****       }
 975              		.loc 1 844 16 view .LVU279
 976 00dc 0320     		movs	r0, #3
 977 00de EEE7     		b	.L66
 978              	.L79:
 889:Drivers/STM32H7xx_HAL_Driver/Src/stm32h7xx_hal_flash.c **** }
 979              		.loc 1 889 10 view .LVU280
 980 00e0 0020     		movs	r0, #0
 981 00e2 ECE7     		b	.L66
 982              	.L80:
 983 00e4 0020     		movs	r0, #0
 984 00e6 EAE7     		b	.L66
 985              	.L89:
 986              		.align	2
 987              	.L88:
 988 00e8 04000080 		.word	-2147483644
 989 00ec 00200052 		.word	1375739904
 990 00f0 00000000 		.word	pFlash
ARM GAS  /tmp/ccDY5NB6.s 			page 37


 991              		.cfi_endproc
 992              	.LFE152:
 994              		.section	.text.HAL_FLASH_Program,"ax",%progbits
 995              		.align	1
 996              		.global	HAL_FLASH_Program
 997              		.syntax unified
 998              		.thumb
 999              		.thumb_func
 1000              		.fpu fpv5-d16
 1002              	HAL_FLASH_Program:
 1003              	.LVL64:
 1004              	.LFB141:
 146:Drivers/STM32H7xx_HAL_Driver/Src/stm32h7xx_hal_flash.c ****   HAL_StatusTypeDef status;
 1005              		.loc 1 146 1 is_stmt 1 view -0
 1006              		.cfi_startproc
 1007              		@ args = 0, pretend = 0, frame = 0
 1008              		@ frame_needed = 0, uses_anonymous_args = 0
 147:Drivers/STM32H7xx_HAL_Driver/Src/stm32h7xx_hal_flash.c ****   __IO uint32_t *dest_addr = (__IO uint32_t *)FlashAddress;
 1009              		.loc 1 147 3 view .LVU282
 148:Drivers/STM32H7xx_HAL_Driver/Src/stm32h7xx_hal_flash.c ****   __IO uint32_t *src_addr = (__IO uint32_t*)DataAddress;
 1010              		.loc 1 148 3 view .LVU283
 149:Drivers/STM32H7xx_HAL_Driver/Src/stm32h7xx_hal_flash.c ****   uint32_t bank;
 1011              		.loc 1 149 3 view .LVU284
 150:Drivers/STM32H7xx_HAL_Driver/Src/stm32h7xx_hal_flash.c ****   uint8_t row_index = FLASH_NB_32BITWORD_IN_FLASHWORD;
 1012              		.loc 1 150 3 view .LVU285
 151:Drivers/STM32H7xx_HAL_Driver/Src/stm32h7xx_hal_flash.c **** 
 1013              		.loc 1 151 3 view .LVU286
 154:Drivers/STM32H7xx_HAL_Driver/Src/stm32h7xx_hal_flash.c ****   assert_param(IS_FLASH_PROGRAM_ADDRESS(FlashAddress));
 1014              		.loc 1 154 3 view .LVU287
 155:Drivers/STM32H7xx_HAL_Driver/Src/stm32h7xx_hal_flash.c **** 
 1015              		.loc 1 155 3 view .LVU288
 158:Drivers/STM32H7xx_HAL_Driver/Src/stm32h7xx_hal_flash.c **** 
 1016              		.loc 1 158 3 view .LVU289
 158:Drivers/STM32H7xx_HAL_Driver/Src/stm32h7xx_hal_flash.c **** 
 1017              		.loc 1 158 3 view .LVU290
 1018 0000 2A4B     		ldr	r3, .L106
 1019 0002 1B7D     		ldrb	r3, [r3, #20]	@ zero_extendqisi2
 1020 0004 012B     		cmp	r3, #1
 1021 0006 4ED0     		beq	.L98
 146:Drivers/STM32H7xx_HAL_Driver/Src/stm32h7xx_hal_flash.c ****   HAL_StatusTypeDef status;
 1022              		.loc 1 146 1 is_stmt 0 discriminator 2 view .LVU291
 1023 0008 70B5     		push	{r4, r5, r6, lr}
 1024              	.LCFI2:
 1025              		.cfi_def_cfa_offset 16
 1026              		.cfi_offset 4, -16
 1027              		.cfi_offset 5, -12
 1028              		.cfi_offset 6, -8
 1029              		.cfi_offset 14, -4
 1030 000a 0D46     		mov	r5, r1
 1031 000c 1446     		mov	r4, r2
 158:Drivers/STM32H7xx_HAL_Driver/Src/stm32h7xx_hal_flash.c **** 
 1032              		.loc 1 158 3 is_stmt 1 discriminator 2 view .LVU292
 1033 000e 274B     		ldr	r3, .L106
 1034 0010 0122     		movs	r2, #1
 1035              	.LVL65:
 158:Drivers/STM32H7xx_HAL_Driver/Src/stm32h7xx_hal_flash.c **** 
 1036              		.loc 1 158 3 is_stmt 0 discriminator 2 view .LVU293
ARM GAS  /tmp/ccDY5NB6.s 			page 38


 1037 0012 1A75     		strb	r2, [r3, #20]
 160:Drivers/STM32H7xx_HAL_Driver/Src/stm32h7xx_hal_flash.c ****   {
 1038              		.loc 1 160 3 is_stmt 1 discriminator 2 view .LVU294
 160:Drivers/STM32H7xx_HAL_Driver/Src/stm32h7xx_hal_flash.c ****   {
 1039              		.loc 1 160 6 is_stmt 0 discriminator 2 view .LVU295
 1040 0014 01F17841 		add	r1, r1, #-134217728
 1041              	.LVL66:
 160:Drivers/STM32H7xx_HAL_Driver/Src/stm32h7xx_hal_flash.c ****   {
 1042              		.loc 1 160 5 discriminator 2 view .LVU296
 1043 0018 B1F5801F 		cmp	r1, #1048576
 1044 001c 35D2     		bcs	.L99
 162:Drivers/STM32H7xx_HAL_Driver/Src/stm32h7xx_hal_flash.c ****   }
 1045              		.loc 1 162 10 view .LVU297
 1046 001e 1646     		mov	r6, r2
 1047              	.L92:
 1048              	.LVL67:
 170:Drivers/STM32H7xx_HAL_Driver/Src/stm32h7xx_hal_flash.c **** 
 1049              		.loc 1 170 3 is_stmt 1 view .LVU298
 170:Drivers/STM32H7xx_HAL_Driver/Src/stm32h7xx_hal_flash.c **** 
 1050              		.loc 1 170 20 is_stmt 0 view .LVU299
 1051 0020 224B     		ldr	r3, .L106
 1052 0022 0022     		movs	r2, #0
 1053 0024 9A61     		str	r2, [r3, #24]
 173:Drivers/STM32H7xx_HAL_Driver/Src/stm32h7xx_hal_flash.c **** 
 1054              		.loc 1 173 3 is_stmt 1 view .LVU300
 173:Drivers/STM32H7xx_HAL_Driver/Src/stm32h7xx_hal_flash.c **** 
 1055              		.loc 1 173 12 is_stmt 0 view .LVU301
 1056 0026 3146     		mov	r1, r6
 1057 0028 4CF25030 		movw	r0, #50000
 1058              	.LVL68:
 173:Drivers/STM32H7xx_HAL_Driver/Src/stm32h7xx_hal_flash.c **** 
 1059              		.loc 1 173 12 view .LVU302
 1060 002c FFF7FEFF 		bl	FLASH_WaitForLastOperation
 1061              	.LVL69:
 175:Drivers/STM32H7xx_HAL_Driver/Src/stm32h7xx_hal_flash.c ****   {
 1062              		.loc 1 175 3 is_stmt 1 view .LVU303
 175:Drivers/STM32H7xx_HAL_Driver/Src/stm32h7xx_hal_flash.c ****   {
 1063              		.loc 1 175 5 is_stmt 0 view .LVU304
 1064 0030 38BB     		cbnz	r0, .L93
 177:Drivers/STM32H7xx_HAL_Driver/Src/stm32h7xx_hal_flash.c ****     {
 1065              		.loc 1 177 5 is_stmt 1 view .LVU305
 177:Drivers/STM32H7xx_HAL_Driver/Src/stm32h7xx_hal_flash.c ****     {
 1066              		.loc 1 177 7 is_stmt 0 view .LVU306
 1067 0032 012E     		cmp	r6, #1
 1068 0034 2BD0     		beq	.L104
 185:Drivers/STM32H7xx_HAL_Driver/Src/stm32h7xx_hal_flash.c ****     }
 1069              		.loc 1 185 7 is_stmt 1 view .LVU307
 1070 0036 1E4A     		ldr	r2, .L106+4
 1071 0038 D2F80C31 		ldr	r3, [r2, #268]
 1072 003c 43F00203 		orr	r3, r3, #2
 1073 0040 C2F80C31 		str	r3, [r2, #268]
 1074              	.L95:
 188:Drivers/STM32H7xx_HAL_Driver/Src/stm32h7xx_hal_flash.c ****     __DSB();
 1075              		.loc 1 188 5 view .LVU308
 1076              	.LBB18:
 1077              	.LBI18:
 1078              		.file 2 "Drivers/CMSIS/Include/cmsis_gcc.h"
ARM GAS  /tmp/ccDY5NB6.s 			page 39


   1:Drivers/CMSIS/Include/cmsis_gcc.h **** /**************************************************************************//**
   2:Drivers/CMSIS/Include/cmsis_gcc.h ****  * @file     cmsis_gcc.h
   3:Drivers/CMSIS/Include/cmsis_gcc.h ****  * @brief    CMSIS compiler GCC header file
   4:Drivers/CMSIS/Include/cmsis_gcc.h ****  * @version  V5.0.4
   5:Drivers/CMSIS/Include/cmsis_gcc.h ****  * @date     09. April 2018
   6:Drivers/CMSIS/Include/cmsis_gcc.h ****  ******************************************************************************/
   7:Drivers/CMSIS/Include/cmsis_gcc.h **** /*
   8:Drivers/CMSIS/Include/cmsis_gcc.h ****  * Copyright (c) 2009-2018 Arm Limited. All rights reserved.
   9:Drivers/CMSIS/Include/cmsis_gcc.h ****  *
  10:Drivers/CMSIS/Include/cmsis_gcc.h ****  * SPDX-License-Identifier: Apache-2.0
  11:Drivers/CMSIS/Include/cmsis_gcc.h ****  *
  12:Drivers/CMSIS/Include/cmsis_gcc.h ****  * Licensed under the Apache License, Version 2.0 (the License); you may
  13:Drivers/CMSIS/Include/cmsis_gcc.h ****  * not use this file except in compliance with the License.
  14:Drivers/CMSIS/Include/cmsis_gcc.h ****  * You may obtain a copy of the License at
  15:Drivers/CMSIS/Include/cmsis_gcc.h ****  *
  16:Drivers/CMSIS/Include/cmsis_gcc.h ****  * www.apache.org/licenses/LICENSE-2.0
  17:Drivers/CMSIS/Include/cmsis_gcc.h ****  *
  18:Drivers/CMSIS/Include/cmsis_gcc.h ****  * Unless required by applicable law or agreed to in writing, software
  19:Drivers/CMSIS/Include/cmsis_gcc.h ****  * distributed under the License is distributed on an AS IS BASIS, WITHOUT
  20:Drivers/CMSIS/Include/cmsis_gcc.h ****  * WARRANTIES OR CONDITIONS OF ANY KIND, either express or implied.
  21:Drivers/CMSIS/Include/cmsis_gcc.h ****  * See the License for the specific language governing permissions and
  22:Drivers/CMSIS/Include/cmsis_gcc.h ****  * limitations under the License.
  23:Drivers/CMSIS/Include/cmsis_gcc.h ****  */
  24:Drivers/CMSIS/Include/cmsis_gcc.h **** 
  25:Drivers/CMSIS/Include/cmsis_gcc.h **** #ifndef __CMSIS_GCC_H
  26:Drivers/CMSIS/Include/cmsis_gcc.h **** #define __CMSIS_GCC_H
  27:Drivers/CMSIS/Include/cmsis_gcc.h **** 
  28:Drivers/CMSIS/Include/cmsis_gcc.h **** /* ignore some GCC warnings */
  29:Drivers/CMSIS/Include/cmsis_gcc.h **** #pragma GCC diagnostic push
  30:Drivers/CMSIS/Include/cmsis_gcc.h **** #pragma GCC diagnostic ignored "-Wsign-conversion"
  31:Drivers/CMSIS/Include/cmsis_gcc.h **** #pragma GCC diagnostic ignored "-Wconversion"
  32:Drivers/CMSIS/Include/cmsis_gcc.h **** #pragma GCC diagnostic ignored "-Wunused-parameter"
  33:Drivers/CMSIS/Include/cmsis_gcc.h **** 
  34:Drivers/CMSIS/Include/cmsis_gcc.h **** /* Fallback for __has_builtin */
  35:Drivers/CMSIS/Include/cmsis_gcc.h **** #ifndef __has_builtin
  36:Drivers/CMSIS/Include/cmsis_gcc.h ****   #define __has_builtin(x) (0)
  37:Drivers/CMSIS/Include/cmsis_gcc.h **** #endif
  38:Drivers/CMSIS/Include/cmsis_gcc.h **** 
  39:Drivers/CMSIS/Include/cmsis_gcc.h **** /* CMSIS compiler specific defines */
  40:Drivers/CMSIS/Include/cmsis_gcc.h **** #ifndef   __ASM
  41:Drivers/CMSIS/Include/cmsis_gcc.h ****   #define __ASM                                  __asm
  42:Drivers/CMSIS/Include/cmsis_gcc.h **** #endif
  43:Drivers/CMSIS/Include/cmsis_gcc.h **** #ifndef   __INLINE
  44:Drivers/CMSIS/Include/cmsis_gcc.h ****   #define __INLINE                               inline
  45:Drivers/CMSIS/Include/cmsis_gcc.h **** #endif
  46:Drivers/CMSIS/Include/cmsis_gcc.h **** #ifndef   __STATIC_INLINE
  47:Drivers/CMSIS/Include/cmsis_gcc.h ****   #define __STATIC_INLINE                        static inline
  48:Drivers/CMSIS/Include/cmsis_gcc.h **** #endif
  49:Drivers/CMSIS/Include/cmsis_gcc.h **** #ifndef   __STATIC_FORCEINLINE                 
  50:Drivers/CMSIS/Include/cmsis_gcc.h ****   #define __STATIC_FORCEINLINE                   __attribute__((always_inline)) static inline
  51:Drivers/CMSIS/Include/cmsis_gcc.h **** #endif                                           
  52:Drivers/CMSIS/Include/cmsis_gcc.h **** #ifndef   __NO_RETURN
  53:Drivers/CMSIS/Include/cmsis_gcc.h ****   #define __NO_RETURN                            __attribute__((__noreturn__))
  54:Drivers/CMSIS/Include/cmsis_gcc.h **** #endif
  55:Drivers/CMSIS/Include/cmsis_gcc.h **** #ifndef   __USED
  56:Drivers/CMSIS/Include/cmsis_gcc.h ****   #define __USED                                 __attribute__((used))
  57:Drivers/CMSIS/Include/cmsis_gcc.h **** #endif
ARM GAS  /tmp/ccDY5NB6.s 			page 40


  58:Drivers/CMSIS/Include/cmsis_gcc.h **** #ifndef   __WEAK
  59:Drivers/CMSIS/Include/cmsis_gcc.h ****   #define __WEAK                                 __attribute__((weak))
  60:Drivers/CMSIS/Include/cmsis_gcc.h **** #endif
  61:Drivers/CMSIS/Include/cmsis_gcc.h **** #ifndef   __PACKED
  62:Drivers/CMSIS/Include/cmsis_gcc.h ****   #define __PACKED                               __attribute__((packed, aligned(1)))
  63:Drivers/CMSIS/Include/cmsis_gcc.h **** #endif
  64:Drivers/CMSIS/Include/cmsis_gcc.h **** #ifndef   __PACKED_STRUCT
  65:Drivers/CMSIS/Include/cmsis_gcc.h ****   #define __PACKED_STRUCT                        struct __attribute__((packed, aligned(1)))
  66:Drivers/CMSIS/Include/cmsis_gcc.h **** #endif
  67:Drivers/CMSIS/Include/cmsis_gcc.h **** #ifndef   __PACKED_UNION
  68:Drivers/CMSIS/Include/cmsis_gcc.h ****   #define __PACKED_UNION                         union __attribute__((packed, aligned(1)))
  69:Drivers/CMSIS/Include/cmsis_gcc.h **** #endif
  70:Drivers/CMSIS/Include/cmsis_gcc.h **** #ifndef   __UNALIGNED_UINT32        /* deprecated */
  71:Drivers/CMSIS/Include/cmsis_gcc.h ****   #pragma GCC diagnostic push
  72:Drivers/CMSIS/Include/cmsis_gcc.h ****   #pragma GCC diagnostic ignored "-Wpacked"
  73:Drivers/CMSIS/Include/cmsis_gcc.h ****   #pragma GCC diagnostic ignored "-Wattributes"
  74:Drivers/CMSIS/Include/cmsis_gcc.h ****   struct __attribute__((packed)) T_UINT32 { uint32_t v; };
  75:Drivers/CMSIS/Include/cmsis_gcc.h ****   #pragma GCC diagnostic pop
  76:Drivers/CMSIS/Include/cmsis_gcc.h ****   #define __UNALIGNED_UINT32(x)                  (((struct T_UINT32 *)(x))->v)
  77:Drivers/CMSIS/Include/cmsis_gcc.h **** #endif
  78:Drivers/CMSIS/Include/cmsis_gcc.h **** #ifndef   __UNALIGNED_UINT16_WRITE
  79:Drivers/CMSIS/Include/cmsis_gcc.h ****   #pragma GCC diagnostic push
  80:Drivers/CMSIS/Include/cmsis_gcc.h ****   #pragma GCC diagnostic ignored "-Wpacked"
  81:Drivers/CMSIS/Include/cmsis_gcc.h ****   #pragma GCC diagnostic ignored "-Wattributes"
  82:Drivers/CMSIS/Include/cmsis_gcc.h ****   __PACKED_STRUCT T_UINT16_WRITE { uint16_t v; };
  83:Drivers/CMSIS/Include/cmsis_gcc.h ****   #pragma GCC diagnostic pop
  84:Drivers/CMSIS/Include/cmsis_gcc.h ****   #define __UNALIGNED_UINT16_WRITE(addr, val)    (void)((((struct T_UINT16_WRITE *)(void *)(addr))-
  85:Drivers/CMSIS/Include/cmsis_gcc.h **** #endif
  86:Drivers/CMSIS/Include/cmsis_gcc.h **** #ifndef   __UNALIGNED_UINT16_READ
  87:Drivers/CMSIS/Include/cmsis_gcc.h ****   #pragma GCC diagnostic push
  88:Drivers/CMSIS/Include/cmsis_gcc.h ****   #pragma GCC diagnostic ignored "-Wpacked"
  89:Drivers/CMSIS/Include/cmsis_gcc.h ****   #pragma GCC diagnostic ignored "-Wattributes"
  90:Drivers/CMSIS/Include/cmsis_gcc.h ****   __PACKED_STRUCT T_UINT16_READ { uint16_t v; };
  91:Drivers/CMSIS/Include/cmsis_gcc.h ****   #pragma GCC diagnostic pop
  92:Drivers/CMSIS/Include/cmsis_gcc.h ****   #define __UNALIGNED_UINT16_READ(addr)          (((const struct T_UINT16_READ *)(const void *)(add
  93:Drivers/CMSIS/Include/cmsis_gcc.h **** #endif
  94:Drivers/CMSIS/Include/cmsis_gcc.h **** #ifndef   __UNALIGNED_UINT32_WRITE
  95:Drivers/CMSIS/Include/cmsis_gcc.h ****   #pragma GCC diagnostic push
  96:Drivers/CMSIS/Include/cmsis_gcc.h ****   #pragma GCC diagnostic ignored "-Wpacked"
  97:Drivers/CMSIS/Include/cmsis_gcc.h ****   #pragma GCC diagnostic ignored "-Wattributes"
  98:Drivers/CMSIS/Include/cmsis_gcc.h ****   __PACKED_STRUCT T_UINT32_WRITE { uint32_t v; };
  99:Drivers/CMSIS/Include/cmsis_gcc.h ****   #pragma GCC diagnostic pop
 100:Drivers/CMSIS/Include/cmsis_gcc.h ****   #define __UNALIGNED_UINT32_WRITE(addr, val)    (void)((((struct T_UINT32_WRITE *)(void *)(addr))-
 101:Drivers/CMSIS/Include/cmsis_gcc.h **** #endif
 102:Drivers/CMSIS/Include/cmsis_gcc.h **** #ifndef   __UNALIGNED_UINT32_READ
 103:Drivers/CMSIS/Include/cmsis_gcc.h ****   #pragma GCC diagnostic push
 104:Drivers/CMSIS/Include/cmsis_gcc.h ****   #pragma GCC diagnostic ignored "-Wpacked"
 105:Drivers/CMSIS/Include/cmsis_gcc.h ****   #pragma GCC diagnostic ignored "-Wattributes"
 106:Drivers/CMSIS/Include/cmsis_gcc.h ****   __PACKED_STRUCT T_UINT32_READ { uint32_t v; };
 107:Drivers/CMSIS/Include/cmsis_gcc.h ****   #pragma GCC diagnostic pop
 108:Drivers/CMSIS/Include/cmsis_gcc.h ****   #define __UNALIGNED_UINT32_READ(addr)          (((const struct T_UINT32_READ *)(const void *)(add
 109:Drivers/CMSIS/Include/cmsis_gcc.h **** #endif
 110:Drivers/CMSIS/Include/cmsis_gcc.h **** #ifndef   __ALIGNED
 111:Drivers/CMSIS/Include/cmsis_gcc.h ****   #define __ALIGNED(x)                           __attribute__((aligned(x)))
 112:Drivers/CMSIS/Include/cmsis_gcc.h **** #endif
 113:Drivers/CMSIS/Include/cmsis_gcc.h **** #ifndef   __RESTRICT
 114:Drivers/CMSIS/Include/cmsis_gcc.h ****   #define __RESTRICT                             __restrict
ARM GAS  /tmp/ccDY5NB6.s 			page 41


 115:Drivers/CMSIS/Include/cmsis_gcc.h **** #endif
 116:Drivers/CMSIS/Include/cmsis_gcc.h **** 
 117:Drivers/CMSIS/Include/cmsis_gcc.h **** 
 118:Drivers/CMSIS/Include/cmsis_gcc.h **** /* ###########################  Core Function Access  ########################### */
 119:Drivers/CMSIS/Include/cmsis_gcc.h **** /** \ingroup  CMSIS_Core_FunctionInterface
 120:Drivers/CMSIS/Include/cmsis_gcc.h ****     \defgroup CMSIS_Core_RegAccFunctions CMSIS Core Register Access Functions
 121:Drivers/CMSIS/Include/cmsis_gcc.h ****   @{
 122:Drivers/CMSIS/Include/cmsis_gcc.h ****  */
 123:Drivers/CMSIS/Include/cmsis_gcc.h **** 
 124:Drivers/CMSIS/Include/cmsis_gcc.h **** /**
 125:Drivers/CMSIS/Include/cmsis_gcc.h ****   \brief   Enable IRQ Interrupts
 126:Drivers/CMSIS/Include/cmsis_gcc.h ****   \details Enables IRQ interrupts by clearing the I-bit in the CPSR.
 127:Drivers/CMSIS/Include/cmsis_gcc.h ****            Can only be executed in Privileged modes.
 128:Drivers/CMSIS/Include/cmsis_gcc.h ****  */
 129:Drivers/CMSIS/Include/cmsis_gcc.h **** __STATIC_FORCEINLINE void __enable_irq(void)
 130:Drivers/CMSIS/Include/cmsis_gcc.h **** {
 131:Drivers/CMSIS/Include/cmsis_gcc.h ****   __ASM volatile ("cpsie i" : : : "memory");
 132:Drivers/CMSIS/Include/cmsis_gcc.h **** }
 133:Drivers/CMSIS/Include/cmsis_gcc.h **** 
 134:Drivers/CMSIS/Include/cmsis_gcc.h **** 
 135:Drivers/CMSIS/Include/cmsis_gcc.h **** /**
 136:Drivers/CMSIS/Include/cmsis_gcc.h ****   \brief   Disable IRQ Interrupts
 137:Drivers/CMSIS/Include/cmsis_gcc.h ****   \details Disables IRQ interrupts by setting the I-bit in the CPSR.
 138:Drivers/CMSIS/Include/cmsis_gcc.h ****            Can only be executed in Privileged modes.
 139:Drivers/CMSIS/Include/cmsis_gcc.h ****  */
 140:Drivers/CMSIS/Include/cmsis_gcc.h **** __STATIC_FORCEINLINE void __disable_irq(void)
 141:Drivers/CMSIS/Include/cmsis_gcc.h **** {
 142:Drivers/CMSIS/Include/cmsis_gcc.h ****   __ASM volatile ("cpsid i" : : : "memory");
 143:Drivers/CMSIS/Include/cmsis_gcc.h **** }
 144:Drivers/CMSIS/Include/cmsis_gcc.h **** 
 145:Drivers/CMSIS/Include/cmsis_gcc.h **** 
 146:Drivers/CMSIS/Include/cmsis_gcc.h **** /**
 147:Drivers/CMSIS/Include/cmsis_gcc.h ****   \brief   Get Control Register
 148:Drivers/CMSIS/Include/cmsis_gcc.h ****   \details Returns the content of the Control Register.
 149:Drivers/CMSIS/Include/cmsis_gcc.h ****   \return               Control Register value
 150:Drivers/CMSIS/Include/cmsis_gcc.h ****  */
 151:Drivers/CMSIS/Include/cmsis_gcc.h **** __STATIC_FORCEINLINE uint32_t __get_CONTROL(void)
 152:Drivers/CMSIS/Include/cmsis_gcc.h **** {
 153:Drivers/CMSIS/Include/cmsis_gcc.h ****   uint32_t result;
 154:Drivers/CMSIS/Include/cmsis_gcc.h **** 
 155:Drivers/CMSIS/Include/cmsis_gcc.h ****   __ASM volatile ("MRS %0, control" : "=r" (result) );
 156:Drivers/CMSIS/Include/cmsis_gcc.h ****   return(result);
 157:Drivers/CMSIS/Include/cmsis_gcc.h **** }
 158:Drivers/CMSIS/Include/cmsis_gcc.h **** 
 159:Drivers/CMSIS/Include/cmsis_gcc.h **** 
 160:Drivers/CMSIS/Include/cmsis_gcc.h **** #if (defined (__ARM_FEATURE_CMSE ) && (__ARM_FEATURE_CMSE == 3))
 161:Drivers/CMSIS/Include/cmsis_gcc.h **** /**
 162:Drivers/CMSIS/Include/cmsis_gcc.h ****   \brief   Get Control Register (non-secure)
 163:Drivers/CMSIS/Include/cmsis_gcc.h ****   \details Returns the content of the non-secure Control Register when in secure mode.
 164:Drivers/CMSIS/Include/cmsis_gcc.h ****   \return               non-secure Control Register value
 165:Drivers/CMSIS/Include/cmsis_gcc.h ****  */
 166:Drivers/CMSIS/Include/cmsis_gcc.h **** __STATIC_FORCEINLINE uint32_t __TZ_get_CONTROL_NS(void)
 167:Drivers/CMSIS/Include/cmsis_gcc.h **** {
 168:Drivers/CMSIS/Include/cmsis_gcc.h ****   uint32_t result;
 169:Drivers/CMSIS/Include/cmsis_gcc.h **** 
 170:Drivers/CMSIS/Include/cmsis_gcc.h ****   __ASM volatile ("MRS %0, control_ns" : "=r" (result) );
 171:Drivers/CMSIS/Include/cmsis_gcc.h ****   return(result);
ARM GAS  /tmp/ccDY5NB6.s 			page 42


 172:Drivers/CMSIS/Include/cmsis_gcc.h **** }
 173:Drivers/CMSIS/Include/cmsis_gcc.h **** #endif
 174:Drivers/CMSIS/Include/cmsis_gcc.h **** 
 175:Drivers/CMSIS/Include/cmsis_gcc.h **** 
 176:Drivers/CMSIS/Include/cmsis_gcc.h **** /**
 177:Drivers/CMSIS/Include/cmsis_gcc.h ****   \brief   Set Control Register
 178:Drivers/CMSIS/Include/cmsis_gcc.h ****   \details Writes the given value to the Control Register.
 179:Drivers/CMSIS/Include/cmsis_gcc.h ****   \param [in]    control  Control Register value to set
 180:Drivers/CMSIS/Include/cmsis_gcc.h ****  */
 181:Drivers/CMSIS/Include/cmsis_gcc.h **** __STATIC_FORCEINLINE void __set_CONTROL(uint32_t control)
 182:Drivers/CMSIS/Include/cmsis_gcc.h **** {
 183:Drivers/CMSIS/Include/cmsis_gcc.h ****   __ASM volatile ("MSR control, %0" : : "r" (control) : "memory");
 184:Drivers/CMSIS/Include/cmsis_gcc.h **** }
 185:Drivers/CMSIS/Include/cmsis_gcc.h **** 
 186:Drivers/CMSIS/Include/cmsis_gcc.h **** 
 187:Drivers/CMSIS/Include/cmsis_gcc.h **** #if (defined (__ARM_FEATURE_CMSE ) && (__ARM_FEATURE_CMSE == 3))
 188:Drivers/CMSIS/Include/cmsis_gcc.h **** /**
 189:Drivers/CMSIS/Include/cmsis_gcc.h ****   \brief   Set Control Register (non-secure)
 190:Drivers/CMSIS/Include/cmsis_gcc.h ****   \details Writes the given value to the non-secure Control Register when in secure state.
 191:Drivers/CMSIS/Include/cmsis_gcc.h ****   \param [in]    control  Control Register value to set
 192:Drivers/CMSIS/Include/cmsis_gcc.h ****  */
 193:Drivers/CMSIS/Include/cmsis_gcc.h **** __STATIC_FORCEINLINE void __TZ_set_CONTROL_NS(uint32_t control)
 194:Drivers/CMSIS/Include/cmsis_gcc.h **** {
 195:Drivers/CMSIS/Include/cmsis_gcc.h ****   __ASM volatile ("MSR control_ns, %0" : : "r" (control) : "memory");
 196:Drivers/CMSIS/Include/cmsis_gcc.h **** }
 197:Drivers/CMSIS/Include/cmsis_gcc.h **** #endif
 198:Drivers/CMSIS/Include/cmsis_gcc.h **** 
 199:Drivers/CMSIS/Include/cmsis_gcc.h **** 
 200:Drivers/CMSIS/Include/cmsis_gcc.h **** /**
 201:Drivers/CMSIS/Include/cmsis_gcc.h ****   \brief   Get IPSR Register
 202:Drivers/CMSIS/Include/cmsis_gcc.h ****   \details Returns the content of the IPSR Register.
 203:Drivers/CMSIS/Include/cmsis_gcc.h ****   \return               IPSR Register value
 204:Drivers/CMSIS/Include/cmsis_gcc.h ****  */
 205:Drivers/CMSIS/Include/cmsis_gcc.h **** __STATIC_FORCEINLINE uint32_t __get_IPSR(void)
 206:Drivers/CMSIS/Include/cmsis_gcc.h **** {
 207:Drivers/CMSIS/Include/cmsis_gcc.h ****   uint32_t result;
 208:Drivers/CMSIS/Include/cmsis_gcc.h **** 
 209:Drivers/CMSIS/Include/cmsis_gcc.h ****   __ASM volatile ("MRS %0, ipsr" : "=r" (result) );
 210:Drivers/CMSIS/Include/cmsis_gcc.h ****   return(result);
 211:Drivers/CMSIS/Include/cmsis_gcc.h **** }
 212:Drivers/CMSIS/Include/cmsis_gcc.h **** 
 213:Drivers/CMSIS/Include/cmsis_gcc.h **** 
 214:Drivers/CMSIS/Include/cmsis_gcc.h **** /**
 215:Drivers/CMSIS/Include/cmsis_gcc.h ****   \brief   Get APSR Register
 216:Drivers/CMSIS/Include/cmsis_gcc.h ****   \details Returns the content of the APSR Register.
 217:Drivers/CMSIS/Include/cmsis_gcc.h ****   \return               APSR Register value
 218:Drivers/CMSIS/Include/cmsis_gcc.h ****  */
 219:Drivers/CMSIS/Include/cmsis_gcc.h **** __STATIC_FORCEINLINE uint32_t __get_APSR(void)
 220:Drivers/CMSIS/Include/cmsis_gcc.h **** {
 221:Drivers/CMSIS/Include/cmsis_gcc.h ****   uint32_t result;
 222:Drivers/CMSIS/Include/cmsis_gcc.h **** 
 223:Drivers/CMSIS/Include/cmsis_gcc.h ****   __ASM volatile ("MRS %0, apsr" : "=r" (result) );
 224:Drivers/CMSIS/Include/cmsis_gcc.h ****   return(result);
 225:Drivers/CMSIS/Include/cmsis_gcc.h **** }
 226:Drivers/CMSIS/Include/cmsis_gcc.h **** 
 227:Drivers/CMSIS/Include/cmsis_gcc.h **** 
 228:Drivers/CMSIS/Include/cmsis_gcc.h **** /**
ARM GAS  /tmp/ccDY5NB6.s 			page 43


 229:Drivers/CMSIS/Include/cmsis_gcc.h ****   \brief   Get xPSR Register
 230:Drivers/CMSIS/Include/cmsis_gcc.h ****   \details Returns the content of the xPSR Register.
 231:Drivers/CMSIS/Include/cmsis_gcc.h ****   \return               xPSR Register value
 232:Drivers/CMSIS/Include/cmsis_gcc.h ****  */
 233:Drivers/CMSIS/Include/cmsis_gcc.h **** __STATIC_FORCEINLINE uint32_t __get_xPSR(void)
 234:Drivers/CMSIS/Include/cmsis_gcc.h **** {
 235:Drivers/CMSIS/Include/cmsis_gcc.h ****   uint32_t result;
 236:Drivers/CMSIS/Include/cmsis_gcc.h **** 
 237:Drivers/CMSIS/Include/cmsis_gcc.h ****   __ASM volatile ("MRS %0, xpsr" : "=r" (result) );
 238:Drivers/CMSIS/Include/cmsis_gcc.h ****   return(result);
 239:Drivers/CMSIS/Include/cmsis_gcc.h **** }
 240:Drivers/CMSIS/Include/cmsis_gcc.h **** 
 241:Drivers/CMSIS/Include/cmsis_gcc.h **** 
 242:Drivers/CMSIS/Include/cmsis_gcc.h **** /**
 243:Drivers/CMSIS/Include/cmsis_gcc.h ****   \brief   Get Process Stack Pointer
 244:Drivers/CMSIS/Include/cmsis_gcc.h ****   \details Returns the current value of the Process Stack Pointer (PSP).
 245:Drivers/CMSIS/Include/cmsis_gcc.h ****   \return               PSP Register value
 246:Drivers/CMSIS/Include/cmsis_gcc.h ****  */
 247:Drivers/CMSIS/Include/cmsis_gcc.h **** __STATIC_FORCEINLINE uint32_t __get_PSP(void)
 248:Drivers/CMSIS/Include/cmsis_gcc.h **** {
 249:Drivers/CMSIS/Include/cmsis_gcc.h ****   uint32_t result;
 250:Drivers/CMSIS/Include/cmsis_gcc.h **** 
 251:Drivers/CMSIS/Include/cmsis_gcc.h ****   __ASM volatile ("MRS %0, psp"  : "=r" (result) );
 252:Drivers/CMSIS/Include/cmsis_gcc.h ****   return(result);
 253:Drivers/CMSIS/Include/cmsis_gcc.h **** }
 254:Drivers/CMSIS/Include/cmsis_gcc.h **** 
 255:Drivers/CMSIS/Include/cmsis_gcc.h **** 
 256:Drivers/CMSIS/Include/cmsis_gcc.h **** #if (defined (__ARM_FEATURE_CMSE ) && (__ARM_FEATURE_CMSE == 3))
 257:Drivers/CMSIS/Include/cmsis_gcc.h **** /**
 258:Drivers/CMSIS/Include/cmsis_gcc.h ****   \brief   Get Process Stack Pointer (non-secure)
 259:Drivers/CMSIS/Include/cmsis_gcc.h ****   \details Returns the current value of the non-secure Process Stack Pointer (PSP) when in secure s
 260:Drivers/CMSIS/Include/cmsis_gcc.h ****   \return               PSP Register value
 261:Drivers/CMSIS/Include/cmsis_gcc.h ****  */
 262:Drivers/CMSIS/Include/cmsis_gcc.h **** __STATIC_FORCEINLINE uint32_t __TZ_get_PSP_NS(void)
 263:Drivers/CMSIS/Include/cmsis_gcc.h **** {
 264:Drivers/CMSIS/Include/cmsis_gcc.h ****   uint32_t result;
 265:Drivers/CMSIS/Include/cmsis_gcc.h **** 
 266:Drivers/CMSIS/Include/cmsis_gcc.h ****   __ASM volatile ("MRS %0, psp_ns"  : "=r" (result) );
 267:Drivers/CMSIS/Include/cmsis_gcc.h ****   return(result);
 268:Drivers/CMSIS/Include/cmsis_gcc.h **** }
 269:Drivers/CMSIS/Include/cmsis_gcc.h **** #endif
 270:Drivers/CMSIS/Include/cmsis_gcc.h **** 
 271:Drivers/CMSIS/Include/cmsis_gcc.h **** 
 272:Drivers/CMSIS/Include/cmsis_gcc.h **** /**
 273:Drivers/CMSIS/Include/cmsis_gcc.h ****   \brief   Set Process Stack Pointer
 274:Drivers/CMSIS/Include/cmsis_gcc.h ****   \details Assigns the given value to the Process Stack Pointer (PSP).
 275:Drivers/CMSIS/Include/cmsis_gcc.h ****   \param [in]    topOfProcStack  Process Stack Pointer value to set
 276:Drivers/CMSIS/Include/cmsis_gcc.h ****  */
 277:Drivers/CMSIS/Include/cmsis_gcc.h **** __STATIC_FORCEINLINE void __set_PSP(uint32_t topOfProcStack)
 278:Drivers/CMSIS/Include/cmsis_gcc.h **** {
 279:Drivers/CMSIS/Include/cmsis_gcc.h ****   __ASM volatile ("MSR psp, %0" : : "r" (topOfProcStack) : );
 280:Drivers/CMSIS/Include/cmsis_gcc.h **** }
 281:Drivers/CMSIS/Include/cmsis_gcc.h **** 
 282:Drivers/CMSIS/Include/cmsis_gcc.h **** 
 283:Drivers/CMSIS/Include/cmsis_gcc.h **** #if (defined (__ARM_FEATURE_CMSE ) && (__ARM_FEATURE_CMSE == 3))
 284:Drivers/CMSIS/Include/cmsis_gcc.h **** /**
 285:Drivers/CMSIS/Include/cmsis_gcc.h ****   \brief   Set Process Stack Pointer (non-secure)
ARM GAS  /tmp/ccDY5NB6.s 			page 44


 286:Drivers/CMSIS/Include/cmsis_gcc.h ****   \details Assigns the given value to the non-secure Process Stack Pointer (PSP) when in secure sta
 287:Drivers/CMSIS/Include/cmsis_gcc.h ****   \param [in]    topOfProcStack  Process Stack Pointer value to set
 288:Drivers/CMSIS/Include/cmsis_gcc.h ****  */
 289:Drivers/CMSIS/Include/cmsis_gcc.h **** __STATIC_FORCEINLINE void __TZ_set_PSP_NS(uint32_t topOfProcStack)
 290:Drivers/CMSIS/Include/cmsis_gcc.h **** {
 291:Drivers/CMSIS/Include/cmsis_gcc.h ****   __ASM volatile ("MSR psp_ns, %0" : : "r" (topOfProcStack) : );
 292:Drivers/CMSIS/Include/cmsis_gcc.h **** }
 293:Drivers/CMSIS/Include/cmsis_gcc.h **** #endif
 294:Drivers/CMSIS/Include/cmsis_gcc.h **** 
 295:Drivers/CMSIS/Include/cmsis_gcc.h **** 
 296:Drivers/CMSIS/Include/cmsis_gcc.h **** /**
 297:Drivers/CMSIS/Include/cmsis_gcc.h ****   \brief   Get Main Stack Pointer
 298:Drivers/CMSIS/Include/cmsis_gcc.h ****   \details Returns the current value of the Main Stack Pointer (MSP).
 299:Drivers/CMSIS/Include/cmsis_gcc.h ****   \return               MSP Register value
 300:Drivers/CMSIS/Include/cmsis_gcc.h ****  */
 301:Drivers/CMSIS/Include/cmsis_gcc.h **** __STATIC_FORCEINLINE uint32_t __get_MSP(void)
 302:Drivers/CMSIS/Include/cmsis_gcc.h **** {
 303:Drivers/CMSIS/Include/cmsis_gcc.h ****   uint32_t result;
 304:Drivers/CMSIS/Include/cmsis_gcc.h **** 
 305:Drivers/CMSIS/Include/cmsis_gcc.h ****   __ASM volatile ("MRS %0, msp" : "=r" (result) );
 306:Drivers/CMSIS/Include/cmsis_gcc.h ****   return(result);
 307:Drivers/CMSIS/Include/cmsis_gcc.h **** }
 308:Drivers/CMSIS/Include/cmsis_gcc.h **** 
 309:Drivers/CMSIS/Include/cmsis_gcc.h **** 
 310:Drivers/CMSIS/Include/cmsis_gcc.h **** #if (defined (__ARM_FEATURE_CMSE ) && (__ARM_FEATURE_CMSE == 3))
 311:Drivers/CMSIS/Include/cmsis_gcc.h **** /**
 312:Drivers/CMSIS/Include/cmsis_gcc.h ****   \brief   Get Main Stack Pointer (non-secure)
 313:Drivers/CMSIS/Include/cmsis_gcc.h ****   \details Returns the current value of the non-secure Main Stack Pointer (MSP) when in secure stat
 314:Drivers/CMSIS/Include/cmsis_gcc.h ****   \return               MSP Register value
 315:Drivers/CMSIS/Include/cmsis_gcc.h ****  */
 316:Drivers/CMSIS/Include/cmsis_gcc.h **** __STATIC_FORCEINLINE uint32_t __TZ_get_MSP_NS(void)
 317:Drivers/CMSIS/Include/cmsis_gcc.h **** {
 318:Drivers/CMSIS/Include/cmsis_gcc.h ****   uint32_t result;
 319:Drivers/CMSIS/Include/cmsis_gcc.h **** 
 320:Drivers/CMSIS/Include/cmsis_gcc.h ****   __ASM volatile ("MRS %0, msp_ns" : "=r" (result) );
 321:Drivers/CMSIS/Include/cmsis_gcc.h ****   return(result);
 322:Drivers/CMSIS/Include/cmsis_gcc.h **** }
 323:Drivers/CMSIS/Include/cmsis_gcc.h **** #endif
 324:Drivers/CMSIS/Include/cmsis_gcc.h **** 
 325:Drivers/CMSIS/Include/cmsis_gcc.h **** 
 326:Drivers/CMSIS/Include/cmsis_gcc.h **** /**
 327:Drivers/CMSIS/Include/cmsis_gcc.h ****   \brief   Set Main Stack Pointer
 328:Drivers/CMSIS/Include/cmsis_gcc.h ****   \details Assigns the given value to the Main Stack Pointer (MSP).
 329:Drivers/CMSIS/Include/cmsis_gcc.h ****   \param [in]    topOfMainStack  Main Stack Pointer value to set
 330:Drivers/CMSIS/Include/cmsis_gcc.h ****  */
 331:Drivers/CMSIS/Include/cmsis_gcc.h **** __STATIC_FORCEINLINE void __set_MSP(uint32_t topOfMainStack)
 332:Drivers/CMSIS/Include/cmsis_gcc.h **** {
 333:Drivers/CMSIS/Include/cmsis_gcc.h ****   __ASM volatile ("MSR msp, %0" : : "r" (topOfMainStack) : );
 334:Drivers/CMSIS/Include/cmsis_gcc.h **** }
 335:Drivers/CMSIS/Include/cmsis_gcc.h **** 
 336:Drivers/CMSIS/Include/cmsis_gcc.h **** 
 337:Drivers/CMSIS/Include/cmsis_gcc.h **** #if (defined (__ARM_FEATURE_CMSE ) && (__ARM_FEATURE_CMSE == 3))
 338:Drivers/CMSIS/Include/cmsis_gcc.h **** /**
 339:Drivers/CMSIS/Include/cmsis_gcc.h ****   \brief   Set Main Stack Pointer (non-secure)
 340:Drivers/CMSIS/Include/cmsis_gcc.h ****   \details Assigns the given value to the non-secure Main Stack Pointer (MSP) when in secure state.
 341:Drivers/CMSIS/Include/cmsis_gcc.h ****   \param [in]    topOfMainStack  Main Stack Pointer value to set
 342:Drivers/CMSIS/Include/cmsis_gcc.h ****  */
ARM GAS  /tmp/ccDY5NB6.s 			page 45


 343:Drivers/CMSIS/Include/cmsis_gcc.h **** __STATIC_FORCEINLINE void __TZ_set_MSP_NS(uint32_t topOfMainStack)
 344:Drivers/CMSIS/Include/cmsis_gcc.h **** {
 345:Drivers/CMSIS/Include/cmsis_gcc.h ****   __ASM volatile ("MSR msp_ns, %0" : : "r" (topOfMainStack) : );
 346:Drivers/CMSIS/Include/cmsis_gcc.h **** }
 347:Drivers/CMSIS/Include/cmsis_gcc.h **** #endif
 348:Drivers/CMSIS/Include/cmsis_gcc.h **** 
 349:Drivers/CMSIS/Include/cmsis_gcc.h **** 
 350:Drivers/CMSIS/Include/cmsis_gcc.h **** #if (defined (__ARM_FEATURE_CMSE ) && (__ARM_FEATURE_CMSE == 3))
 351:Drivers/CMSIS/Include/cmsis_gcc.h **** /**
 352:Drivers/CMSIS/Include/cmsis_gcc.h ****   \brief   Get Stack Pointer (non-secure)
 353:Drivers/CMSIS/Include/cmsis_gcc.h ****   \details Returns the current value of the non-secure Stack Pointer (SP) when in secure state.
 354:Drivers/CMSIS/Include/cmsis_gcc.h ****   \return               SP Register value
 355:Drivers/CMSIS/Include/cmsis_gcc.h ****  */
 356:Drivers/CMSIS/Include/cmsis_gcc.h **** __STATIC_FORCEINLINE uint32_t __TZ_get_SP_NS(void)
 357:Drivers/CMSIS/Include/cmsis_gcc.h **** {
 358:Drivers/CMSIS/Include/cmsis_gcc.h ****   uint32_t result;
 359:Drivers/CMSIS/Include/cmsis_gcc.h **** 
 360:Drivers/CMSIS/Include/cmsis_gcc.h ****   __ASM volatile ("MRS %0, sp_ns" : "=r" (result) );
 361:Drivers/CMSIS/Include/cmsis_gcc.h ****   return(result);
 362:Drivers/CMSIS/Include/cmsis_gcc.h **** }
 363:Drivers/CMSIS/Include/cmsis_gcc.h **** 
 364:Drivers/CMSIS/Include/cmsis_gcc.h **** 
 365:Drivers/CMSIS/Include/cmsis_gcc.h **** /**
 366:Drivers/CMSIS/Include/cmsis_gcc.h ****   \brief   Set Stack Pointer (non-secure)
 367:Drivers/CMSIS/Include/cmsis_gcc.h ****   \details Assigns the given value to the non-secure Stack Pointer (SP) when in secure state.
 368:Drivers/CMSIS/Include/cmsis_gcc.h ****   \param [in]    topOfStack  Stack Pointer value to set
 369:Drivers/CMSIS/Include/cmsis_gcc.h ****  */
 370:Drivers/CMSIS/Include/cmsis_gcc.h **** __STATIC_FORCEINLINE void __TZ_set_SP_NS(uint32_t topOfStack)
 371:Drivers/CMSIS/Include/cmsis_gcc.h **** {
 372:Drivers/CMSIS/Include/cmsis_gcc.h ****   __ASM volatile ("MSR sp_ns, %0" : : "r" (topOfStack) : );
 373:Drivers/CMSIS/Include/cmsis_gcc.h **** }
 374:Drivers/CMSIS/Include/cmsis_gcc.h **** #endif
 375:Drivers/CMSIS/Include/cmsis_gcc.h **** 
 376:Drivers/CMSIS/Include/cmsis_gcc.h **** 
 377:Drivers/CMSIS/Include/cmsis_gcc.h **** /**
 378:Drivers/CMSIS/Include/cmsis_gcc.h ****   \brief   Get Priority Mask
 379:Drivers/CMSIS/Include/cmsis_gcc.h ****   \details Returns the current state of the priority mask bit from the Priority Mask Register.
 380:Drivers/CMSIS/Include/cmsis_gcc.h ****   \return               Priority Mask value
 381:Drivers/CMSIS/Include/cmsis_gcc.h ****  */
 382:Drivers/CMSIS/Include/cmsis_gcc.h **** __STATIC_FORCEINLINE uint32_t __get_PRIMASK(void)
 383:Drivers/CMSIS/Include/cmsis_gcc.h **** {
 384:Drivers/CMSIS/Include/cmsis_gcc.h ****   uint32_t result;
 385:Drivers/CMSIS/Include/cmsis_gcc.h **** 
 386:Drivers/CMSIS/Include/cmsis_gcc.h ****   __ASM volatile ("MRS %0, primask" : "=r" (result) :: "memory");
 387:Drivers/CMSIS/Include/cmsis_gcc.h ****   return(result);
 388:Drivers/CMSIS/Include/cmsis_gcc.h **** }
 389:Drivers/CMSIS/Include/cmsis_gcc.h **** 
 390:Drivers/CMSIS/Include/cmsis_gcc.h **** 
 391:Drivers/CMSIS/Include/cmsis_gcc.h **** #if (defined (__ARM_FEATURE_CMSE ) && (__ARM_FEATURE_CMSE == 3))
 392:Drivers/CMSIS/Include/cmsis_gcc.h **** /**
 393:Drivers/CMSIS/Include/cmsis_gcc.h ****   \brief   Get Priority Mask (non-secure)
 394:Drivers/CMSIS/Include/cmsis_gcc.h ****   \details Returns the current state of the non-secure priority mask bit from the Priority Mask Reg
 395:Drivers/CMSIS/Include/cmsis_gcc.h ****   \return               Priority Mask value
 396:Drivers/CMSIS/Include/cmsis_gcc.h ****  */
 397:Drivers/CMSIS/Include/cmsis_gcc.h **** __STATIC_FORCEINLINE uint32_t __TZ_get_PRIMASK_NS(void)
 398:Drivers/CMSIS/Include/cmsis_gcc.h **** {
 399:Drivers/CMSIS/Include/cmsis_gcc.h ****   uint32_t result;
ARM GAS  /tmp/ccDY5NB6.s 			page 46


 400:Drivers/CMSIS/Include/cmsis_gcc.h **** 
 401:Drivers/CMSIS/Include/cmsis_gcc.h ****   __ASM volatile ("MRS %0, primask_ns" : "=r" (result) :: "memory");
 402:Drivers/CMSIS/Include/cmsis_gcc.h ****   return(result);
 403:Drivers/CMSIS/Include/cmsis_gcc.h **** }
 404:Drivers/CMSIS/Include/cmsis_gcc.h **** #endif
 405:Drivers/CMSIS/Include/cmsis_gcc.h **** 
 406:Drivers/CMSIS/Include/cmsis_gcc.h **** 
 407:Drivers/CMSIS/Include/cmsis_gcc.h **** /**
 408:Drivers/CMSIS/Include/cmsis_gcc.h ****   \brief   Set Priority Mask
 409:Drivers/CMSIS/Include/cmsis_gcc.h ****   \details Assigns the given value to the Priority Mask Register.
 410:Drivers/CMSIS/Include/cmsis_gcc.h ****   \param [in]    priMask  Priority Mask
 411:Drivers/CMSIS/Include/cmsis_gcc.h ****  */
 412:Drivers/CMSIS/Include/cmsis_gcc.h **** __STATIC_FORCEINLINE void __set_PRIMASK(uint32_t priMask)
 413:Drivers/CMSIS/Include/cmsis_gcc.h **** {
 414:Drivers/CMSIS/Include/cmsis_gcc.h ****   __ASM volatile ("MSR primask, %0" : : "r" (priMask) : "memory");
 415:Drivers/CMSIS/Include/cmsis_gcc.h **** }
 416:Drivers/CMSIS/Include/cmsis_gcc.h **** 
 417:Drivers/CMSIS/Include/cmsis_gcc.h **** 
 418:Drivers/CMSIS/Include/cmsis_gcc.h **** #if (defined (__ARM_FEATURE_CMSE ) && (__ARM_FEATURE_CMSE == 3))
 419:Drivers/CMSIS/Include/cmsis_gcc.h **** /**
 420:Drivers/CMSIS/Include/cmsis_gcc.h ****   \brief   Set Priority Mask (non-secure)
 421:Drivers/CMSIS/Include/cmsis_gcc.h ****   \details Assigns the given value to the non-secure Priority Mask Register when in secure state.
 422:Drivers/CMSIS/Include/cmsis_gcc.h ****   \param [in]    priMask  Priority Mask
 423:Drivers/CMSIS/Include/cmsis_gcc.h ****  */
 424:Drivers/CMSIS/Include/cmsis_gcc.h **** __STATIC_FORCEINLINE void __TZ_set_PRIMASK_NS(uint32_t priMask)
 425:Drivers/CMSIS/Include/cmsis_gcc.h **** {
 426:Drivers/CMSIS/Include/cmsis_gcc.h ****   __ASM volatile ("MSR primask_ns, %0" : : "r" (priMask) : "memory");
 427:Drivers/CMSIS/Include/cmsis_gcc.h **** }
 428:Drivers/CMSIS/Include/cmsis_gcc.h **** #endif
 429:Drivers/CMSIS/Include/cmsis_gcc.h **** 
 430:Drivers/CMSIS/Include/cmsis_gcc.h **** 
 431:Drivers/CMSIS/Include/cmsis_gcc.h **** #if ((defined (__ARM_ARCH_7M__      ) && (__ARM_ARCH_7M__      == 1)) || \
 432:Drivers/CMSIS/Include/cmsis_gcc.h ****      (defined (__ARM_ARCH_7EM__     ) && (__ARM_ARCH_7EM__     == 1)) || \
 433:Drivers/CMSIS/Include/cmsis_gcc.h ****      (defined (__ARM_ARCH_8M_MAIN__ ) && (__ARM_ARCH_8M_MAIN__ == 1))    )
 434:Drivers/CMSIS/Include/cmsis_gcc.h **** /**
 435:Drivers/CMSIS/Include/cmsis_gcc.h ****   \brief   Enable FIQ
 436:Drivers/CMSIS/Include/cmsis_gcc.h ****   \details Enables FIQ interrupts by clearing the F-bit in the CPSR.
 437:Drivers/CMSIS/Include/cmsis_gcc.h ****            Can only be executed in Privileged modes.
 438:Drivers/CMSIS/Include/cmsis_gcc.h ****  */
 439:Drivers/CMSIS/Include/cmsis_gcc.h **** __STATIC_FORCEINLINE void __enable_fault_irq(void)
 440:Drivers/CMSIS/Include/cmsis_gcc.h **** {
 441:Drivers/CMSIS/Include/cmsis_gcc.h ****   __ASM volatile ("cpsie f" : : : "memory");
 442:Drivers/CMSIS/Include/cmsis_gcc.h **** }
 443:Drivers/CMSIS/Include/cmsis_gcc.h **** 
 444:Drivers/CMSIS/Include/cmsis_gcc.h **** 
 445:Drivers/CMSIS/Include/cmsis_gcc.h **** /**
 446:Drivers/CMSIS/Include/cmsis_gcc.h ****   \brief   Disable FIQ
 447:Drivers/CMSIS/Include/cmsis_gcc.h ****   \details Disables FIQ interrupts by setting the F-bit in the CPSR.
 448:Drivers/CMSIS/Include/cmsis_gcc.h ****            Can only be executed in Privileged modes.
 449:Drivers/CMSIS/Include/cmsis_gcc.h ****  */
 450:Drivers/CMSIS/Include/cmsis_gcc.h **** __STATIC_FORCEINLINE void __disable_fault_irq(void)
 451:Drivers/CMSIS/Include/cmsis_gcc.h **** {
 452:Drivers/CMSIS/Include/cmsis_gcc.h ****   __ASM volatile ("cpsid f" : : : "memory");
 453:Drivers/CMSIS/Include/cmsis_gcc.h **** }
 454:Drivers/CMSIS/Include/cmsis_gcc.h **** 
 455:Drivers/CMSIS/Include/cmsis_gcc.h **** 
 456:Drivers/CMSIS/Include/cmsis_gcc.h **** /**
ARM GAS  /tmp/ccDY5NB6.s 			page 47


 457:Drivers/CMSIS/Include/cmsis_gcc.h ****   \brief   Get Base Priority
 458:Drivers/CMSIS/Include/cmsis_gcc.h ****   \details Returns the current value of the Base Priority register.
 459:Drivers/CMSIS/Include/cmsis_gcc.h ****   \return               Base Priority register value
 460:Drivers/CMSIS/Include/cmsis_gcc.h ****  */
 461:Drivers/CMSIS/Include/cmsis_gcc.h **** __STATIC_FORCEINLINE uint32_t __get_BASEPRI(void)
 462:Drivers/CMSIS/Include/cmsis_gcc.h **** {
 463:Drivers/CMSIS/Include/cmsis_gcc.h ****   uint32_t result;
 464:Drivers/CMSIS/Include/cmsis_gcc.h **** 
 465:Drivers/CMSIS/Include/cmsis_gcc.h ****   __ASM volatile ("MRS %0, basepri" : "=r" (result) );
 466:Drivers/CMSIS/Include/cmsis_gcc.h ****   return(result);
 467:Drivers/CMSIS/Include/cmsis_gcc.h **** }
 468:Drivers/CMSIS/Include/cmsis_gcc.h **** 
 469:Drivers/CMSIS/Include/cmsis_gcc.h **** 
 470:Drivers/CMSIS/Include/cmsis_gcc.h **** #if (defined (__ARM_FEATURE_CMSE ) && (__ARM_FEATURE_CMSE == 3))
 471:Drivers/CMSIS/Include/cmsis_gcc.h **** /**
 472:Drivers/CMSIS/Include/cmsis_gcc.h ****   \brief   Get Base Priority (non-secure)
 473:Drivers/CMSIS/Include/cmsis_gcc.h ****   \details Returns the current value of the non-secure Base Priority register when in secure state.
 474:Drivers/CMSIS/Include/cmsis_gcc.h ****   \return               Base Priority register value
 475:Drivers/CMSIS/Include/cmsis_gcc.h ****  */
 476:Drivers/CMSIS/Include/cmsis_gcc.h **** __STATIC_FORCEINLINE uint32_t __TZ_get_BASEPRI_NS(void)
 477:Drivers/CMSIS/Include/cmsis_gcc.h **** {
 478:Drivers/CMSIS/Include/cmsis_gcc.h ****   uint32_t result;
 479:Drivers/CMSIS/Include/cmsis_gcc.h **** 
 480:Drivers/CMSIS/Include/cmsis_gcc.h ****   __ASM volatile ("MRS %0, basepri_ns" : "=r" (result) );
 481:Drivers/CMSIS/Include/cmsis_gcc.h ****   return(result);
 482:Drivers/CMSIS/Include/cmsis_gcc.h **** }
 483:Drivers/CMSIS/Include/cmsis_gcc.h **** #endif
 484:Drivers/CMSIS/Include/cmsis_gcc.h **** 
 485:Drivers/CMSIS/Include/cmsis_gcc.h **** 
 486:Drivers/CMSIS/Include/cmsis_gcc.h **** /**
 487:Drivers/CMSIS/Include/cmsis_gcc.h ****   \brief   Set Base Priority
 488:Drivers/CMSIS/Include/cmsis_gcc.h ****   \details Assigns the given value to the Base Priority register.
 489:Drivers/CMSIS/Include/cmsis_gcc.h ****   \param [in]    basePri  Base Priority value to set
 490:Drivers/CMSIS/Include/cmsis_gcc.h ****  */
 491:Drivers/CMSIS/Include/cmsis_gcc.h **** __STATIC_FORCEINLINE void __set_BASEPRI(uint32_t basePri)
 492:Drivers/CMSIS/Include/cmsis_gcc.h **** {
 493:Drivers/CMSIS/Include/cmsis_gcc.h ****   __ASM volatile ("MSR basepri, %0" : : "r" (basePri) : "memory");
 494:Drivers/CMSIS/Include/cmsis_gcc.h **** }
 495:Drivers/CMSIS/Include/cmsis_gcc.h **** 
 496:Drivers/CMSIS/Include/cmsis_gcc.h **** 
 497:Drivers/CMSIS/Include/cmsis_gcc.h **** #if (defined (__ARM_FEATURE_CMSE ) && (__ARM_FEATURE_CMSE == 3))
 498:Drivers/CMSIS/Include/cmsis_gcc.h **** /**
 499:Drivers/CMSIS/Include/cmsis_gcc.h ****   \brief   Set Base Priority (non-secure)
 500:Drivers/CMSIS/Include/cmsis_gcc.h ****   \details Assigns the given value to the non-secure Base Priority register when in secure state.
 501:Drivers/CMSIS/Include/cmsis_gcc.h ****   \param [in]    basePri  Base Priority value to set
 502:Drivers/CMSIS/Include/cmsis_gcc.h ****  */
 503:Drivers/CMSIS/Include/cmsis_gcc.h **** __STATIC_FORCEINLINE void __TZ_set_BASEPRI_NS(uint32_t basePri)
 504:Drivers/CMSIS/Include/cmsis_gcc.h **** {
 505:Drivers/CMSIS/Include/cmsis_gcc.h ****   __ASM volatile ("MSR basepri_ns, %0" : : "r" (basePri) : "memory");
 506:Drivers/CMSIS/Include/cmsis_gcc.h **** }
 507:Drivers/CMSIS/Include/cmsis_gcc.h **** #endif
 508:Drivers/CMSIS/Include/cmsis_gcc.h **** 
 509:Drivers/CMSIS/Include/cmsis_gcc.h **** 
 510:Drivers/CMSIS/Include/cmsis_gcc.h **** /**
 511:Drivers/CMSIS/Include/cmsis_gcc.h ****   \brief   Set Base Priority with condition
 512:Drivers/CMSIS/Include/cmsis_gcc.h ****   \details Assigns the given value to the Base Priority register only if BASEPRI masking is disable
 513:Drivers/CMSIS/Include/cmsis_gcc.h ****            or the new value increases the BASEPRI priority level.
ARM GAS  /tmp/ccDY5NB6.s 			page 48


 514:Drivers/CMSIS/Include/cmsis_gcc.h ****   \param [in]    basePri  Base Priority value to set
 515:Drivers/CMSIS/Include/cmsis_gcc.h ****  */
 516:Drivers/CMSIS/Include/cmsis_gcc.h **** __STATIC_FORCEINLINE void __set_BASEPRI_MAX(uint32_t basePri)
 517:Drivers/CMSIS/Include/cmsis_gcc.h **** {
 518:Drivers/CMSIS/Include/cmsis_gcc.h ****   __ASM volatile ("MSR basepri_max, %0" : : "r" (basePri) : "memory");
 519:Drivers/CMSIS/Include/cmsis_gcc.h **** }
 520:Drivers/CMSIS/Include/cmsis_gcc.h **** 
 521:Drivers/CMSIS/Include/cmsis_gcc.h **** 
 522:Drivers/CMSIS/Include/cmsis_gcc.h **** /**
 523:Drivers/CMSIS/Include/cmsis_gcc.h ****   \brief   Get Fault Mask
 524:Drivers/CMSIS/Include/cmsis_gcc.h ****   \details Returns the current value of the Fault Mask register.
 525:Drivers/CMSIS/Include/cmsis_gcc.h ****   \return               Fault Mask register value
 526:Drivers/CMSIS/Include/cmsis_gcc.h ****  */
 527:Drivers/CMSIS/Include/cmsis_gcc.h **** __STATIC_FORCEINLINE uint32_t __get_FAULTMASK(void)
 528:Drivers/CMSIS/Include/cmsis_gcc.h **** {
 529:Drivers/CMSIS/Include/cmsis_gcc.h ****   uint32_t result;
 530:Drivers/CMSIS/Include/cmsis_gcc.h **** 
 531:Drivers/CMSIS/Include/cmsis_gcc.h ****   __ASM volatile ("MRS %0, faultmask" : "=r" (result) );
 532:Drivers/CMSIS/Include/cmsis_gcc.h ****   return(result);
 533:Drivers/CMSIS/Include/cmsis_gcc.h **** }
 534:Drivers/CMSIS/Include/cmsis_gcc.h **** 
 535:Drivers/CMSIS/Include/cmsis_gcc.h **** 
 536:Drivers/CMSIS/Include/cmsis_gcc.h **** #if (defined (__ARM_FEATURE_CMSE ) && (__ARM_FEATURE_CMSE == 3))
 537:Drivers/CMSIS/Include/cmsis_gcc.h **** /**
 538:Drivers/CMSIS/Include/cmsis_gcc.h ****   \brief   Get Fault Mask (non-secure)
 539:Drivers/CMSIS/Include/cmsis_gcc.h ****   \details Returns the current value of the non-secure Fault Mask register when in secure state.
 540:Drivers/CMSIS/Include/cmsis_gcc.h ****   \return               Fault Mask register value
 541:Drivers/CMSIS/Include/cmsis_gcc.h ****  */
 542:Drivers/CMSIS/Include/cmsis_gcc.h **** __STATIC_FORCEINLINE uint32_t __TZ_get_FAULTMASK_NS(void)
 543:Drivers/CMSIS/Include/cmsis_gcc.h **** {
 544:Drivers/CMSIS/Include/cmsis_gcc.h ****   uint32_t result;
 545:Drivers/CMSIS/Include/cmsis_gcc.h **** 
 546:Drivers/CMSIS/Include/cmsis_gcc.h ****   __ASM volatile ("MRS %0, faultmask_ns" : "=r" (result) );
 547:Drivers/CMSIS/Include/cmsis_gcc.h ****   return(result);
 548:Drivers/CMSIS/Include/cmsis_gcc.h **** }
 549:Drivers/CMSIS/Include/cmsis_gcc.h **** #endif
 550:Drivers/CMSIS/Include/cmsis_gcc.h **** 
 551:Drivers/CMSIS/Include/cmsis_gcc.h **** 
 552:Drivers/CMSIS/Include/cmsis_gcc.h **** /**
 553:Drivers/CMSIS/Include/cmsis_gcc.h ****   \brief   Set Fault Mask
 554:Drivers/CMSIS/Include/cmsis_gcc.h ****   \details Assigns the given value to the Fault Mask register.
 555:Drivers/CMSIS/Include/cmsis_gcc.h ****   \param [in]    faultMask  Fault Mask value to set
 556:Drivers/CMSIS/Include/cmsis_gcc.h ****  */
 557:Drivers/CMSIS/Include/cmsis_gcc.h **** __STATIC_FORCEINLINE void __set_FAULTMASK(uint32_t faultMask)
 558:Drivers/CMSIS/Include/cmsis_gcc.h **** {
 559:Drivers/CMSIS/Include/cmsis_gcc.h ****   __ASM volatile ("MSR faultmask, %0" : : "r" (faultMask) : "memory");
 560:Drivers/CMSIS/Include/cmsis_gcc.h **** }
 561:Drivers/CMSIS/Include/cmsis_gcc.h **** 
 562:Drivers/CMSIS/Include/cmsis_gcc.h **** 
 563:Drivers/CMSIS/Include/cmsis_gcc.h **** #if (defined (__ARM_FEATURE_CMSE ) && (__ARM_FEATURE_CMSE == 3))
 564:Drivers/CMSIS/Include/cmsis_gcc.h **** /**
 565:Drivers/CMSIS/Include/cmsis_gcc.h ****   \brief   Set Fault Mask (non-secure)
 566:Drivers/CMSIS/Include/cmsis_gcc.h ****   \details Assigns the given value to the non-secure Fault Mask register when in secure state.
 567:Drivers/CMSIS/Include/cmsis_gcc.h ****   \param [in]    faultMask  Fault Mask value to set
 568:Drivers/CMSIS/Include/cmsis_gcc.h ****  */
 569:Drivers/CMSIS/Include/cmsis_gcc.h **** __STATIC_FORCEINLINE void __TZ_set_FAULTMASK_NS(uint32_t faultMask)
 570:Drivers/CMSIS/Include/cmsis_gcc.h **** {
ARM GAS  /tmp/ccDY5NB6.s 			page 49


 571:Drivers/CMSIS/Include/cmsis_gcc.h ****   __ASM volatile ("MSR faultmask_ns, %0" : : "r" (faultMask) : "memory");
 572:Drivers/CMSIS/Include/cmsis_gcc.h **** }
 573:Drivers/CMSIS/Include/cmsis_gcc.h **** #endif
 574:Drivers/CMSIS/Include/cmsis_gcc.h **** 
 575:Drivers/CMSIS/Include/cmsis_gcc.h **** #endif /* ((defined (__ARM_ARCH_7M__      ) && (__ARM_ARCH_7M__      == 1)) || \
 576:Drivers/CMSIS/Include/cmsis_gcc.h ****            (defined (__ARM_ARCH_7EM__     ) && (__ARM_ARCH_7EM__     == 1)) || \
 577:Drivers/CMSIS/Include/cmsis_gcc.h ****            (defined (__ARM_ARCH_8M_MAIN__ ) && (__ARM_ARCH_8M_MAIN__ == 1))    ) */
 578:Drivers/CMSIS/Include/cmsis_gcc.h **** 
 579:Drivers/CMSIS/Include/cmsis_gcc.h **** 
 580:Drivers/CMSIS/Include/cmsis_gcc.h **** #if ((defined (__ARM_ARCH_8M_MAIN__ ) && (__ARM_ARCH_8M_MAIN__ == 1)) || \
 581:Drivers/CMSIS/Include/cmsis_gcc.h ****      (defined (__ARM_ARCH_8M_BASE__ ) && (__ARM_ARCH_8M_BASE__ == 1))    )
 582:Drivers/CMSIS/Include/cmsis_gcc.h **** 
 583:Drivers/CMSIS/Include/cmsis_gcc.h **** /**
 584:Drivers/CMSIS/Include/cmsis_gcc.h ****   \brief   Get Process Stack Pointer Limit
 585:Drivers/CMSIS/Include/cmsis_gcc.h ****   Devices without ARMv8-M Main Extensions (i.e. Cortex-M23) lack the non-secure
 586:Drivers/CMSIS/Include/cmsis_gcc.h ****   Stack Pointer Limit register hence zero is returned always in non-secure
 587:Drivers/CMSIS/Include/cmsis_gcc.h ****   mode.
 588:Drivers/CMSIS/Include/cmsis_gcc.h ****   
 589:Drivers/CMSIS/Include/cmsis_gcc.h ****   \details Returns the current value of the Process Stack Pointer Limit (PSPLIM).
 590:Drivers/CMSIS/Include/cmsis_gcc.h ****   \return               PSPLIM Register value
 591:Drivers/CMSIS/Include/cmsis_gcc.h ****  */
 592:Drivers/CMSIS/Include/cmsis_gcc.h **** __STATIC_FORCEINLINE uint32_t __get_PSPLIM(void)
 593:Drivers/CMSIS/Include/cmsis_gcc.h **** {
 594:Drivers/CMSIS/Include/cmsis_gcc.h **** #if (!(defined (__ARM_ARCH_8M_MAIN__ ) && (__ARM_ARCH_8M_MAIN__ == 1)) && \
 595:Drivers/CMSIS/Include/cmsis_gcc.h ****     (!defined (__ARM_FEATURE_CMSE) || (__ARM_FEATURE_CMSE < 3)))
 596:Drivers/CMSIS/Include/cmsis_gcc.h ****     // without main extensions, the non-secure PSPLIM is RAZ/WI
 597:Drivers/CMSIS/Include/cmsis_gcc.h ****   return 0U;
 598:Drivers/CMSIS/Include/cmsis_gcc.h **** #else
 599:Drivers/CMSIS/Include/cmsis_gcc.h ****   uint32_t result;
 600:Drivers/CMSIS/Include/cmsis_gcc.h ****   __ASM volatile ("MRS %0, psplim"  : "=r" (result) );
 601:Drivers/CMSIS/Include/cmsis_gcc.h ****   return result;
 602:Drivers/CMSIS/Include/cmsis_gcc.h **** #endif
 603:Drivers/CMSIS/Include/cmsis_gcc.h **** }
 604:Drivers/CMSIS/Include/cmsis_gcc.h **** 
 605:Drivers/CMSIS/Include/cmsis_gcc.h **** #if (defined (__ARM_FEATURE_CMSE) && (__ARM_FEATURE_CMSE == 3))
 606:Drivers/CMSIS/Include/cmsis_gcc.h **** /**
 607:Drivers/CMSIS/Include/cmsis_gcc.h ****   \brief   Get Process Stack Pointer Limit (non-secure)
 608:Drivers/CMSIS/Include/cmsis_gcc.h ****   Devices without ARMv8-M Main Extensions (i.e. Cortex-M23) lack the non-secure
 609:Drivers/CMSIS/Include/cmsis_gcc.h ****   Stack Pointer Limit register hence zero is returned always.
 610:Drivers/CMSIS/Include/cmsis_gcc.h **** 
 611:Drivers/CMSIS/Include/cmsis_gcc.h ****   \details Returns the current value of the non-secure Process Stack Pointer Limit (PSPLIM) when in
 612:Drivers/CMSIS/Include/cmsis_gcc.h ****   \return               PSPLIM Register value
 613:Drivers/CMSIS/Include/cmsis_gcc.h ****  */
 614:Drivers/CMSIS/Include/cmsis_gcc.h **** __STATIC_FORCEINLINE uint32_t __TZ_get_PSPLIM_NS(void)
 615:Drivers/CMSIS/Include/cmsis_gcc.h **** {
 616:Drivers/CMSIS/Include/cmsis_gcc.h **** #if (!(defined (__ARM_ARCH_8M_MAIN__ ) && (__ARM_ARCH_8M_MAIN__ == 1)))
 617:Drivers/CMSIS/Include/cmsis_gcc.h ****   // without main extensions, the non-secure PSPLIM is RAZ/WI
 618:Drivers/CMSIS/Include/cmsis_gcc.h ****   return 0U;
 619:Drivers/CMSIS/Include/cmsis_gcc.h **** #else
 620:Drivers/CMSIS/Include/cmsis_gcc.h ****   uint32_t result;
 621:Drivers/CMSIS/Include/cmsis_gcc.h ****   __ASM volatile ("MRS %0, psplim_ns"  : "=r" (result) );
 622:Drivers/CMSIS/Include/cmsis_gcc.h ****   return result;
 623:Drivers/CMSIS/Include/cmsis_gcc.h **** #endif
 624:Drivers/CMSIS/Include/cmsis_gcc.h **** }
 625:Drivers/CMSIS/Include/cmsis_gcc.h **** #endif
 626:Drivers/CMSIS/Include/cmsis_gcc.h **** 
 627:Drivers/CMSIS/Include/cmsis_gcc.h **** 
ARM GAS  /tmp/ccDY5NB6.s 			page 50


 628:Drivers/CMSIS/Include/cmsis_gcc.h **** /**
 629:Drivers/CMSIS/Include/cmsis_gcc.h ****   \brief   Set Process Stack Pointer Limit
 630:Drivers/CMSIS/Include/cmsis_gcc.h ****   Devices without ARMv8-M Main Extensions (i.e. Cortex-M23) lack the non-secure
 631:Drivers/CMSIS/Include/cmsis_gcc.h ****   Stack Pointer Limit register hence the write is silently ignored in non-secure
 632:Drivers/CMSIS/Include/cmsis_gcc.h ****   mode.
 633:Drivers/CMSIS/Include/cmsis_gcc.h ****   
 634:Drivers/CMSIS/Include/cmsis_gcc.h ****   \details Assigns the given value to the Process Stack Pointer Limit (PSPLIM).
 635:Drivers/CMSIS/Include/cmsis_gcc.h ****   \param [in]    ProcStackPtrLimit  Process Stack Pointer Limit value to set
 636:Drivers/CMSIS/Include/cmsis_gcc.h ****  */
 637:Drivers/CMSIS/Include/cmsis_gcc.h **** __STATIC_FORCEINLINE void __set_PSPLIM(uint32_t ProcStackPtrLimit)
 638:Drivers/CMSIS/Include/cmsis_gcc.h **** {
 639:Drivers/CMSIS/Include/cmsis_gcc.h **** #if (!(defined (__ARM_ARCH_8M_MAIN__ ) && (__ARM_ARCH_8M_MAIN__ == 1)) && \
 640:Drivers/CMSIS/Include/cmsis_gcc.h ****     (!defined (__ARM_FEATURE_CMSE) || (__ARM_FEATURE_CMSE < 3)))
 641:Drivers/CMSIS/Include/cmsis_gcc.h ****   // without main extensions, the non-secure PSPLIM is RAZ/WI
 642:Drivers/CMSIS/Include/cmsis_gcc.h ****   (void)ProcStackPtrLimit;
 643:Drivers/CMSIS/Include/cmsis_gcc.h **** #else
 644:Drivers/CMSIS/Include/cmsis_gcc.h ****   __ASM volatile ("MSR psplim, %0" : : "r" (ProcStackPtrLimit));
 645:Drivers/CMSIS/Include/cmsis_gcc.h **** #endif
 646:Drivers/CMSIS/Include/cmsis_gcc.h **** }
 647:Drivers/CMSIS/Include/cmsis_gcc.h **** 
 648:Drivers/CMSIS/Include/cmsis_gcc.h **** 
 649:Drivers/CMSIS/Include/cmsis_gcc.h **** #if (defined (__ARM_FEATURE_CMSE  ) && (__ARM_FEATURE_CMSE   == 3))
 650:Drivers/CMSIS/Include/cmsis_gcc.h **** /**
 651:Drivers/CMSIS/Include/cmsis_gcc.h ****   \brief   Set Process Stack Pointer (non-secure)
 652:Drivers/CMSIS/Include/cmsis_gcc.h ****   Devices without ARMv8-M Main Extensions (i.e. Cortex-M23) lack the non-secure
 653:Drivers/CMSIS/Include/cmsis_gcc.h ****   Stack Pointer Limit register hence the write is silently ignored.
 654:Drivers/CMSIS/Include/cmsis_gcc.h **** 
 655:Drivers/CMSIS/Include/cmsis_gcc.h ****   \details Assigns the given value to the non-secure Process Stack Pointer Limit (PSPLIM) when in s
 656:Drivers/CMSIS/Include/cmsis_gcc.h ****   \param [in]    ProcStackPtrLimit  Process Stack Pointer Limit value to set
 657:Drivers/CMSIS/Include/cmsis_gcc.h ****  */
 658:Drivers/CMSIS/Include/cmsis_gcc.h **** __STATIC_FORCEINLINE void __TZ_set_PSPLIM_NS(uint32_t ProcStackPtrLimit)
 659:Drivers/CMSIS/Include/cmsis_gcc.h **** {
 660:Drivers/CMSIS/Include/cmsis_gcc.h **** #if (!(defined (__ARM_ARCH_8M_MAIN__ ) && (__ARM_ARCH_8M_MAIN__ == 1)))
 661:Drivers/CMSIS/Include/cmsis_gcc.h ****   // without main extensions, the non-secure PSPLIM is RAZ/WI
 662:Drivers/CMSIS/Include/cmsis_gcc.h ****   (void)ProcStackPtrLimit;
 663:Drivers/CMSIS/Include/cmsis_gcc.h **** #else
 664:Drivers/CMSIS/Include/cmsis_gcc.h ****   __ASM volatile ("MSR psplim_ns, %0\n" : : "r" (ProcStackPtrLimit));
 665:Drivers/CMSIS/Include/cmsis_gcc.h **** #endif
 666:Drivers/CMSIS/Include/cmsis_gcc.h **** }
 667:Drivers/CMSIS/Include/cmsis_gcc.h **** #endif
 668:Drivers/CMSIS/Include/cmsis_gcc.h **** 
 669:Drivers/CMSIS/Include/cmsis_gcc.h **** 
 670:Drivers/CMSIS/Include/cmsis_gcc.h **** /**
 671:Drivers/CMSIS/Include/cmsis_gcc.h ****   \brief   Get Main Stack Pointer Limit
 672:Drivers/CMSIS/Include/cmsis_gcc.h ****   Devices without ARMv8-M Main Extensions (i.e. Cortex-M23) lack the non-secure
 673:Drivers/CMSIS/Include/cmsis_gcc.h ****   Stack Pointer Limit register hence zero is returned always in non-secure
 674:Drivers/CMSIS/Include/cmsis_gcc.h ****   mode.
 675:Drivers/CMSIS/Include/cmsis_gcc.h **** 
 676:Drivers/CMSIS/Include/cmsis_gcc.h ****   \details Returns the current value of the Main Stack Pointer Limit (MSPLIM).
 677:Drivers/CMSIS/Include/cmsis_gcc.h ****   \return               MSPLIM Register value
 678:Drivers/CMSIS/Include/cmsis_gcc.h ****  */
 679:Drivers/CMSIS/Include/cmsis_gcc.h **** __STATIC_FORCEINLINE uint32_t __get_MSPLIM(void)
 680:Drivers/CMSIS/Include/cmsis_gcc.h **** {
 681:Drivers/CMSIS/Include/cmsis_gcc.h **** #if (!(defined (__ARM_ARCH_8M_MAIN__ ) && (__ARM_ARCH_8M_MAIN__ == 1)) && \
 682:Drivers/CMSIS/Include/cmsis_gcc.h ****     (!defined (__ARM_FEATURE_CMSE) || (__ARM_FEATURE_CMSE < 3)))
 683:Drivers/CMSIS/Include/cmsis_gcc.h ****   // without main extensions, the non-secure MSPLIM is RAZ/WI
 684:Drivers/CMSIS/Include/cmsis_gcc.h ****   return 0U;
ARM GAS  /tmp/ccDY5NB6.s 			page 51


 685:Drivers/CMSIS/Include/cmsis_gcc.h **** #else
 686:Drivers/CMSIS/Include/cmsis_gcc.h ****   uint32_t result;
 687:Drivers/CMSIS/Include/cmsis_gcc.h ****   __ASM volatile ("MRS %0, msplim" : "=r" (result) );
 688:Drivers/CMSIS/Include/cmsis_gcc.h ****   return result;
 689:Drivers/CMSIS/Include/cmsis_gcc.h **** #endif
 690:Drivers/CMSIS/Include/cmsis_gcc.h **** }
 691:Drivers/CMSIS/Include/cmsis_gcc.h **** 
 692:Drivers/CMSIS/Include/cmsis_gcc.h **** 
 693:Drivers/CMSIS/Include/cmsis_gcc.h **** #if (defined (__ARM_FEATURE_CMSE  ) && (__ARM_FEATURE_CMSE   == 3))
 694:Drivers/CMSIS/Include/cmsis_gcc.h **** /**
 695:Drivers/CMSIS/Include/cmsis_gcc.h ****   \brief   Get Main Stack Pointer Limit (non-secure)
 696:Drivers/CMSIS/Include/cmsis_gcc.h ****   Devices without ARMv8-M Main Extensions (i.e. Cortex-M23) lack the non-secure
 697:Drivers/CMSIS/Include/cmsis_gcc.h ****   Stack Pointer Limit register hence zero is returned always.
 698:Drivers/CMSIS/Include/cmsis_gcc.h **** 
 699:Drivers/CMSIS/Include/cmsis_gcc.h ****   \details Returns the current value of the non-secure Main Stack Pointer Limit(MSPLIM) when in sec
 700:Drivers/CMSIS/Include/cmsis_gcc.h ****   \return               MSPLIM Register value
 701:Drivers/CMSIS/Include/cmsis_gcc.h ****  */
 702:Drivers/CMSIS/Include/cmsis_gcc.h **** __STATIC_FORCEINLINE uint32_t __TZ_get_MSPLIM_NS(void)
 703:Drivers/CMSIS/Include/cmsis_gcc.h **** {
 704:Drivers/CMSIS/Include/cmsis_gcc.h **** #if (!(defined (__ARM_ARCH_8M_MAIN__ ) && (__ARM_ARCH_8M_MAIN__ == 1)))
 705:Drivers/CMSIS/Include/cmsis_gcc.h ****   // without main extensions, the non-secure MSPLIM is RAZ/WI
 706:Drivers/CMSIS/Include/cmsis_gcc.h ****   return 0U;
 707:Drivers/CMSIS/Include/cmsis_gcc.h **** #else
 708:Drivers/CMSIS/Include/cmsis_gcc.h ****   uint32_t result;
 709:Drivers/CMSIS/Include/cmsis_gcc.h ****   __ASM volatile ("MRS %0, msplim_ns" : "=r" (result) );
 710:Drivers/CMSIS/Include/cmsis_gcc.h ****   return result;
 711:Drivers/CMSIS/Include/cmsis_gcc.h **** #endif
 712:Drivers/CMSIS/Include/cmsis_gcc.h **** }
 713:Drivers/CMSIS/Include/cmsis_gcc.h **** #endif
 714:Drivers/CMSIS/Include/cmsis_gcc.h **** 
 715:Drivers/CMSIS/Include/cmsis_gcc.h **** 
 716:Drivers/CMSIS/Include/cmsis_gcc.h **** /**
 717:Drivers/CMSIS/Include/cmsis_gcc.h ****   \brief   Set Main Stack Pointer Limit
 718:Drivers/CMSIS/Include/cmsis_gcc.h ****   Devices without ARMv8-M Main Extensions (i.e. Cortex-M23) lack the non-secure
 719:Drivers/CMSIS/Include/cmsis_gcc.h ****   Stack Pointer Limit register hence the write is silently ignored in non-secure
 720:Drivers/CMSIS/Include/cmsis_gcc.h ****   mode.
 721:Drivers/CMSIS/Include/cmsis_gcc.h **** 
 722:Drivers/CMSIS/Include/cmsis_gcc.h ****   \details Assigns the given value to the Main Stack Pointer Limit (MSPLIM).
 723:Drivers/CMSIS/Include/cmsis_gcc.h ****   \param [in]    MainStackPtrLimit  Main Stack Pointer Limit value to set
 724:Drivers/CMSIS/Include/cmsis_gcc.h ****  */
 725:Drivers/CMSIS/Include/cmsis_gcc.h **** __STATIC_FORCEINLINE void __set_MSPLIM(uint32_t MainStackPtrLimit)
 726:Drivers/CMSIS/Include/cmsis_gcc.h **** {
 727:Drivers/CMSIS/Include/cmsis_gcc.h **** #if (!(defined (__ARM_ARCH_8M_MAIN__ ) && (__ARM_ARCH_8M_MAIN__ == 1)) && \
 728:Drivers/CMSIS/Include/cmsis_gcc.h ****     (!defined (__ARM_FEATURE_CMSE) || (__ARM_FEATURE_CMSE < 3)))
 729:Drivers/CMSIS/Include/cmsis_gcc.h ****   // without main extensions, the non-secure MSPLIM is RAZ/WI
 730:Drivers/CMSIS/Include/cmsis_gcc.h ****   (void)MainStackPtrLimit;
 731:Drivers/CMSIS/Include/cmsis_gcc.h **** #else
 732:Drivers/CMSIS/Include/cmsis_gcc.h ****   __ASM volatile ("MSR msplim, %0" : : "r" (MainStackPtrLimit));
 733:Drivers/CMSIS/Include/cmsis_gcc.h **** #endif
 734:Drivers/CMSIS/Include/cmsis_gcc.h **** }
 735:Drivers/CMSIS/Include/cmsis_gcc.h **** 
 736:Drivers/CMSIS/Include/cmsis_gcc.h **** 
 737:Drivers/CMSIS/Include/cmsis_gcc.h **** #if (defined (__ARM_FEATURE_CMSE  ) && (__ARM_FEATURE_CMSE   == 3))
 738:Drivers/CMSIS/Include/cmsis_gcc.h **** /**
 739:Drivers/CMSIS/Include/cmsis_gcc.h ****   \brief   Set Main Stack Pointer Limit (non-secure)
 740:Drivers/CMSIS/Include/cmsis_gcc.h ****   Devices without ARMv8-M Main Extensions (i.e. Cortex-M23) lack the non-secure
 741:Drivers/CMSIS/Include/cmsis_gcc.h ****   Stack Pointer Limit register hence the write is silently ignored.
ARM GAS  /tmp/ccDY5NB6.s 			page 52


 742:Drivers/CMSIS/Include/cmsis_gcc.h **** 
 743:Drivers/CMSIS/Include/cmsis_gcc.h ****   \details Assigns the given value to the non-secure Main Stack Pointer Limit (MSPLIM) when in secu
 744:Drivers/CMSIS/Include/cmsis_gcc.h ****   \param [in]    MainStackPtrLimit  Main Stack Pointer value to set
 745:Drivers/CMSIS/Include/cmsis_gcc.h ****  */
 746:Drivers/CMSIS/Include/cmsis_gcc.h **** __STATIC_FORCEINLINE void __TZ_set_MSPLIM_NS(uint32_t MainStackPtrLimit)
 747:Drivers/CMSIS/Include/cmsis_gcc.h **** {
 748:Drivers/CMSIS/Include/cmsis_gcc.h **** #if (!(defined (__ARM_ARCH_8M_MAIN__ ) && (__ARM_ARCH_8M_MAIN__ == 1)))
 749:Drivers/CMSIS/Include/cmsis_gcc.h ****   // without main extensions, the non-secure MSPLIM is RAZ/WI
 750:Drivers/CMSIS/Include/cmsis_gcc.h ****   (void)MainStackPtrLimit;
 751:Drivers/CMSIS/Include/cmsis_gcc.h **** #else
 752:Drivers/CMSIS/Include/cmsis_gcc.h ****   __ASM volatile ("MSR msplim_ns, %0" : : "r" (MainStackPtrLimit));
 753:Drivers/CMSIS/Include/cmsis_gcc.h **** #endif
 754:Drivers/CMSIS/Include/cmsis_gcc.h **** }
 755:Drivers/CMSIS/Include/cmsis_gcc.h **** #endif
 756:Drivers/CMSIS/Include/cmsis_gcc.h **** 
 757:Drivers/CMSIS/Include/cmsis_gcc.h **** #endif /* ((defined (__ARM_ARCH_8M_MAIN__ ) && (__ARM_ARCH_8M_MAIN__ == 1)) || \
 758:Drivers/CMSIS/Include/cmsis_gcc.h ****            (defined (__ARM_ARCH_8M_BASE__ ) && (__ARM_ARCH_8M_BASE__ == 1))    ) */
 759:Drivers/CMSIS/Include/cmsis_gcc.h **** 
 760:Drivers/CMSIS/Include/cmsis_gcc.h **** 
 761:Drivers/CMSIS/Include/cmsis_gcc.h **** /**
 762:Drivers/CMSIS/Include/cmsis_gcc.h ****   \brief   Get FPSCR
 763:Drivers/CMSIS/Include/cmsis_gcc.h ****   \details Returns the current value of the Floating Point Status/Control register.
 764:Drivers/CMSIS/Include/cmsis_gcc.h ****   \return               Floating Point Status/Control register value
 765:Drivers/CMSIS/Include/cmsis_gcc.h ****  */
 766:Drivers/CMSIS/Include/cmsis_gcc.h **** __STATIC_FORCEINLINE uint32_t __get_FPSCR(void)
 767:Drivers/CMSIS/Include/cmsis_gcc.h **** {
 768:Drivers/CMSIS/Include/cmsis_gcc.h **** #if ((defined (__FPU_PRESENT) && (__FPU_PRESENT == 1U)) && \
 769:Drivers/CMSIS/Include/cmsis_gcc.h ****      (defined (__FPU_USED   ) && (__FPU_USED    == 1U))     )
 770:Drivers/CMSIS/Include/cmsis_gcc.h **** #if __has_builtin(__builtin_arm_get_fpscr) 
 771:Drivers/CMSIS/Include/cmsis_gcc.h **** // Re-enable using built-in when GCC has been fixed
 772:Drivers/CMSIS/Include/cmsis_gcc.h **** // || (__GNUC__ > 7) || (__GNUC__ == 7 && __GNUC_MINOR__ >= 2)
 773:Drivers/CMSIS/Include/cmsis_gcc.h ****   /* see https://gcc.gnu.org/ml/gcc-patches/2017-04/msg00443.html */
 774:Drivers/CMSIS/Include/cmsis_gcc.h ****   return __builtin_arm_get_fpscr();
 775:Drivers/CMSIS/Include/cmsis_gcc.h **** #else
 776:Drivers/CMSIS/Include/cmsis_gcc.h ****   uint32_t result;
 777:Drivers/CMSIS/Include/cmsis_gcc.h **** 
 778:Drivers/CMSIS/Include/cmsis_gcc.h ****   __ASM volatile ("VMRS %0, fpscr" : "=r" (result) );
 779:Drivers/CMSIS/Include/cmsis_gcc.h ****   return(result);
 780:Drivers/CMSIS/Include/cmsis_gcc.h **** #endif
 781:Drivers/CMSIS/Include/cmsis_gcc.h **** #else
 782:Drivers/CMSIS/Include/cmsis_gcc.h ****   return(0U);
 783:Drivers/CMSIS/Include/cmsis_gcc.h **** #endif
 784:Drivers/CMSIS/Include/cmsis_gcc.h **** }
 785:Drivers/CMSIS/Include/cmsis_gcc.h **** 
 786:Drivers/CMSIS/Include/cmsis_gcc.h **** 
 787:Drivers/CMSIS/Include/cmsis_gcc.h **** /**
 788:Drivers/CMSIS/Include/cmsis_gcc.h ****   \brief   Set FPSCR
 789:Drivers/CMSIS/Include/cmsis_gcc.h ****   \details Assigns the given value to the Floating Point Status/Control register.
 790:Drivers/CMSIS/Include/cmsis_gcc.h ****   \param [in]    fpscr  Floating Point Status/Control value to set
 791:Drivers/CMSIS/Include/cmsis_gcc.h ****  */
 792:Drivers/CMSIS/Include/cmsis_gcc.h **** __STATIC_FORCEINLINE void __set_FPSCR(uint32_t fpscr)
 793:Drivers/CMSIS/Include/cmsis_gcc.h **** {
 794:Drivers/CMSIS/Include/cmsis_gcc.h **** #if ((defined (__FPU_PRESENT) && (__FPU_PRESENT == 1U)) && \
 795:Drivers/CMSIS/Include/cmsis_gcc.h ****      (defined (__FPU_USED   ) && (__FPU_USED    == 1U))     )
 796:Drivers/CMSIS/Include/cmsis_gcc.h **** #if __has_builtin(__builtin_arm_set_fpscr)
 797:Drivers/CMSIS/Include/cmsis_gcc.h **** // Re-enable using built-in when GCC has been fixed
 798:Drivers/CMSIS/Include/cmsis_gcc.h **** // || (__GNUC__ > 7) || (__GNUC__ == 7 && __GNUC_MINOR__ >= 2)
ARM GAS  /tmp/ccDY5NB6.s 			page 53


 799:Drivers/CMSIS/Include/cmsis_gcc.h ****   /* see https://gcc.gnu.org/ml/gcc-patches/2017-04/msg00443.html */
 800:Drivers/CMSIS/Include/cmsis_gcc.h ****   __builtin_arm_set_fpscr(fpscr);
 801:Drivers/CMSIS/Include/cmsis_gcc.h **** #else
 802:Drivers/CMSIS/Include/cmsis_gcc.h ****   __ASM volatile ("VMSR fpscr, %0" : : "r" (fpscr) : "vfpcc", "memory");
 803:Drivers/CMSIS/Include/cmsis_gcc.h **** #endif
 804:Drivers/CMSIS/Include/cmsis_gcc.h **** #else
 805:Drivers/CMSIS/Include/cmsis_gcc.h ****   (void)fpscr;
 806:Drivers/CMSIS/Include/cmsis_gcc.h **** #endif
 807:Drivers/CMSIS/Include/cmsis_gcc.h **** }
 808:Drivers/CMSIS/Include/cmsis_gcc.h **** 
 809:Drivers/CMSIS/Include/cmsis_gcc.h **** 
 810:Drivers/CMSIS/Include/cmsis_gcc.h **** /*@} end of CMSIS_Core_RegAccFunctions */
 811:Drivers/CMSIS/Include/cmsis_gcc.h **** 
 812:Drivers/CMSIS/Include/cmsis_gcc.h **** 
 813:Drivers/CMSIS/Include/cmsis_gcc.h **** /* ##########################  Core Instruction Access  ######################### */
 814:Drivers/CMSIS/Include/cmsis_gcc.h **** /** \defgroup CMSIS_Core_InstructionInterface CMSIS Core Instruction Interface
 815:Drivers/CMSIS/Include/cmsis_gcc.h ****   Access to dedicated instructions
 816:Drivers/CMSIS/Include/cmsis_gcc.h ****   @{
 817:Drivers/CMSIS/Include/cmsis_gcc.h **** */
 818:Drivers/CMSIS/Include/cmsis_gcc.h **** 
 819:Drivers/CMSIS/Include/cmsis_gcc.h **** /* Define macros for porting to both thumb1 and thumb2.
 820:Drivers/CMSIS/Include/cmsis_gcc.h ****  * For thumb1, use low register (r0-r7), specified by constraint "l"
 821:Drivers/CMSIS/Include/cmsis_gcc.h ****  * Otherwise, use general registers, specified by constraint "r" */
 822:Drivers/CMSIS/Include/cmsis_gcc.h **** #if defined (__thumb__) && !defined (__thumb2__)
 823:Drivers/CMSIS/Include/cmsis_gcc.h **** #define __CMSIS_GCC_OUT_REG(r) "=l" (r)
 824:Drivers/CMSIS/Include/cmsis_gcc.h **** #define __CMSIS_GCC_RW_REG(r) "+l" (r)
 825:Drivers/CMSIS/Include/cmsis_gcc.h **** #define __CMSIS_GCC_USE_REG(r) "l" (r)
 826:Drivers/CMSIS/Include/cmsis_gcc.h **** #else
 827:Drivers/CMSIS/Include/cmsis_gcc.h **** #define __CMSIS_GCC_OUT_REG(r) "=r" (r)
 828:Drivers/CMSIS/Include/cmsis_gcc.h **** #define __CMSIS_GCC_RW_REG(r) "+r" (r)
 829:Drivers/CMSIS/Include/cmsis_gcc.h **** #define __CMSIS_GCC_USE_REG(r) "r" (r)
 830:Drivers/CMSIS/Include/cmsis_gcc.h **** #endif
 831:Drivers/CMSIS/Include/cmsis_gcc.h **** 
 832:Drivers/CMSIS/Include/cmsis_gcc.h **** /**
 833:Drivers/CMSIS/Include/cmsis_gcc.h ****   \brief   No Operation
 834:Drivers/CMSIS/Include/cmsis_gcc.h ****   \details No Operation does nothing. This instruction can be used for code alignment purposes.
 835:Drivers/CMSIS/Include/cmsis_gcc.h ****  */
 836:Drivers/CMSIS/Include/cmsis_gcc.h **** #define __NOP()                             __ASM volatile ("nop")
 837:Drivers/CMSIS/Include/cmsis_gcc.h **** 
 838:Drivers/CMSIS/Include/cmsis_gcc.h **** /**
 839:Drivers/CMSIS/Include/cmsis_gcc.h ****   \brief   Wait For Interrupt
 840:Drivers/CMSIS/Include/cmsis_gcc.h ****   \details Wait For Interrupt is a hint instruction that suspends execution until one of a number o
 841:Drivers/CMSIS/Include/cmsis_gcc.h ****  */
 842:Drivers/CMSIS/Include/cmsis_gcc.h **** #define __WFI()                             __ASM volatile ("wfi")
 843:Drivers/CMSIS/Include/cmsis_gcc.h **** 
 844:Drivers/CMSIS/Include/cmsis_gcc.h **** 
 845:Drivers/CMSIS/Include/cmsis_gcc.h **** /**
 846:Drivers/CMSIS/Include/cmsis_gcc.h ****   \brief   Wait For Event
 847:Drivers/CMSIS/Include/cmsis_gcc.h ****   \details Wait For Event is a hint instruction that permits the processor to enter
 848:Drivers/CMSIS/Include/cmsis_gcc.h ****            a low-power state until one of a number of events occurs.
 849:Drivers/CMSIS/Include/cmsis_gcc.h ****  */
 850:Drivers/CMSIS/Include/cmsis_gcc.h **** #define __WFE()                             __ASM volatile ("wfe")
 851:Drivers/CMSIS/Include/cmsis_gcc.h **** 
 852:Drivers/CMSIS/Include/cmsis_gcc.h **** 
 853:Drivers/CMSIS/Include/cmsis_gcc.h **** /**
 854:Drivers/CMSIS/Include/cmsis_gcc.h ****   \brief   Send Event
 855:Drivers/CMSIS/Include/cmsis_gcc.h ****   \details Send Event is a hint instruction. It causes an event to be signaled to the CPU.
ARM GAS  /tmp/ccDY5NB6.s 			page 54


 856:Drivers/CMSIS/Include/cmsis_gcc.h ****  */
 857:Drivers/CMSIS/Include/cmsis_gcc.h **** #define __SEV()                             __ASM volatile ("sev")
 858:Drivers/CMSIS/Include/cmsis_gcc.h **** 
 859:Drivers/CMSIS/Include/cmsis_gcc.h **** 
 860:Drivers/CMSIS/Include/cmsis_gcc.h **** /**
 861:Drivers/CMSIS/Include/cmsis_gcc.h ****   \brief   Instruction Synchronization Barrier
 862:Drivers/CMSIS/Include/cmsis_gcc.h ****   \details Instruction Synchronization Barrier flushes the pipeline in the processor,
 863:Drivers/CMSIS/Include/cmsis_gcc.h ****            so that all instructions following the ISB are fetched from cache or memory,
 864:Drivers/CMSIS/Include/cmsis_gcc.h ****            after the instruction has been completed.
 865:Drivers/CMSIS/Include/cmsis_gcc.h ****  */
 866:Drivers/CMSIS/Include/cmsis_gcc.h **** __STATIC_FORCEINLINE void __ISB(void)
 1079              		.loc 2 866 27 view .LVU309
 1080              	.LBB19:
 867:Drivers/CMSIS/Include/cmsis_gcc.h **** {
 868:Drivers/CMSIS/Include/cmsis_gcc.h ****   __ASM volatile ("isb 0xF":::"memory");
 1081              		.loc 2 868 3 view .LVU310
 1082              		.syntax unified
 1083              	@ 868 "Drivers/CMSIS/Include/cmsis_gcc.h" 1
 1084 0044 BFF36F8F 		isb 0xF
 1085              	@ 0 "" 2
 1086              		.thumb
 1087              		.syntax unified
 1088              	.LBE19:
 1089              	.LBE18:
 189:Drivers/STM32H7xx_HAL_Driver/Src/stm32h7xx_hal_flash.c **** 
 1090              		.loc 1 189 5 view .LVU311
 1091              	.LBB20:
 1092              	.LBI20:
 869:Drivers/CMSIS/Include/cmsis_gcc.h **** }
 870:Drivers/CMSIS/Include/cmsis_gcc.h **** 
 871:Drivers/CMSIS/Include/cmsis_gcc.h **** 
 872:Drivers/CMSIS/Include/cmsis_gcc.h **** /**
 873:Drivers/CMSIS/Include/cmsis_gcc.h ****   \brief   Data Synchronization Barrier
 874:Drivers/CMSIS/Include/cmsis_gcc.h ****   \details Acts as a special kind of Data Memory Barrier.
 875:Drivers/CMSIS/Include/cmsis_gcc.h ****            It completes when all explicit memory accesses before this instruction complete.
 876:Drivers/CMSIS/Include/cmsis_gcc.h ****  */
 877:Drivers/CMSIS/Include/cmsis_gcc.h **** __STATIC_FORCEINLINE void __DSB(void)
 1093              		.loc 2 877 27 view .LVU312
 1094              	.LBB21:
 878:Drivers/CMSIS/Include/cmsis_gcc.h **** {
 879:Drivers/CMSIS/Include/cmsis_gcc.h ****   __ASM volatile ("dsb 0xF":::"memory");
 1095              		.loc 2 879 3 view .LVU313
 1096              		.syntax unified
 1097              	@ 879 "Drivers/CMSIS/Include/cmsis_gcc.h" 1
 1098 0048 BFF34F8F 		dsb 0xF
 1099              	@ 0 "" 2
 1100              		.thumb
 1101              		.syntax unified
 1102              	.LBE21:
 1103              	.LBE20:
 151:Drivers/STM32H7xx_HAL_Driver/Src/stm32h7xx_hal_flash.c **** 
 1104              		.loc 1 151 11 is_stmt 0 view .LVU314
 1105 004c 0823     		movs	r3, #8
 1106              	.LVL70:
 1107              	.L96:
 192:Drivers/STM32H7xx_HAL_Driver/Src/stm32h7xx_hal_flash.c ****     {
 1108              		.loc 1 192 5 is_stmt 1 discriminator 1 view .LVU315
ARM GAS  /tmp/ccDY5NB6.s 			page 55


 194:Drivers/STM32H7xx_HAL_Driver/Src/stm32h7xx_hal_flash.c ****       dest_addr++;
 1109              		.loc 1 194 7 discriminator 1 view .LVU316
 194:Drivers/STM32H7xx_HAL_Driver/Src/stm32h7xx_hal_flash.c ****       dest_addr++;
 1110              		.loc 1 194 20 is_stmt 0 discriminator 1 view .LVU317
 1111 004e 54F8042B 		ldr	r2, [r4], #4
 1112              	.LVL71:
 194:Drivers/STM32H7xx_HAL_Driver/Src/stm32h7xx_hal_flash.c ****       dest_addr++;
 1113              		.loc 1 194 18 discriminator 1 view .LVU318
 1114 0052 45F8042B 		str	r2, [r5], #4
 1115              	.LVL72:
 195:Drivers/STM32H7xx_HAL_Driver/Src/stm32h7xx_hal_flash.c ****       src_addr++;
 1116              		.loc 1 195 7 is_stmt 1 discriminator 1 view .LVU319
 196:Drivers/STM32H7xx_HAL_Driver/Src/stm32h7xx_hal_flash.c ****       row_index--;
 1117              		.loc 1 196 7 discriminator 1 view .LVU320
 197:Drivers/STM32H7xx_HAL_Driver/Src/stm32h7xx_hal_flash.c ****     } while (row_index != 0U);
 1118              		.loc 1 197 7 discriminator 1 view .LVU321
 197:Drivers/STM32H7xx_HAL_Driver/Src/stm32h7xx_hal_flash.c ****     } while (row_index != 0U);
 1119              		.loc 1 197 16 is_stmt 0 discriminator 1 view .LVU322
 1120 0056 013B     		subs	r3, r3, #1
 1121              	.LVL73:
 198:Drivers/STM32H7xx_HAL_Driver/Src/stm32h7xx_hal_flash.c **** 
 1122              		.loc 1 198 5 discriminator 1 view .LVU323
 1123 0058 13F0FF03 		ands	r3, r3, #255
 1124              	.LVL74:
 198:Drivers/STM32H7xx_HAL_Driver/Src/stm32h7xx_hal_flash.c **** 
 1125              		.loc 1 198 5 discriminator 1 view .LVU324
 1126 005c F7D1     		bne	.L96
 200:Drivers/STM32H7xx_HAL_Driver/Src/stm32h7xx_hal_flash.c ****     __DSB();
 1127              		.loc 1 200 5 is_stmt 1 view .LVU325
 1128              	.LBB22:
 1129              	.LBI22:
 866:Drivers/CMSIS/Include/cmsis_gcc.h **** {
 1130              		.loc 2 866 27 view .LVU326
 1131              	.LBB23:
 868:Drivers/CMSIS/Include/cmsis_gcc.h **** }
 1132              		.loc 2 868 3 view .LVU327
 1133              		.syntax unified
 1134              	@ 868 "Drivers/CMSIS/Include/cmsis_gcc.h" 1
 1135 005e BFF36F8F 		isb 0xF
 1136              	@ 0 "" 2
 1137              		.thumb
 1138              		.syntax unified
 1139              	.LBE23:
 1140              	.LBE22:
 201:Drivers/STM32H7xx_HAL_Driver/Src/stm32h7xx_hal_flash.c **** 
 1141              		.loc 1 201 5 view .LVU328
 1142              	.LBB24:
 1143              	.LBI24:
 877:Drivers/CMSIS/Include/cmsis_gcc.h **** {
 1144              		.loc 2 877 27 view .LVU329
 1145              	.LBB25:
 1146              		.loc 2 879 3 view .LVU330
 1147              		.syntax unified
 1148              	@ 879 "Drivers/CMSIS/Include/cmsis_gcc.h" 1
 1149 0062 BFF34F8F 		dsb 0xF
 1150              	@ 0 "" 2
 1151              		.thumb
ARM GAS  /tmp/ccDY5NB6.s 			page 56


 1152              		.syntax unified
 1153              	.LBE25:
 1154              	.LBE24:
 204:Drivers/STM32H7xx_HAL_Driver/Src/stm32h7xx_hal_flash.c **** 
 1155              		.loc 1 204 5 view .LVU331
 204:Drivers/STM32H7xx_HAL_Driver/Src/stm32h7xx_hal_flash.c **** 
 1156              		.loc 1 204 14 is_stmt 0 view .LVU332
 1157 0066 3146     		mov	r1, r6
 1158 0068 4CF25030 		movw	r0, #50000
 1159              	.LVL75:
 204:Drivers/STM32H7xx_HAL_Driver/Src/stm32h7xx_hal_flash.c **** 
 1160              		.loc 1 204 14 view .LVU333
 1161 006c FFF7FEFF 		bl	FLASH_WaitForLastOperation
 1162              	.LVL76:
 206:Drivers/STM32H7xx_HAL_Driver/Src/stm32h7xx_hal_flash.c ****     {
 1163              		.loc 1 206 5 is_stmt 1 view .LVU334
 206:Drivers/STM32H7xx_HAL_Driver/Src/stm32h7xx_hal_flash.c ****     {
 1164              		.loc 1 206 7 is_stmt 0 view .LVU335
 1165 0070 012E     		cmp	r6, #1
 1166 0072 12D0     		beq	.L105
 214:Drivers/STM32H7xx_HAL_Driver/Src/stm32h7xx_hal_flash.c ****     }
 1167              		.loc 1 214 7 is_stmt 1 view .LVU336
 1168 0074 0E4A     		ldr	r2, .L106+4
 1169 0076 D2F80C31 		ldr	r3, [r2, #268]
 1170 007a 23F00203 		bic	r3, r3, #2
 1171 007e C2F80C31 		str	r3, [r2, #268]
 1172              	.LVL77:
 1173              	.L93:
 219:Drivers/STM32H7xx_HAL_Driver/Src/stm32h7xx_hal_flash.c **** 
 1174              		.loc 1 219 3 view .LVU337
 219:Drivers/STM32H7xx_HAL_Driver/Src/stm32h7xx_hal_flash.c **** 
 1175              		.loc 1 219 3 view .LVU338
 1176 0082 0A4B     		ldr	r3, .L106
 1177 0084 0022     		movs	r2, #0
 1178 0086 1A75     		strb	r2, [r3, #20]
 221:Drivers/STM32H7xx_HAL_Driver/Src/stm32h7xx_hal_flash.c **** }
 1179              		.loc 1 221 3 view .LVU339
 222:Drivers/STM32H7xx_HAL_Driver/Src/stm32h7xx_hal_flash.c **** 
 1180              		.loc 1 222 1 is_stmt 0 view .LVU340
 1181 0088 70BD     		pop	{r4, r5, r6, pc}
 1182              	.LVL78:
 1183              	.L99:
 166:Drivers/STM32H7xx_HAL_Driver/Src/stm32h7xx_hal_flash.c ****   }
 1184              		.loc 1 166 10 view .LVU341
 1185 008a 0226     		movs	r6, #2
 1186 008c C8E7     		b	.L92
 1187              	.LVL79:
 1188              	.L104:
 180:Drivers/STM32H7xx_HAL_Driver/Src/stm32h7xx_hal_flash.c ****     }
 1189              		.loc 1 180 7 is_stmt 1 view .LVU342
 1190 008e 084A     		ldr	r2, .L106+4
 1191 0090 D368     		ldr	r3, [r2, #12]
 1192 0092 43F00203 		orr	r3, r3, #2
 1193 0096 D360     		str	r3, [r2, #12]
 1194 0098 D4E7     		b	.L95
 1195              	.LVL80:
 1196              	.L105:
ARM GAS  /tmp/ccDY5NB6.s 			page 57


 209:Drivers/STM32H7xx_HAL_Driver/Src/stm32h7xx_hal_flash.c ****     }
 1197              		.loc 1 209 7 view .LVU343
 1198 009a 054A     		ldr	r2, .L106+4
 1199 009c D368     		ldr	r3, [r2, #12]
 1200 009e 23F00203 		bic	r3, r3, #2
 1201 00a2 D360     		str	r3, [r2, #12]
 1202 00a4 EDE7     		b	.L93
 1203              	.LVL81:
 1204              	.L98:
 1205              	.LCFI3:
 1206              		.cfi_def_cfa_offset 0
 1207              		.cfi_restore 4
 1208              		.cfi_restore 5
 1209              		.cfi_restore 6
 1210              		.cfi_restore 14
 158:Drivers/STM32H7xx_HAL_Driver/Src/stm32h7xx_hal_flash.c **** 
 1211              		.loc 1 158 3 is_stmt 0 view .LVU344
 1212 00a6 0220     		movs	r0, #2
 1213              	.LVL82:
 222:Drivers/STM32H7xx_HAL_Driver/Src/stm32h7xx_hal_flash.c **** 
 1214              		.loc 1 222 1 view .LVU345
 1215 00a8 7047     		bx	lr
 1216              	.L107:
 1217 00aa 00BF     		.align	2
 1218              	.L106:
 1219 00ac 00000000 		.word	pFlash
 1220 00b0 00200052 		.word	1375739904
 1221              		.cfi_endproc
 1222              	.LFE141:
 1224              		.section	.text.HAL_FLASH_Program_IT,"ax",%progbits
 1225              		.align	1
 1226              		.global	HAL_FLASH_Program_IT
 1227              		.syntax unified
 1228              		.thumb
 1229              		.thumb_func
 1230              		.fpu fpv5-d16
 1232              	HAL_FLASH_Program_IT:
 1233              	.LVL83:
 1234              	.LFB142:
 234:Drivers/STM32H7xx_HAL_Driver/Src/stm32h7xx_hal_flash.c ****   HAL_StatusTypeDef status;
 1235              		.loc 1 234 1 is_stmt 1 view -0
 1236              		.cfi_startproc
 1237              		@ args = 0, pretend = 0, frame = 0
 1238              		@ frame_needed = 0, uses_anonymous_args = 0
 234:Drivers/STM32H7xx_HAL_Driver/Src/stm32h7xx_hal_flash.c ****   HAL_StatusTypeDef status;
 1239              		.loc 1 234 1 is_stmt 0 view .LVU347
 1240 0000 F8B5     		push	{r3, r4, r5, r6, r7, lr}
 1241              	.LCFI4:
 1242              		.cfi_def_cfa_offset 24
 1243              		.cfi_offset 3, -24
 1244              		.cfi_offset 4, -20
 1245              		.cfi_offset 5, -16
 1246              		.cfi_offset 6, -12
 1247              		.cfi_offset 7, -8
 1248              		.cfi_offset 14, -4
 235:Drivers/STM32H7xx_HAL_Driver/Src/stm32h7xx_hal_flash.c ****   __IO uint32_t *dest_addr = (__IO uint32_t*)FlashAddress;
 1249              		.loc 1 235 3 is_stmt 1 view .LVU348
ARM GAS  /tmp/ccDY5NB6.s 			page 58


 236:Drivers/STM32H7xx_HAL_Driver/Src/stm32h7xx_hal_flash.c ****   __IO uint32_t *src_addr = (__IO uint32_t*)DataAddress;
 1250              		.loc 1 236 3 view .LVU349
 1251              	.LVL84:
 237:Drivers/STM32H7xx_HAL_Driver/Src/stm32h7xx_hal_flash.c ****   uint32_t bank;
 1252              		.loc 1 237 3 view .LVU350
 238:Drivers/STM32H7xx_HAL_Driver/Src/stm32h7xx_hal_flash.c ****   uint8_t row_index = FLASH_NB_32BITWORD_IN_FLASHWORD;
 1253              		.loc 1 238 3 view .LVU351
 239:Drivers/STM32H7xx_HAL_Driver/Src/stm32h7xx_hal_flash.c **** 
 1254              		.loc 1 239 3 view .LVU352
 242:Drivers/STM32H7xx_HAL_Driver/Src/stm32h7xx_hal_flash.c ****   assert_param(IS_FLASH_PROGRAM_ADDRESS(FlashAddress));
 1255              		.loc 1 242 3 view .LVU353
 243:Drivers/STM32H7xx_HAL_Driver/Src/stm32h7xx_hal_flash.c **** 
 1256              		.loc 1 243 3 view .LVU354
 246:Drivers/STM32H7xx_HAL_Driver/Src/stm32h7xx_hal_flash.c **** 
 1257              		.loc 1 246 3 view .LVU355
 246:Drivers/STM32H7xx_HAL_Driver/Src/stm32h7xx_hal_flash.c **** 
 1258              		.loc 1 246 3 view .LVU356
 1259 0002 294B     		ldr	r3, .L119
 1260 0004 1B7D     		ldrb	r3, [r3, #20]	@ zero_extendqisi2
 1261 0006 012B     		cmp	r3, #1
 1262 0008 4BD0     		beq	.L115
 1263 000a 0E46     		mov	r6, r1
 1264 000c 0D46     		mov	r5, r1
 1265 000e 1446     		mov	r4, r2
 246:Drivers/STM32H7xx_HAL_Driver/Src/stm32h7xx_hal_flash.c **** 
 1266              		.loc 1 246 3 discriminator 2 view .LVU357
 1267 0010 254B     		ldr	r3, .L119
 1268 0012 0122     		movs	r2, #1
 1269              	.LVL85:
 246:Drivers/STM32H7xx_HAL_Driver/Src/stm32h7xx_hal_flash.c **** 
 1270              		.loc 1 246 3 is_stmt 0 discriminator 2 view .LVU358
 1271 0014 1A75     		strb	r2, [r3, #20]
 249:Drivers/STM32H7xx_HAL_Driver/Src/stm32h7xx_hal_flash.c **** 
 1272              		.loc 1 249 3 is_stmt 1 discriminator 2 view .LVU359
 249:Drivers/STM32H7xx_HAL_Driver/Src/stm32h7xx_hal_flash.c **** 
 1273              		.loc 1 249 20 is_stmt 0 discriminator 2 view .LVU360
 1274 0016 0022     		movs	r2, #0
 1275 0018 9A61     		str	r2, [r3, #24]
 251:Drivers/STM32H7xx_HAL_Driver/Src/stm32h7xx_hal_flash.c ****   {
 1276              		.loc 1 251 3 is_stmt 1 discriminator 2 view .LVU361
 251:Drivers/STM32H7xx_HAL_Driver/Src/stm32h7xx_hal_flash.c ****   {
 1277              		.loc 1 251 6 is_stmt 0 discriminator 2 view .LVU362
 1278 001a 01F17843 		add	r3, r1, #-134217728
 251:Drivers/STM32H7xx_HAL_Driver/Src/stm32h7xx_hal_flash.c ****   {
 1279              		.loc 1 251 5 discriminator 2 view .LVU363
 1280 001e B3F5801F 		cmp	r3, #1048576
 1281 0022 0AD2     		bcs	.L116
 253:Drivers/STM32H7xx_HAL_Driver/Src/stm32h7xx_hal_flash.c ****   }
 1282              		.loc 1 253 10 view .LVU364
 1283 0024 0127     		movs	r7, #1
 1284              	.L110:
 1285              	.LVL86:
 261:Drivers/STM32H7xx_HAL_Driver/Src/stm32h7xx_hal_flash.c **** 
 1286              		.loc 1 261 3 is_stmt 1 view .LVU365
 261:Drivers/STM32H7xx_HAL_Driver/Src/stm32h7xx_hal_flash.c **** 
 1287              		.loc 1 261 12 is_stmt 0 view .LVU366
 1288 0026 3946     		mov	r1, r7
ARM GAS  /tmp/ccDY5NB6.s 			page 59


 1289              	.LVL87:
 261:Drivers/STM32H7xx_HAL_Driver/Src/stm32h7xx_hal_flash.c **** 
 1290              		.loc 1 261 12 view .LVU367
 1291 0028 4CF25030 		movw	r0, #50000
 1292              	.LVL88:
 261:Drivers/STM32H7xx_HAL_Driver/Src/stm32h7xx_hal_flash.c **** 
 1293              		.loc 1 261 12 view .LVU368
 1294 002c FFF7FEFF 		bl	FLASH_WaitForLastOperation
 1295              	.LVL89:
 263:Drivers/STM32H7xx_HAL_Driver/Src/stm32h7xx_hal_flash.c ****   {
 1296              		.loc 1 263 3 is_stmt 1 view .LVU369
 263:Drivers/STM32H7xx_HAL_Driver/Src/stm32h7xx_hal_flash.c ****   {
 1297              		.loc 1 263 6 is_stmt 0 view .LVU370
 1298 0030 28B1     		cbz	r0, .L111
 266:Drivers/STM32H7xx_HAL_Driver/Src/stm32h7xx_hal_flash.c ****   }
 1299              		.loc 1 266 5 is_stmt 1 view .LVU371
 266:Drivers/STM32H7xx_HAL_Driver/Src/stm32h7xx_hal_flash.c ****   }
 1300              		.loc 1 266 5 view .LVU372
 1301 0032 1D4B     		ldr	r3, .L119
 1302 0034 0022     		movs	r2, #0
 1303 0036 1A75     		strb	r2, [r3, #20]
 1304              	.LVL90:
 1305              	.L109:
 314:Drivers/STM32H7xx_HAL_Driver/Src/stm32h7xx_hal_flash.c **** 
 1306              		.loc 1 314 1 is_stmt 0 view .LVU373
 1307 0038 F8BD     		pop	{r3, r4, r5, r6, r7, pc}
 1308              	.LVL91:
 1309              	.L116:
 257:Drivers/STM32H7xx_HAL_Driver/Src/stm32h7xx_hal_flash.c ****   }
 1310              		.loc 1 257 10 view .LVU374
 1311 003a 0227     		movs	r7, #2
 1312 003c F3E7     		b	.L110
 1313              	.LVL92:
 1314              	.L111:
 270:Drivers/STM32H7xx_HAL_Driver/Src/stm32h7xx_hal_flash.c **** 
 1315              		.loc 1 270 5 is_stmt 1 view .LVU375
 270:Drivers/STM32H7xx_HAL_Driver/Src/stm32h7xx_hal_flash.c **** 
 1316              		.loc 1 270 20 is_stmt 0 view .LVU376
 1317 003e 1A4B     		ldr	r3, .L119
 1318 0040 1E61     		str	r6, [r3, #16]
 272:Drivers/STM32H7xx_HAL_Driver/Src/stm32h7xx_hal_flash.c ****     {
 1319              		.loc 1 272 5 is_stmt 1 view .LVU377
 272:Drivers/STM32H7xx_HAL_Driver/Src/stm32h7xx_hal_flash.c ****     {
 1320              		.loc 1 272 7 is_stmt 0 view .LVU378
 1321 0042 012F     		cmp	r7, #1
 1322 0044 21D0     		beq	.L118
 287:Drivers/STM32H7xx_HAL_Driver/Src/stm32h7xx_hal_flash.c **** 
 1323              		.loc 1 287 7 is_stmt 1 view .LVU379
 287:Drivers/STM32H7xx_HAL_Driver/Src/stm32h7xx_hal_flash.c **** 
 1324              		.loc 1 287 31 is_stmt 0 view .LVU380
 1325 0046 184B     		ldr	r3, .L119
 1326 0048 0622     		movs	r2, #6
 1327 004a 1A70     		strb	r2, [r3]
 290:Drivers/STM32H7xx_HAL_Driver/Src/stm32h7xx_hal_flash.c **** 
 1328              		.loc 1 290 7 is_stmt 1 view .LVU381
 1329 004c 174B     		ldr	r3, .L119+4
 1330 004e D3F80C21 		ldr	r2, [r3, #268]
ARM GAS  /tmp/ccDY5NB6.s 			page 60


 1331 0052 42F00202 		orr	r2, r2, #2
 1332 0056 C3F80C21 		str	r2, [r3, #268]
 293:Drivers/STM32H7xx_HAL_Driver/Src/stm32h7xx_hal_flash.c ****                                   FLASH_IT_STRBERR_BANK2 | FLASH_IT_INCERR_BANK2 | FLASH_IT_OPERR_B
 1333              		.loc 1 293 7 view .LVU382
 1334 005a D3F80C21 		ldr	r2, [r3, #268]
 1335 005e 42F4DE02 		orr	r2, r2, #7274496
 1336 0062 C3F80C21 		str	r2, [r3, #268]
 1337              	.L113:
 297:Drivers/STM32H7xx_HAL_Driver/Src/stm32h7xx_hal_flash.c ****     __DSB();
 1338              		.loc 1 297 5 view .LVU383
 1339              	.LBB26:
 1340              	.LBI26:
 866:Drivers/CMSIS/Include/cmsis_gcc.h **** {
 1341              		.loc 2 866 27 view .LVU384
 1342              	.LBB27:
 868:Drivers/CMSIS/Include/cmsis_gcc.h **** }
 1343              		.loc 2 868 3 view .LVU385
 1344              		.syntax unified
 1345              	@ 868 "Drivers/CMSIS/Include/cmsis_gcc.h" 1
 1346 0066 BFF36F8F 		isb 0xF
 1347              	@ 0 "" 2
 1348              		.thumb
 1349              		.syntax unified
 1350              	.LBE27:
 1351              	.LBE26:
 298:Drivers/STM32H7xx_HAL_Driver/Src/stm32h7xx_hal_flash.c **** 
 1352              		.loc 1 298 5 view .LVU386
 1353              	.LBB28:
 1354              	.LBI28:
 877:Drivers/CMSIS/Include/cmsis_gcc.h **** {
 1355              		.loc 2 877 27 view .LVU387
 1356              	.LBB29:
 1357              		.loc 2 879 3 view .LVU388
 1358              		.syntax unified
 1359              	@ 879 "Drivers/CMSIS/Include/cmsis_gcc.h" 1
 1360 006a BFF34F8F 		dsb 0xF
 1361              	@ 0 "" 2
 1362              		.thumb
 1363              		.syntax unified
 1364              	.LBE29:
 1365              	.LBE28:
 239:Drivers/STM32H7xx_HAL_Driver/Src/stm32h7xx_hal_flash.c **** 
 1366              		.loc 1 239 11 is_stmt 0 view .LVU389
 1367 006e 0823     		movs	r3, #8
 1368              	.LVL93:
 1369              	.L114:
 301:Drivers/STM32H7xx_HAL_Driver/Src/stm32h7xx_hal_flash.c ****     {
 1370              		.loc 1 301 5 is_stmt 1 discriminator 1 view .LVU390
 303:Drivers/STM32H7xx_HAL_Driver/Src/stm32h7xx_hal_flash.c ****       dest_addr++;
 1371              		.loc 1 303 7 discriminator 1 view .LVU391
 303:Drivers/STM32H7xx_HAL_Driver/Src/stm32h7xx_hal_flash.c ****       dest_addr++;
 1372              		.loc 1 303 20 is_stmt 0 discriminator 1 view .LVU392
 1373 0070 54F8042B 		ldr	r2, [r4], #4
 1374              	.LVL94:
 303:Drivers/STM32H7xx_HAL_Driver/Src/stm32h7xx_hal_flash.c ****       dest_addr++;
 1375              		.loc 1 303 18 discriminator 1 view .LVU393
 1376 0074 45F8042B 		str	r2, [r5], #4
ARM GAS  /tmp/ccDY5NB6.s 			page 61


 1377              	.LVL95:
 304:Drivers/STM32H7xx_HAL_Driver/Src/stm32h7xx_hal_flash.c ****       src_addr++;
 1378              		.loc 1 304 7 is_stmt 1 discriminator 1 view .LVU394
 305:Drivers/STM32H7xx_HAL_Driver/Src/stm32h7xx_hal_flash.c ****       row_index--;
 1379              		.loc 1 305 7 discriminator 1 view .LVU395
 306:Drivers/STM32H7xx_HAL_Driver/Src/stm32h7xx_hal_flash.c ****     } while (row_index != 0U);
 1380              		.loc 1 306 7 discriminator 1 view .LVU396
 306:Drivers/STM32H7xx_HAL_Driver/Src/stm32h7xx_hal_flash.c ****     } while (row_index != 0U);
 1381              		.loc 1 306 16 is_stmt 0 discriminator 1 view .LVU397
 1382 0078 013B     		subs	r3, r3, #1
 1383              	.LVL96:
 307:Drivers/STM32H7xx_HAL_Driver/Src/stm32h7xx_hal_flash.c **** 
 1384              		.loc 1 307 5 discriminator 1 view .LVU398
 1385 007a 13F0FF03 		ands	r3, r3, #255
 1386              	.LVL97:
 307:Drivers/STM32H7xx_HAL_Driver/Src/stm32h7xx_hal_flash.c **** 
 1387              		.loc 1 307 5 discriminator 1 view .LVU399
 1388 007e F7D1     		bne	.L114
 309:Drivers/STM32H7xx_HAL_Driver/Src/stm32h7xx_hal_flash.c ****     __DSB();
 1389              		.loc 1 309 5 is_stmt 1 view .LVU400
 1390              	.LBB30:
 1391              	.LBI30:
 866:Drivers/CMSIS/Include/cmsis_gcc.h **** {
 1392              		.loc 2 866 27 view .LVU401
 1393              	.LBB31:
 868:Drivers/CMSIS/Include/cmsis_gcc.h **** }
 1394              		.loc 2 868 3 view .LVU402
 1395              		.syntax unified
 1396              	@ 868 "Drivers/CMSIS/Include/cmsis_gcc.h" 1
 1397 0080 BFF36F8F 		isb 0xF
 1398              	@ 0 "" 2
 1399              		.thumb
 1400              		.syntax unified
 1401              	.LBE31:
 1402              	.LBE30:
 310:Drivers/STM32H7xx_HAL_Driver/Src/stm32h7xx_hal_flash.c ****   }
 1403              		.loc 1 310 5 view .LVU403
 1404              	.LBB32:
 1405              	.LBI32:
 877:Drivers/CMSIS/Include/cmsis_gcc.h **** {
 1406              		.loc 2 877 27 view .LVU404
 1407              	.LBB33:
 1408              		.loc 2 879 3 view .LVU405
 1409              		.syntax unified
 1410              	@ 879 "Drivers/CMSIS/Include/cmsis_gcc.h" 1
 1411 0084 BFF34F8F 		dsb 0xF
 1412              	@ 0 "" 2
 880:Drivers/CMSIS/Include/cmsis_gcc.h **** }
 1413              		.loc 2 880 1 is_stmt 0 view .LVU406
 1414              		.thumb
 1415              		.syntax unified
 1416 0088 D6E7     		b	.L109
 1417              	.LVL98:
 1418              	.L118:
 1419              		.loc 2 880 1 view .LVU407
 1420              	.LBE33:
 1421              	.LBE32:
ARM GAS  /tmp/ccDY5NB6.s 			page 62


 275:Drivers/STM32H7xx_HAL_Driver/Src/stm32h7xx_hal_flash.c **** 
 1422              		.loc 1 275 7 is_stmt 1 view .LVU408
 275:Drivers/STM32H7xx_HAL_Driver/Src/stm32h7xx_hal_flash.c **** 
 1423              		.loc 1 275 31 is_stmt 0 view .LVU409
 1424 008a 0322     		movs	r2, #3
 1425 008c 1A70     		strb	r2, [r3]
 278:Drivers/STM32H7xx_HAL_Driver/Src/stm32h7xx_hal_flash.c **** 
 1426              		.loc 1 278 7 is_stmt 1 view .LVU410
 1427 008e 074B     		ldr	r3, .L119+4
 1428 0090 DA68     		ldr	r2, [r3, #12]
 1429 0092 42F00202 		orr	r2, r2, #2
 1430 0096 DA60     		str	r2, [r3, #12]
 281:Drivers/STM32H7xx_HAL_Driver/Src/stm32h7xx_hal_flash.c ****                                   FLASH_IT_STRBERR_BANK1 | FLASH_IT_INCERR_BANK1 | FLASH_IT_OPERR_B
 1431              		.loc 1 281 7 view .LVU411
 1432 0098 DA68     		ldr	r2, [r3, #12]
 1433 009a 42F4DE02 		orr	r2, r2, #7274496
 1434 009e DA60     		str	r2, [r3, #12]
 1435 00a0 E1E7     		b	.L113
 1436              	.LVL99:
 1437              	.L115:
 246:Drivers/STM32H7xx_HAL_Driver/Src/stm32h7xx_hal_flash.c **** 
 1438              		.loc 1 246 3 is_stmt 0 view .LVU412
 1439 00a2 0220     		movs	r0, #2
 1440              	.LVL100:
 246:Drivers/STM32H7xx_HAL_Driver/Src/stm32h7xx_hal_flash.c **** 
 1441              		.loc 1 246 3 view .LVU413
 1442 00a4 C8E7     		b	.L109
 1443              	.L120:
 1444 00a6 00BF     		.align	2
 1445              	.L119:
 1446 00a8 00000000 		.word	pFlash
 1447 00ac 00200052 		.word	1375739904
 1448              		.cfi_endproc
 1449              	.LFE142:
 1451              		.section	.text.FLASH_OB_WaitForLastOperation,"ax",%progbits
 1452              		.align	1
 1453              		.global	FLASH_OB_WaitForLastOperation
 1454              		.syntax unified
 1455              		.thumb
 1456              		.thumb_func
 1457              		.fpu fpv5-d16
 1459              	FLASH_OB_WaitForLastOperation:
 1460              	.LVL101:
 1461              	.LFB153:
 891:Drivers/STM32H7xx_HAL_Driver/Src/stm32h7xx_hal_flash.c **** 
 892:Drivers/STM32H7xx_HAL_Driver/Src/stm32h7xx_hal_flash.c **** /**
 893:Drivers/STM32H7xx_HAL_Driver/Src/stm32h7xx_hal_flash.c ****   * @brief  Wait for a FLASH Option Bytes change operation to complete.
 894:Drivers/STM32H7xx_HAL_Driver/Src/stm32h7xx_hal_flash.c ****   * @param  Timeout maximum flash operation timeout
 895:Drivers/STM32H7xx_HAL_Driver/Src/stm32h7xx_hal_flash.c ****   * @retval HAL_StatusTypeDef HAL Status
 896:Drivers/STM32H7xx_HAL_Driver/Src/stm32h7xx_hal_flash.c ****   */
 897:Drivers/STM32H7xx_HAL_Driver/Src/stm32h7xx_hal_flash.c **** HAL_StatusTypeDef FLASH_OB_WaitForLastOperation(uint32_t Timeout)
 898:Drivers/STM32H7xx_HAL_Driver/Src/stm32h7xx_hal_flash.c **** {
 1462              		.loc 1 898 1 is_stmt 1 view -0
 1463              		.cfi_startproc
 1464              		@ args = 0, pretend = 0, frame = 0
 1465              		@ frame_needed = 0, uses_anonymous_args = 0
 1466              		.loc 1 898 1 is_stmt 0 view .LVU415
ARM GAS  /tmp/ccDY5NB6.s 			page 63


 1467 0000 38B5     		push	{r3, r4, r5, lr}
 1468              	.LCFI5:
 1469              		.cfi_def_cfa_offset 16
 1470              		.cfi_offset 3, -16
 1471              		.cfi_offset 4, -12
 1472              		.cfi_offset 5, -8
 1473              		.cfi_offset 14, -4
 1474 0002 0446     		mov	r4, r0
 899:Drivers/STM32H7xx_HAL_Driver/Src/stm32h7xx_hal_flash.c ****   /* Get timeout */
 900:Drivers/STM32H7xx_HAL_Driver/Src/stm32h7xx_hal_flash.c ****   uint32_t tickstart = HAL_GetTick();
 1475              		.loc 1 900 3 is_stmt 1 view .LVU416
 1476              		.loc 1 900 24 is_stmt 0 view .LVU417
 1477 0004 FFF7FEFF 		bl	HAL_GetTick
 1478              	.LVL102:
 1479              		.loc 1 900 24 view .LVU418
 1480 0008 0546     		mov	r5, r0
 1481              	.LVL103:
 901:Drivers/STM32H7xx_HAL_Driver/Src/stm32h7xx_hal_flash.c **** 
 902:Drivers/STM32H7xx_HAL_Driver/Src/stm32h7xx_hal_flash.c ****   /* Wait for the FLASH Option Bytes change operation to complete by polling on OPT_BUSY flag to be
 903:Drivers/STM32H7xx_HAL_Driver/Src/stm32h7xx_hal_flash.c ****   while(READ_BIT(FLASH->OPTSR_CUR, FLASH_OPTSR_OPT_BUSY) != 0U)
 1482              		.loc 1 903 3 is_stmt 1 view .LVU419
 1483              	.L123:
 1484              		.loc 1 903 9 is_stmt 0 view .LVU420
 1485 000a 134B     		ldr	r3, .L132
 1486 000c DB69     		ldr	r3, [r3, #28]
 1487              		.loc 1 903 8 view .LVU421
 1488 000e 13F0010F 		tst	r3, #1
 1489 0012 0BD0     		beq	.L130
 904:Drivers/STM32H7xx_HAL_Driver/Src/stm32h7xx_hal_flash.c ****   {
 905:Drivers/STM32H7xx_HAL_Driver/Src/stm32h7xx_hal_flash.c ****     if(Timeout != HAL_MAX_DELAY)
 1490              		.loc 1 905 5 is_stmt 1 view .LVU422
 1491              		.loc 1 905 7 is_stmt 0 view .LVU423
 1492 0014 B4F1FF3F 		cmp	r4, #-1
 1493 0018 F7D0     		beq	.L123
 906:Drivers/STM32H7xx_HAL_Driver/Src/stm32h7xx_hal_flash.c ****     {
 907:Drivers/STM32H7xx_HAL_Driver/Src/stm32h7xx_hal_flash.c ****       if(((HAL_GetTick() - tickstart) > Timeout) || (Timeout == 0U))
 1494              		.loc 1 907 7 is_stmt 1 view .LVU424
 1495              		.loc 1 907 12 is_stmt 0 view .LVU425
 1496 001a FFF7FEFF 		bl	HAL_GetTick
 1497              	.LVL104:
 1498              		.loc 1 907 26 view .LVU426
 1499 001e 401B     		subs	r0, r0, r5
 1500              		.loc 1 907 9 view .LVU427
 1501 0020 A042     		cmp	r0, r4
 1502 0022 16D8     		bhi	.L126
 1503              		.loc 1 907 50 discriminator 1 view .LVU428
 1504 0024 002C     		cmp	r4, #0
 1505 0026 F0D1     		bne	.L123
 908:Drivers/STM32H7xx_HAL_Driver/Src/stm32h7xx_hal_flash.c ****       {
 909:Drivers/STM32H7xx_HAL_Driver/Src/stm32h7xx_hal_flash.c ****         return HAL_TIMEOUT;
 1506              		.loc 1 909 16 view .LVU429
 1507 0028 0320     		movs	r0, #3
 1508 002a 05E0     		b	.L124
 1509              	.L130:
 910:Drivers/STM32H7xx_HAL_Driver/Src/stm32h7xx_hal_flash.c ****       }
 911:Drivers/STM32H7xx_HAL_Driver/Src/stm32h7xx_hal_flash.c ****     }
 912:Drivers/STM32H7xx_HAL_Driver/Src/stm32h7xx_hal_flash.c ****   }
ARM GAS  /tmp/ccDY5NB6.s 			page 64


 913:Drivers/STM32H7xx_HAL_Driver/Src/stm32h7xx_hal_flash.c **** 
 914:Drivers/STM32H7xx_HAL_Driver/Src/stm32h7xx_hal_flash.c ****   /* Check option byte change error */
 915:Drivers/STM32H7xx_HAL_Driver/Src/stm32h7xx_hal_flash.c ****   if(READ_BIT(FLASH->OPTSR_CUR, FLASH_OPTSR_OPTCHANGEERR) != 0U)
 1510              		.loc 1 915 3 is_stmt 1 view .LVU430
 1511              		.loc 1 915 6 is_stmt 0 view .LVU431
 1512 002c 0A4B     		ldr	r3, .L132
 1513 002e DB69     		ldr	r3, [r3, #28]
 1514              		.loc 1 915 5 view .LVU432
 1515 0030 13F0804F 		tst	r3, #1073741824
 1516 0034 01D1     		bne	.L131
 916:Drivers/STM32H7xx_HAL_Driver/Src/stm32h7xx_hal_flash.c ****   {
 917:Drivers/STM32H7xx_HAL_Driver/Src/stm32h7xx_hal_flash.c ****     /* Save the error code */
 918:Drivers/STM32H7xx_HAL_Driver/Src/stm32h7xx_hal_flash.c ****     pFlash.ErrorCode |= HAL_FLASH_ERROR_OB_CHANGE;
 919:Drivers/STM32H7xx_HAL_Driver/Src/stm32h7xx_hal_flash.c **** 
 920:Drivers/STM32H7xx_HAL_Driver/Src/stm32h7xx_hal_flash.c ****     /* Clear the OB error flag */
 921:Drivers/STM32H7xx_HAL_Driver/Src/stm32h7xx_hal_flash.c ****     FLASH->OPTCCR |= FLASH_OPTCCR_CLR_OPTCHANGEERR;
 922:Drivers/STM32H7xx_HAL_Driver/Src/stm32h7xx_hal_flash.c **** 
 923:Drivers/STM32H7xx_HAL_Driver/Src/stm32h7xx_hal_flash.c ****     return HAL_ERROR;
 924:Drivers/STM32H7xx_HAL_Driver/Src/stm32h7xx_hal_flash.c ****   }
 925:Drivers/STM32H7xx_HAL_Driver/Src/stm32h7xx_hal_flash.c **** 
 926:Drivers/STM32H7xx_HAL_Driver/Src/stm32h7xx_hal_flash.c ****   /* If there is no error flag set */
 927:Drivers/STM32H7xx_HAL_Driver/Src/stm32h7xx_hal_flash.c ****   return HAL_OK;
 1517              		.loc 1 927 10 view .LVU433
 1518 0036 0020     		movs	r0, #0
 1519              	.L124:
 928:Drivers/STM32H7xx_HAL_Driver/Src/stm32h7xx_hal_flash.c **** }
 1520              		.loc 1 928 1 view .LVU434
 1521 0038 38BD     		pop	{r3, r4, r5, pc}
 1522              	.LVL105:
 1523              	.L131:
 918:Drivers/STM32H7xx_HAL_Driver/Src/stm32h7xx_hal_flash.c **** 
 1524              		.loc 1 918 5 is_stmt 1 view .LVU435
 918:Drivers/STM32H7xx_HAL_Driver/Src/stm32h7xx_hal_flash.c **** 
 1525              		.loc 1 918 22 is_stmt 0 view .LVU436
 1526 003a 084A     		ldr	r2, .L132+4
 1527 003c 9369     		ldr	r3, [r2, #24]
 1528 003e 43F08043 		orr	r3, r3, #1073741824
 1529 0042 9361     		str	r3, [r2, #24]
 921:Drivers/STM32H7xx_HAL_Driver/Src/stm32h7xx_hal_flash.c **** 
 1530              		.loc 1 921 5 is_stmt 1 view .LVU437
 921:Drivers/STM32H7xx_HAL_Driver/Src/stm32h7xx_hal_flash.c **** 
 1531              		.loc 1 921 19 is_stmt 0 view .LVU438
 1532 0044 044A     		ldr	r2, .L132
 1533 0046 536A     		ldr	r3, [r2, #36]
 1534 0048 43F08043 		orr	r3, r3, #1073741824
 1535 004c 5362     		str	r3, [r2, #36]
 923:Drivers/STM32H7xx_HAL_Driver/Src/stm32h7xx_hal_flash.c ****   }
 1536              		.loc 1 923 5 is_stmt 1 view .LVU439
 923:Drivers/STM32H7xx_HAL_Driver/Src/stm32h7xx_hal_flash.c ****   }
 1537              		.loc 1 923 12 is_stmt 0 view .LVU440
 1538 004e 0120     		movs	r0, #1
 1539 0050 F2E7     		b	.L124
 1540              	.L126:
 909:Drivers/STM32H7xx_HAL_Driver/Src/stm32h7xx_hal_flash.c ****       }
 1541              		.loc 1 909 16 view .LVU441
 1542 0052 0320     		movs	r0, #3
 1543 0054 F0E7     		b	.L124
ARM GAS  /tmp/ccDY5NB6.s 			page 65


 1544              	.L133:
 1545 0056 00BF     		.align	2
 1546              	.L132:
 1547 0058 00200052 		.word	1375739904
 1548 005c 00000000 		.word	pFlash
 1549              		.cfi_endproc
 1550              	.LFE153:
 1552              		.section	.text.FLASH_CRC_WaitForLastOperation,"ax",%progbits
 1553              		.align	1
 1554              		.global	FLASH_CRC_WaitForLastOperation
 1555              		.syntax unified
 1556              		.thumb
 1557              		.thumb_func
 1558              		.fpu fpv5-d16
 1560              	FLASH_CRC_WaitForLastOperation:
 1561              	.LVL106:
 1562              	.LFB154:
 929:Drivers/STM32H7xx_HAL_Driver/Src/stm32h7xx_hal_flash.c **** 
 930:Drivers/STM32H7xx_HAL_Driver/Src/stm32h7xx_hal_flash.c **** /**
 931:Drivers/STM32H7xx_HAL_Driver/Src/stm32h7xx_hal_flash.c ****   * @brief  Wait for a FLASH CRC computation to complete.
 932:Drivers/STM32H7xx_HAL_Driver/Src/stm32h7xx_hal_flash.c ****   * @param  Timeout maximum flash operation timeout
 933:Drivers/STM32H7xx_HAL_Driver/Src/stm32h7xx_hal_flash.c ****   * @param  Bank flash FLASH_BANK_1 or FLASH_BANK_2
 934:Drivers/STM32H7xx_HAL_Driver/Src/stm32h7xx_hal_flash.c ****   * @retval HAL_StatusTypeDef HAL Status
 935:Drivers/STM32H7xx_HAL_Driver/Src/stm32h7xx_hal_flash.c ****   */
 936:Drivers/STM32H7xx_HAL_Driver/Src/stm32h7xx_hal_flash.c **** HAL_StatusTypeDef FLASH_CRC_WaitForLastOperation(uint32_t Timeout, uint32_t Bank)
 937:Drivers/STM32H7xx_HAL_Driver/Src/stm32h7xx_hal_flash.c **** {
 1563              		.loc 1 937 1 is_stmt 1 view -0
 1564              		.cfi_startproc
 1565              		@ args = 0, pretend = 0, frame = 0
 1566              		@ frame_needed = 0, uses_anonymous_args = 0
 1567              		.loc 1 937 1 is_stmt 0 view .LVU443
 1568 0000 F8B5     		push	{r3, r4, r5, r6, r7, lr}
 1569              	.LCFI6:
 1570              		.cfi_def_cfa_offset 24
 1571              		.cfi_offset 3, -24
 1572              		.cfi_offset 4, -20
 1573              		.cfi_offset 5, -16
 1574              		.cfi_offset 6, -12
 1575              		.cfi_offset 7, -8
 1576              		.cfi_offset 14, -4
 1577 0002 0546     		mov	r5, r0
 1578 0004 0E46     		mov	r6, r1
 938:Drivers/STM32H7xx_HAL_Driver/Src/stm32h7xx_hal_flash.c ****   uint32_t bsyflag;
 1579              		.loc 1 938 3 is_stmt 1 view .LVU444
 939:Drivers/STM32H7xx_HAL_Driver/Src/stm32h7xx_hal_flash.c ****   uint32_t tickstart = HAL_GetTick();
 1580              		.loc 1 939 3 view .LVU445
 1581              		.loc 1 939 24 is_stmt 0 view .LVU446
 1582 0006 FFF7FEFF 		bl	HAL_GetTick
 1583              	.LVL107:
 1584              		.loc 1 939 24 view .LVU447
 1585 000a 0746     		mov	r7, r0
 1586              	.LVL108:
 940:Drivers/STM32H7xx_HAL_Driver/Src/stm32h7xx_hal_flash.c **** 
 941:Drivers/STM32H7xx_HAL_Driver/Src/stm32h7xx_hal_flash.c ****   assert_param(IS_FLASH_BANK_EXCLUSIVE(Bank));
 1587              		.loc 1 941 3 is_stmt 1 view .LVU448
 942:Drivers/STM32H7xx_HAL_Driver/Src/stm32h7xx_hal_flash.c **** 
 943:Drivers/STM32H7xx_HAL_Driver/Src/stm32h7xx_hal_flash.c ****   /* Select bsyflag depending on Bank */
ARM GAS  /tmp/ccDY5NB6.s 			page 66


 944:Drivers/STM32H7xx_HAL_Driver/Src/stm32h7xx_hal_flash.c ****   if(Bank == FLASH_BANK_1)
 1588              		.loc 1 944 3 view .LVU449
 1589              		.loc 1 944 5 is_stmt 0 view .LVU450
 1590 000c 012E     		cmp	r6, #1
 1591 000e 09D0     		beq	.L135
 945:Drivers/STM32H7xx_HAL_Driver/Src/stm32h7xx_hal_flash.c ****   {
 946:Drivers/STM32H7xx_HAL_Driver/Src/stm32h7xx_hal_flash.c ****     bsyflag = FLASH_FLAG_CRC_BUSY_BANK1;
 947:Drivers/STM32H7xx_HAL_Driver/Src/stm32h7xx_hal_flash.c ****   }
 948:Drivers/STM32H7xx_HAL_Driver/Src/stm32h7xx_hal_flash.c ****   else
 949:Drivers/STM32H7xx_HAL_Driver/Src/stm32h7xx_hal_flash.c ****   {
 950:Drivers/STM32H7xx_HAL_Driver/Src/stm32h7xx_hal_flash.c ****     bsyflag = FLASH_FLAG_CRC_BUSY_BANK2;
 1592              		.loc 1 950 13 view .LVU451
 1593 0010 274C     		ldr	r4, .L154
 1594 0012 17E0     		b	.L137
 1595              	.LVL109:
 1596              	.L150:
 951:Drivers/STM32H7xx_HAL_Driver/Src/stm32h7xx_hal_flash.c ****   }
 952:Drivers/STM32H7xx_HAL_Driver/Src/stm32h7xx_hal_flash.c **** 
 953:Drivers/STM32H7xx_HAL_Driver/Src/stm32h7xx_hal_flash.c ****   /* Wait for the FLASH CRC computation to complete by polling on CRC_BUSY flag to be reset */
 954:Drivers/STM32H7xx_HAL_Driver/Src/stm32h7xx_hal_flash.c ****   while(__HAL_FLASH_GET_FLAG(bsyflag))
 955:Drivers/STM32H7xx_HAL_Driver/Src/stm32h7xx_hal_flash.c ****   {
 956:Drivers/STM32H7xx_HAL_Driver/Src/stm32h7xx_hal_flash.c ****     if(Timeout != HAL_MAX_DELAY)
 957:Drivers/STM32H7xx_HAL_Driver/Src/stm32h7xx_hal_flash.c ****     {
 958:Drivers/STM32H7xx_HAL_Driver/Src/stm32h7xx_hal_flash.c ****       if(((HAL_GetTick() - tickstart) > Timeout) || (Timeout == 0U))
 1597              		.loc 1 958 7 is_stmt 1 view .LVU452
 1598              		.loc 1 958 12 is_stmt 0 view .LVU453
 1599 0014 FFF7FEFF 		bl	HAL_GetTick
 1600              	.LVL110:
 1601              		.loc 1 958 26 view .LVU454
 1602 0018 C01B     		subs	r0, r0, r7
 1603              		.loc 1 958 9 view .LVU455
 1604 001a A842     		cmp	r0, r5
 1605 001c 45D8     		bhi	.L144
 1606              		.loc 1 958 50 discriminator 1 view .LVU456
 1607 001e 8DB9     		cbnz	r5, .L137
 959:Drivers/STM32H7xx_HAL_Driver/Src/stm32h7xx_hal_flash.c ****       {
 960:Drivers/STM32H7xx_HAL_Driver/Src/stm32h7xx_hal_flash.c ****         return HAL_TIMEOUT;
 1608              		.loc 1 960 16 view .LVU457
 1609 0020 0320     		movs	r0, #3
 1610 0022 23E0     		b	.L138
 1611              	.LVL111:
 1612              	.L135:
 946:Drivers/STM32H7xx_HAL_Driver/Src/stm32h7xx_hal_flash.c ****   }
 1613              		.loc 1 946 13 view .LVU458
 1614 0024 0824     		movs	r4, #8
 1615 0026 0DE0     		b	.L137
 1616              	.LVL112:
 1617              	.L140:
 954:Drivers/STM32H7xx_HAL_Driver/Src/stm32h7xx_hal_flash.c ****   {
 1618              		.loc 1 954 9 discriminator 2 view .LVU459
 1619 0028 224B     		ldr	r3, .L154+4
 1620 002a D3F81031 		ldr	r3, [r3, #272]
 1621 002e 24EA0303 		bic	r3, r4, r3
 1622 0032 33F00043 		bics	r3, r3, #-2147483648
 1623 0036 0CBF     		ite	eq
 1624 0038 0123     		moveq	r3, #1
 1625 003a 0023     		movne	r3, #0
ARM GAS  /tmp/ccDY5NB6.s 			page 67


 1626              	.L141:
 954:Drivers/STM32H7xx_HAL_Driver/Src/stm32h7xx_hal_flash.c ****   {
 1627              		.loc 1 954 8 discriminator 4 view .LVU460
 1628 003c 6BB1     		cbz	r3, .L149
 956:Drivers/STM32H7xx_HAL_Driver/Src/stm32h7xx_hal_flash.c ****     {
 1629              		.loc 1 956 5 is_stmt 1 view .LVU461
 956:Drivers/STM32H7xx_HAL_Driver/Src/stm32h7xx_hal_flash.c ****     {
 1630              		.loc 1 956 7 is_stmt 0 view .LVU462
 1631 003e B5F1FF3F 		cmp	r5, #-1
 1632 0042 E7D1     		bne	.L150
 1633              	.LVL113:
 1634              	.L137:
 954:Drivers/STM32H7xx_HAL_Driver/Src/stm32h7xx_hal_flash.c ****   {
 1635              		.loc 1 954 9 view .LVU463
 1636 0044 34F00803 		bics	r3, r4, #8
 1637 0048 EED1     		bne	.L140
 954:Drivers/STM32H7xx_HAL_Driver/Src/stm32h7xx_hal_flash.c ****   {
 1638              		.loc 1 954 9 discriminator 1 view .LVU464
