ARM GAS  /tmp/cclcb5qw.s 			page 1


   1              		.cpu cortex-m7
   2              		.eabi_attribute 28, 1
   3              		.eabi_attribute 20, 1
   4              		.eabi_attribute 21, 1
   5              		.eabi_attribute 23, 3
   6              		.eabi_attribute 24, 1
   7              		.eabi_attribute 25, 1
   8              		.eabi_attribute 26, 1
   9              		.eabi_attribute 30, 1
  10              		.eabi_attribute 34, 1
  11              		.eabi_attribute 18, 4
  12              		.file	"stm32h7xx_hal.c"
  13              		.text
  14              	.Ltext0:
  15              		.cfi_sections	.debug_frame
  16              		.section	.text.HAL_MspInit,"ax",%progbits
  17              		.align	1
  18              		.weak	HAL_MspInit
  19              		.arch armv7e-m
  20              		.syntax unified
  21              		.thumb
  22              		.thumb_func
  23              		.fpu fpv5-d16
  25              	HAL_MspInit:
  26              	.LFB143:
  27              		.file 1 "Drivers/STM32H7xx_HAL_Driver/Src/stm32h7xx_hal.c"
   1:Drivers/STM32H7xx_HAL_Driver/Src/stm32h7xx_hal.c **** /**
   2:Drivers/STM32H7xx_HAL_Driver/Src/stm32h7xx_hal.c ****   ******************************************************************************
   3:Drivers/STM32H7xx_HAL_Driver/Src/stm32h7xx_hal.c ****   * @file    stm32h7xx_hal.c
   4:Drivers/STM32H7xx_HAL_Driver/Src/stm32h7xx_hal.c ****   * @author  MCD Application Team
   5:Drivers/STM32H7xx_HAL_Driver/Src/stm32h7xx_hal.c ****   * @brief   HAL module driver.
   6:Drivers/STM32H7xx_HAL_Driver/Src/stm32h7xx_hal.c ****   *          This is the common part of the HAL initialization
   7:Drivers/STM32H7xx_HAL_Driver/Src/stm32h7xx_hal.c ****   *
   8:Drivers/STM32H7xx_HAL_Driver/Src/stm32h7xx_hal.c ****   @verbatim
   9:Drivers/STM32H7xx_HAL_Driver/Src/stm32h7xx_hal.c ****   ==============================================================================
  10:Drivers/STM32H7xx_HAL_Driver/Src/stm32h7xx_hal.c ****                      ##### How to use this driver #####
  11:Drivers/STM32H7xx_HAL_Driver/Src/stm32h7xx_hal.c ****   ==============================================================================
  12:Drivers/STM32H7xx_HAL_Driver/Src/stm32h7xx_hal.c ****     [..]
  13:Drivers/STM32H7xx_HAL_Driver/Src/stm32h7xx_hal.c ****     The common HAL driver contains a set of generic and common APIs that can be
  14:Drivers/STM32H7xx_HAL_Driver/Src/stm32h7xx_hal.c ****     used by the PPP peripheral drivers and the user to start using the HAL.
  15:Drivers/STM32H7xx_HAL_Driver/Src/stm32h7xx_hal.c ****     [..]
  16:Drivers/STM32H7xx_HAL_Driver/Src/stm32h7xx_hal.c ****     The HAL contains two APIs' categories:
  17:Drivers/STM32H7xx_HAL_Driver/Src/stm32h7xx_hal.c ****          (+) Common HAL APIs
  18:Drivers/STM32H7xx_HAL_Driver/Src/stm32h7xx_hal.c ****          (+) Services HAL APIs
  19:Drivers/STM32H7xx_HAL_Driver/Src/stm32h7xx_hal.c **** 
  20:Drivers/STM32H7xx_HAL_Driver/Src/stm32h7xx_hal.c ****   @endverbatim
  21:Drivers/STM32H7xx_HAL_Driver/Src/stm32h7xx_hal.c ****   ******************************************************************************
  22:Drivers/STM32H7xx_HAL_Driver/Src/stm32h7xx_hal.c ****   * @attention
  23:Drivers/STM32H7xx_HAL_Driver/Src/stm32h7xx_hal.c ****   *
  24:Drivers/STM32H7xx_HAL_Driver/Src/stm32h7xx_hal.c ****   * <h2><center>&copy; Copyright (c) 2017 STMicroelectronics.
  25:Drivers/STM32H7xx_HAL_Driver/Src/stm32h7xx_hal.c ****   * All rights reserved.</center></h2>
  26:Drivers/STM32H7xx_HAL_Driver/Src/stm32h7xx_hal.c ****   *
  27:Drivers/STM32H7xx_HAL_Driver/Src/stm32h7xx_hal.c ****   * This software component is licensed by ST under BSD 3-Clause license,
  28:Drivers/STM32H7xx_HAL_Driver/Src/stm32h7xx_hal.c ****   * the "License"; You may not use this file except in compliance with the
  29:Drivers/STM32H7xx_HAL_Driver/Src/stm32h7xx_hal.c ****   * License. You may obtain a copy of the License at:
  30:Drivers/STM32H7xx_HAL_Driver/Src/stm32h7xx_hal.c ****   *                        opensource.org/licenses/BSD-3-Clause
  31:Drivers/STM32H7xx_HAL_Driver/Src/stm32h7xx_hal.c ****   *
ARM GAS  /tmp/cclcb5qw.s 			page 2


  32:Drivers/STM32H7xx_HAL_Driver/Src/stm32h7xx_hal.c ****   ******************************************************************************
  33:Drivers/STM32H7xx_HAL_Driver/Src/stm32h7xx_hal.c ****   */
  34:Drivers/STM32H7xx_HAL_Driver/Src/stm32h7xx_hal.c **** 
  35:Drivers/STM32H7xx_HAL_Driver/Src/stm32h7xx_hal.c **** /* Includes ------------------------------------------------------------------*/
  36:Drivers/STM32H7xx_HAL_Driver/Src/stm32h7xx_hal.c **** #include "stm32h7xx_hal.h"
  37:Drivers/STM32H7xx_HAL_Driver/Src/stm32h7xx_hal.c **** 
  38:Drivers/STM32H7xx_HAL_Driver/Src/stm32h7xx_hal.c **** /** @addtogroup STM32H7xx_HAL_Driver
  39:Drivers/STM32H7xx_HAL_Driver/Src/stm32h7xx_hal.c ****   * @{
  40:Drivers/STM32H7xx_HAL_Driver/Src/stm32h7xx_hal.c ****   */
  41:Drivers/STM32H7xx_HAL_Driver/Src/stm32h7xx_hal.c **** 
  42:Drivers/STM32H7xx_HAL_Driver/Src/stm32h7xx_hal.c **** /** @defgroup HAL  HAL
  43:Drivers/STM32H7xx_HAL_Driver/Src/stm32h7xx_hal.c ****   * @brief HAL module driver.
  44:Drivers/STM32H7xx_HAL_Driver/Src/stm32h7xx_hal.c ****   * @{
  45:Drivers/STM32H7xx_HAL_Driver/Src/stm32h7xx_hal.c ****   */
  46:Drivers/STM32H7xx_HAL_Driver/Src/stm32h7xx_hal.c **** 
  47:Drivers/STM32H7xx_HAL_Driver/Src/stm32h7xx_hal.c **** /* Private typedef -----------------------------------------------------------*/
  48:Drivers/STM32H7xx_HAL_Driver/Src/stm32h7xx_hal.c **** /* Private define ------------------------------------------------------------*/
  49:Drivers/STM32H7xx_HAL_Driver/Src/stm32h7xx_hal.c **** /**
  50:Drivers/STM32H7xx_HAL_Driver/Src/stm32h7xx_hal.c ****  * @brief STM32H7xx HAL Driver version number V1.6.0
  51:Drivers/STM32H7xx_HAL_Driver/Src/stm32h7xx_hal.c ****    */
  52:Drivers/STM32H7xx_HAL_Driver/Src/stm32h7xx_hal.c **** #define __STM32H7xx_HAL_VERSION_MAIN   (0x01UL) /*!< [31:24] main version */
  53:Drivers/STM32H7xx_HAL_Driver/Src/stm32h7xx_hal.c **** #define __STM32H7xx_HAL_VERSION_SUB1   (0x06UL) /*!< [23:16] sub1 version */
  54:Drivers/STM32H7xx_HAL_Driver/Src/stm32h7xx_hal.c **** #define __STM32H7xx_HAL_VERSION_SUB2   (0x00UL) /*!< [15:8]  sub2 version */
  55:Drivers/STM32H7xx_HAL_Driver/Src/stm32h7xx_hal.c **** #define __STM32H7xx_HAL_VERSION_RC     (0x00UL) /*!< [7:0]  release candidate */
  56:Drivers/STM32H7xx_HAL_Driver/Src/stm32h7xx_hal.c **** #define __STM32H7xx_HAL_VERSION         ((__STM32H7xx_HAL_VERSION_MAIN << 24)\
  57:Drivers/STM32H7xx_HAL_Driver/Src/stm32h7xx_hal.c ****                                         |(__STM32H7xx_HAL_VERSION_SUB1 << 16)\
  58:Drivers/STM32H7xx_HAL_Driver/Src/stm32h7xx_hal.c ****                                         |(__STM32H7xx_HAL_VERSION_SUB2 << 8 )\
  59:Drivers/STM32H7xx_HAL_Driver/Src/stm32h7xx_hal.c ****                                         |(__STM32H7xx_HAL_VERSION_RC))
  60:Drivers/STM32H7xx_HAL_Driver/Src/stm32h7xx_hal.c **** 
  61:Drivers/STM32H7xx_HAL_Driver/Src/stm32h7xx_hal.c **** #define IDCODE_DEVID_MASK    ((uint32_t)0x00000FFF)
  62:Drivers/STM32H7xx_HAL_Driver/Src/stm32h7xx_hal.c **** #define VREFBUF_TIMEOUT_VALUE     (uint32_t)10   /* 10 ms  */
  63:Drivers/STM32H7xx_HAL_Driver/Src/stm32h7xx_hal.c **** 
  64:Drivers/STM32H7xx_HAL_Driver/Src/stm32h7xx_hal.c **** /* Private macro -------------------------------------------------------------*/
  65:Drivers/STM32H7xx_HAL_Driver/Src/stm32h7xx_hal.c **** /* Private variables ---------------------------------------------------------*/
  66:Drivers/STM32H7xx_HAL_Driver/Src/stm32h7xx_hal.c **** /* Exported variables --------------------------------------------------------*/
  67:Drivers/STM32H7xx_HAL_Driver/Src/stm32h7xx_hal.c **** 
  68:Drivers/STM32H7xx_HAL_Driver/Src/stm32h7xx_hal.c **** /** @defgroup HAL_Exported_Variables HAL Exported Variables
  69:Drivers/STM32H7xx_HAL_Driver/Src/stm32h7xx_hal.c ****   * @{
  70:Drivers/STM32H7xx_HAL_Driver/Src/stm32h7xx_hal.c ****   */
  71:Drivers/STM32H7xx_HAL_Driver/Src/stm32h7xx_hal.c **** __IO uint32_t uwTick;
  72:Drivers/STM32H7xx_HAL_Driver/Src/stm32h7xx_hal.c **** uint32_t uwTickPrio   = (1UL << __NVIC_PRIO_BITS); /* Invalid PRIO */
  73:Drivers/STM32H7xx_HAL_Driver/Src/stm32h7xx_hal.c **** HAL_TickFreqTypeDef uwTickFreq = HAL_TICK_FREQ_DEFAULT;  /* 1KHz */
  74:Drivers/STM32H7xx_HAL_Driver/Src/stm32h7xx_hal.c **** /**
  75:Drivers/STM32H7xx_HAL_Driver/Src/stm32h7xx_hal.c ****   * @}
  76:Drivers/STM32H7xx_HAL_Driver/Src/stm32h7xx_hal.c ****   */
  77:Drivers/STM32H7xx_HAL_Driver/Src/stm32h7xx_hal.c **** 
  78:Drivers/STM32H7xx_HAL_Driver/Src/stm32h7xx_hal.c **** /* Private function prototypes -----------------------------------------------*/
  79:Drivers/STM32H7xx_HAL_Driver/Src/stm32h7xx_hal.c **** /* Private functions ---------------------------------------------------------*/
  80:Drivers/STM32H7xx_HAL_Driver/Src/stm32h7xx_hal.c **** 
  81:Drivers/STM32H7xx_HAL_Driver/Src/stm32h7xx_hal.c **** /** @defgroup HAL_Private_Functions  HAL Private Functions
  82:Drivers/STM32H7xx_HAL_Driver/Src/stm32h7xx_hal.c ****   * @{
  83:Drivers/STM32H7xx_HAL_Driver/Src/stm32h7xx_hal.c ****   */
  84:Drivers/STM32H7xx_HAL_Driver/Src/stm32h7xx_hal.c **** 
  85:Drivers/STM32H7xx_HAL_Driver/Src/stm32h7xx_hal.c **** /** @defgroup HAL_Group1 Initialization and de-initialization Functions
  86:Drivers/STM32H7xx_HAL_Driver/Src/stm32h7xx_hal.c ****  *  @brief    Initialization and de-initialization functions
  87:Drivers/STM32H7xx_HAL_Driver/Src/stm32h7xx_hal.c ****  *
  88:Drivers/STM32H7xx_HAL_Driver/Src/stm32h7xx_hal.c **** @verbatim
ARM GAS  /tmp/cclcb5qw.s 			page 3


  89:Drivers/STM32H7xx_HAL_Driver/Src/stm32h7xx_hal.c ****  ===============================================================================
  90:Drivers/STM32H7xx_HAL_Driver/Src/stm32h7xx_hal.c ****               ##### Initialization and de-initialization functions #####
  91:Drivers/STM32H7xx_HAL_Driver/Src/stm32h7xx_hal.c ****  ===============================================================================
  92:Drivers/STM32H7xx_HAL_Driver/Src/stm32h7xx_hal.c ****     [..]  This section provides functions allowing to:
  93:Drivers/STM32H7xx_HAL_Driver/Src/stm32h7xx_hal.c ****       (+) Initializes the Flash interface the NVIC allocation and initial clock
  94:Drivers/STM32H7xx_HAL_Driver/Src/stm32h7xx_hal.c ****           configuration. It initializes the systick also when timeout is needed
  95:Drivers/STM32H7xx_HAL_Driver/Src/stm32h7xx_hal.c ****           and the backup domain when enabled.
  96:Drivers/STM32H7xx_HAL_Driver/Src/stm32h7xx_hal.c ****       (+) De-Initializes common part of the HAL.
  97:Drivers/STM32H7xx_HAL_Driver/Src/stm32h7xx_hal.c ****       (+) Configure The time base source to have 1ms time base with a dedicated
  98:Drivers/STM32H7xx_HAL_Driver/Src/stm32h7xx_hal.c ****           Tick interrupt priority.
  99:Drivers/STM32H7xx_HAL_Driver/Src/stm32h7xx_hal.c ****         (++) SysTick timer is used by default as source of time base, but user
 100:Drivers/STM32H7xx_HAL_Driver/Src/stm32h7xx_hal.c ****              can eventually implement his proper time base source (a general purpose
 101:Drivers/STM32H7xx_HAL_Driver/Src/stm32h7xx_hal.c ****              timer for example or other time source), keeping in mind that Time base
 102:Drivers/STM32H7xx_HAL_Driver/Src/stm32h7xx_hal.c ****              duration should be kept 1ms since PPP_TIMEOUT_VALUEs are defined and
 103:Drivers/STM32H7xx_HAL_Driver/Src/stm32h7xx_hal.c ****              handled in milliseconds basis.
 104:Drivers/STM32H7xx_HAL_Driver/Src/stm32h7xx_hal.c ****         (++) Time base configuration function (HAL_InitTick ()) is called automatically
 105:Drivers/STM32H7xx_HAL_Driver/Src/stm32h7xx_hal.c ****              at the beginning of the program after reset by HAL_Init() or at any time
 106:Drivers/STM32H7xx_HAL_Driver/Src/stm32h7xx_hal.c ****              when clock is configured, by HAL_RCC_ClockConfig().
 107:Drivers/STM32H7xx_HAL_Driver/Src/stm32h7xx_hal.c ****         (++) Source of time base is configured  to generate interrupts at regular
 108:Drivers/STM32H7xx_HAL_Driver/Src/stm32h7xx_hal.c ****              time intervals. Care must be taken if HAL_Delay() is called from a
 109:Drivers/STM32H7xx_HAL_Driver/Src/stm32h7xx_hal.c ****              peripheral ISR process, the Tick interrupt line must have higher priority
 110:Drivers/STM32H7xx_HAL_Driver/Src/stm32h7xx_hal.c ****             (numerically lower) than the peripheral interrupt. Otherwise the caller
 111:Drivers/STM32H7xx_HAL_Driver/Src/stm32h7xx_hal.c ****             ISR process will be blocked.
 112:Drivers/STM32H7xx_HAL_Driver/Src/stm32h7xx_hal.c ****        (++) functions affecting time base configurations are declared as __weak
 113:Drivers/STM32H7xx_HAL_Driver/Src/stm32h7xx_hal.c ****              to make  override possible  in case of other  implementations in user file.
 114:Drivers/STM32H7xx_HAL_Driver/Src/stm32h7xx_hal.c **** @endverbatim
 115:Drivers/STM32H7xx_HAL_Driver/Src/stm32h7xx_hal.c ****   * @{
 116:Drivers/STM32H7xx_HAL_Driver/Src/stm32h7xx_hal.c ****   */
 117:Drivers/STM32H7xx_HAL_Driver/Src/stm32h7xx_hal.c **** 
 118:Drivers/STM32H7xx_HAL_Driver/Src/stm32h7xx_hal.c **** /**
 119:Drivers/STM32H7xx_HAL_Driver/Src/stm32h7xx_hal.c ****   * @brief  This function is used to initialize the HAL Library; it must be the first
 120:Drivers/STM32H7xx_HAL_Driver/Src/stm32h7xx_hal.c ****   *         instruction to be executed in the main program (before to call any other
 121:Drivers/STM32H7xx_HAL_Driver/Src/stm32h7xx_hal.c ****   *         HAL function), it performs the following:
 122:Drivers/STM32H7xx_HAL_Driver/Src/stm32h7xx_hal.c ****   *           Configures the SysTick to generate an interrupt each 1 millisecond,
 123:Drivers/STM32H7xx_HAL_Driver/Src/stm32h7xx_hal.c ****   *           which is clocked by the HSI (at this stage, the clock is not yet
 124:Drivers/STM32H7xx_HAL_Driver/Src/stm32h7xx_hal.c ****   *           configured and thus the system is running from the internal HSI at 16 MHz).
 125:Drivers/STM32H7xx_HAL_Driver/Src/stm32h7xx_hal.c ****   *           Set NVIC Group Priority to 4.
 126:Drivers/STM32H7xx_HAL_Driver/Src/stm32h7xx_hal.c ****   *           Calls the HAL_MspInit() callback function defined in user file
 127:Drivers/STM32H7xx_HAL_Driver/Src/stm32h7xx_hal.c ****   *           "stm32h7xx_hal_msp.c" to do the global low level hardware initialization
 128:Drivers/STM32H7xx_HAL_Driver/Src/stm32h7xx_hal.c ****   *
 129:Drivers/STM32H7xx_HAL_Driver/Src/stm32h7xx_hal.c ****   * @note   SysTick is used as time base for the HAL_Delay() function, the application
 130:Drivers/STM32H7xx_HAL_Driver/Src/stm32h7xx_hal.c ****   *         need to ensure that the SysTick time base is always set to 1 millisecond
 131:Drivers/STM32H7xx_HAL_Driver/Src/stm32h7xx_hal.c ****   *         to have correct HAL operation.
 132:Drivers/STM32H7xx_HAL_Driver/Src/stm32h7xx_hal.c ****   * @retval HAL status
 133:Drivers/STM32H7xx_HAL_Driver/Src/stm32h7xx_hal.c ****   */
 134:Drivers/STM32H7xx_HAL_Driver/Src/stm32h7xx_hal.c **** HAL_StatusTypeDef HAL_Init(void)
 135:Drivers/STM32H7xx_HAL_Driver/Src/stm32h7xx_hal.c **** {
 136:Drivers/STM32H7xx_HAL_Driver/Src/stm32h7xx_hal.c **** 
 137:Drivers/STM32H7xx_HAL_Driver/Src/stm32h7xx_hal.c **** #if defined(DUAL_CORE) && defined(CORE_CM4)
 138:Drivers/STM32H7xx_HAL_Driver/Src/stm32h7xx_hal.c ****    /* Configure Cortex-M4 Instruction cache through ART accelerator */
 139:Drivers/STM32H7xx_HAL_Driver/Src/stm32h7xx_hal.c ****    __HAL_RCC_ART_CLK_ENABLE();                   /* Enable the Cortex-M4 ART Clock */
 140:Drivers/STM32H7xx_HAL_Driver/Src/stm32h7xx_hal.c ****    __HAL_ART_CONFIG_BASE_ADDRESS(0x08100000UL);  /* Configure the Cortex-M4 ART Base address to the
 141:Drivers/STM32H7xx_HAL_Driver/Src/stm32h7xx_hal.c ****    __HAL_ART_ENABLE();                           /* Enable the Cortex-M4 ART */
 142:Drivers/STM32H7xx_HAL_Driver/Src/stm32h7xx_hal.c **** #endif /* DUAL_CORE &&  CORE_CM4 */
 143:Drivers/STM32H7xx_HAL_Driver/Src/stm32h7xx_hal.c **** 
 144:Drivers/STM32H7xx_HAL_Driver/Src/stm32h7xx_hal.c ****   /* Set Interrupt Group Priority */
 145:Drivers/STM32H7xx_HAL_Driver/Src/stm32h7xx_hal.c ****   HAL_NVIC_SetPriorityGrouping(NVIC_PRIORITYGROUP_4);
ARM GAS  /tmp/cclcb5qw.s 			page 4


 146:Drivers/STM32H7xx_HAL_Driver/Src/stm32h7xx_hal.c **** 
 147:Drivers/STM32H7xx_HAL_Driver/Src/stm32h7xx_hal.c ****   /* Update the SystemCoreClock global variable */
 148:Drivers/STM32H7xx_HAL_Driver/Src/stm32h7xx_hal.c ****   SystemCoreClock = HAL_RCC_GetSysClockFreq() >> ((D1CorePrescTable[(RCC->D1CFGR & RCC_D1CFGR_D1CPR
 149:Drivers/STM32H7xx_HAL_Driver/Src/stm32h7xx_hal.c **** 
 150:Drivers/STM32H7xx_HAL_Driver/Src/stm32h7xx_hal.c ****   /* Update the SystemD2Clock global variable */
 151:Drivers/STM32H7xx_HAL_Driver/Src/stm32h7xx_hal.c ****   SystemD2Clock = (SystemCoreClock >> ((D1CorePrescTable[(RCC->D1CFGR & RCC_D1CFGR_HPRE)>> RCC_D1CF
 152:Drivers/STM32H7xx_HAL_Driver/Src/stm32h7xx_hal.c **** 
 153:Drivers/STM32H7xx_HAL_Driver/Src/stm32h7xx_hal.c ****   /* Use systick as time base source and configure 1ms tick (default clock after Reset is HSI) */
 154:Drivers/STM32H7xx_HAL_Driver/Src/stm32h7xx_hal.c ****   if(HAL_InitTick(TICK_INT_PRIORITY) != HAL_OK)
 155:Drivers/STM32H7xx_HAL_Driver/Src/stm32h7xx_hal.c ****   {
 156:Drivers/STM32H7xx_HAL_Driver/Src/stm32h7xx_hal.c ****     return HAL_ERROR;
 157:Drivers/STM32H7xx_HAL_Driver/Src/stm32h7xx_hal.c ****   }
 158:Drivers/STM32H7xx_HAL_Driver/Src/stm32h7xx_hal.c **** 
 159:Drivers/STM32H7xx_HAL_Driver/Src/stm32h7xx_hal.c ****   /* Init the low level hardware */
 160:Drivers/STM32H7xx_HAL_Driver/Src/stm32h7xx_hal.c ****   HAL_MspInit();
 161:Drivers/STM32H7xx_HAL_Driver/Src/stm32h7xx_hal.c **** 
 162:Drivers/STM32H7xx_HAL_Driver/Src/stm32h7xx_hal.c ****   /* Return function status */
 163:Drivers/STM32H7xx_HAL_Driver/Src/stm32h7xx_hal.c ****   return HAL_OK;
 164:Drivers/STM32H7xx_HAL_Driver/Src/stm32h7xx_hal.c **** }
 165:Drivers/STM32H7xx_HAL_Driver/Src/stm32h7xx_hal.c **** 
 166:Drivers/STM32H7xx_HAL_Driver/Src/stm32h7xx_hal.c **** /**
 167:Drivers/STM32H7xx_HAL_Driver/Src/stm32h7xx_hal.c ****   * @brief  This function de-Initializes common part of the HAL and stops the systick.
 168:Drivers/STM32H7xx_HAL_Driver/Src/stm32h7xx_hal.c ****   *         This function is optional.
 169:Drivers/STM32H7xx_HAL_Driver/Src/stm32h7xx_hal.c ****   * @retval HAL status
 170:Drivers/STM32H7xx_HAL_Driver/Src/stm32h7xx_hal.c ****   */
 171:Drivers/STM32H7xx_HAL_Driver/Src/stm32h7xx_hal.c **** HAL_StatusTypeDef HAL_DeInit(void)
 172:Drivers/STM32H7xx_HAL_Driver/Src/stm32h7xx_hal.c **** {
 173:Drivers/STM32H7xx_HAL_Driver/Src/stm32h7xx_hal.c ****   /* Reset of all peripherals */
 174:Drivers/STM32H7xx_HAL_Driver/Src/stm32h7xx_hal.c ****   __HAL_RCC_AHB3_FORCE_RESET();
 175:Drivers/STM32H7xx_HAL_Driver/Src/stm32h7xx_hal.c ****   __HAL_RCC_AHB3_RELEASE_RESET();
 176:Drivers/STM32H7xx_HAL_Driver/Src/stm32h7xx_hal.c **** 
 177:Drivers/STM32H7xx_HAL_Driver/Src/stm32h7xx_hal.c ****   __HAL_RCC_AHB1_FORCE_RESET();
 178:Drivers/STM32H7xx_HAL_Driver/Src/stm32h7xx_hal.c ****   __HAL_RCC_AHB1_RELEASE_RESET();
 179:Drivers/STM32H7xx_HAL_Driver/Src/stm32h7xx_hal.c **** 
 180:Drivers/STM32H7xx_HAL_Driver/Src/stm32h7xx_hal.c ****   __HAL_RCC_AHB2_FORCE_RESET();
 181:Drivers/STM32H7xx_HAL_Driver/Src/stm32h7xx_hal.c ****   __HAL_RCC_AHB2_RELEASE_RESET();
 182:Drivers/STM32H7xx_HAL_Driver/Src/stm32h7xx_hal.c **** 
 183:Drivers/STM32H7xx_HAL_Driver/Src/stm32h7xx_hal.c ****   __HAL_RCC_AHB4_FORCE_RESET();
 184:Drivers/STM32H7xx_HAL_Driver/Src/stm32h7xx_hal.c ****  __HAL_RCC_AHB4_RELEASE_RESET();
 185:Drivers/STM32H7xx_HAL_Driver/Src/stm32h7xx_hal.c **** 
 186:Drivers/STM32H7xx_HAL_Driver/Src/stm32h7xx_hal.c ****   __HAL_RCC_APB3_FORCE_RESET();
 187:Drivers/STM32H7xx_HAL_Driver/Src/stm32h7xx_hal.c ****   __HAL_RCC_APB3_RELEASE_RESET();
 188:Drivers/STM32H7xx_HAL_Driver/Src/stm32h7xx_hal.c **** 
 189:Drivers/STM32H7xx_HAL_Driver/Src/stm32h7xx_hal.c ****   __HAL_RCC_APB1L_FORCE_RESET();
 190:Drivers/STM32H7xx_HAL_Driver/Src/stm32h7xx_hal.c ****   __HAL_RCC_APB1L_RELEASE_RESET();
 191:Drivers/STM32H7xx_HAL_Driver/Src/stm32h7xx_hal.c **** 
 192:Drivers/STM32H7xx_HAL_Driver/Src/stm32h7xx_hal.c ****   __HAL_RCC_APB1H_FORCE_RESET();
 193:Drivers/STM32H7xx_HAL_Driver/Src/stm32h7xx_hal.c ****   __HAL_RCC_APB1H_RELEASE_RESET();
 194:Drivers/STM32H7xx_HAL_Driver/Src/stm32h7xx_hal.c **** 
 195:Drivers/STM32H7xx_HAL_Driver/Src/stm32h7xx_hal.c ****    __HAL_RCC_APB2_FORCE_RESET();
 196:Drivers/STM32H7xx_HAL_Driver/Src/stm32h7xx_hal.c ****    __HAL_RCC_APB2_RELEASE_RESET();
 197:Drivers/STM32H7xx_HAL_Driver/Src/stm32h7xx_hal.c **** 
 198:Drivers/STM32H7xx_HAL_Driver/Src/stm32h7xx_hal.c ****   __HAL_RCC_APB4_FORCE_RESET();
 199:Drivers/STM32H7xx_HAL_Driver/Src/stm32h7xx_hal.c ****   __HAL_RCC_APB4_RELEASE_RESET();
 200:Drivers/STM32H7xx_HAL_Driver/Src/stm32h7xx_hal.c **** 
 201:Drivers/STM32H7xx_HAL_Driver/Src/stm32h7xx_hal.c ****   /* De-Init the low level hardware */
 202:Drivers/STM32H7xx_HAL_Driver/Src/stm32h7xx_hal.c ****   HAL_MspDeInit();
ARM GAS  /tmp/cclcb5qw.s 			page 5


 203:Drivers/STM32H7xx_HAL_Driver/Src/stm32h7xx_hal.c **** 
 204:Drivers/STM32H7xx_HAL_Driver/Src/stm32h7xx_hal.c ****   /* Return function status */
 205:Drivers/STM32H7xx_HAL_Driver/Src/stm32h7xx_hal.c ****   return HAL_OK;
 206:Drivers/STM32H7xx_HAL_Driver/Src/stm32h7xx_hal.c **** }
 207:Drivers/STM32H7xx_HAL_Driver/Src/stm32h7xx_hal.c **** 
 208:Drivers/STM32H7xx_HAL_Driver/Src/stm32h7xx_hal.c **** /**
 209:Drivers/STM32H7xx_HAL_Driver/Src/stm32h7xx_hal.c ****   * @brief  Initializes the MSP.
 210:Drivers/STM32H7xx_HAL_Driver/Src/stm32h7xx_hal.c ****   * @retval None
 211:Drivers/STM32H7xx_HAL_Driver/Src/stm32h7xx_hal.c ****   */
 212:Drivers/STM32H7xx_HAL_Driver/Src/stm32h7xx_hal.c **** __weak void HAL_MspInit(void)
 213:Drivers/STM32H7xx_HAL_Driver/Src/stm32h7xx_hal.c **** {
  28              		.loc 1 213 1 view -0
  29              		.cfi_startproc
  30              		@ args = 0, pretend = 0, frame = 0
  31              		@ frame_needed = 0, uses_anonymous_args = 0
  32              		@ link register save eliminated.
 214:Drivers/STM32H7xx_HAL_Driver/Src/stm32h7xx_hal.c ****   /* NOTE : This function Should not be modified, when the callback is needed,
 215:Drivers/STM32H7xx_HAL_Driver/Src/stm32h7xx_hal.c ****             the HAL_MspInit could be implemented in the user file
 216:Drivers/STM32H7xx_HAL_Driver/Src/stm32h7xx_hal.c ****    */
 217:Drivers/STM32H7xx_HAL_Driver/Src/stm32h7xx_hal.c **** }
  33              		.loc 1 217 1 view .LVU1
  34 0000 7047     		bx	lr
  35              		.cfi_endproc
  36              	.LFE143:
  38              		.section	.text.HAL_MspDeInit,"ax",%progbits
  39              		.align	1
  40              		.weak	HAL_MspDeInit
  41              		.syntax unified
  42              		.thumb
  43              		.thumb_func
  44              		.fpu fpv5-d16
  46              	HAL_MspDeInit:
  47              	.LFB144:
 218:Drivers/STM32H7xx_HAL_Driver/Src/stm32h7xx_hal.c **** 
 219:Drivers/STM32H7xx_HAL_Driver/Src/stm32h7xx_hal.c **** /**
 220:Drivers/STM32H7xx_HAL_Driver/Src/stm32h7xx_hal.c ****   * @brief  DeInitializes the MSP.
 221:Drivers/STM32H7xx_HAL_Driver/Src/stm32h7xx_hal.c ****   * @retval None
 222:Drivers/STM32H7xx_HAL_Driver/Src/stm32h7xx_hal.c ****   */
 223:Drivers/STM32H7xx_HAL_Driver/Src/stm32h7xx_hal.c **** __weak void HAL_MspDeInit(void)
 224:Drivers/STM32H7xx_HAL_Driver/Src/stm32h7xx_hal.c **** {
  48              		.loc 1 224 1 view -0
  49              		.cfi_startproc
  50              		@ args = 0, pretend = 0, frame = 0
  51              		@ frame_needed = 0, uses_anonymous_args = 0
  52              		@ link register save eliminated.
 225:Drivers/STM32H7xx_HAL_Driver/Src/stm32h7xx_hal.c ****   /* NOTE : This function Should not be modified, when the callback is needed,
 226:Drivers/STM32H7xx_HAL_Driver/Src/stm32h7xx_hal.c ****             the HAL_MspDeInit could be implemented in the user file
 227:Drivers/STM32H7xx_HAL_Driver/Src/stm32h7xx_hal.c ****    */
 228:Drivers/STM32H7xx_HAL_Driver/Src/stm32h7xx_hal.c **** }
  53              		.loc 1 228 1 view .LVU3
  54 0000 7047     		bx	lr
  55              		.cfi_endproc
  56              	.LFE144:
  58              		.section	.text.HAL_DeInit,"ax",%progbits
  59              		.align	1
  60              		.global	HAL_DeInit
  61              		.syntax unified
ARM GAS  /tmp/cclcb5qw.s 			page 6


  62              		.thumb
  63              		.thumb_func
  64              		.fpu fpv5-d16
  66              	HAL_DeInit:
  67              	.LFB142:
 172:Drivers/STM32H7xx_HAL_Driver/Src/stm32h7xx_hal.c ****   /* Reset of all peripherals */
  68              		.loc 1 172 1 view -0
  69              		.cfi_startproc
  70              		@ args = 0, pretend = 0, frame = 0
  71              		@ frame_needed = 0, uses_anonymous_args = 0
  72 0000 10B5     		push	{r4, lr}
  73              	.LCFI0:
  74              		.cfi_def_cfa_offset 8
  75              		.cfi_offset 4, -8
  76              		.cfi_offset 14, -4
 174:Drivers/STM32H7xx_HAL_Driver/Src/stm32h7xx_hal.c ****   __HAL_RCC_AHB3_RELEASE_RESET();
  77              		.loc 1 174 3 view .LVU5
  78 0002 154B     		ldr	r3, .L5
  79 0004 4FF0FF32 		mov	r2, #-1
  80 0008 DA67     		str	r2, [r3, #124]
 175:Drivers/STM32H7xx_HAL_Driver/Src/stm32h7xx_hal.c **** 
  81              		.loc 1 175 3 view .LVU6
  82 000a 0024     		movs	r4, #0
  83 000c DC67     		str	r4, [r3, #124]
 177:Drivers/STM32H7xx_HAL_Driver/Src/stm32h7xx_hal.c ****   __HAL_RCC_AHB1_RELEASE_RESET();
  84              		.loc 1 177 3 view .LVU7
  85 000e C3F88020 		str	r2, [r3, #128]
 178:Drivers/STM32H7xx_HAL_Driver/Src/stm32h7xx_hal.c **** 
  86              		.loc 1 178 3 view .LVU8
  87 0012 C3F88040 		str	r4, [r3, #128]
 180:Drivers/STM32H7xx_HAL_Driver/Src/stm32h7xx_hal.c ****   __HAL_RCC_AHB2_RELEASE_RESET();
  88              		.loc 1 180 3 view .LVU9
  89 0016 C3F88420 		str	r2, [r3, #132]
 181:Drivers/STM32H7xx_HAL_Driver/Src/stm32h7xx_hal.c **** 
  90              		.loc 1 181 3 view .LVU10
  91 001a C3F88440 		str	r4, [r3, #132]
 183:Drivers/STM32H7xx_HAL_Driver/Src/stm32h7xx_hal.c ****  __HAL_RCC_AHB4_RELEASE_RESET();
  92              		.loc 1 183 3 view .LVU11
  93 001e C3F88820 		str	r2, [r3, #136]
 184:Drivers/STM32H7xx_HAL_Driver/Src/stm32h7xx_hal.c **** 
  94              		.loc 1 184 2 view .LVU12
  95 0022 C3F88840 		str	r4, [r3, #136]
 186:Drivers/STM32H7xx_HAL_Driver/Src/stm32h7xx_hal.c ****   __HAL_RCC_APB3_RELEASE_RESET();
  96              		.loc 1 186 3 view .LVU13
  97 0026 C3F88C20 		str	r2, [r3, #140]
 187:Drivers/STM32H7xx_HAL_Driver/Src/stm32h7xx_hal.c **** 
  98              		.loc 1 187 3 view .LVU14
  99 002a C3F88C40 		str	r4, [r3, #140]
 189:Drivers/STM32H7xx_HAL_Driver/Src/stm32h7xx_hal.c ****   __HAL_RCC_APB1L_RELEASE_RESET();
 100              		.loc 1 189 3 view .LVU15
 101 002e C3F89020 		str	r2, [r3, #144]
 190:Drivers/STM32H7xx_HAL_Driver/Src/stm32h7xx_hal.c **** 
 102              		.loc 1 190 3 view .LVU16
 103 0032 C3F89040 		str	r4, [r3, #144]
 192:Drivers/STM32H7xx_HAL_Driver/Src/stm32h7xx_hal.c ****   __HAL_RCC_APB1H_RELEASE_RESET();
 104              		.loc 1 192 3 view .LVU17
 105 0036 C3F89420 		str	r2, [r3, #148]
ARM GAS  /tmp/cclcb5qw.s 			page 7


 193:Drivers/STM32H7xx_HAL_Driver/Src/stm32h7xx_hal.c **** 
 106              		.loc 1 193 3 view .LVU18
 107 003a C3F89440 		str	r4, [r3, #148]
 195:Drivers/STM32H7xx_HAL_Driver/Src/stm32h7xx_hal.c ****    __HAL_RCC_APB2_RELEASE_RESET();
 108              		.loc 1 195 4 view .LVU19
 109 003e C3F89820 		str	r2, [r3, #152]
 196:Drivers/STM32H7xx_HAL_Driver/Src/stm32h7xx_hal.c **** 
 110              		.loc 1 196 4 view .LVU20
 111 0042 C3F89840 		str	r4, [r3, #152]
 198:Drivers/STM32H7xx_HAL_Driver/Src/stm32h7xx_hal.c ****   __HAL_RCC_APB4_RELEASE_RESET();
 112              		.loc 1 198 3 view .LVU21
 113 0046 C3F89C20 		str	r2, [r3, #156]
 199:Drivers/STM32H7xx_HAL_Driver/Src/stm32h7xx_hal.c **** 
 114              		.loc 1 199 3 view .LVU22
 115 004a C3F89C40 		str	r4, [r3, #156]
 202:Drivers/STM32H7xx_HAL_Driver/Src/stm32h7xx_hal.c **** 
 116              		.loc 1 202 3 view .LVU23
 117 004e FFF7FEFF 		bl	HAL_MspDeInit
 118              	.LVL0:
 205:Drivers/STM32H7xx_HAL_Driver/Src/stm32h7xx_hal.c **** }
 119              		.loc 1 205 3 view .LVU24
 206:Drivers/STM32H7xx_HAL_Driver/Src/stm32h7xx_hal.c **** 
 120              		.loc 1 206 1 is_stmt 0 view .LVU25
 121 0052 2046     		mov	r0, r4
 122 0054 10BD     		pop	{r4, pc}
 123              	.L6:
 124 0056 00BF     		.align	2
 125              	.L5:
 126 0058 00440258 		.word	1476543488
 127              		.cfi_endproc
 128              	.LFE142:
 130              		.section	.text.HAL_InitTick,"ax",%progbits
 131              		.align	1
 132              		.weak	HAL_InitTick
 133              		.syntax unified
 134              		.thumb
 135              		.thumb_func
 136              		.fpu fpv5-d16
 138              	HAL_InitTick:
 139              	.LVL1:
 140              	.LFB145:
 229:Drivers/STM32H7xx_HAL_Driver/Src/stm32h7xx_hal.c **** 
 230:Drivers/STM32H7xx_HAL_Driver/Src/stm32h7xx_hal.c **** /**
 231:Drivers/STM32H7xx_HAL_Driver/Src/stm32h7xx_hal.c ****   * @brief This function configures the source of the time base.
 232:Drivers/STM32H7xx_HAL_Driver/Src/stm32h7xx_hal.c ****   *        The time source is configured  to have 1ms time base with a dedicated
 233:Drivers/STM32H7xx_HAL_Driver/Src/stm32h7xx_hal.c ****   *        Tick interrupt priority.
 234:Drivers/STM32H7xx_HAL_Driver/Src/stm32h7xx_hal.c ****   * @note This function is called  automatically at the beginning of program after
 235:Drivers/STM32H7xx_HAL_Driver/Src/stm32h7xx_hal.c ****   *       reset by HAL_Init() or at any time when clock is reconfigured  by HAL_RCC_ClockConfig().
 236:Drivers/STM32H7xx_HAL_Driver/Src/stm32h7xx_hal.c ****   * @note In the default implementation, SysTick timer is the source of time base.
 237:Drivers/STM32H7xx_HAL_Driver/Src/stm32h7xx_hal.c ****   *       It is used to generate interrupts at regular time intervals.
 238:Drivers/STM32H7xx_HAL_Driver/Src/stm32h7xx_hal.c ****   *       Care must be taken if HAL_Delay() is called from a peripheral ISR process,
 239:Drivers/STM32H7xx_HAL_Driver/Src/stm32h7xx_hal.c ****   *       The the SysTick interrupt must have higher priority (numerically lower)
 240:Drivers/STM32H7xx_HAL_Driver/Src/stm32h7xx_hal.c ****   *       than the peripheral interrupt. Otherwise the caller ISR process will be blocked.
 241:Drivers/STM32H7xx_HAL_Driver/Src/stm32h7xx_hal.c ****   *       The function is declared as __weak  to be overwritten  in case of other
 242:Drivers/STM32H7xx_HAL_Driver/Src/stm32h7xx_hal.c ****   *       implementation  in user file.
 243:Drivers/STM32H7xx_HAL_Driver/Src/stm32h7xx_hal.c ****   * @param TickPriority: Tick interrupt priority.
 244:Drivers/STM32H7xx_HAL_Driver/Src/stm32h7xx_hal.c ****   * @retval HAL status
ARM GAS  /tmp/cclcb5qw.s 			page 8


 245:Drivers/STM32H7xx_HAL_Driver/Src/stm32h7xx_hal.c ****   */
 246:Drivers/STM32H7xx_HAL_Driver/Src/stm32h7xx_hal.c **** __weak HAL_StatusTypeDef HAL_InitTick(uint32_t TickPriority)
 247:Drivers/STM32H7xx_HAL_Driver/Src/stm32h7xx_hal.c **** {
 141              		.loc 1 247 1 is_stmt 1 view -0
 142              		.cfi_startproc
 143              		@ args = 0, pretend = 0, frame = 0
 144              		@ frame_needed = 0, uses_anonymous_args = 0
 248:Drivers/STM32H7xx_HAL_Driver/Src/stm32h7xx_hal.c ****   /* Check uwTickFreq for MisraC 2012 (even if uwTickFreq is a enum type that don't take the value 
 249:Drivers/STM32H7xx_HAL_Driver/Src/stm32h7xx_hal.c ****   if((uint32_t)uwTickFreq == 0UL)
 145              		.loc 1 249 3 view .LVU27
 146              		.loc 1 249 27 is_stmt 0 view .LVU28
 147 0000 104B     		ldr	r3, .L18
 148 0002 1B78     		ldrb	r3, [r3]	@ zero_extendqisi2
 149              		.loc 1 249 5 view .LVU29
 150 0004 0BB9     		cbnz	r3, .L16
 250:Drivers/STM32H7xx_HAL_Driver/Src/stm32h7xx_hal.c ****   {
 251:Drivers/STM32H7xx_HAL_Driver/Src/stm32h7xx_hal.c ****     return HAL_ERROR;
 151              		.loc 1 251 12 view .LVU30
 152 0006 0120     		movs	r0, #1
 153              	.LVL2:
 252:Drivers/STM32H7xx_HAL_Driver/Src/stm32h7xx_hal.c ****   }
 253:Drivers/STM32H7xx_HAL_Driver/Src/stm32h7xx_hal.c **** 
 254:Drivers/STM32H7xx_HAL_Driver/Src/stm32h7xx_hal.c **** #if defined(DUAL_CORE)
 255:Drivers/STM32H7xx_HAL_Driver/Src/stm32h7xx_hal.c ****   if (HAL_GetCurrentCPUID() == CM7_CPUID)
 256:Drivers/STM32H7xx_HAL_Driver/Src/stm32h7xx_hal.c ****   {
 257:Drivers/STM32H7xx_HAL_Driver/Src/stm32h7xx_hal.c ****     /* Cortex-M7 detected */
 258:Drivers/STM32H7xx_HAL_Driver/Src/stm32h7xx_hal.c ****     /* Configure the SysTick to have interrupt in 1ms time basis*/
 259:Drivers/STM32H7xx_HAL_Driver/Src/stm32h7xx_hal.c ****     if (HAL_SYSTICK_Config(SystemCoreClock / (1000UL / (uint32_t)uwTickFreq)) > 0U)
 260:Drivers/STM32H7xx_HAL_Driver/Src/stm32h7xx_hal.c ****     {
 261:Drivers/STM32H7xx_HAL_Driver/Src/stm32h7xx_hal.c ****       return HAL_ERROR;
 262:Drivers/STM32H7xx_HAL_Driver/Src/stm32h7xx_hal.c ****     }
 263:Drivers/STM32H7xx_HAL_Driver/Src/stm32h7xx_hal.c ****   }
 264:Drivers/STM32H7xx_HAL_Driver/Src/stm32h7xx_hal.c ****   else
 265:Drivers/STM32H7xx_HAL_Driver/Src/stm32h7xx_hal.c ****   {
 266:Drivers/STM32H7xx_HAL_Driver/Src/stm32h7xx_hal.c ****     /* Cortex-M4 detected */
 267:Drivers/STM32H7xx_HAL_Driver/Src/stm32h7xx_hal.c ****     /* Configure the SysTick to have interrupt in 1ms time basis*/
 268:Drivers/STM32H7xx_HAL_Driver/Src/stm32h7xx_hal.c ****     if (HAL_SYSTICK_Config(HAL_RCC_GetHCLKFreq() / (1000UL / (uint32_t)uwTickFreq)) > 0U)
 269:Drivers/STM32H7xx_HAL_Driver/Src/stm32h7xx_hal.c ****     {
 270:Drivers/STM32H7xx_HAL_Driver/Src/stm32h7xx_hal.c ****       return HAL_ERROR;
 271:Drivers/STM32H7xx_HAL_Driver/Src/stm32h7xx_hal.c ****     }
 272:Drivers/STM32H7xx_HAL_Driver/Src/stm32h7xx_hal.c ****   }
 273:Drivers/STM32H7xx_HAL_Driver/Src/stm32h7xx_hal.c **** #else
 274:Drivers/STM32H7xx_HAL_Driver/Src/stm32h7xx_hal.c ****   /* Configure the SysTick to have interrupt in 1ms time basis*/
 275:Drivers/STM32H7xx_HAL_Driver/Src/stm32h7xx_hal.c ****   if (HAL_SYSTICK_Config(SystemCoreClock / (1000UL / (uint32_t)uwTickFreq)) > 0U)
 276:Drivers/STM32H7xx_HAL_Driver/Src/stm32h7xx_hal.c ****   {
 277:Drivers/STM32H7xx_HAL_Driver/Src/stm32h7xx_hal.c ****     return HAL_ERROR;
 278:Drivers/STM32H7xx_HAL_Driver/Src/stm32h7xx_hal.c ****   }
 279:Drivers/STM32H7xx_HAL_Driver/Src/stm32h7xx_hal.c **** #endif
 280:Drivers/STM32H7xx_HAL_Driver/Src/stm32h7xx_hal.c **** 
 281:Drivers/STM32H7xx_HAL_Driver/Src/stm32h7xx_hal.c ****   /* Configure the SysTick IRQ priority */
 282:Drivers/STM32H7xx_HAL_Driver/Src/stm32h7xx_hal.c ****   if (TickPriority < (1UL << __NVIC_PRIO_BITS))
 283:Drivers/STM32H7xx_HAL_Driver/Src/stm32h7xx_hal.c ****   {
 284:Drivers/STM32H7xx_HAL_Driver/Src/stm32h7xx_hal.c ****     HAL_NVIC_SetPriority(SysTick_IRQn, TickPriority, 0U);
 285:Drivers/STM32H7xx_HAL_Driver/Src/stm32h7xx_hal.c ****     uwTickPrio = TickPriority;
 286:Drivers/STM32H7xx_HAL_Driver/Src/stm32h7xx_hal.c ****   }
 287:Drivers/STM32H7xx_HAL_Driver/Src/stm32h7xx_hal.c ****   else
 288:Drivers/STM32H7xx_HAL_Driver/Src/stm32h7xx_hal.c ****   {
ARM GAS  /tmp/cclcb5qw.s 			page 9


 289:Drivers/STM32H7xx_HAL_Driver/Src/stm32h7xx_hal.c ****     return HAL_ERROR;
 290:Drivers/STM32H7xx_HAL_Driver/Src/stm32h7xx_hal.c ****   }
 291:Drivers/STM32H7xx_HAL_Driver/Src/stm32h7xx_hal.c **** 
 292:Drivers/STM32H7xx_HAL_Driver/Src/stm32h7xx_hal.c ****   /* Return function status */
 293:Drivers/STM32H7xx_HAL_Driver/Src/stm32h7xx_hal.c ****   return HAL_OK;
 294:Drivers/STM32H7xx_HAL_Driver/Src/stm32h7xx_hal.c **** }
 154              		.loc 1 294 1 view .LVU31
 155 0008 7047     		bx	lr
 156              	.LVL3:
 157              	.L16:
 247:Drivers/STM32H7xx_HAL_Driver/Src/stm32h7xx_hal.c ****   /* Check uwTickFreq for MisraC 2012 (even if uwTickFreq is a enum type that don't take the value 
 158              		.loc 1 247 1 view .LVU32
 159 000a 10B5     		push	{r4, lr}
 160              	.LCFI1:
 161              		.cfi_def_cfa_offset 8
 162              		.cfi_offset 4, -8
 163              		.cfi_offset 14, -4
 164 000c 0446     		mov	r4, r0
 275:Drivers/STM32H7xx_HAL_Driver/Src/stm32h7xx_hal.c ****   {
 165              		.loc 1 275 3 is_stmt 1 view .LVU33
 275:Drivers/STM32H7xx_HAL_Driver/Src/stm32h7xx_hal.c ****   {
 166              		.loc 1 275 52 is_stmt 0 view .LVU34
 167 000e 4FF47A70 		mov	r0, #1000
 168              	.LVL4:
 275:Drivers/STM32H7xx_HAL_Driver/Src/stm32h7xx_hal.c ****   {
 169              		.loc 1 275 52 view .LVU35
 170 0012 B0FBF3F3 		udiv	r3, r0, r3
 275:Drivers/STM32H7xx_HAL_Driver/Src/stm32h7xx_hal.c ****   {
 171              		.loc 1 275 7 view .LVU36
 172 0016 0C4A     		ldr	r2, .L18+4
 173 0018 1068     		ldr	r0, [r2]
 174 001a B0FBF3F0 		udiv	r0, r0, r3
 175 001e FFF7FEFF 		bl	HAL_SYSTICK_Config
 176              	.LVL5:
 275:Drivers/STM32H7xx_HAL_Driver/Src/stm32h7xx_hal.c ****   {
 177              		.loc 1 275 6 view .LVU37
 178 0022 68B9     		cbnz	r0, .L10
 282:Drivers/STM32H7xx_HAL_Driver/Src/stm32h7xx_hal.c ****   {
 179              		.loc 1 282 3 is_stmt 1 view .LVU38
 282:Drivers/STM32H7xx_HAL_Driver/Src/stm32h7xx_hal.c ****   {
 180              		.loc 1 282 6 is_stmt 0 view .LVU39
 181 0024 0F2C     		cmp	r4, #15
 182 0026 01D9     		bls	.L17
 289:Drivers/STM32H7xx_HAL_Driver/Src/stm32h7xx_hal.c ****   }
 183              		.loc 1 289 12 view .LVU40
 184 0028 0120     		movs	r0, #1
 185 002a 0AE0     		b	.L8
 186              	.L17:
 284:Drivers/STM32H7xx_HAL_Driver/Src/stm32h7xx_hal.c ****     uwTickPrio = TickPriority;
 187              		.loc 1 284 5 is_stmt 1 view .LVU41
 188 002c 0022     		movs	r2, #0
 189 002e 2146     		mov	r1, r4
 190 0030 4FF0FF30 		mov	r0, #-1
 191 0034 FFF7FEFF 		bl	HAL_NVIC_SetPriority
 192              	.LVL6:
 285:Drivers/STM32H7xx_HAL_Driver/Src/stm32h7xx_hal.c ****   }
 193              		.loc 1 285 5 view .LVU42
ARM GAS  /tmp/cclcb5qw.s 			page 10


 285:Drivers/STM32H7xx_HAL_Driver/Src/stm32h7xx_hal.c ****   }
 194              		.loc 1 285 16 is_stmt 0 view .LVU43
 195 0038 044B     		ldr	r3, .L18+8
 196 003a 1C60     		str	r4, [r3]
 293:Drivers/STM32H7xx_HAL_Driver/Src/stm32h7xx_hal.c **** }
 197              		.loc 1 293 3 is_stmt 1 view .LVU44
 293:Drivers/STM32H7xx_HAL_Driver/Src/stm32h7xx_hal.c **** }
 198              		.loc 1 293 10 is_stmt 0 view .LVU45
 199 003c 0020     		movs	r0, #0
 200 003e 00E0     		b	.L8
 201              	.L10:
 277:Drivers/STM32H7xx_HAL_Driver/Src/stm32h7xx_hal.c ****   }
 202              		.loc 1 277 12 view .LVU46
 203 0040 0120     		movs	r0, #1
 204              	.L8:
 205              		.loc 1 294 1 view .LVU47
 206 0042 10BD     		pop	{r4, pc}
 207              	.LVL7:
 208              	.L19:
 209              		.loc 1 294 1 view .LVU48
 210              		.align	2
 211              	.L18:
 212 0044 00000000 		.word	.LANCHOR0
 213 0048 00000000 		.word	SystemCoreClock
 214 004c 00000000 		.word	.LANCHOR1
 215              		.cfi_endproc
 216              	.LFE145:
 218              		.section	.text.HAL_Init,"ax",%progbits
 219              		.align	1
 220              		.global	HAL_Init
 221              		.syntax unified
 222              		.thumb
 223              		.thumb_func
 224              		.fpu fpv5-d16
 226              	HAL_Init:
 227              	.LFB141:
 135:Drivers/STM32H7xx_HAL_Driver/Src/stm32h7xx_hal.c **** 
 228              		.loc 1 135 1 is_stmt 1 view -0
 229              		.cfi_startproc
 230              		@ args = 0, pretend = 0, frame = 0
 231              		@ frame_needed = 0, uses_anonymous_args = 0
 232 0000 10B5     		push	{r4, lr}
 233              	.LCFI2:
 234              		.cfi_def_cfa_offset 8
 235              		.cfi_offset 4, -8
 236              		.cfi_offset 14, -4
 145:Drivers/STM32H7xx_HAL_Driver/Src/stm32h7xx_hal.c **** 
 237              		.loc 1 145 3 view .LVU50
 238 0002 0320     		movs	r0, #3
 239 0004 FFF7FEFF 		bl	HAL_NVIC_SetPriorityGrouping
 240              	.LVL8:
 148:Drivers/STM32H7xx_HAL_Driver/Src/stm32h7xx_hal.c **** 
 241              		.loc 1 148 3 view .LVU51
 148:Drivers/STM32H7xx_HAL_Driver/Src/stm32h7xx_hal.c **** 
 242              		.loc 1 148 21 is_stmt 0 view .LVU52
 243 0008 FFF7FEFF 		bl	HAL_RCC_GetSysClockFreq
 244              	.LVL9:
ARM GAS  /tmp/cclcb5qw.s 			page 11


 148:Drivers/STM32H7xx_HAL_Driver/Src/stm32h7xx_hal.c **** 
 245              		.loc 1 148 73 view .LVU53
 246 000c 0F49     		ldr	r1, .L25
 247 000e 8B69     		ldr	r3, [r1, #24]
 148:Drivers/STM32H7xx_HAL_Driver/Src/stm32h7xx_hal.c **** 
 248              		.loc 1 148 102 view .LVU54
 249 0010 C3F30323 		ubfx	r3, r3, #8, #4
 148:Drivers/STM32H7xx_HAL_Driver/Src/stm32h7xx_hal.c **** 
 250              		.loc 1 148 68 view .LVU55
 251 0014 0E4A     		ldr	r2, .L25+4
 252 0016 D35C     		ldrb	r3, [r2, r3]	@ zero_extendqisi2
 148:Drivers/STM32H7xx_HAL_Driver/Src/stm32h7xx_hal.c **** 
 253              		.loc 1 148 129 view .LVU56
 254 0018 03F01F03 		and	r3, r3, #31
 148:Drivers/STM32H7xx_HAL_Driver/Src/stm32h7xx_hal.c **** 
 255              		.loc 1 148 47 view .LVU57
 256 001c D840     		lsrs	r0, r0, r3
 148:Drivers/STM32H7xx_HAL_Driver/Src/stm32h7xx_hal.c **** 
 257              		.loc 1 148 19 view .LVU58
 258 001e 0D4B     		ldr	r3, .L25+8
 259 0020 1860     		str	r0, [r3]
 151:Drivers/STM32H7xx_HAL_Driver/Src/stm32h7xx_hal.c **** 
 260              		.loc 1 151 3 is_stmt 1 view .LVU59
 151:Drivers/STM32H7xx_HAL_Driver/Src/stm32h7xx_hal.c **** 
 261              		.loc 1 151 62 is_stmt 0 view .LVU60
 262 0022 8B69     		ldr	r3, [r1, #24]
 151:Drivers/STM32H7xx_HAL_Driver/Src/stm32h7xx_hal.c **** 
 263              		.loc 1 151 89 view .LVU61
 264 0024 03F00F03 		and	r3, r3, #15
 151:Drivers/STM32H7xx_HAL_Driver/Src/stm32h7xx_hal.c **** 
 265              		.loc 1 151 57 view .LVU62
 266 0028 D35C     		ldrb	r3, [r2, r3]	@ zero_extendqisi2
 151:Drivers/STM32H7xx_HAL_Driver/Src/stm32h7xx_hal.c **** 
 267              		.loc 1 151 114 view .LVU63
 268 002a 03F01F03 		and	r3, r3, #31
 151:Drivers/STM32H7xx_HAL_Driver/Src/stm32h7xx_hal.c **** 
 269              		.loc 1 151 36 view .LVU64
 270 002e D840     		lsrs	r0, r0, r3
 151:Drivers/STM32H7xx_HAL_Driver/Src/stm32h7xx_hal.c **** 
 271              		.loc 1 151 17 view .LVU65
 272 0030 094B     		ldr	r3, .L25+12
 273 0032 1860     		str	r0, [r3]
 154:Drivers/STM32H7xx_HAL_Driver/Src/stm32h7xx_hal.c ****   {
 274              		.loc 1 154 3 is_stmt 1 view .LVU66
 154:Drivers/STM32H7xx_HAL_Driver/Src/stm32h7xx_hal.c ****   {
 275              		.loc 1 154 6 is_stmt 0 view .LVU67
 276 0034 0020     		movs	r0, #0
 277 0036 FFF7FEFF 		bl	HAL_InitTick
 278              	.LVL10:
 154:Drivers/STM32H7xx_HAL_Driver/Src/stm32h7xx_hal.c ****   {
 279              		.loc 1 154 5 view .LVU68
 280 003a 10B1     		cbz	r0, .L24
 156:Drivers/STM32H7xx_HAL_Driver/Src/stm32h7xx_hal.c ****   }
 281              		.loc 1 156 12 view .LVU69
 282 003c 0124     		movs	r4, #1
 283              	.L21:
 164:Drivers/STM32H7xx_HAL_Driver/Src/stm32h7xx_hal.c **** 
ARM GAS  /tmp/cclcb5qw.s 			page 12


 284              		.loc 1 164 1 view .LVU70
 285 003e 2046     		mov	r0, r4
 286 0040 10BD     		pop	{r4, pc}
 287              	.L24:
 288 0042 0446     		mov	r4, r0
 160:Drivers/STM32H7xx_HAL_Driver/Src/stm32h7xx_hal.c **** 
 289              		.loc 1 160 3 is_stmt 1 view .LVU71
 290 0044 FFF7FEFF 		bl	HAL_MspInit
 291              	.LVL11:
 163:Drivers/STM32H7xx_HAL_Driver/Src/stm32h7xx_hal.c **** }
 292              		.loc 1 163 3 view .LVU72
 163:Drivers/STM32H7xx_HAL_Driver/Src/stm32h7xx_hal.c **** }
 293              		.loc 1 163 10 is_stmt 0 view .LVU73
 294 0048 F9E7     		b	.L21
 295              	.L26:
 296 004a 00BF     		.align	2
 297              	.L25:
 298 004c 00440258 		.word	1476543488
 299 0050 00000000 		.word	D1CorePrescTable
 300 0054 00000000 		.word	SystemCoreClock
 301 0058 00000000 		.word	SystemD2Clock
 302              		.cfi_endproc
 303              	.LFE141:
 305              		.section	.text.HAL_IncTick,"ax",%progbits
 306              		.align	1
 307              		.weak	HAL_IncTick
 308              		.syntax unified
 309              		.thumb
 310              		.thumb_func
 311              		.fpu fpv5-d16
 313              	HAL_IncTick:
 314              	.LFB146:
 295:Drivers/STM32H7xx_HAL_Driver/Src/stm32h7xx_hal.c **** 
 296:Drivers/STM32H7xx_HAL_Driver/Src/stm32h7xx_hal.c **** /**
 297:Drivers/STM32H7xx_HAL_Driver/Src/stm32h7xx_hal.c ****   * @}
 298:Drivers/STM32H7xx_HAL_Driver/Src/stm32h7xx_hal.c ****   */
 299:Drivers/STM32H7xx_HAL_Driver/Src/stm32h7xx_hal.c **** 
 300:Drivers/STM32H7xx_HAL_Driver/Src/stm32h7xx_hal.c **** /** @defgroup HAL_Group2 HAL Control functions
 301:Drivers/STM32H7xx_HAL_Driver/Src/stm32h7xx_hal.c ****  *  @brief    HAL Control functions
 302:Drivers/STM32H7xx_HAL_Driver/Src/stm32h7xx_hal.c ****  *
 303:Drivers/STM32H7xx_HAL_Driver/Src/stm32h7xx_hal.c **** @verbatim
 304:Drivers/STM32H7xx_HAL_Driver/Src/stm32h7xx_hal.c ****  ===============================================================================
 305:Drivers/STM32H7xx_HAL_Driver/Src/stm32h7xx_hal.c ****                       ##### HAL Control functions #####
 306:Drivers/STM32H7xx_HAL_Driver/Src/stm32h7xx_hal.c ****  ===============================================================================
 307:Drivers/STM32H7xx_HAL_Driver/Src/stm32h7xx_hal.c ****     [..]  This section provides functions allowing to:
 308:Drivers/STM32H7xx_HAL_Driver/Src/stm32h7xx_hal.c ****       (+) Provide a tick value in millisecond
 309:Drivers/STM32H7xx_HAL_Driver/Src/stm32h7xx_hal.c ****       (+) Provide a blocking delay in millisecond
 310:Drivers/STM32H7xx_HAL_Driver/Src/stm32h7xx_hal.c ****       (+) Suspend the time base source interrupt
 311:Drivers/STM32H7xx_HAL_Driver/Src/stm32h7xx_hal.c ****       (+) Resume the time base source interrupt
 312:Drivers/STM32H7xx_HAL_Driver/Src/stm32h7xx_hal.c ****       (+) Get the HAL API driver version
 313:Drivers/STM32H7xx_HAL_Driver/Src/stm32h7xx_hal.c ****       (+) Get the device identifier
 314:Drivers/STM32H7xx_HAL_Driver/Src/stm32h7xx_hal.c ****       (+) Get the device revision identifier
 315:Drivers/STM32H7xx_HAL_Driver/Src/stm32h7xx_hal.c ****       (+) Enable/Disable Debug module during SLEEP mode
 316:Drivers/STM32H7xx_HAL_Driver/Src/stm32h7xx_hal.c ****       (+) Enable/Disable Debug module during STOP mode
 317:Drivers/STM32H7xx_HAL_Driver/Src/stm32h7xx_hal.c ****       (+) Enable/Disable Debug module during STANDBY mode
 318:Drivers/STM32H7xx_HAL_Driver/Src/stm32h7xx_hal.c **** 
 319:Drivers/STM32H7xx_HAL_Driver/Src/stm32h7xx_hal.c **** @endverbatim
ARM GAS  /tmp/cclcb5qw.s 			page 13


 320:Drivers/STM32H7xx_HAL_Driver/Src/stm32h7xx_hal.c ****   * @{
 321:Drivers/STM32H7xx_HAL_Driver/Src/stm32h7xx_hal.c ****   */
 322:Drivers/STM32H7xx_HAL_Driver/Src/stm32h7xx_hal.c **** 
 323:Drivers/STM32H7xx_HAL_Driver/Src/stm32h7xx_hal.c **** /**
 324:Drivers/STM32H7xx_HAL_Driver/Src/stm32h7xx_hal.c ****   * @brief This function is called to increment  a global variable "uwTick"
 325:Drivers/STM32H7xx_HAL_Driver/Src/stm32h7xx_hal.c ****   *        used as application time base.
 326:Drivers/STM32H7xx_HAL_Driver/Src/stm32h7xx_hal.c ****   * @note In the default implementation, this variable is incremented each 1ms
 327:Drivers/STM32H7xx_HAL_Driver/Src/stm32h7xx_hal.c ****   *       in Systick ISR.
 328:Drivers/STM32H7xx_HAL_Driver/Src/stm32h7xx_hal.c ****  * @note This function is declared as __weak to be overwritten in case of other
 329:Drivers/STM32H7xx_HAL_Driver/Src/stm32h7xx_hal.c ****   *      implementations in user file.
 330:Drivers/STM32H7xx_HAL_Driver/Src/stm32h7xx_hal.c ****   * @retval None
 331:Drivers/STM32H7xx_HAL_Driver/Src/stm32h7xx_hal.c ****   */
 332:Drivers/STM32H7xx_HAL_Driver/Src/stm32h7xx_hal.c **** __weak void HAL_IncTick(void)
 333:Drivers/STM32H7xx_HAL_Driver/Src/stm32h7xx_hal.c **** {
 315              		.loc 1 333 1 is_stmt 1 view -0
 316              		.cfi_startproc
 317              		@ args = 0, pretend = 0, frame = 0
 318              		@ frame_needed = 0, uses_anonymous_args = 0
 319              		@ link register save eliminated.
 334:Drivers/STM32H7xx_HAL_Driver/Src/stm32h7xx_hal.c ****   uwTick += (uint32_t)uwTickFreq;
 320              		.loc 1 334 3 view .LVU75
 321              		.loc 1 334 13 is_stmt 0 view .LVU76
 322 0000 034B     		ldr	r3, .L28
 323 0002 1B78     		ldrb	r3, [r3]	@ zero_extendqisi2
 324              		.loc 1 334 10 view .LVU77
 325 0004 034A     		ldr	r2, .L28+4
 326 0006 1168     		ldr	r1, [r2]
 327 0008 0B44     		add	r3, r3, r1
 328 000a 1360     		str	r3, [r2]
 335:Drivers/STM32H7xx_HAL_Driver/Src/stm32h7xx_hal.c **** }
 329              		.loc 1 335 1 view .LVU78
 330 000c 7047     		bx	lr
 331              	.L29:
 332 000e 00BF     		.align	2
 333              	.L28:
 334 0010 00000000 		.word	.LANCHOR0
 335 0014 00000000 		.word	uwTick
 336              		.cfi_endproc
 337              	.LFE146:
 339              		.section	.text.HAL_GetTick,"ax",%progbits
 340              		.align	1
 341              		.weak	HAL_GetTick
 342              		.syntax unified
 343              		.thumb
 344              		.thumb_func
 345              		.fpu fpv5-d16
 347              	HAL_GetTick:
 348              	.LFB147:
 336:Drivers/STM32H7xx_HAL_Driver/Src/stm32h7xx_hal.c **** 
 337:Drivers/STM32H7xx_HAL_Driver/Src/stm32h7xx_hal.c **** /**
 338:Drivers/STM32H7xx_HAL_Driver/Src/stm32h7xx_hal.c ****   * @brief Provides a tick value in millisecond.
 339:Drivers/STM32H7xx_HAL_Driver/Src/stm32h7xx_hal.c ****   * @note This function is declared as __weak to be overwritten in case of other
 340:Drivers/STM32H7xx_HAL_Driver/Src/stm32h7xx_hal.c ****   *       implementations in user file.
 341:Drivers/STM32H7xx_HAL_Driver/Src/stm32h7xx_hal.c ****   * @retval tick value
 342:Drivers/STM32H7xx_HAL_Driver/Src/stm32h7xx_hal.c ****   */
 343:Drivers/STM32H7xx_HAL_Driver/Src/stm32h7xx_hal.c **** __weak uint32_t HAL_GetTick(void)
 344:Drivers/STM32H7xx_HAL_Driver/Src/stm32h7xx_hal.c **** {
ARM GAS  /tmp/cclcb5qw.s 			page 14


 349              		.loc 1 344 1 is_stmt 1 view -0
 350              		.cfi_startproc
 351              		@ args = 0, pretend = 0, frame = 0
 352              		@ frame_needed = 0, uses_anonymous_args = 0
 353              		@ link register save eliminated.
 345:Drivers/STM32H7xx_HAL_Driver/Src/stm32h7xx_hal.c ****   return uwTick;
 354              		.loc 1 345 3 view .LVU80
 355              		.loc 1 345 10 is_stmt 0 view .LVU81
 356 0000 014B     		ldr	r3, .L31
 357 0002 1868     		ldr	r0, [r3]
 346:Drivers/STM32H7xx_HAL_Driver/Src/stm32h7xx_hal.c **** }
 358              		.loc 1 346 1 view .LVU82
 359 0004 7047     		bx	lr
 360              	.L32:
 361 0006 00BF     		.align	2
 362              	.L31:
 363 0008 00000000 		.word	uwTick
 364              		.cfi_endproc
 365              	.LFE147:
 367              		.section	.text.HAL_GetTickPrio,"ax",%progbits
 368              		.align	1
 369              		.global	HAL_GetTickPrio
 370              		.syntax unified
 371              		.thumb
 372              		.thumb_func
 373              		.fpu fpv5-d16
 375              	HAL_GetTickPrio:
 376              	.LFB148:
 347:Drivers/STM32H7xx_HAL_Driver/Src/stm32h7xx_hal.c **** 
 348:Drivers/STM32H7xx_HAL_Driver/Src/stm32h7xx_hal.c **** /**
 349:Drivers/STM32H7xx_HAL_Driver/Src/stm32h7xx_hal.c ****   * @brief This function returns a tick priority.
 350:Drivers/STM32H7xx_HAL_Driver/Src/stm32h7xx_hal.c ****   * @retval tick priority
 351:Drivers/STM32H7xx_HAL_Driver/Src/stm32h7xx_hal.c ****   */
 352:Drivers/STM32H7xx_HAL_Driver/Src/stm32h7xx_hal.c **** uint32_t HAL_GetTickPrio(void)
 353:Drivers/STM32H7xx_HAL_Driver/Src/stm32h7xx_hal.c **** {
 377              		.loc 1 353 1 is_stmt 1 view -0
 378              		.cfi_startproc
 379              		@ args = 0, pretend = 0, frame = 0
 380              		@ frame_needed = 0, uses_anonymous_args = 0
 381              		@ link register save eliminated.
 354:Drivers/STM32H7xx_HAL_Driver/Src/stm32h7xx_hal.c ****   return uwTickPrio;
 382              		.loc 1 354 3 view .LVU84
 355:Drivers/STM32H7xx_HAL_Driver/Src/stm32h7xx_hal.c **** }
 383              		.loc 1 355 1 is_stmt 0 view .LVU85
 384 0000 014B     		ldr	r3, .L34
 385 0002 1868     		ldr	r0, [r3]
 386 0004 7047     		bx	lr
 387              	.L35:
 388 0006 00BF     		.align	2
 389              	.L34:
 390 0008 00000000 		.word	.LANCHOR1
 391              		.cfi_endproc
 392              	.LFE148:
 394              		.section	.text.HAL_SetTickFreq,"ax",%progbits
 395              		.align	1
 396              		.global	HAL_SetTickFreq
 397              		.syntax unified
ARM GAS  /tmp/cclcb5qw.s 			page 15


 398              		.thumb
 399              		.thumb_func
 400              		.fpu fpv5-d16
 402              	HAL_SetTickFreq:
 403              	.LVL12:
 404              	.LFB149:
 356:Drivers/STM32H7xx_HAL_Driver/Src/stm32h7xx_hal.c **** 
 357:Drivers/STM32H7xx_HAL_Driver/Src/stm32h7xx_hal.c **** /**
 358:Drivers/STM32H7xx_HAL_Driver/Src/stm32h7xx_hal.c ****   * @brief Set new tick Freq.
 359:Drivers/STM32H7xx_HAL_Driver/Src/stm32h7xx_hal.c ****   * @retval Status
 360:Drivers/STM32H7xx_HAL_Driver/Src/stm32h7xx_hal.c ****   */
 361:Drivers/STM32H7xx_HAL_Driver/Src/stm32h7xx_hal.c **** HAL_StatusTypeDef HAL_SetTickFreq(HAL_TickFreqTypeDef Freq)
 362:Drivers/STM32H7xx_HAL_Driver/Src/stm32h7xx_hal.c **** {
 405              		.loc 1 362 1 is_stmt 1 view -0
 406              		.cfi_startproc
 407              		@ args = 0, pretend = 0, frame = 0
 408              		@ frame_needed = 0, uses_anonymous_args = 0
 409              		.loc 1 362 1 is_stmt 0 view .LVU87
 410 0000 08B5     		push	{r3, lr}
 411              	.LCFI3:
 412              		.cfi_def_cfa_offset 8
 413              		.cfi_offset 3, -8
 414              		.cfi_offset 14, -4
 363:Drivers/STM32H7xx_HAL_Driver/Src/stm32h7xx_hal.c ****   HAL_StatusTypeDef status  = HAL_OK;
 415              		.loc 1 363 3 is_stmt 1 view .LVU88
 416              	.LVL13:
 364:Drivers/STM32H7xx_HAL_Driver/Src/stm32h7xx_hal.c ****   assert_param(IS_TICKFREQ(Freq));
 417              		.loc 1 364 3 view .LVU89
 365:Drivers/STM32H7xx_HAL_Driver/Src/stm32h7xx_hal.c **** 
 366:Drivers/STM32H7xx_HAL_Driver/Src/stm32h7xx_hal.c ****   if (uwTickFreq != Freq)
 418              		.loc 1 366 3 view .LVU90
 419              		.loc 1 366 18 is_stmt 0 view .LVU91
 420 0002 064B     		ldr	r3, .L41
 421 0004 1B78     		ldrb	r3, [r3]	@ zero_extendqisi2
 422              		.loc 1 366 6 view .LVU92
 423 0006 8342     		cmp	r3, r0
 424 0008 01D1     		bne	.L40
 363:Drivers/STM32H7xx_HAL_Driver/Src/stm32h7xx_hal.c ****   assert_param(IS_TICKFREQ(Freq));
 425              		.loc 1 363 21 view .LVU93
 426 000a 0020     		movs	r0, #0
 427              	.LVL14:
 428              	.L37:
 367:Drivers/STM32H7xx_HAL_Driver/Src/stm32h7xx_hal.c ****   {
 368:Drivers/STM32H7xx_HAL_Driver/Src/stm32h7xx_hal.c ****     uwTickFreq = Freq;
 369:Drivers/STM32H7xx_HAL_Driver/Src/stm32h7xx_hal.c **** 
 370:Drivers/STM32H7xx_HAL_Driver/Src/stm32h7xx_hal.c ****     /* Apply the new tick Freq  */
 371:Drivers/STM32H7xx_HAL_Driver/Src/stm32h7xx_hal.c ****     status = HAL_InitTick(uwTickPrio);
 372:Drivers/STM32H7xx_HAL_Driver/Src/stm32h7xx_hal.c ****   }
 373:Drivers/STM32H7xx_HAL_Driver/Src/stm32h7xx_hal.c **** 
 374:Drivers/STM32H7xx_HAL_Driver/Src/stm32h7xx_hal.c ****   return status;
 429              		.loc 1 374 3 is_stmt 1 view .LVU94
 375:Drivers/STM32H7xx_HAL_Driver/Src/stm32h7xx_hal.c **** }
 430              		.loc 1 375 1 is_stmt 0 view .LVU95
 431 000c 08BD     		pop	{r3, pc}
 432              	.LVL15:
 433              	.L40:
 368:Drivers/STM32H7xx_HAL_Driver/Src/stm32h7xx_hal.c **** 
ARM GAS  /tmp/cclcb5qw.s 			page 16


 434              		.loc 1 368 5 is_stmt 1 view .LVU96
 368:Drivers/STM32H7xx_HAL_Driver/Src/stm32h7xx_hal.c **** 
 435              		.loc 1 368 16 is_stmt 0 view .LVU97
 436 000e 034B     		ldr	r3, .L41
 437 0010 1870     		strb	r0, [r3]
 371:Drivers/STM32H7xx_HAL_Driver/Src/stm32h7xx_hal.c ****   }
 438              		.loc 1 371 5 is_stmt 1 view .LVU98
 371:Drivers/STM32H7xx_HAL_Driver/Src/stm32h7xx_hal.c ****   }
 439              		.loc 1 371 14 is_stmt 0 view .LVU99
 440 0012 034B     		ldr	r3, .L41+4
 441 0014 1868     		ldr	r0, [r3]
 442              	.LVL16:
 371:Drivers/STM32H7xx_HAL_Driver/Src/stm32h7xx_hal.c ****   }
 443              		.loc 1 371 14 view .LVU100
 444 0016 FFF7FEFF 		bl	HAL_InitTick
 445              	.LVL17:
 371:Drivers/STM32H7xx_HAL_Driver/Src/stm32h7xx_hal.c ****   }
 446              		.loc 1 371 14 view .LVU101
 447 001a F7E7     		b	.L37
 448              	.L42:
 449              		.align	2
 450              	.L41:
 451 001c 00000000 		.word	.LANCHOR0
 452 0020 00000000 		.word	.LANCHOR1
 453              		.cfi_endproc
 454              	.LFE149:
 456              		.section	.text.HAL_GetTickFreq,"ax",%progbits
 457              		.align	1
 458              		.global	HAL_GetTickFreq
 459              		.syntax unified
 460              		.thumb
 461              		.thumb_func
 462              		.fpu fpv5-d16
 464              	HAL_GetTickFreq:
 465              	.LFB150:
 376:Drivers/STM32H7xx_HAL_Driver/Src/stm32h7xx_hal.c **** 
 377:Drivers/STM32H7xx_HAL_Driver/Src/stm32h7xx_hal.c **** /**
 378:Drivers/STM32H7xx_HAL_Driver/Src/stm32h7xx_hal.c ****   * @brief Return tick frequency.
 379:Drivers/STM32H7xx_HAL_Driver/Src/stm32h7xx_hal.c ****   * @retval tick period in Hz
 380:Drivers/STM32H7xx_HAL_Driver/Src/stm32h7xx_hal.c ****   */
 381:Drivers/STM32H7xx_HAL_Driver/Src/stm32h7xx_hal.c **** HAL_TickFreqTypeDef HAL_GetTickFreq(void)
 382:Drivers/STM32H7xx_HAL_Driver/Src/stm32h7xx_hal.c **** {
 466              		.loc 1 382 1 is_stmt 1 view -0
 467              		.cfi_startproc
 468              		@ args = 0, pretend = 0, frame = 0
 469              		@ frame_needed = 0, uses_anonymous_args = 0
 470              		@ link register save eliminated.
 383:Drivers/STM32H7xx_HAL_Driver/Src/stm32h7xx_hal.c ****   return uwTickFreq;
 471              		.loc 1 383 3 view .LVU103
 384:Drivers/STM32H7xx_HAL_Driver/Src/stm32h7xx_hal.c **** }
 472              		.loc 1 384 1 is_stmt 0 view .LVU104
 473 0000 014B     		ldr	r3, .L44
 474 0002 1878     		ldrb	r0, [r3]	@ zero_extendqisi2
 475 0004 7047     		bx	lr
 476              	.L45:
 477 0006 00BF     		.align	2
 478              	.L44:
ARM GAS  /tmp/cclcb5qw.s 			page 17


 479 0008 00000000 		.word	.LANCHOR0
 480              		.cfi_endproc
 481              	.LFE150:
 483              		.section	.text.HAL_Delay,"ax",%progbits
 484              		.align	1
 485              		.weak	HAL_Delay
 486              		.syntax unified
 487              		.thumb
 488              		.thumb_func
 489              		.fpu fpv5-d16
 491              	HAL_Delay:
 492              	.LVL18:
 493              	.LFB151:
 385:Drivers/STM32H7xx_HAL_Driver/Src/stm32h7xx_hal.c **** 
 386:Drivers/STM32H7xx_HAL_Driver/Src/stm32h7xx_hal.c **** /**
 387:Drivers/STM32H7xx_HAL_Driver/Src/stm32h7xx_hal.c ****   * @brief This function provides minimum delay (in milliseconds) based
 388:Drivers/STM32H7xx_HAL_Driver/Src/stm32h7xx_hal.c ****   *        on variable incremented.
 389:Drivers/STM32H7xx_HAL_Driver/Src/stm32h7xx_hal.c ****   * @note In the default implementation , SysTick timer is the source of time base.
 390:Drivers/STM32H7xx_HAL_Driver/Src/stm32h7xx_hal.c ****   *       It is used to generate interrupts at regular time intervals where uwTick
 391:Drivers/STM32H7xx_HAL_Driver/Src/stm32h7xx_hal.c ****   *       is incremented.
 392:Drivers/STM32H7xx_HAL_Driver/Src/stm32h7xx_hal.c ****   * @note This function is declared as __weak to be overwritten in case of other
 393:Drivers/STM32H7xx_HAL_Driver/Src/stm32h7xx_hal.c ****   *       implementations in user file.
 394:Drivers/STM32H7xx_HAL_Driver/Src/stm32h7xx_hal.c ****   * @param Delay  specifies the delay time length, in milliseconds.
 395:Drivers/STM32H7xx_HAL_Driver/Src/stm32h7xx_hal.c ****   * @retval None
 396:Drivers/STM32H7xx_HAL_Driver/Src/stm32h7xx_hal.c ****   */
 397:Drivers/STM32H7xx_HAL_Driver/Src/stm32h7xx_hal.c **** __weak void HAL_Delay(uint32_t Delay)
 398:Drivers/STM32H7xx_HAL_Driver/Src/stm32h7xx_hal.c **** {
 494              		.loc 1 398 1 is_stmt 1 view -0
 495              		.cfi_startproc
 496              		@ args = 0, pretend = 0, frame = 0
 497              		@ frame_needed = 0, uses_anonymous_args = 0
 498              		.loc 1 398 1 is_stmt 0 view .LVU106
 499 0000 38B5     		push	{r3, r4, r5, lr}
 500              	.LCFI4:
 501              		.cfi_def_cfa_offset 16
 502              		.cfi_offset 3, -16
 503              		.cfi_offset 4, -12
 504              		.cfi_offset 5, -8
 505              		.cfi_offset 14, -4
 506 0002 0446     		mov	r4, r0
 399:Drivers/STM32H7xx_HAL_Driver/Src/stm32h7xx_hal.c ****   uint32_t tickstart = HAL_GetTick();
 507              		.loc 1 399 3 is_stmt 1 view .LVU107
 508              		.loc 1 399 24 is_stmt 0 view .LVU108
 509 0004 FFF7FEFF 		bl	HAL_GetTick
 510              	.LVL19:
 511              		.loc 1 399 24 view .LVU109
 512 0008 0546     		mov	r5, r0
 513              	.LVL20:
 400:Drivers/STM32H7xx_HAL_Driver/Src/stm32h7xx_hal.c ****   uint32_t wait = Delay;
 514              		.loc 1 400 3 is_stmt 1 view .LVU110
 401:Drivers/STM32H7xx_HAL_Driver/Src/stm32h7xx_hal.c **** 
 402:Drivers/STM32H7xx_HAL_Driver/Src/stm32h7xx_hal.c ****   /* Add a freq to guarantee minimum wait */
 403:Drivers/STM32H7xx_HAL_Driver/Src/stm32h7xx_hal.c ****   if (wait < HAL_MAX_DELAY)
 515              		.loc 1 403 3 view .LVU111
 516              		.loc 1 403 6 is_stmt 0 view .LVU112
 517 000a B4F1FF3F 		cmp	r4, #-1
 518 000e 02D0     		beq	.L48
ARM GAS  /tmp/cclcb5qw.s 			page 18


 404:Drivers/STM32H7xx_HAL_Driver/Src/stm32h7xx_hal.c ****   {
 405:Drivers/STM32H7xx_HAL_Driver/Src/stm32h7xx_hal.c ****     wait += (uint32_t)(uwTickFreq);
 519              		.loc 1 405 5 is_stmt 1 view .LVU113
 520              		.loc 1 405 13 is_stmt 0 view .LVU114
 521 0010 044B     		ldr	r3, .L50
 522 0012 1B78     		ldrb	r3, [r3]	@ zero_extendqisi2
 523              		.loc 1 405 10 view .LVU115
 524 0014 1C44     		add	r4, r4, r3
 525              	.LVL21:
 526              	.L48:
 406:Drivers/STM32H7xx_HAL_Driver/Src/stm32h7xx_hal.c ****   }
 407:Drivers/STM32H7xx_HAL_Driver/Src/stm32h7xx_hal.c **** 
 408:Drivers/STM32H7xx_HAL_Driver/Src/stm32h7xx_hal.c ****   while ((HAL_GetTick() - tickstart) < wait)
 409:Drivers/STM32H7xx_HAL_Driver/Src/stm32h7xx_hal.c ****   {
 410:Drivers/STM32H7xx_HAL_Driver/Src/stm32h7xx_hal.c ****   }
 527              		.loc 1 410 3 is_stmt 1 discriminator 1 view .LVU116
 408:Drivers/STM32H7xx_HAL_Driver/Src/stm32h7xx_hal.c ****   {
 528              		.loc 1 408 11 is_stmt 0 discriminator 1 view .LVU117
 529 0016 FFF7FEFF 		bl	HAL_GetTick
 530              	.LVL22:
 408:Drivers/STM32H7xx_HAL_Driver/Src/stm32h7xx_hal.c ****   {
 531              		.loc 1 408 25 discriminator 1 view .LVU118
 532 001a 401B     		subs	r0, r0, r5
 408:Drivers/STM32H7xx_HAL_Driver/Src/stm32h7xx_hal.c ****   {
 533              		.loc 1 408 9 discriminator 1 view .LVU119
 534 001c A042     		cmp	r0, r4
 535 001e FAD3     		bcc	.L48
 411:Drivers/STM32H7xx_HAL_Driver/Src/stm32h7xx_hal.c **** }
 536              		.loc 1 411 1 view .LVU120
 537 0020 38BD     		pop	{r3, r4, r5, pc}
 538              	.LVL23:
 539              	.L51:
 540              		.loc 1 411 1 view .LVU121
 541 0022 00BF     		.align	2
 542              	.L50:
 543 0024 00000000 		.word	.LANCHOR0
 544              		.cfi_endproc
 545              	.LFE151:
 547              		.section	.text.HAL_SuspendTick,"ax",%progbits
 548              		.align	1
 549              		.weak	HAL_SuspendTick
 550              		.syntax unified
 551              		.thumb
 552              		.thumb_func
 553              		.fpu fpv5-d16
 555              	HAL_SuspendTick:
 556              	.LFB152:
 412:Drivers/STM32H7xx_HAL_Driver/Src/stm32h7xx_hal.c **** 
 413:Drivers/STM32H7xx_HAL_Driver/Src/stm32h7xx_hal.c **** /**
 414:Drivers/STM32H7xx_HAL_Driver/Src/stm32h7xx_hal.c ****   * @brief Suspend Tick increment.
 415:Drivers/STM32H7xx_HAL_Driver/Src/stm32h7xx_hal.c ****   * @note In the default implementation , SysTick timer is the source of time base. It is
 416:Drivers/STM32H7xx_HAL_Driver/Src/stm32h7xx_hal.c ****   *       used to generate interrupts at regular time intervals. Once HAL_SuspendTick()
 417:Drivers/STM32H7xx_HAL_Driver/Src/stm32h7xx_hal.c ****   *       is called, the the SysTick interrupt will be disabled and so Tick increment
 418:Drivers/STM32H7xx_HAL_Driver/Src/stm32h7xx_hal.c ****   *       is suspended.
 419:Drivers/STM32H7xx_HAL_Driver/Src/stm32h7xx_hal.c ****   * @note This function is declared as __weak to be overwritten in case of other
 420:Drivers/STM32H7xx_HAL_Driver/Src/stm32h7xx_hal.c ****   *       implementations in user file.
 421:Drivers/STM32H7xx_HAL_Driver/Src/stm32h7xx_hal.c ****   * @retval None
ARM GAS  /tmp/cclcb5qw.s 			page 19


 422:Drivers/STM32H7xx_HAL_Driver/Src/stm32h7xx_hal.c ****   */
 423:Drivers/STM32H7xx_HAL_Driver/Src/stm32h7xx_hal.c **** __weak void HAL_SuspendTick(void)
 424:Drivers/STM32H7xx_HAL_Driver/Src/stm32h7xx_hal.c **** {
 557              		.loc 1 424 1 is_stmt 1 view -0
 558              		.cfi_startproc
 559              		@ args = 0, pretend = 0, frame = 0
 560              		@ frame_needed = 0, uses_anonymous_args = 0
 561              		@ link register save eliminated.
 425:Drivers/STM32H7xx_HAL_Driver/Src/stm32h7xx_hal.c ****   /* Disable SysTick Interrupt */
 426:Drivers/STM32H7xx_HAL_Driver/Src/stm32h7xx_hal.c ****   SysTick->CTRL &= ~SysTick_CTRL_TICKINT_Msk;
 562              		.loc 1 426 3 view .LVU123
 563              		.loc 1 426 17 is_stmt 0 view .LVU124
 564 0000 024A     		ldr	r2, .L53
 565 0002 1368     		ldr	r3, [r2]
 566 0004 23F00203 		bic	r3, r3, #2
 567 0008 1360     		str	r3, [r2]
 427:Drivers/STM32H7xx_HAL_Driver/Src/stm32h7xx_hal.c **** }
 568              		.loc 1 427 1 view .LVU125
 569 000a 7047     		bx	lr
 570              	.L54:
 571              		.align	2
 572              	.L53:
 573 000c 10E000E0 		.word	-536813552
 574              		.cfi_endproc
 575              	.LFE152:
 577              		.section	.text.HAL_ResumeTick,"ax",%progbits
 578              		.align	1
 579              		.weak	HAL_ResumeTick
 580              		.syntax unified
 581              		.thumb
 582              		.thumb_func
 583              		.fpu fpv5-d16
 585              	HAL_ResumeTick:
 586              	.LFB153:
 428:Drivers/STM32H7xx_HAL_Driver/Src/stm32h7xx_hal.c **** 
 429:Drivers/STM32H7xx_HAL_Driver/Src/stm32h7xx_hal.c **** /**
 430:Drivers/STM32H7xx_HAL_Driver/Src/stm32h7xx_hal.c ****   * @brief Resume Tick increment.
 431:Drivers/STM32H7xx_HAL_Driver/Src/stm32h7xx_hal.c ****   * @note In the default implementation , SysTick timer is the source of time base. It is
 432:Drivers/STM32H7xx_HAL_Driver/Src/stm32h7xx_hal.c ****   *       used to generate interrupts at regular time intervals. Once HAL_ResumeTick()
 433:Drivers/STM32H7xx_HAL_Driver/Src/stm32h7xx_hal.c ****   *       is called, the the SysTick interrupt will be enabled and so Tick increment
 434:Drivers/STM32H7xx_HAL_Driver/Src/stm32h7xx_hal.c ****   *       is resumed.
 435:Drivers/STM32H7xx_HAL_Driver/Src/stm32h7xx_hal.c ****   * @note This function is declared as __weak to be overwritten in case of other
 436:Drivers/STM32H7xx_HAL_Driver/Src/stm32h7xx_hal.c ****   *       implementations in user file.
 437:Drivers/STM32H7xx_HAL_Driver/Src/stm32h7xx_hal.c ****   * @retval None
 438:Drivers/STM32H7xx_HAL_Driver/Src/stm32h7xx_hal.c ****   */
 439:Drivers/STM32H7xx_HAL_Driver/Src/stm32h7xx_hal.c **** __weak void HAL_ResumeTick(void)
 440:Drivers/STM32H7xx_HAL_Driver/Src/stm32h7xx_hal.c **** {
 587              		.loc 1 440 1 is_stmt 1 view -0
 588              		.cfi_startproc
 589              		@ args = 0, pretend = 0, frame = 0
 590              		@ frame_needed = 0, uses_anonymous_args = 0
 591              		@ link register save eliminated.
 441:Drivers/STM32H7xx_HAL_Driver/Src/stm32h7xx_hal.c ****   /* Enable SysTick Interrupt */
 442:Drivers/STM32H7xx_HAL_Driver/Src/stm32h7xx_hal.c ****   SysTick->CTRL  |= SysTick_CTRL_TICKINT_Msk;
 592              		.loc 1 442 3 view .LVU127
 593              		.loc 1 442 18 is_stmt 0 view .LVU128
 594 0000 024A     		ldr	r2, .L56
ARM GAS  /tmp/cclcb5qw.s 			page 20


 595 0002 1368     		ldr	r3, [r2]
 596 0004 43F00203 		orr	r3, r3, #2
 597 0008 1360     		str	r3, [r2]
 443:Drivers/STM32H7xx_HAL_Driver/Src/stm32h7xx_hal.c **** }
 598              		.loc 1 443 1 view .LVU129
 599 000a 7047     		bx	lr
 600              	.L57:
 601              		.align	2
 602              	.L56:
 603 000c 10E000E0 		.word	-536813552
 604              		.cfi_endproc
 605              	.LFE153:
 607              		.section	.text.HAL_GetHalVersion,"ax",%progbits
 608              		.align	1
 609              		.global	HAL_GetHalVersion
 610              		.syntax unified
 611              		.thumb
 612              		.thumb_func
 613              		.fpu fpv5-d16
 615              	HAL_GetHalVersion:
 616              	.LFB154:
 444:Drivers/STM32H7xx_HAL_Driver/Src/stm32h7xx_hal.c **** 
 445:Drivers/STM32H7xx_HAL_Driver/Src/stm32h7xx_hal.c **** /**
 446:Drivers/STM32H7xx_HAL_Driver/Src/stm32h7xx_hal.c ****   * @brief  Returns the HAL revision
 447:Drivers/STM32H7xx_HAL_Driver/Src/stm32h7xx_hal.c ****   * @retval version : 0xXYZR (8bits for each decimal, R for RC)
 448:Drivers/STM32H7xx_HAL_Driver/Src/stm32h7xx_hal.c ****   */
 449:Drivers/STM32H7xx_HAL_Driver/Src/stm32h7xx_hal.c **** uint32_t HAL_GetHalVersion(void)
 450:Drivers/STM32H7xx_HAL_Driver/Src/stm32h7xx_hal.c **** {
 617              		.loc 1 450 1 is_stmt 1 view -0
 618              		.cfi_startproc
 619              		@ args = 0, pretend = 0, frame = 0
 620              		@ frame_needed = 0, uses_anonymous_args = 0
 621              		@ link register save eliminated.
 451:Drivers/STM32H7xx_HAL_Driver/Src/stm32h7xx_hal.c ****  return __STM32H7xx_HAL_VERSION;
 622              		.loc 1 451 2 view .LVU131
 452:Drivers/STM32H7xx_HAL_Driver/Src/stm32h7xx_hal.c **** }
 623              		.loc 1 452 1 is_stmt 0 view .LVU132
 624 0000 4FF08370 		mov	r0, #17170432
 625 0004 7047     		bx	lr
 626              		.cfi_endproc
 627              	.LFE154:
 629              		.section	.text.HAL_GetREVID,"ax",%progbits
 630              		.align	1
 631              		.global	HAL_GetREVID
 632              		.syntax unified
 633              		.thumb
 634              		.thumb_func
 635              		.fpu fpv5-d16
 637              	HAL_GetREVID:
 638              	.LFB155:
 453:Drivers/STM32H7xx_HAL_Driver/Src/stm32h7xx_hal.c **** 
 454:Drivers/STM32H7xx_HAL_Driver/Src/stm32h7xx_hal.c **** /**
 455:Drivers/STM32H7xx_HAL_Driver/Src/stm32h7xx_hal.c ****   * @brief  Returns the device revision identifier.
 456:Drivers/STM32H7xx_HAL_Driver/Src/stm32h7xx_hal.c ****   * @retval Device revision identifier
 457:Drivers/STM32H7xx_HAL_Driver/Src/stm32h7xx_hal.c ****   */
 458:Drivers/STM32H7xx_HAL_Driver/Src/stm32h7xx_hal.c **** uint32_t HAL_GetREVID(void)
 459:Drivers/STM32H7xx_HAL_Driver/Src/stm32h7xx_hal.c **** {
ARM GAS  /tmp/cclcb5qw.s 			page 21


 639              		.loc 1 459 1 is_stmt 1 view -0
 640              		.cfi_startproc
 641              		@ args = 0, pretend = 0, frame = 0
 642              		@ frame_needed = 0, uses_anonymous_args = 0
 643              		@ link register save eliminated.
 460:Drivers/STM32H7xx_HAL_Driver/Src/stm32h7xx_hal.c ****    return((DBGMCU->IDCODE) >> 16);
 644              		.loc 1 460 4 view .LVU134
 645              		.loc 1 460 18 is_stmt 0 view .LVU135
 646 0000 014B     		ldr	r3, .L60
 647 0002 1868     		ldr	r0, [r3]
 461:Drivers/STM32H7xx_HAL_Driver/Src/stm32h7xx_hal.c **** }
 648              		.loc 1 461 1 view .LVU136
 649 0004 000C     		lsrs	r0, r0, #16
 650 0006 7047     		bx	lr
 651              	.L61:
 652              		.align	2
 653              	.L60:
 654 0008 0010005C 		.word	1543507968
 655              		.cfi_endproc
 656              	.LFE155:
 658              		.section	.text.HAL_GetDEVID,"ax",%progbits
 659              		.align	1
 660              		.global	HAL_GetDEVID
 661              		.syntax unified
 662              		.thumb
 663              		.thumb_func
 664              		.fpu fpv5-d16
 666              	HAL_GetDEVID:
 667              	.LFB156:
 462:Drivers/STM32H7xx_HAL_Driver/Src/stm32h7xx_hal.c **** 
 463:Drivers/STM32H7xx_HAL_Driver/Src/stm32h7xx_hal.c **** /**
 464:Drivers/STM32H7xx_HAL_Driver/Src/stm32h7xx_hal.c ****   * @brief  Returns the device identifier.
 465:Drivers/STM32H7xx_HAL_Driver/Src/stm32h7xx_hal.c ****   * @retval Device identifier
 466:Drivers/STM32H7xx_HAL_Driver/Src/stm32h7xx_hal.c ****   */
 467:Drivers/STM32H7xx_HAL_Driver/Src/stm32h7xx_hal.c **** uint32_t HAL_GetDEVID(void)
 468:Drivers/STM32H7xx_HAL_Driver/Src/stm32h7xx_hal.c **** {
 668              		.loc 1 468 1 is_stmt 1 view -0
 669              		.cfi_startproc
 670              		@ args = 0, pretend = 0, frame = 0
 671              		@ frame_needed = 0, uses_anonymous_args = 0
 672              		@ link register save eliminated.
 469:Drivers/STM32H7xx_HAL_Driver/Src/stm32h7xx_hal.c ****    return((DBGMCU->IDCODE) & IDCODE_DEVID_MASK);
 673              		.loc 1 469 4 view .LVU138
 674              		.loc 1 469 18 is_stmt 0 view .LVU139
 675 0000 024B     		ldr	r3, .L63
 676 0002 1868     		ldr	r0, [r3]
 470:Drivers/STM32H7xx_HAL_Driver/Src/stm32h7xx_hal.c **** }
 677              		.loc 1 470 1 view .LVU140
 678 0004 C0F30B00 		ubfx	r0, r0, #0, #12
 679 0008 7047     		bx	lr
 680              	.L64:
 681 000a 00BF     		.align	2
 682              	.L63:
 683 000c 0010005C 		.word	1543507968
 684              		.cfi_endproc
 685              	.LFE156:
 687              		.section	.text.HAL_GetUIDw0,"ax",%progbits
ARM GAS  /tmp/cclcb5qw.s 			page 22


 688              		.align	1
 689              		.global	HAL_GetUIDw0
 690              		.syntax unified
 691              		.thumb
 692              		.thumb_func
 693              		.fpu fpv5-d16
 695              	HAL_GetUIDw0:
 696              	.LFB157:
 471:Drivers/STM32H7xx_HAL_Driver/Src/stm32h7xx_hal.c **** 
 472:Drivers/STM32H7xx_HAL_Driver/Src/stm32h7xx_hal.c **** /**
 473:Drivers/STM32H7xx_HAL_Driver/Src/stm32h7xx_hal.c ****   * @brief  Return the first word of the unique device identifier (UID based on 96 bits)
 474:Drivers/STM32H7xx_HAL_Driver/Src/stm32h7xx_hal.c ****   * @retval Device identifier
 475:Drivers/STM32H7xx_HAL_Driver/Src/stm32h7xx_hal.c ****   */
 476:Drivers/STM32H7xx_HAL_Driver/Src/stm32h7xx_hal.c **** uint32_t HAL_GetUIDw0(void)
 477:Drivers/STM32H7xx_HAL_Driver/Src/stm32h7xx_hal.c **** {
 697              		.loc 1 477 1 is_stmt 1 view -0
 698              		.cfi_startproc
 699              		@ args = 0, pretend = 0, frame = 0
 700              		@ frame_needed = 0, uses_anonymous_args = 0
 701              		@ link register save eliminated.
 478:Drivers/STM32H7xx_HAL_Driver/Src/stm32h7xx_hal.c ****   return(READ_REG(*((uint32_t *)UID_BASE)));
 702              		.loc 1 478 3 view .LVU142
 479:Drivers/STM32H7xx_HAL_Driver/Src/stm32h7xx_hal.c **** }
 703              		.loc 1 479 1 is_stmt 0 view .LVU143
 704 0000 014B     		ldr	r3, .L66
 705 0002 1868     		ldr	r0, [r3]
 706 0004 7047     		bx	lr
 707              	.L67:
 708 0006 00BF     		.align	2
 709              	.L66:
 710 0008 00E8F11F 		.word	535947264
 711              		.cfi_endproc
 712              	.LFE157:
 714              		.section	.text.HAL_GetUIDw1,"ax",%progbits
 715              		.align	1
 716              		.global	HAL_GetUIDw1
 717              		.syntax unified
 718              		.thumb
 719              		.thumb_func
 720              		.fpu fpv5-d16
 722              	HAL_GetUIDw1:
 723              	.LFB158:
 480:Drivers/STM32H7xx_HAL_Driver/Src/stm32h7xx_hal.c **** 
 481:Drivers/STM32H7xx_HAL_Driver/Src/stm32h7xx_hal.c **** /**
 482:Drivers/STM32H7xx_HAL_Driver/Src/stm32h7xx_hal.c ****   * @brief  Return the second word of the unique device identifier (UID based on 96 bits)
 483:Drivers/STM32H7xx_HAL_Driver/Src/stm32h7xx_hal.c ****   * @retval Device identifier
 484:Drivers/STM32H7xx_HAL_Driver/Src/stm32h7xx_hal.c ****   */
 485:Drivers/STM32H7xx_HAL_Driver/Src/stm32h7xx_hal.c **** uint32_t HAL_GetUIDw1(void)
 486:Drivers/STM32H7xx_HAL_Driver/Src/stm32h7xx_hal.c **** {
 724              		.loc 1 486 1 is_stmt 1 view -0
 725              		.cfi_startproc
 726              		@ args = 0, pretend = 0, frame = 0
 727              		@ frame_needed = 0, uses_anonymous_args = 0
 728              		@ link register save eliminated.
 487:Drivers/STM32H7xx_HAL_Driver/Src/stm32h7xx_hal.c ****   return(READ_REG(*((uint32_t *)(UID_BASE + 4U))));
 729              		.loc 1 487 3 view .LVU145
 488:Drivers/STM32H7xx_HAL_Driver/Src/stm32h7xx_hal.c **** }
ARM GAS  /tmp/cclcb5qw.s 			page 23


 730              		.loc 1 488 1 is_stmt 0 view .LVU146
 731 0000 014B     		ldr	r3, .L69
 732 0002 1868     		ldr	r0, [r3]
 733 0004 7047     		bx	lr
 734              	.L70:
 735 0006 00BF     		.align	2
 736              	.L69:
 737 0008 04E8F11F 		.word	535947268
 738              		.cfi_endproc
 739              	.LFE158:
 741              		.section	.text.HAL_GetUIDw2,"ax",%progbits
 742              		.align	1
 743              		.global	HAL_GetUIDw2
 744              		.syntax unified
 745              		.thumb
 746              		.thumb_func
 747              		.fpu fpv5-d16
 749              	HAL_GetUIDw2:
 750              	.LFB159:
 489:Drivers/STM32H7xx_HAL_Driver/Src/stm32h7xx_hal.c **** 
 490:Drivers/STM32H7xx_HAL_Driver/Src/stm32h7xx_hal.c **** /**
 491:Drivers/STM32H7xx_HAL_Driver/Src/stm32h7xx_hal.c ****   * @brief  Return the third word of the unique device identifier (UID based on 96 bits)
 492:Drivers/STM32H7xx_HAL_Driver/Src/stm32h7xx_hal.c ****   * @retval Device identifier
 493:Drivers/STM32H7xx_HAL_Driver/Src/stm32h7xx_hal.c ****   */
 494:Drivers/STM32H7xx_HAL_Driver/Src/stm32h7xx_hal.c **** uint32_t HAL_GetUIDw2(void)
 495:Drivers/STM32H7xx_HAL_Driver/Src/stm32h7xx_hal.c **** {
 751              		.loc 1 495 1 is_stmt 1 view -0
 752              		.cfi_startproc
 753              		@ args = 0, pretend = 0, frame = 0
 754              		@ frame_needed = 0, uses_anonymous_args = 0
 755              		@ link register save eliminated.
 496:Drivers/STM32H7xx_HAL_Driver/Src/stm32h7xx_hal.c ****   return(READ_REG(*((uint32_t *)(UID_BASE + 8U))));
 756              		.loc 1 496 3 view .LVU148
 497:Drivers/STM32H7xx_HAL_Driver/Src/stm32h7xx_hal.c **** }
 757              		.loc 1 497 1 is_stmt 0 view .LVU149
 758 0000 014B     		ldr	r3, .L72
 759 0002 1868     		ldr	r0, [r3]
 760 0004 7047     		bx	lr
 761              	.L73:
 762 0006 00BF     		.align	2
 763              	.L72:
 764 0008 08E8F11F 		.word	535947272
 765              		.cfi_endproc
 766              	.LFE159:
 768              		.section	.text.HAL_SYSCFG_VREFBUF_VoltageScalingConfig,"ax",%progbits
 769              		.align	1
 770              		.global	HAL_SYSCFG_VREFBUF_VoltageScalingConfig
 771              		.syntax unified
 772              		.thumb
 773              		.thumb_func
 774              		.fpu fpv5-d16
 776              	HAL_SYSCFG_VREFBUF_VoltageScalingConfig:
 777              	.LVL24:
 778              	.LFB160:
 498:Drivers/STM32H7xx_HAL_Driver/Src/stm32h7xx_hal.c **** 
 499:Drivers/STM32H7xx_HAL_Driver/Src/stm32h7xx_hal.c **** /**
 500:Drivers/STM32H7xx_HAL_Driver/Src/stm32h7xx_hal.c ****   * @brief Configure the internal voltage reference buffer voltage scale.
ARM GAS  /tmp/cclcb5qw.s 			page 24


 501:Drivers/STM32H7xx_HAL_Driver/Src/stm32h7xx_hal.c ****   * @param VoltageScaling  specifies the output voltage to achieve
 502:Drivers/STM32H7xx_HAL_Driver/Src/stm32h7xx_hal.c ****   *          This parameter can be one of the following values:
 503:Drivers/STM32H7xx_HAL_Driver/Src/stm32h7xx_hal.c ****   *            @arg SYSCFG_VREFBUF_VOLTAGE_SCALE0: VREF_OUT1 around 2.048 V.
 504:Drivers/STM32H7xx_HAL_Driver/Src/stm32h7xx_hal.c ****   *                                                This requires VDDA equal to or higher than 2.4 V
 505:Drivers/STM32H7xx_HAL_Driver/Src/stm32h7xx_hal.c ****   *            @arg SYSCFG_VREFBUF_VOLTAGE_SCALE1: VREF_OUT2 around 2.5 V.
 506:Drivers/STM32H7xx_HAL_Driver/Src/stm32h7xx_hal.c ****   *                                                This requires VDDA equal to or higher than 2.8 V
 507:Drivers/STM32H7xx_HAL_Driver/Src/stm32h7xx_hal.c ****   *            @arg SYSCFG_VREFBUF_VOLTAGE_SCALE2: VREF_OUT3 around 1.5 V.
 508:Drivers/STM32H7xx_HAL_Driver/Src/stm32h7xx_hal.c ****   *                                                This requires VDDA equal to or higher than 1.8 V
 509:Drivers/STM32H7xx_HAL_Driver/Src/stm32h7xx_hal.c ****   *            @arg SYSCFG_VREFBUF_VOLTAGE_SCALE3: VREF_OUT4 around 1.8 V.
 510:Drivers/STM32H7xx_HAL_Driver/Src/stm32h7xx_hal.c ****   *                                                This requires VDDA equal to or higher than 2.1 V
 511:Drivers/STM32H7xx_HAL_Driver/Src/stm32h7xx_hal.c ****   * @retval None
 512:Drivers/STM32H7xx_HAL_Driver/Src/stm32h7xx_hal.c ****   */
 513:Drivers/STM32H7xx_HAL_Driver/Src/stm32h7xx_hal.c **** void HAL_SYSCFG_VREFBUF_VoltageScalingConfig(uint32_t VoltageScaling)
 514:Drivers/STM32H7xx_HAL_Driver/Src/stm32h7xx_hal.c **** {
 779              		.loc 1 514 1 is_stmt 1 view -0
 780              		.cfi_startproc
 781              		@ args = 0, pretend = 0, frame = 0
 782              		@ frame_needed = 0, uses_anonymous_args = 0
 783              		@ link register save eliminated.
 515:Drivers/STM32H7xx_HAL_Driver/Src/stm32h7xx_hal.c ****   /* Check the parameters */
 516:Drivers/STM32H7xx_HAL_Driver/Src/stm32h7xx_hal.c ****   assert_param(IS_SYSCFG_VREFBUF_VOLTAGE_SCALE(VoltageScaling));
 784              		.loc 1 516 3 view .LVU151
 517:Drivers/STM32H7xx_HAL_Driver/Src/stm32h7xx_hal.c **** 
 518:Drivers/STM32H7xx_HAL_Driver/Src/stm32h7xx_hal.c ****   MODIFY_REG(VREFBUF->CSR, VREFBUF_CSR_VRS, VoltageScaling);
 785              		.loc 1 518 3 view .LVU152
 786 0000 034A     		ldr	r2, .L75
 787 0002 1368     		ldr	r3, [r2]
 788 0004 23F07003 		bic	r3, r3, #112
 789 0008 0343     		orrs	r3, r3, r0
 790 000a 1360     		str	r3, [r2]
 519:Drivers/STM32H7xx_HAL_Driver/Src/stm32h7xx_hal.c **** }
 791              		.loc 1 519 1 is_stmt 0 view .LVU153
 792 000c 7047     		bx	lr
 793              	.L76:
 794 000e 00BF     		.align	2
 795              	.L75:
 796 0010 003C0058 		.word	1476410368
 797              		.cfi_endproc
 798              	.LFE160:
 800              		.section	.text.HAL_SYSCFG_VREFBUF_HighImpedanceConfig,"ax",%progbits
 801              		.align	1
 802              		.global	HAL_SYSCFG_VREFBUF_HighImpedanceConfig
 803              		.syntax unified
 804              		.thumb
 805              		.thumb_func
 806              		.fpu fpv5-d16
 808              	HAL_SYSCFG_VREFBUF_HighImpedanceConfig:
 809              	.LVL25:
 810              	.LFB161:
 520:Drivers/STM32H7xx_HAL_Driver/Src/stm32h7xx_hal.c **** 
 521:Drivers/STM32H7xx_HAL_Driver/Src/stm32h7xx_hal.c **** /**
 522:Drivers/STM32H7xx_HAL_Driver/Src/stm32h7xx_hal.c ****   * @brief Configure the internal voltage reference buffer high impedance mode.
 523:Drivers/STM32H7xx_HAL_Driver/Src/stm32h7xx_hal.c ****   * @param Mode  specifies the high impedance mode
 524:Drivers/STM32H7xx_HAL_Driver/Src/stm32h7xx_hal.c ****   *          This parameter can be one of the following values:
 525:Drivers/STM32H7xx_HAL_Driver/Src/stm32h7xx_hal.c ****   *            @arg SYSCFG_VREFBUF_HIGH_IMPEDANCE_DISABLE: VREF+ pin is internally connect to VREFI
 526:Drivers/STM32H7xx_HAL_Driver/Src/stm32h7xx_hal.c ****   *            @arg SYSCFG_VREFBUF_HIGH_IMPEDANCE_ENABLE: VREF+ pin is high impedance.
 527:Drivers/STM32H7xx_HAL_Driver/Src/stm32h7xx_hal.c ****   * @retval None
ARM GAS  /tmp/cclcb5qw.s 			page 25


 528:Drivers/STM32H7xx_HAL_Driver/Src/stm32h7xx_hal.c ****   */
 529:Drivers/STM32H7xx_HAL_Driver/Src/stm32h7xx_hal.c **** void HAL_SYSCFG_VREFBUF_HighImpedanceConfig(uint32_t Mode)
 530:Drivers/STM32H7xx_HAL_Driver/Src/stm32h7xx_hal.c **** {
 811              		.loc 1 530 1 is_stmt 1 view -0
 812              		.cfi_startproc
 813              		@ args = 0, pretend = 0, frame = 0
 814              		@ frame_needed = 0, uses_anonymous_args = 0
 815              		@ link register save eliminated.
 531:Drivers/STM32H7xx_HAL_Driver/Src/stm32h7xx_hal.c ****   /* Check the parameters */
 532:Drivers/STM32H7xx_HAL_Driver/Src/stm32h7xx_hal.c ****   assert_param(IS_SYSCFG_VREFBUF_HIGH_IMPEDANCE(Mode));
 816              		.loc 1 532 3 view .LVU155
 533:Drivers/STM32H7xx_HAL_Driver/Src/stm32h7xx_hal.c **** 
 534:Drivers/STM32H7xx_HAL_Driver/Src/stm32h7xx_hal.c ****   MODIFY_REG(VREFBUF->CSR, VREFBUF_CSR_HIZ, Mode);
 817              		.loc 1 534 3 view .LVU156
 818 0000 034A     		ldr	r2, .L78
 819 0002 1368     		ldr	r3, [r2]
 820 0004 23F00203 		bic	r3, r3, #2
 821 0008 0343     		orrs	r3, r3, r0
 822 000a 1360     		str	r3, [r2]
 535:Drivers/STM32H7xx_HAL_Driver/Src/stm32h7xx_hal.c **** }
 823              		.loc 1 535 1 is_stmt 0 view .LVU157
 824 000c 7047     		bx	lr
 825              	.L79:
 826 000e 00BF     		.align	2
 827              	.L78:
 828 0010 003C0058 		.word	1476410368
 829              		.cfi_endproc
 830              	.LFE161:
 832              		.section	.text.HAL_SYSCFG_VREFBUF_TrimmingConfig,"ax",%progbits
 833              		.align	1
 834              		.global	HAL_SYSCFG_VREFBUF_TrimmingConfig
 835              		.syntax unified
 836              		.thumb
 837              		.thumb_func
 838              		.fpu fpv5-d16
 840              	HAL_SYSCFG_VREFBUF_TrimmingConfig:
 841              	.LVL26:
 842              	.LFB162:
 536:Drivers/STM32H7xx_HAL_Driver/Src/stm32h7xx_hal.c **** 
 537:Drivers/STM32H7xx_HAL_Driver/Src/stm32h7xx_hal.c **** /**
 538:Drivers/STM32H7xx_HAL_Driver/Src/stm32h7xx_hal.c ****   * @brief  Tune the Internal Voltage Reference buffer (VREFBUF).
 539:Drivers/STM32H7xx_HAL_Driver/Src/stm32h7xx_hal.c ****   * @retval None
 540:Drivers/STM32H7xx_HAL_Driver/Src/stm32h7xx_hal.c ****   */
 541:Drivers/STM32H7xx_HAL_Driver/Src/stm32h7xx_hal.c **** void HAL_SYSCFG_VREFBUF_TrimmingConfig(uint32_t TrimmingValue)
 542:Drivers/STM32H7xx_HAL_Driver/Src/stm32h7xx_hal.c **** {
 843              		.loc 1 542 1 is_stmt 1 view -0
 844              		.cfi_startproc
 845              		@ args = 0, pretend = 0, frame = 0
 846              		@ frame_needed = 0, uses_anonymous_args = 0
 847              		@ link register save eliminated.
 543:Drivers/STM32H7xx_HAL_Driver/Src/stm32h7xx_hal.c ****   /* Check the parameters */
 544:Drivers/STM32H7xx_HAL_Driver/Src/stm32h7xx_hal.c ****   assert_param(IS_SYSCFG_VREFBUF_TRIMMING(TrimmingValue));
 848              		.loc 1 544 3 view .LVU159
 545:Drivers/STM32H7xx_HAL_Driver/Src/stm32h7xx_hal.c **** 
 546:Drivers/STM32H7xx_HAL_Driver/Src/stm32h7xx_hal.c ****   MODIFY_REG(VREFBUF->CCR, VREFBUF_CCR_TRIM, TrimmingValue);
 849              		.loc 1 546 3 view .LVU160
 850 0000 034A     		ldr	r2, .L81
ARM GAS  /tmp/cclcb5qw.s 			page 26


 851 0002 5368     		ldr	r3, [r2, #4]
 852 0004 23F03F03 		bic	r3, r3, #63
 853 0008 0343     		orrs	r3, r3, r0
 854 000a 5360     		str	r3, [r2, #4]
 547:Drivers/STM32H7xx_HAL_Driver/Src/stm32h7xx_hal.c **** }
 855              		.loc 1 547 1 is_stmt 0 view .LVU161
 856 000c 7047     		bx	lr
 857              	.L82:
 858 000e 00BF     		.align	2
 859              	.L81:
 860 0010 003C0058 		.word	1476410368
 861              		.cfi_endproc
 862              	.LFE162:
 864              		.section	.text.HAL_SYSCFG_EnableVREFBUF,"ax",%progbits
 865              		.align	1
 866              		.global	HAL_SYSCFG_EnableVREFBUF
 867              		.syntax unified
 868              		.thumb
 869              		.thumb_func
 870              		.fpu fpv5-d16
 872              	HAL_SYSCFG_EnableVREFBUF:
 873              	.LFB163:
 548:Drivers/STM32H7xx_HAL_Driver/Src/stm32h7xx_hal.c **** 
 549:Drivers/STM32H7xx_HAL_Driver/Src/stm32h7xx_hal.c **** /**
 550:Drivers/STM32H7xx_HAL_Driver/Src/stm32h7xx_hal.c ****   * @brief  Enable the Internal Voltage Reference buffer (VREFBUF).
 551:Drivers/STM32H7xx_HAL_Driver/Src/stm32h7xx_hal.c ****   * @retval HAL_OK/HAL_TIMEOUT
 552:Drivers/STM32H7xx_HAL_Driver/Src/stm32h7xx_hal.c ****   */
 553:Drivers/STM32H7xx_HAL_Driver/Src/stm32h7xx_hal.c **** HAL_StatusTypeDef HAL_SYSCFG_EnableVREFBUF(void)
 554:Drivers/STM32H7xx_HAL_Driver/Src/stm32h7xx_hal.c **** {
 874              		.loc 1 554 1 is_stmt 1 view -0
 875              		.cfi_startproc
 876              		@ args = 0, pretend = 0, frame = 0
 877              		@ frame_needed = 0, uses_anonymous_args = 0
 878 0000 10B5     		push	{r4, lr}
 879              	.LCFI5:
 880              		.cfi_def_cfa_offset 8
 881              		.cfi_offset 4, -8
 882              		.cfi_offset 14, -4
 555:Drivers/STM32H7xx_HAL_Driver/Src/stm32h7xx_hal.c ****   uint32_t  tickstart;
 883              		.loc 1 555 3 view .LVU163
 556:Drivers/STM32H7xx_HAL_Driver/Src/stm32h7xx_hal.c **** 
 557:Drivers/STM32H7xx_HAL_Driver/Src/stm32h7xx_hal.c ****   SET_BIT(VREFBUF->CSR, VREFBUF_CSR_ENVR);
 884              		.loc 1 557 3 view .LVU164
 885 0002 0B4A     		ldr	r2, .L90
 886 0004 1368     		ldr	r3, [r2]
 887 0006 43F00103 		orr	r3, r3, #1
 888 000a 1360     		str	r3, [r2]
 558:Drivers/STM32H7xx_HAL_Driver/Src/stm32h7xx_hal.c **** 
 559:Drivers/STM32H7xx_HAL_Driver/Src/stm32h7xx_hal.c ****   /* Get Start Tick*/
 560:Drivers/STM32H7xx_HAL_Driver/Src/stm32h7xx_hal.c ****   tickstart = HAL_GetTick();
 889              		.loc 1 560 3 view .LVU165
 890              		.loc 1 560 15 is_stmt 0 view .LVU166
 891 000c FFF7FEFF 		bl	HAL_GetTick
 892              	.LVL27:
 893 0010 0446     		mov	r4, r0
 894              	.LVL28:
 561:Drivers/STM32H7xx_HAL_Driver/Src/stm32h7xx_hal.c **** 
ARM GAS  /tmp/cclcb5qw.s 			page 27


 562:Drivers/STM32H7xx_HAL_Driver/Src/stm32h7xx_hal.c ****   /* Wait for VRR bit  */
 563:Drivers/STM32H7xx_HAL_Driver/Src/stm32h7xx_hal.c ****   while(READ_BIT(VREFBUF->CSR, VREFBUF_CSR_VRR) == 0UL)
 895              		.loc 1 563 3 is_stmt 1 view .LVU167
 896              	.L84:
 897              		.loc 1 563 9 is_stmt 0 view .LVU168
 898 0012 074B     		ldr	r3, .L90
 899 0014 1B68     		ldr	r3, [r3]
 900              		.loc 1 563 8 view .LVU169
 901 0016 13F0080F 		tst	r3, #8
 902 001a 06D1     		bne	.L89
 564:Drivers/STM32H7xx_HAL_Driver/Src/stm32h7xx_hal.c ****   {
 565:Drivers/STM32H7xx_HAL_Driver/Src/stm32h7xx_hal.c ****     if((HAL_GetTick() - tickstart) > VREFBUF_TIMEOUT_VALUE)
 903              		.loc 1 565 5 is_stmt 1 view .LVU170
 904              		.loc 1 565 9 is_stmt 0 view .LVU171
 905 001c FFF7FEFF 		bl	HAL_GetTick
 906              	.LVL29:
 907              		.loc 1 565 23 view .LVU172
 908 0020 001B     		subs	r0, r0, r4
 909              		.loc 1 565 7 view .LVU173
 910 0022 0A28     		cmp	r0, #10
 911 0024 F5D9     		bls	.L84
 566:Drivers/STM32H7xx_HAL_Driver/Src/stm32h7xx_hal.c ****     {
 567:Drivers/STM32H7xx_HAL_Driver/Src/stm32h7xx_hal.c ****       return HAL_TIMEOUT;
 912              		.loc 1 567 14 view .LVU174
 913 0026 0320     		movs	r0, #3
 914 0028 00E0     		b	.L85
 915              	.L89:
 568:Drivers/STM32H7xx_HAL_Driver/Src/stm32h7xx_hal.c ****     }
 569:Drivers/STM32H7xx_HAL_Driver/Src/stm32h7xx_hal.c ****   }
 570:Drivers/STM32H7xx_HAL_Driver/Src/stm32h7xx_hal.c **** 
 571:Drivers/STM32H7xx_HAL_Driver/Src/stm32h7xx_hal.c ****   return HAL_OK;
 916              		.loc 1 571 10 view .LVU175
 917 002a 0020     		movs	r0, #0
 918              	.L85:
 572:Drivers/STM32H7xx_HAL_Driver/Src/stm32h7xx_hal.c **** }
 919              		.loc 1 572 1 view .LVU176
 920 002c 10BD     		pop	{r4, pc}
 921              	.LVL30:
 922              	.L91:
 923              		.loc 1 572 1 view .LVU177
 924 002e 00BF     		.align	2
 925              	.L90:
 926 0030 003C0058 		.word	1476410368
 927              		.cfi_endproc
 928              	.LFE163:
 930              		.section	.text.HAL_SYSCFG_DisableVREFBUF,"ax",%progbits
 931              		.align	1
 932              		.global	HAL_SYSCFG_DisableVREFBUF
 933              		.syntax unified
 934              		.thumb
 935              		.thumb_func
 936              		.fpu fpv5-d16
 938              	HAL_SYSCFG_DisableVREFBUF:
 939              	.LFB164:
 573:Drivers/STM32H7xx_HAL_Driver/Src/stm32h7xx_hal.c **** 
 574:Drivers/STM32H7xx_HAL_Driver/Src/stm32h7xx_hal.c **** /**
 575:Drivers/STM32H7xx_HAL_Driver/Src/stm32h7xx_hal.c ****   * @brief  Disable the Internal Voltage Reference buffer (VREFBUF).
ARM GAS  /tmp/cclcb5qw.s 			page 28


 576:Drivers/STM32H7xx_HAL_Driver/Src/stm32h7xx_hal.c ****   *
 577:Drivers/STM32H7xx_HAL_Driver/Src/stm32h7xx_hal.c ****   * @retval None
 578:Drivers/STM32H7xx_HAL_Driver/Src/stm32h7xx_hal.c ****   */
 579:Drivers/STM32H7xx_HAL_Driver/Src/stm32h7xx_hal.c **** void HAL_SYSCFG_DisableVREFBUF(void)
 580:Drivers/STM32H7xx_HAL_Driver/Src/stm32h7xx_hal.c **** {
 940              		.loc 1 580 1 is_stmt 1 view -0
 941              		.cfi_startproc
 942              		@ args = 0, pretend = 0, frame = 0
 943              		@ frame_needed = 0, uses_anonymous_args = 0
 944              		@ link register save eliminated.
 581:Drivers/STM32H7xx_HAL_Driver/Src/stm32h7xx_hal.c ****   CLEAR_BIT(VREFBUF->CSR, VREFBUF_CSR_ENVR);
 945              		.loc 1 581 3 view .LVU179
 946 0000 024A     		ldr	r2, .L93
 947 0002 1368     		ldr	r3, [r2]
 948 0004 23F00103 		bic	r3, r3, #1
 949 0008 1360     		str	r3, [r2]
 582:Drivers/STM32H7xx_HAL_Driver/Src/stm32h7xx_hal.c **** }
 950              		.loc 1 582 1 is_stmt 0 view .LVU180
 951 000a 7047     		bx	lr
 952              	.L94:
 953              		.align	2
 954              	.L93:
 955 000c 003C0058 		.word	1476410368
 956              		.cfi_endproc
 957              	.LFE164:
 959              		.section	.text.HAL_SYSCFG_ETHInterfaceSelect,"ax",%progbits
 960              		.align	1
 961              		.global	HAL_SYSCFG_ETHInterfaceSelect
 962              		.syntax unified
 963              		.thumb
 964              		.thumb_func
 965              		.fpu fpv5-d16
 967              	HAL_SYSCFG_ETHInterfaceSelect:
 968              	.LVL31:
 969              	.LFB165:
 583:Drivers/STM32H7xx_HAL_Driver/Src/stm32h7xx_hal.c **** 
 584:Drivers/STM32H7xx_HAL_Driver/Src/stm32h7xx_hal.c **** /**
 585:Drivers/STM32H7xx_HAL_Driver/Src/stm32h7xx_hal.c ****   * @brief  Ethernet PHY Interface Selection either MII or RMII
 586:Drivers/STM32H7xx_HAL_Driver/Src/stm32h7xx_hal.c ****   * @param  SYSCFG_ETHInterface: Selects the Ethernet PHY interface
 587:Drivers/STM32H7xx_HAL_Driver/Src/stm32h7xx_hal.c ****   *   This parameter can be one of the following values:
 588:Drivers/STM32H7xx_HAL_Driver/Src/stm32h7xx_hal.c ****   *   @arg SYSCFG_ETH_MII : Select the Media Independent Interface
 589:Drivers/STM32H7xx_HAL_Driver/Src/stm32h7xx_hal.c ****   *   @arg SYSCFG_ETH_RMII: Select the Reduced Media Independent Interface
 590:Drivers/STM32H7xx_HAL_Driver/Src/stm32h7xx_hal.c ****   * @retval None
 591:Drivers/STM32H7xx_HAL_Driver/Src/stm32h7xx_hal.c ****   */
 592:Drivers/STM32H7xx_HAL_Driver/Src/stm32h7xx_hal.c **** void HAL_SYSCFG_ETHInterfaceSelect(uint32_t SYSCFG_ETHInterface)
 593:Drivers/STM32H7xx_HAL_Driver/Src/stm32h7xx_hal.c **** {
 970              		.loc 1 593 1 is_stmt 1 view -0
 971              		.cfi_startproc
 972              		@ args = 0, pretend = 0, frame = 0
 973              		@ frame_needed = 0, uses_anonymous_args = 0
 974              		@ link register save eliminated.
 594:Drivers/STM32H7xx_HAL_Driver/Src/stm32h7xx_hal.c ****   /* Check the parameter */
 595:Drivers/STM32H7xx_HAL_Driver/Src/stm32h7xx_hal.c ****   assert_param(IS_SYSCFG_ETHERNET_CONFIG(SYSCFG_ETHInterface));
 975              		.loc 1 595 3 view .LVU182
 596:Drivers/STM32H7xx_HAL_Driver/Src/stm32h7xx_hal.c **** 
 597:Drivers/STM32H7xx_HAL_Driver/Src/stm32h7xx_hal.c ****   MODIFY_REG(SYSCFG->PMCR, SYSCFG_PMCR_EPIS_SEL, (uint32_t)(SYSCFG_ETHInterface));
 976              		.loc 1 597 3 view .LVU183
ARM GAS  /tmp/cclcb5qw.s 			page 29


 977 0000 034A     		ldr	r2, .L96
 978 0002 5368     		ldr	r3, [r2, #4]
 979 0004 23F46003 		bic	r3, r3, #14680064
 980 0008 0343     		orrs	r3, r3, r0
 981 000a 5360     		str	r3, [r2, #4]
 598:Drivers/STM32H7xx_HAL_Driver/Src/stm32h7xx_hal.c **** }
 982              		.loc 1 598 1 is_stmt 0 view .LVU184
 983 000c 7047     		bx	lr
 984              	.L97:
 985 000e 00BF     		.align	2
 986              	.L96:
 987 0010 00040058 		.word	1476396032
 988              		.cfi_endproc
 989              	.LFE165:
 991              		.section	.text.HAL_SYSCFG_AnalogSwitchConfig,"ax",%progbits
 992              		.align	1
 993              		.global	HAL_SYSCFG_AnalogSwitchConfig
 994              		.syntax unified
 995              		.thumb
 996              		.thumb_func
 997              		.fpu fpv5-d16
 999              	HAL_SYSCFG_AnalogSwitchConfig:
 1000              	.LVL32:
 1001              	.LFB166:
 599:Drivers/STM32H7xx_HAL_Driver/Src/stm32h7xx_hal.c **** 
 600:Drivers/STM32H7xx_HAL_Driver/Src/stm32h7xx_hal.c **** 
 601:Drivers/STM32H7xx_HAL_Driver/Src/stm32h7xx_hal.c **** /**
 602:Drivers/STM32H7xx_HAL_Driver/Src/stm32h7xx_hal.c ****   * @brief  Analog Switch control for dual analog pads.
 603:Drivers/STM32H7xx_HAL_Driver/Src/stm32h7xx_hal.c ****   * @param  SYSCFG_AnalogSwitch: Selects the analog pad
 604:Drivers/STM32H7xx_HAL_Driver/Src/stm32h7xx_hal.c ****   *   This parameter can be one or a combination of the following values:
 605:Drivers/STM32H7xx_HAL_Driver/Src/stm32h7xx_hal.c ****   *   @arg SYSCFG_SWITCH_PA0 : Select PA0 analog switch
 606:Drivers/STM32H7xx_HAL_Driver/Src/stm32h7xx_hal.c ****   *   @arg SYSCFG_SWITCH_PA1:  Select PA1 analog switch
 607:Drivers/STM32H7xx_HAL_Driver/Src/stm32h7xx_hal.c ****   *   @arg SYSCFG_SWITCH_PC2 : Select PC2 analog switch
 608:Drivers/STM32H7xx_HAL_Driver/Src/stm32h7xx_hal.c ****   *   @arg SYSCFG_SWITCH_PC3:  Select PC3 analog switch
 609:Drivers/STM32H7xx_HAL_Driver/Src/stm32h7xx_hal.c ****   * @param  SYSCFG_SwitchState: Open or Close the analog switch between dual pads (PXn and PXn_C)
 610:Drivers/STM32H7xx_HAL_Driver/Src/stm32h7xx_hal.c ****   *   This parameter can be one or a combination of the following values:
 611:Drivers/STM32H7xx_HAL_Driver/Src/stm32h7xx_hal.c ****   *   @arg SYSCFG_SWITCH_PA0_OPEN
 612:Drivers/STM32H7xx_HAL_Driver/Src/stm32h7xx_hal.c ****   *   @arg SYSCFG_SWITCH_PA0_CLOSE
 613:Drivers/STM32H7xx_HAL_Driver/Src/stm32h7xx_hal.c ****   *   @arg SYSCFG_SWITCH_PA1_OPEN
 614:Drivers/STM32H7xx_HAL_Driver/Src/stm32h7xx_hal.c ****   *   @arg SYSCFG_SWITCH_PA1_CLOSE
 615:Drivers/STM32H7xx_HAL_Driver/Src/stm32h7xx_hal.c ****   *   @arg SYSCFG_SWITCH_PC2_OPEN
 616:Drivers/STM32H7xx_HAL_Driver/Src/stm32h7xx_hal.c ****   *   @arg SYSCFG_SWITCH_PC2_CLOSE
 617:Drivers/STM32H7xx_HAL_Driver/Src/stm32h7xx_hal.c ****   *   @arg SYSCFG_SWITCH_PC3_OPEN
 618:Drivers/STM32H7xx_HAL_Driver/Src/stm32h7xx_hal.c ****   *   @arg SYSCFG_SWITCH_PC3_CLOSE
 619:Drivers/STM32H7xx_HAL_Driver/Src/stm32h7xx_hal.c ****   * @retval None
 620:Drivers/STM32H7xx_HAL_Driver/Src/stm32h7xx_hal.c ****   */
 621:Drivers/STM32H7xx_HAL_Driver/Src/stm32h7xx_hal.c **** 
 622:Drivers/STM32H7xx_HAL_Driver/Src/stm32h7xx_hal.c **** void HAL_SYSCFG_AnalogSwitchConfig(uint32_t SYSCFG_AnalogSwitch , uint32_t SYSCFG_SwitchState )
 623:Drivers/STM32H7xx_HAL_Driver/Src/stm32h7xx_hal.c **** {
 1002              		.loc 1 623 1 is_stmt 1 view -0
 1003              		.cfi_startproc
 1004              		@ args = 0, pretend = 0, frame = 0
 1005              		@ frame_needed = 0, uses_anonymous_args = 0
 1006              		@ link register save eliminated.
 624:Drivers/STM32H7xx_HAL_Driver/Src/stm32h7xx_hal.c ****   /* Check the parameter */
 625:Drivers/STM32H7xx_HAL_Driver/Src/stm32h7xx_hal.c ****   assert_param(IS_SYSCFG_ANALOG_SWITCH(SYSCFG_AnalogSwitch));
 1007              		.loc 1 625 3 view .LVU186
ARM GAS  /tmp/cclcb5qw.s 			page 30


 626:Drivers/STM32H7xx_HAL_Driver/Src/stm32h7xx_hal.c ****   assert_param(IS_SYSCFG_SWITCH_STATE(SYSCFG_SwitchState));
 1008              		.loc 1 626 3 view .LVU187
 627:Drivers/STM32H7xx_HAL_Driver/Src/stm32h7xx_hal.c **** 
 628:Drivers/STM32H7xx_HAL_Driver/Src/stm32h7xx_hal.c ****   MODIFY_REG(SYSCFG->PMCR, (uint32_t) SYSCFG_AnalogSwitch, (uint32_t)(SYSCFG_SwitchState));
 1009              		.loc 1 628 3 view .LVU188
 1010 0000 034A     		ldr	r2, .L99
 1011 0002 5368     		ldr	r3, [r2, #4]
 1012 0004 23EA0003 		bic	r3, r3, r0
 1013 0008 0B43     		orrs	r3, r3, r1
 1014 000a 5360     		str	r3, [r2, #4]
 629:Drivers/STM32H7xx_HAL_Driver/Src/stm32h7xx_hal.c **** }
 1015              		.loc 1 629 1 is_stmt 0 view .LVU189
 1016 000c 7047     		bx	lr
 1017              	.L100:
 1018 000e 00BF     		.align	2
 1019              	.L99:
 1020 0010 00040058 		.word	1476396032
 1021              		.cfi_endproc
 1022              	.LFE166:
 1024              		.section	.text.HAL_SYSCFG_EnableBOOST,"ax",%progbits
 1025              		.align	1
 1026              		.global	HAL_SYSCFG_EnableBOOST
 1027              		.syntax unified
 1028              		.thumb
 1029              		.thumb_func
 1030              		.fpu fpv5-d16
 1032              	HAL_SYSCFG_EnableBOOST:
 1033              	.LFB167:
 630:Drivers/STM32H7xx_HAL_Driver/Src/stm32h7xx_hal.c **** 
 631:Drivers/STM32H7xx_HAL_Driver/Src/stm32h7xx_hal.c **** 
 632:Drivers/STM32H7xx_HAL_Driver/Src/stm32h7xx_hal.c **** /**
 633:Drivers/STM32H7xx_HAL_Driver/Src/stm32h7xx_hal.c ****   * @brief  Enables the booster to reduce the total harmonic distortion of the analog
 634:Drivers/STM32H7xx_HAL_Driver/Src/stm32h7xx_hal.c ****   *         switch when the supply voltage is lower than 2.7 V.
 635:Drivers/STM32H7xx_HAL_Driver/Src/stm32h7xx_hal.c ****   * @note   Activating the booster allows to guaranty the analog switch AC performance
 636:Drivers/STM32H7xx_HAL_Driver/Src/stm32h7xx_hal.c ****   *         when the supply voltage is below 2.7 V: in this case, the analog switch
 637:Drivers/STM32H7xx_HAL_Driver/Src/stm32h7xx_hal.c ****   *         performance is the same on the full voltage range
 638:Drivers/STM32H7xx_HAL_Driver/Src/stm32h7xx_hal.c ****   * @retval None
 639:Drivers/STM32H7xx_HAL_Driver/Src/stm32h7xx_hal.c ****   */
 640:Drivers/STM32H7xx_HAL_Driver/Src/stm32h7xx_hal.c **** void HAL_SYSCFG_EnableBOOST(void)
 641:Drivers/STM32H7xx_HAL_Driver/Src/stm32h7xx_hal.c **** {
 1034              		.loc 1 641 1 is_stmt 1 view -0
 1035              		.cfi_startproc
 1036              		@ args = 0, pretend = 0, frame = 0
 1037              		@ frame_needed = 0, uses_anonymous_args = 0
 1038              		@ link register save eliminated.
 642:Drivers/STM32H7xx_HAL_Driver/Src/stm32h7xx_hal.c ****  SET_BIT(SYSCFG->PMCR, SYSCFG_PMCR_BOOSTEN) ;
 1039              		.loc 1 642 2 view .LVU191
 1040 0000 024A     		ldr	r2, .L102
 1041 0002 5368     		ldr	r3, [r2, #4]
 1042 0004 43F48073 		orr	r3, r3, #256
 1043 0008 5360     		str	r3, [r2, #4]
 643:Drivers/STM32H7xx_HAL_Driver/Src/stm32h7xx_hal.c **** }
 1044              		.loc 1 643 1 is_stmt 0 view .LVU192
 1045 000a 7047     		bx	lr
 1046              	.L103:
 1047              		.align	2
 1048              	.L102:
ARM GAS  /tmp/cclcb5qw.s 			page 31


 1049 000c 00040058 		.word	1476396032
 1050              		.cfi_endproc
 1051              	.LFE167:
 1053              		.section	.text.HAL_SYSCFG_DisableBOOST,"ax",%progbits
 1054              		.align	1
 1055              		.global	HAL_SYSCFG_DisableBOOST
 1056              		.syntax unified
 1057              		.thumb
 1058              		.thumb_func
 1059              		.fpu fpv5-d16
 1061              	HAL_SYSCFG_DisableBOOST:
 1062              	.LFB168:
 644:Drivers/STM32H7xx_HAL_Driver/Src/stm32h7xx_hal.c **** 
 645:Drivers/STM32H7xx_HAL_Driver/Src/stm32h7xx_hal.c **** /**
 646:Drivers/STM32H7xx_HAL_Driver/Src/stm32h7xx_hal.c ****   * @brief  Disables the booster
 647:Drivers/STM32H7xx_HAL_Driver/Src/stm32h7xx_hal.c ****   * @note   Activating the booster allows to guaranty the analog switch AC performance
 648:Drivers/STM32H7xx_HAL_Driver/Src/stm32h7xx_hal.c ****   *         when the supply voltage is below 2.7 V: in this case, the analog switch
 649:Drivers/STM32H7xx_HAL_Driver/Src/stm32h7xx_hal.c ****   *         performance is the same on the full voltage range
 650:Drivers/STM32H7xx_HAL_Driver/Src/stm32h7xx_hal.c ****   * @retval None
 651:Drivers/STM32H7xx_HAL_Driver/Src/stm32h7xx_hal.c ****   */
 652:Drivers/STM32H7xx_HAL_Driver/Src/stm32h7xx_hal.c **** void HAL_SYSCFG_DisableBOOST(void)
 653:Drivers/STM32H7xx_HAL_Driver/Src/stm32h7xx_hal.c **** {
 1063              		.loc 1 653 1 is_stmt 1 view -0
 1064              		.cfi_startproc
 1065              		@ args = 0, pretend = 0, frame = 0
 1066              		@ frame_needed = 0, uses_anonymous_args = 0
 1067              		@ link register save eliminated.
 654:Drivers/STM32H7xx_HAL_Driver/Src/stm32h7xx_hal.c ****  CLEAR_BIT(SYSCFG->PMCR, SYSCFG_PMCR_BOOSTEN) ;
 1068              		.loc 1 654 2 view .LVU194
 1069 0000 024A     		ldr	r2, .L105
 1070 0002 5368     		ldr	r3, [r2, #4]
 1071 0004 23F48073 		bic	r3, r3, #256
 1072 0008 5360     		str	r3, [r2, #4]
 655:Drivers/STM32H7xx_HAL_Driver/Src/stm32h7xx_hal.c **** }
 1073              		.loc 1 655 1 is_stmt 0 view .LVU195
 1074 000a 7047     		bx	lr
 1075              	.L106:
 1076              		.align	2
 1077              	.L105:
 1078 000c 00040058 		.word	1476396032
 1079              		.cfi_endproc
 1080              	.LFE168:
 1082              		.section	.text.HAL_SYSCFG_CM7BootAddConfig,"ax",%progbits
 1083              		.align	1
 1084              		.global	HAL_SYSCFG_CM7BootAddConfig
 1085              		.syntax unified
 1086              		.thumb
 1087              		.thumb_func
 1088              		.fpu fpv5-d16
 1090              	HAL_SYSCFG_CM7BootAddConfig:
 1091              	.LVL33:
 1092              	.LFB169:
 656:Drivers/STM32H7xx_HAL_Driver/Src/stm32h7xx_hal.c **** 
 657:Drivers/STM32H7xx_HAL_Driver/Src/stm32h7xx_hal.c **** 
 658:Drivers/STM32H7xx_HAL_Driver/Src/stm32h7xx_hal.c **** /**
 659:Drivers/STM32H7xx_HAL_Driver/Src/stm32h7xx_hal.c ****   * @brief  BootCM7 address 0 configuration
 660:Drivers/STM32H7xx_HAL_Driver/Src/stm32h7xx_hal.c ****   * @param  BootRegister :Specifies the Boot Address register (Address0 or Address1)
ARM GAS  /tmp/cclcb5qw.s 			page 32


 661:Drivers/STM32H7xx_HAL_Driver/Src/stm32h7xx_hal.c ****   *   This parameter can be one of the following values:
 662:Drivers/STM32H7xx_HAL_Driver/Src/stm32h7xx_hal.c ****   *   @arg SYSCFG_BOOT_ADDR0 : Select the boot address0
 663:Drivers/STM32H7xx_HAL_Driver/Src/stm32h7xx_hal.c ****   *   @arg SYSCFG_BOOT_ADDR1:  Select the boot address1
 664:Drivers/STM32H7xx_HAL_Driver/Src/stm32h7xx_hal.c ****   * @param  BootAddress :Specifies the CM7 Boot Address to be loaded in Address0 or Address1
 665:Drivers/STM32H7xx_HAL_Driver/Src/stm32h7xx_hal.c ****   * @retval None
 666:Drivers/STM32H7xx_HAL_Driver/Src/stm32h7xx_hal.c ****   */
 667:Drivers/STM32H7xx_HAL_Driver/Src/stm32h7xx_hal.c **** void HAL_SYSCFG_CM7BootAddConfig(uint32_t BootRegister, uint32_t BootAddress)
 668:Drivers/STM32H7xx_HAL_Driver/Src/stm32h7xx_hal.c **** {
 1093              		.loc 1 668 1 is_stmt 1 view -0
 1094              		.cfi_startproc
 1095              		@ args = 0, pretend = 0, frame = 0
 1096              		@ frame_needed = 0, uses_anonymous_args = 0
 1097              		@ link register save eliminated.
 669:Drivers/STM32H7xx_HAL_Driver/Src/stm32h7xx_hal.c ****   /* Check the parameters */
 670:Drivers/STM32H7xx_HAL_Driver/Src/stm32h7xx_hal.c ****   assert_param(IS_SYSCFG_BOOT_REGISTER(BootRegister));
 1098              		.loc 1 670 3 view .LVU197
 671:Drivers/STM32H7xx_HAL_Driver/Src/stm32h7xx_hal.c ****   assert_param(IS_SYSCFG_BOOT_ADDRESS(BootAddress));
 1099              		.loc 1 671 3 view .LVU198
 672:Drivers/STM32H7xx_HAL_Driver/Src/stm32h7xx_hal.c ****   if ( BootRegister == SYSCFG_BOOT_ADDR0 )
 1100              		.loc 1 672 3 view .LVU199
 1101              		.loc 1 672 6 is_stmt 0 view .LVU200
 1102 0000 48B9     		cbnz	r0, .L108
 673:Drivers/STM32H7xx_HAL_Driver/Src/stm32h7xx_hal.c ****   {
 674:Drivers/STM32H7xx_HAL_Driver/Src/stm32h7xx_hal.c ****     /* Configure CM7 BOOT ADD0 */
 675:Drivers/STM32H7xx_HAL_Driver/Src/stm32h7xx_hal.c **** #if defined(DUAL_CORE)
 676:Drivers/STM32H7xx_HAL_Driver/Src/stm32h7xx_hal.c ****     MODIFY_REG(SYSCFG->UR2, SYSCFG_UR2_BCM7_ADD0, ((BootAddress >> 16) << SYSCFG_UR2_BCM7_ADD0_Pos)
 677:Drivers/STM32H7xx_HAL_Driver/Src/stm32h7xx_hal.c **** #else
 678:Drivers/STM32H7xx_HAL_Driver/Src/stm32h7xx_hal.c ****     MODIFY_REG(SYSCFG->UR2, SYSCFG_UR2_BOOT_ADD0, ((BootAddress >> 16) << SYSCFG_UR2_BOOT_ADD0_Pos)
 1103              		.loc 1 678 5 is_stmt 1 view .LVU201
 1104 0002 0A48     		ldr	r0, .L110
 1105              	.LVL34:
 1106              		.loc 1 678 5 is_stmt 0 view .LVU202
 1107 0004 D0F80833 		ldr	r3, [r0, #776]
 1108 0008 9BB2     		uxth	r3, r3
 1109 000a 094A     		ldr	r2, .L110+4
 1110 000c 0A40     		ands	r2, r2, r1
 1111 000e 1343     		orrs	r3, r3, r2
 1112 0010 C0F80833 		str	r3, [r0, #776]
 1113 0014 7047     		bx	lr
 1114              	.LVL35:
 1115              	.L108:
 679:Drivers/STM32H7xx_HAL_Driver/Src/stm32h7xx_hal.c **** #endif /*DUAL_CORE*/
 680:Drivers/STM32H7xx_HAL_Driver/Src/stm32h7xx_hal.c ****   }
 681:Drivers/STM32H7xx_HAL_Driver/Src/stm32h7xx_hal.c ****   else
 682:Drivers/STM32H7xx_HAL_Driver/Src/stm32h7xx_hal.c ****   {
 683:Drivers/STM32H7xx_HAL_Driver/Src/stm32h7xx_hal.c ****     /* Configure CM7 BOOT ADD1 */
 684:Drivers/STM32H7xx_HAL_Driver/Src/stm32h7xx_hal.c **** #if defined(DUAL_CORE)
 685:Drivers/STM32H7xx_HAL_Driver/Src/stm32h7xx_hal.c ****     MODIFY_REG(SYSCFG->UR3, SYSCFG_UR3_BCM7_ADD1, (BootAddress >> 16));
 686:Drivers/STM32H7xx_HAL_Driver/Src/stm32h7xx_hal.c **** #else
 687:Drivers/STM32H7xx_HAL_Driver/Src/stm32h7xx_hal.c ****     MODIFY_REG(SYSCFG->UR3, SYSCFG_UR3_BOOT_ADD1, (BootAddress >> 16));
 1116              		.loc 1 687 5 is_stmt 1 view .LVU203
 1117 0016 054A     		ldr	r2, .L110
 1118 0018 D2F80C03 		ldr	r0, [r2, #780]
 1119              	.LVL36:
 1120              		.loc 1 687 5 is_stmt 0 view .LVU204
 1121 001c 044B     		ldr	r3, .L110+4
 1122 001e 0340     		ands	r3, r3, r0
ARM GAS  /tmp/cclcb5qw.s 			page 33


 1123 0020 43EA1141 		orr	r1, r3, r1, lsr #16
 1124              	.LVL37:
 1125              		.loc 1 687 5 view .LVU205
 1126 0024 C2F80C13 		str	r1, [r2, #780]
 688:Drivers/STM32H7xx_HAL_Driver/Src/stm32h7xx_hal.c **** #endif /*DUAL_CORE*/
 689:Drivers/STM32H7xx_HAL_Driver/Src/stm32h7xx_hal.c ****   }
 690:Drivers/STM32H7xx_HAL_Driver/Src/stm32h7xx_hal.c **** 
 691:Drivers/STM32H7xx_HAL_Driver/Src/stm32h7xx_hal.c **** }
 1127              		.loc 1 691 1 view .LVU206
 1128 0028 7047     		bx	lr
 1129              	.L111:
 1130 002a 00BF     		.align	2
 1131              	.L110:
 1132 002c 00040058 		.word	1476396032
 1133 0030 0000FFFF 		.word	-65536
 1134              		.cfi_endproc
 1135              	.LFE169:
 1137              		.section	.text.HAL_EnableCompensationCell,"ax",%progbits
 1138              		.align	1
 1139              		.global	HAL_EnableCompensationCell
 1140              		.syntax unified
 1141              		.thumb
 1142              		.thumb_func
 1143              		.fpu fpv5-d16
 1145              	HAL_EnableCompensationCell:
 1146              	.LFB170:
 692:Drivers/STM32H7xx_HAL_Driver/Src/stm32h7xx_hal.c **** 
 693:Drivers/STM32H7xx_HAL_Driver/Src/stm32h7xx_hal.c **** #if defined(DUAL_CORE)
 694:Drivers/STM32H7xx_HAL_Driver/Src/stm32h7xx_hal.c **** /**
 695:Drivers/STM32H7xx_HAL_Driver/Src/stm32h7xx_hal.c ****   * @brief  BootCM4 address 0 configuration
 696:Drivers/STM32H7xx_HAL_Driver/Src/stm32h7xx_hal.c ****   * @param  BootRegister :Specifies the Boot Address register (Address0 or Address1)
 697:Drivers/STM32H7xx_HAL_Driver/Src/stm32h7xx_hal.c ****   *   This parameter can be one of the following values:
 698:Drivers/STM32H7xx_HAL_Driver/Src/stm32h7xx_hal.c ****   *   @arg SYSCFG_BOOT_ADDR0 : Select the boot address0
 699:Drivers/STM32H7xx_HAL_Driver/Src/stm32h7xx_hal.c ****   *   @arg SYSCFG_BOOT_ADDR1:  Select the boot address1
 700:Drivers/STM32H7xx_HAL_Driver/Src/stm32h7xx_hal.c ****   * @param  BootAddress :Specifies the CM4 Boot Address to be loaded in Address0 or Address1
 701:Drivers/STM32H7xx_HAL_Driver/Src/stm32h7xx_hal.c ****   * @retval None
 702:Drivers/STM32H7xx_HAL_Driver/Src/stm32h7xx_hal.c ****   */
 703:Drivers/STM32H7xx_HAL_Driver/Src/stm32h7xx_hal.c **** void HAL_SYSCFG_CM4BootAddConfig(uint32_t BootRegister, uint32_t BootAddress)
 704:Drivers/STM32H7xx_HAL_Driver/Src/stm32h7xx_hal.c **** {
 705:Drivers/STM32H7xx_HAL_Driver/Src/stm32h7xx_hal.c ****   /* Check the parameters */
 706:Drivers/STM32H7xx_HAL_Driver/Src/stm32h7xx_hal.c ****   assert_param(IS_SYSCFG_BOOT_REGISTER(BootRegister));
 707:Drivers/STM32H7xx_HAL_Driver/Src/stm32h7xx_hal.c ****   assert_param(IS_SYSCFG_BOOT_ADDRESS(BootAddress));
 708:Drivers/STM32H7xx_HAL_Driver/Src/stm32h7xx_hal.c **** 
 709:Drivers/STM32H7xx_HAL_Driver/Src/stm32h7xx_hal.c ****   if ( BootRegister == SYSCFG_BOOT_ADDR0 )
 710:Drivers/STM32H7xx_HAL_Driver/Src/stm32h7xx_hal.c ****   {
 711:Drivers/STM32H7xx_HAL_Driver/Src/stm32h7xx_hal.c ****     /* Configure CM4 BOOT ADD0 */
 712:Drivers/STM32H7xx_HAL_Driver/Src/stm32h7xx_hal.c ****     MODIFY_REG(SYSCFG->UR3, SYSCFG_UR3_BCM4_ADD0, ((BootAddress >> 16)<< SYSCFG_UR3_BCM4_ADD0_Pos))
 713:Drivers/STM32H7xx_HAL_Driver/Src/stm32h7xx_hal.c ****   }
 714:Drivers/STM32H7xx_HAL_Driver/Src/stm32h7xx_hal.c **** 
 715:Drivers/STM32H7xx_HAL_Driver/Src/stm32h7xx_hal.c ****   else
 716:Drivers/STM32H7xx_HAL_Driver/Src/stm32h7xx_hal.c ****   {
 717:Drivers/STM32H7xx_HAL_Driver/Src/stm32h7xx_hal.c ****     /* Configure CM4 BOOT ADD1 */
 718:Drivers/STM32H7xx_HAL_Driver/Src/stm32h7xx_hal.c ****     MODIFY_REG(SYSCFG->UR4, SYSCFG_UR4_BCM4_ADD1, (BootAddress >> 16));
 719:Drivers/STM32H7xx_HAL_Driver/Src/stm32h7xx_hal.c ****   }
 720:Drivers/STM32H7xx_HAL_Driver/Src/stm32h7xx_hal.c **** }
 721:Drivers/STM32H7xx_HAL_Driver/Src/stm32h7xx_hal.c **** 
 722:Drivers/STM32H7xx_HAL_Driver/Src/stm32h7xx_hal.c **** /**
ARM GAS  /tmp/cclcb5qw.s 			page 34


 723:Drivers/STM32H7xx_HAL_Driver/Src/stm32h7xx_hal.c ****   * @brief  Enables the Cortex-M7 boot
 724:Drivers/STM32H7xx_HAL_Driver/Src/stm32h7xx_hal.c ****   * @retval None
 725:Drivers/STM32H7xx_HAL_Driver/Src/stm32h7xx_hal.c ****   */
 726:Drivers/STM32H7xx_HAL_Driver/Src/stm32h7xx_hal.c **** void HAL_SYSCFG_EnableCM7BOOT(void)
 727:Drivers/STM32H7xx_HAL_Driver/Src/stm32h7xx_hal.c **** {
 728:Drivers/STM32H7xx_HAL_Driver/Src/stm32h7xx_hal.c ****  SET_BIT(SYSCFG->UR1, SYSCFG_UR1_BCM7);
 729:Drivers/STM32H7xx_HAL_Driver/Src/stm32h7xx_hal.c **** }
 730:Drivers/STM32H7xx_HAL_Driver/Src/stm32h7xx_hal.c **** 
 731:Drivers/STM32H7xx_HAL_Driver/Src/stm32h7xx_hal.c **** /**
 732:Drivers/STM32H7xx_HAL_Driver/Src/stm32h7xx_hal.c ****   * @brief  Disables the Cortex-M7 boot
 733:Drivers/STM32H7xx_HAL_Driver/Src/stm32h7xx_hal.c ****   * @note   Disabling the boot will gate the CPU clock
 734:Drivers/STM32H7xx_HAL_Driver/Src/stm32h7xx_hal.c ****   * @retval None
 735:Drivers/STM32H7xx_HAL_Driver/Src/stm32h7xx_hal.c ****   */
 736:Drivers/STM32H7xx_HAL_Driver/Src/stm32h7xx_hal.c **** void HAL_SYSCFG_DisableCM7BOOT(void)
 737:Drivers/STM32H7xx_HAL_Driver/Src/stm32h7xx_hal.c **** {
 738:Drivers/STM32H7xx_HAL_Driver/Src/stm32h7xx_hal.c ****  CLEAR_BIT(SYSCFG->UR1, SYSCFG_UR1_BCM7) ;
 739:Drivers/STM32H7xx_HAL_Driver/Src/stm32h7xx_hal.c **** }
 740:Drivers/STM32H7xx_HAL_Driver/Src/stm32h7xx_hal.c **** 
 741:Drivers/STM32H7xx_HAL_Driver/Src/stm32h7xx_hal.c **** /**
 742:Drivers/STM32H7xx_HAL_Driver/Src/stm32h7xx_hal.c ****   * @brief  Enables the Cortex-M4 boot
 743:Drivers/STM32H7xx_HAL_Driver/Src/stm32h7xx_hal.c ****   * @retval None
 744:Drivers/STM32H7xx_HAL_Driver/Src/stm32h7xx_hal.c ****   */
 745:Drivers/STM32H7xx_HAL_Driver/Src/stm32h7xx_hal.c **** void HAL_SYSCFG_EnableCM4BOOT(void)
 746:Drivers/STM32H7xx_HAL_Driver/Src/stm32h7xx_hal.c **** {
 747:Drivers/STM32H7xx_HAL_Driver/Src/stm32h7xx_hal.c ****  SET_BIT(SYSCFG->UR1, SYSCFG_UR1_BCM4);
 748:Drivers/STM32H7xx_HAL_Driver/Src/stm32h7xx_hal.c **** }
 749:Drivers/STM32H7xx_HAL_Driver/Src/stm32h7xx_hal.c **** 
 750:Drivers/STM32H7xx_HAL_Driver/Src/stm32h7xx_hal.c **** /**
 751:Drivers/STM32H7xx_HAL_Driver/Src/stm32h7xx_hal.c ****   * @brief  Disables the Cortex-M4 boot
 752:Drivers/STM32H7xx_HAL_Driver/Src/stm32h7xx_hal.c ****   * @note   Disabling the boot will gate the CPU clock
 753:Drivers/STM32H7xx_HAL_Driver/Src/stm32h7xx_hal.c ****   * @retval None
 754:Drivers/STM32H7xx_HAL_Driver/Src/stm32h7xx_hal.c ****   */
 755:Drivers/STM32H7xx_HAL_Driver/Src/stm32h7xx_hal.c **** void HAL_SYSCFG_DisableCM4BOOT(void)
 756:Drivers/STM32H7xx_HAL_Driver/Src/stm32h7xx_hal.c **** {
 757:Drivers/STM32H7xx_HAL_Driver/Src/stm32h7xx_hal.c ****   CLEAR_BIT(SYSCFG->UR1, SYSCFG_UR1_BCM4);
 758:Drivers/STM32H7xx_HAL_Driver/Src/stm32h7xx_hal.c **** }
 759:Drivers/STM32H7xx_HAL_Driver/Src/stm32h7xx_hal.c **** #endif /*DUAL_CORE*/
 760:Drivers/STM32H7xx_HAL_Driver/Src/stm32h7xx_hal.c **** 
 761:Drivers/STM32H7xx_HAL_Driver/Src/stm32h7xx_hal.c **** /**
 762:Drivers/STM32H7xx_HAL_Driver/Src/stm32h7xx_hal.c ****   * @brief  Enables the I/O Compensation Cell.
 763:Drivers/STM32H7xx_HAL_Driver/Src/stm32h7xx_hal.c ****   * @note   The I/O compensation cell can be used only when the device supply
 764:Drivers/STM32H7xx_HAL_Driver/Src/stm32h7xx_hal.c ****   *         voltage ranges from 2.4 to 3.6 V.
 765:Drivers/STM32H7xx_HAL_Driver/Src/stm32h7xx_hal.c ****   * @retval None
 766:Drivers/STM32H7xx_HAL_Driver/Src/stm32h7xx_hal.c ****   */
 767:Drivers/STM32H7xx_HAL_Driver/Src/stm32h7xx_hal.c **** void HAL_EnableCompensationCell(void)
 768:Drivers/STM32H7xx_HAL_Driver/Src/stm32h7xx_hal.c **** {
 1147              		.loc 1 768 1 is_stmt 1 view -0
 1148              		.cfi_startproc
 1149              		@ args = 0, pretend = 0, frame = 0
 1150              		@ frame_needed = 0, uses_anonymous_args = 0
 1151              		@ link register save eliminated.
 769:Drivers/STM32H7xx_HAL_Driver/Src/stm32h7xx_hal.c ****   SET_BIT(SYSCFG->CCCSR, SYSCFG_CCCSR_EN) ;
 1152              		.loc 1 769 3 view .LVU208
 1153 0000 024A     		ldr	r2, .L113
 1154 0002 136A     		ldr	r3, [r2, #32]
 1155 0004 43F00103 		orr	r3, r3, #1
 1156 0008 1362     		str	r3, [r2, #32]
ARM GAS  /tmp/cclcb5qw.s 			page 35


 770:Drivers/STM32H7xx_HAL_Driver/Src/stm32h7xx_hal.c **** }
 1157              		.loc 1 770 1 is_stmt 0 view .LVU209
 1158 000a 7047     		bx	lr
 1159              	.L114:
 1160              		.align	2
 1161              	.L113:
 1162 000c 00040058 		.word	1476396032
 1163              		.cfi_endproc
 1164              	.LFE170:
 1166              		.section	.text.HAL_DisableCompensationCell,"ax",%progbits
 1167              		.align	1
 1168              		.global	HAL_DisableCompensationCell
 1169              		.syntax unified
 1170              		.thumb
 1171              		.thumb_func
 1172              		.fpu fpv5-d16
 1174              	HAL_DisableCompensationCell:
 1175              	.LFB171:
 771:Drivers/STM32H7xx_HAL_Driver/Src/stm32h7xx_hal.c **** 
 772:Drivers/STM32H7xx_HAL_Driver/Src/stm32h7xx_hal.c **** /**
 773:Drivers/STM32H7xx_HAL_Driver/Src/stm32h7xx_hal.c ****   * @brief  Power-down the I/O Compensation Cell.
 774:Drivers/STM32H7xx_HAL_Driver/Src/stm32h7xx_hal.c ****   * @note   The I/O compensation cell can be used only when the device supply
 775:Drivers/STM32H7xx_HAL_Driver/Src/stm32h7xx_hal.c ****   *         voltage ranges from 2.4 to 3.6 V.
 776:Drivers/STM32H7xx_HAL_Driver/Src/stm32h7xx_hal.c ****   * @retval None
 777:Drivers/STM32H7xx_HAL_Driver/Src/stm32h7xx_hal.c ****   */
 778:Drivers/STM32H7xx_HAL_Driver/Src/stm32h7xx_hal.c **** void HAL_DisableCompensationCell(void)
 779:Drivers/STM32H7xx_HAL_Driver/Src/stm32h7xx_hal.c **** {
 1176              		.loc 1 779 1 is_stmt 1 view -0
 1177              		.cfi_startproc
 1178              		@ args = 0, pretend = 0, frame = 0
 1179              		@ frame_needed = 0, uses_anonymous_args = 0
 1180              		@ link register save eliminated.
 780:Drivers/STM32H7xx_HAL_Driver/Src/stm32h7xx_hal.c ****   CLEAR_BIT(SYSCFG->CCCSR, SYSCFG_CCCSR_EN);
 1181              		.loc 1 780 3 view .LVU211
 1182 0000 024A     		ldr	r2, .L116
 1183 0002 136A     		ldr	r3, [r2, #32]
 1184 0004 23F00103 		bic	r3, r3, #1
 1185 0008 1362     		str	r3, [r2, #32]
 781:Drivers/STM32H7xx_HAL_Driver/Src/stm32h7xx_hal.c **** }
 1186              		.loc 1 781 1 is_stmt 0 view .LVU212
 1187 000a 7047     		bx	lr
 1188              	.L117:
 1189              		.align	2
 1190              	.L116:
 1191 000c 00040058 		.word	1476396032
 1192              		.cfi_endproc
 1193              	.LFE171:
 1195              		.section	.text.HAL_SYSCFG_EnableIOSpeedOptimize,"ax",%progbits
 1196              		.align	1
 1197              		.global	HAL_SYSCFG_EnableIOSpeedOptimize
 1198              		.syntax unified
 1199              		.thumb
 1200              		.thumb_func
 1201              		.fpu fpv5-d16
 1203              	HAL_SYSCFG_EnableIOSpeedOptimize:
 1204              	.LFB172:
 782:Drivers/STM32H7xx_HAL_Driver/Src/stm32h7xx_hal.c **** 
ARM GAS  /tmp/cclcb5qw.s 			page 36


 783:Drivers/STM32H7xx_HAL_Driver/Src/stm32h7xx_hal.c **** 
 784:Drivers/STM32H7xx_HAL_Driver/Src/stm32h7xx_hal.c **** /**
 785:Drivers/STM32H7xx_HAL_Driver/Src/stm32h7xx_hal.c ****   * @brief  To Enable optimize the I/O speed when the product voltage is low.
 786:Drivers/STM32H7xx_HAL_Driver/Src/stm32h7xx_hal.c ****   * @note   This bit is active only if PRODUCT_BELOW_25V user option bit is set. It must be
 787:Drivers/STM32H7xx_HAL_Driver/Src/stm32h7xx_hal.c ****   *         used only if the product supply voltage is below 2.5 V. Setting this bit when VDD is
 788:Drivers/STM32H7xx_HAL_Driver/Src/stm32h7xx_hal.c ****   *         higher than 2.5 V might be destructive.
 789:Drivers/STM32H7xx_HAL_Driver/Src/stm32h7xx_hal.c ****   * @retval None
 790:Drivers/STM32H7xx_HAL_Driver/Src/stm32h7xx_hal.c ****   */
 791:Drivers/STM32H7xx_HAL_Driver/Src/stm32h7xx_hal.c **** void HAL_SYSCFG_EnableIOSpeedOptimize(void)
 792:Drivers/STM32H7xx_HAL_Driver/Src/stm32h7xx_hal.c **** {
 1205              		.loc 1 792 1 is_stmt 1 view -0
 1206              		.cfi_startproc
 1207              		@ args = 0, pretend = 0, frame = 0
 1208              		@ frame_needed = 0, uses_anonymous_args = 0
 1209              		@ link register save eliminated.
 793:Drivers/STM32H7xx_HAL_Driver/Src/stm32h7xx_hal.c ****   SET_BIT(SYSCFG->CCCSR, SYSCFG_CCCSR_HSLV);
 1210              		.loc 1 793 3 view .LVU214
 1211 0000 024A     		ldr	r2, .L119
 1212 0002 136A     		ldr	r3, [r2, #32]
 1213 0004 43F48033 		orr	r3, r3, #65536
 1214 0008 1362     		str	r3, [r2, #32]
 794:Drivers/STM32H7xx_HAL_Driver/Src/stm32h7xx_hal.c **** }
 1215              		.loc 1 794 1 is_stmt 0 view .LVU215
 1216 000a 7047     		bx	lr
 1217              	.L120:
 1218              		.align	2
 1219              	.L119:
 1220 000c 00040058 		.word	1476396032
 1221              		.cfi_endproc
 1222              	.LFE172:
 1224              		.section	.text.HAL_SYSCFG_DisableIOSpeedOptimize,"ax",%progbits
 1225              		.align	1
 1226              		.global	HAL_SYSCFG_DisableIOSpeedOptimize
 1227              		.syntax unified
 1228              		.thumb
 1229              		.thumb_func
 1230              		.fpu fpv5-d16
 1232              	HAL_SYSCFG_DisableIOSpeedOptimize:
 1233              	.LFB173:
 795:Drivers/STM32H7xx_HAL_Driver/Src/stm32h7xx_hal.c **** 
 796:Drivers/STM32H7xx_HAL_Driver/Src/stm32h7xx_hal.c **** /**
 797:Drivers/STM32H7xx_HAL_Driver/Src/stm32h7xx_hal.c ****   * @brief  To Disable optimize the I/O speed when the product voltage is low.
 798:Drivers/STM32H7xx_HAL_Driver/Src/stm32h7xx_hal.c ****   * @note   This bit is active only if PRODUCT_BELOW_25V user option bit is set. It must be
 799:Drivers/STM32H7xx_HAL_Driver/Src/stm32h7xx_hal.c ****   *         used only if the product supply voltage is below 2.5 V. Setting this bit when VDD is
 800:Drivers/STM32H7xx_HAL_Driver/Src/stm32h7xx_hal.c ****   *         higher than 2.5 V might be destructive.
 801:Drivers/STM32H7xx_HAL_Driver/Src/stm32h7xx_hal.c ****   * @retval None
 802:Drivers/STM32H7xx_HAL_Driver/Src/stm32h7xx_hal.c ****   */
 803:Drivers/STM32H7xx_HAL_Driver/Src/stm32h7xx_hal.c **** void HAL_SYSCFG_DisableIOSpeedOptimize(void)
 804:Drivers/STM32H7xx_HAL_Driver/Src/stm32h7xx_hal.c **** {
 1234              		.loc 1 804 1 is_stmt 1 view -0
 1235              		.cfi_startproc
 1236              		@ args = 0, pretend = 0, frame = 0
 1237              		@ frame_needed = 0, uses_anonymous_args = 0
 1238              		@ link register save eliminated.
 805:Drivers/STM32H7xx_HAL_Driver/Src/stm32h7xx_hal.c ****   CLEAR_BIT(SYSCFG->CCCSR, SYSCFG_CCCSR_HSLV);
 1239              		.loc 1 805 3 view .LVU217
 1240 0000 024A     		ldr	r2, .L122
ARM GAS  /tmp/cclcb5qw.s 			page 37


 1241 0002 136A     		ldr	r3, [r2, #32]
 1242 0004 23F48033 		bic	r3, r3, #65536
 1243 0008 1362     		str	r3, [r2, #32]
 806:Drivers/STM32H7xx_HAL_Driver/Src/stm32h7xx_hal.c **** }
 1244              		.loc 1 806 1 is_stmt 0 view .LVU218
 1245 000a 7047     		bx	lr
 1246              	.L123:
 1247              		.align	2
 1248              	.L122:
 1249 000c 00040058 		.word	1476396032
 1250              		.cfi_endproc
 1251              	.LFE173:
 1253              		.section	.text.HAL_SYSCFG_CompensationCodeSelect,"ax",%progbits
 1254              		.align	1
 1255              		.global	HAL_SYSCFG_CompensationCodeSelect
 1256              		.syntax unified
 1257              		.thumb
 1258              		.thumb_func
 1259              		.fpu fpv5-d16
 1261              	HAL_SYSCFG_CompensationCodeSelect:
 1262              	.LVL38:
 1263              	.LFB174:
 807:Drivers/STM32H7xx_HAL_Driver/Src/stm32h7xx_hal.c **** 
 808:Drivers/STM32H7xx_HAL_Driver/Src/stm32h7xx_hal.c **** /**
 809:Drivers/STM32H7xx_HAL_Driver/Src/stm32h7xx_hal.c ****   * @brief  Code selection for the I/O Compensation cell
 810:Drivers/STM32H7xx_HAL_Driver/Src/stm32h7xx_hal.c ****   * @param  SYSCFG_CompCode: Selects the code to be applied for the I/O compensation cell
 811:Drivers/STM32H7xx_HAL_Driver/Src/stm32h7xx_hal.c ****   *   This parameter can be one of the following values:
 812:Drivers/STM32H7xx_HAL_Driver/Src/stm32h7xx_hal.c ****   *   @arg SYSCFG_CELL_CODE : Select Code from the cell (available in the SYSCFG_CCVR)
 813:Drivers/STM32H7xx_HAL_Driver/Src/stm32h7xx_hal.c ****   *   @arg SYSCFG_REGISTER_CODE: Select Code from the SYSCFG compensation cell code register (SYSCF
 814:Drivers/STM32H7xx_HAL_Driver/Src/stm32h7xx_hal.c ****   * @retval None
 815:Drivers/STM32H7xx_HAL_Driver/Src/stm32h7xx_hal.c ****   */
 816:Drivers/STM32H7xx_HAL_Driver/Src/stm32h7xx_hal.c **** void HAL_SYSCFG_CompensationCodeSelect(uint32_t SYSCFG_CompCode)
 817:Drivers/STM32H7xx_HAL_Driver/Src/stm32h7xx_hal.c **** {
 1264              		.loc 1 817 1 is_stmt 1 view -0
 1265              		.cfi_startproc
 1266              		@ args = 0, pretend = 0, frame = 0
 1267              		@ frame_needed = 0, uses_anonymous_args = 0
 1268              		@ link register save eliminated.
 818:Drivers/STM32H7xx_HAL_Driver/Src/stm32h7xx_hal.c ****   /* Check the parameter */
 819:Drivers/STM32H7xx_HAL_Driver/Src/stm32h7xx_hal.c ****   assert_param(IS_SYSCFG_CODE_SELECT(SYSCFG_CompCode));
 1269              		.loc 1 819 3 view .LVU220
 820:Drivers/STM32H7xx_HAL_Driver/Src/stm32h7xx_hal.c ****   MODIFY_REG(SYSCFG->CCCSR, SYSCFG_CCCSR_CS, (uint32_t)(SYSCFG_CompCode));
 1270              		.loc 1 820 3 view .LVU221
 1271 0000 034A     		ldr	r2, .L125
 1272 0002 136A     		ldr	r3, [r2, #32]
 1273 0004 23F00203 		bic	r3, r3, #2
 1274 0008 0343     		orrs	r3, r3, r0
 1275 000a 1362     		str	r3, [r2, #32]
 821:Drivers/STM32H7xx_HAL_Driver/Src/stm32h7xx_hal.c **** }
 1276              		.loc 1 821 1 is_stmt 0 view .LVU222
 1277 000c 7047     		bx	lr
 1278              	.L126:
 1279 000e 00BF     		.align	2
 1280              	.L125:
 1281 0010 00040058 		.word	1476396032
 1282              		.cfi_endproc
 1283              	.LFE174:
ARM GAS  /tmp/cclcb5qw.s 			page 38


 1285              		.section	.text.HAL_SYSCFG_CompensationCodeConfig,"ax",%progbits
 1286              		.align	1
 1287              		.global	HAL_SYSCFG_CompensationCodeConfig
 1288              		.syntax unified
 1289              		.thumb
 1290              		.thumb_func
 1291              		.fpu fpv5-d16
 1293              	HAL_SYSCFG_CompensationCodeConfig:
 1294              	.LVL39:
 1295              	.LFB175:
 822:Drivers/STM32H7xx_HAL_Driver/Src/stm32h7xx_hal.c **** 
 823:Drivers/STM32H7xx_HAL_Driver/Src/stm32h7xx_hal.c **** /**
 824:Drivers/STM32H7xx_HAL_Driver/Src/stm32h7xx_hal.c ****   * @brief  Code selection for the I/O Compensation cell
 825:Drivers/STM32H7xx_HAL_Driver/Src/stm32h7xx_hal.c ****   * @param  SYSCFG_PMOSCode: PMOS compensation code
 826:Drivers/STM32H7xx_HAL_Driver/Src/stm32h7xx_hal.c ****   *         This code is applied to the I/O compensation cell when the CS bit of the
 827:Drivers/STM32H7xx_HAL_Driver/Src/stm32h7xx_hal.c ****   *          SYSCFG_CMPCR is set
 828:Drivers/STM32H7xx_HAL_Driver/Src/stm32h7xx_hal.c ****   * @param  SYSCFG_NMOSCode: NMOS compensation code
 829:Drivers/STM32H7xx_HAL_Driver/Src/stm32h7xx_hal.c ****   *         This code is applied to the I/O compensation cell when the CS bit of the
 830:Drivers/STM32H7xx_HAL_Driver/Src/stm32h7xx_hal.c ****   *          SYSCFG_CMPCR is set
 831:Drivers/STM32H7xx_HAL_Driver/Src/stm32h7xx_hal.c ****   * @retval None
 832:Drivers/STM32H7xx_HAL_Driver/Src/stm32h7xx_hal.c ****   */
 833:Drivers/STM32H7xx_HAL_Driver/Src/stm32h7xx_hal.c **** void HAL_SYSCFG_CompensationCodeConfig(uint32_t SYSCFG_PMOSCode, uint32_t SYSCFG_NMOSCode )
 834:Drivers/STM32H7xx_HAL_Driver/Src/stm32h7xx_hal.c **** {
 1296              		.loc 1 834 1 is_stmt 1 view -0
 1297              		.cfi_startproc
 1298              		@ args = 0, pretend = 0, frame = 0
 1299              		@ frame_needed = 0, uses_anonymous_args = 0
 1300              		@ link register save eliminated.
 835:Drivers/STM32H7xx_HAL_Driver/Src/stm32h7xx_hal.c ****   /* Check the parameter */
 836:Drivers/STM32H7xx_HAL_Driver/Src/stm32h7xx_hal.c ****   assert_param(IS_SYSCFG_CODE_CONFIG(SYSCFG_PMOSCode));
 1301              		.loc 1 836 3 view .LVU224
 837:Drivers/STM32H7xx_HAL_Driver/Src/stm32h7xx_hal.c ****   assert_param(IS_SYSCFG_CODE_CONFIG(SYSCFG_NMOSCode));
 1302              		.loc 1 837 3 view .LVU225
 838:Drivers/STM32H7xx_HAL_Driver/Src/stm32h7xx_hal.c ****   MODIFY_REG(SYSCFG->CCCR, SYSCFG_CCCR_NCC|SYSCFG_CCCR_PCC, (((uint32_t)(SYSCFG_PMOSCode)<< 4)|(uin
 1303              		.loc 1 838 3 view .LVU226
 1304 0000 044A     		ldr	r2, .L128
 1305 0002 936A     		ldr	r3, [r2, #40]
 1306 0004 23F0FF03 		bic	r3, r3, #255
 1307 0008 41EA0011 		orr	r1, r1, r0, lsl #4
 1308              	.LVL40:
 1309              		.loc 1 838 3 is_stmt 0 view .LVU227
 1310 000c 0B43     		orrs	r3, r3, r1
 1311 000e 9362     		str	r3, [r2, #40]
 839:Drivers/STM32H7xx_HAL_Driver/Src/stm32h7xx_hal.c **** }
 1312              		.loc 1 839 1 view .LVU228
 1313 0010 7047     		bx	lr
 1314              	.L129:
 1315 0012 00BF     		.align	2
 1316              	.L128:
 1317 0014 00040058 		.word	1476396032
 1318              		.cfi_endproc
 1319              	.LFE175:
 1321              		.section	.text.HAL_DBGMCU_EnableDBGSleepMode,"ax",%progbits
 1322              		.align	1
 1323              		.global	HAL_DBGMCU_EnableDBGSleepMode
 1324              		.syntax unified
 1325              		.thumb
ARM GAS  /tmp/cclcb5qw.s 			page 39


 1326              		.thumb_func
 1327              		.fpu fpv5-d16
 1329              	HAL_DBGMCU_EnableDBGSleepMode:
 1330              	.LFB176:
 840:Drivers/STM32H7xx_HAL_Driver/Src/stm32h7xx_hal.c **** 
 841:Drivers/STM32H7xx_HAL_Driver/Src/stm32h7xx_hal.c **** 
 842:Drivers/STM32H7xx_HAL_Driver/Src/stm32h7xx_hal.c **** /**
 843:Drivers/STM32H7xx_HAL_Driver/Src/stm32h7xx_hal.c ****   * @brief  Enable the Debug Module during Domain1 SLEEP mode
 844:Drivers/STM32H7xx_HAL_Driver/Src/stm32h7xx_hal.c ****   * @retval None
 845:Drivers/STM32H7xx_HAL_Driver/Src/stm32h7xx_hal.c ****   */
 846:Drivers/STM32H7xx_HAL_Driver/Src/stm32h7xx_hal.c **** void HAL_EnableDBGSleepMode(void)
 847:Drivers/STM32H7xx_HAL_Driver/Src/stm32h7xx_hal.c **** {
 1331              		.loc 1 847 1 is_stmt 1 view -0
 1332              		.cfi_startproc
 1333              		@ args = 0, pretend = 0, frame = 0
 1334              		@ frame_needed = 0, uses_anonymous_args = 0
 1335              		@ link register save eliminated.
 848:Drivers/STM32H7xx_HAL_Driver/Src/stm32h7xx_hal.c ****   SET_BIT(DBGMCU->CR, DBGMCU_CR_DBG_SLEEPD1);
 1336              		.loc 1 848 3 view .LVU230
 1337 0000 024A     		ldr	r2, .L131
 1338 0002 5368     		ldr	r3, [r2, #4]
 1339 0004 43F00103 		orr	r3, r3, #1
 1340 0008 5360     		str	r3, [r2, #4]
 849:Drivers/STM32H7xx_HAL_Driver/Src/stm32h7xx_hal.c **** }
 1341              		.loc 1 849 1 is_stmt 0 view .LVU231
 1342 000a 7047     		bx	lr
 1343              	.L132:
 1344              		.align	2
 1345              	.L131:
 1346 000c 0010005C 		.word	1543507968
 1347              		.cfi_endproc
 1348              	.LFE176:
 1350              		.section	.text.HAL_DBGMCU_DisableDBGSleepMode,"ax",%progbits
 1351              		.align	1
 1352              		.global	HAL_DBGMCU_DisableDBGSleepMode
 1353              		.syntax unified
 1354              		.thumb
 1355              		.thumb_func
 1356              		.fpu fpv5-d16
 1358              	HAL_DBGMCU_DisableDBGSleepMode:
 1359              	.LFB177:
 850:Drivers/STM32H7xx_HAL_Driver/Src/stm32h7xx_hal.c **** 
 851:Drivers/STM32H7xx_HAL_Driver/Src/stm32h7xx_hal.c **** /**
 852:Drivers/STM32H7xx_HAL_Driver/Src/stm32h7xx_hal.c ****   * @brief  Disable the Debug Module during Domain1 SLEEP mode
 853:Drivers/STM32H7xx_HAL_Driver/Src/stm32h7xx_hal.c ****   * @retval None
 854:Drivers/STM32H7xx_HAL_Driver/Src/stm32h7xx_hal.c ****   */
 855:Drivers/STM32H7xx_HAL_Driver/Src/stm32h7xx_hal.c **** void HAL_DisableDBGSleepMode(void)
 856:Drivers/STM32H7xx_HAL_Driver/Src/stm32h7xx_hal.c **** {
 1360              		.loc 1 856 1 is_stmt 1 view -0
 1361              		.cfi_startproc
 1362              		@ args = 0, pretend = 0, frame = 0
 1363              		@ frame_needed = 0, uses_anonymous_args = 0
 1364              		@ link register save eliminated.
 857:Drivers/STM32H7xx_HAL_Driver/Src/stm32h7xx_hal.c ****   CLEAR_BIT(DBGMCU->CR, DBGMCU_CR_DBG_SLEEPD1);
 1365              		.loc 1 857 3 view .LVU233
 1366 0000 024A     		ldr	r2, .L134
 1367 0002 5368     		ldr	r3, [r2, #4]
ARM GAS  /tmp/cclcb5qw.s 			page 40


 1368 0004 23F00103 		bic	r3, r3, #1
 1369 0008 5360     		str	r3, [r2, #4]
 858:Drivers/STM32H7xx_HAL_Driver/Src/stm32h7xx_hal.c **** }
 1370              		.loc 1 858 1 is_stmt 0 view .LVU234
 1371 000a 7047     		bx	lr
 1372              	.L135:
 1373              		.align	2
 1374              	.L134:
 1375 000c 0010005C 		.word	1543507968
 1376              		.cfi_endproc
 1377              	.LFE177:
 1379              		.section	.text.HAL_DBGMCU_EnableDBGStopMode,"ax",%progbits
 1380              		.align	1
 1381              		.global	HAL_DBGMCU_EnableDBGStopMode
 1382              		.syntax unified
 1383              		.thumb
 1384              		.thumb_func
 1385              		.fpu fpv5-d16
 1387              	HAL_DBGMCU_EnableDBGStopMode:
 1388              	.LFB178:
 859:Drivers/STM32H7xx_HAL_Driver/Src/stm32h7xx_hal.c **** 
 860:Drivers/STM32H7xx_HAL_Driver/Src/stm32h7xx_hal.c **** /**
 861:Drivers/STM32H7xx_HAL_Driver/Src/stm32h7xx_hal.c ****   * @brief  Enable the Debug Module during Domain1 STOP mode
 862:Drivers/STM32H7xx_HAL_Driver/Src/stm32h7xx_hal.c ****   * @retval None
 863:Drivers/STM32H7xx_HAL_Driver/Src/stm32h7xx_hal.c ****   */
 864:Drivers/STM32H7xx_HAL_Driver/Src/stm32h7xx_hal.c **** void HAL_EnableDBGStopMode(void)
 865:Drivers/STM32H7xx_HAL_Driver/Src/stm32h7xx_hal.c **** {
 1389              		.loc 1 865 1 is_stmt 1 view -0
 1390              		.cfi_startproc
 1391              		@ args = 0, pretend = 0, frame = 0
 1392              		@ frame_needed = 0, uses_anonymous_args = 0
 1393              		@ link register save eliminated.
 866:Drivers/STM32H7xx_HAL_Driver/Src/stm32h7xx_hal.c ****   SET_BIT(DBGMCU->CR, DBGMCU_CR_DBG_STOPD1);
 1394              		.loc 1 866 3 view .LVU236
 1395 0000 024A     		ldr	r2, .L137
 1396 0002 5368     		ldr	r3, [r2, #4]
 1397 0004 43F00203 		orr	r3, r3, #2
 1398 0008 5360     		str	r3, [r2, #4]
 867:Drivers/STM32H7xx_HAL_Driver/Src/stm32h7xx_hal.c **** }
 1399              		.loc 1 867 1 is_stmt 0 view .LVU237
 1400 000a 7047     		bx	lr
 1401              	.L138:
 1402              		.align	2
 1403              	.L137:
 1404 000c 0010005C 		.word	1543507968
 1405              		.cfi_endproc
 1406              	.LFE178:
 1408              		.section	.text.HAL_DBGMCU_DisableDBGStopMode,"ax",%progbits
 1409              		.align	1
 1410              		.global	HAL_DBGMCU_DisableDBGStopMode
 1411              		.syntax unified
 1412              		.thumb
 1413              		.thumb_func
 1414              		.fpu fpv5-d16
 1416              	HAL_DBGMCU_DisableDBGStopMode:
 1417              	.LFB179:
 868:Drivers/STM32H7xx_HAL_Driver/Src/stm32h7xx_hal.c **** 
ARM GAS  /tmp/cclcb5qw.s 			page 41


 869:Drivers/STM32H7xx_HAL_Driver/Src/stm32h7xx_hal.c **** /**
 870:Drivers/STM32H7xx_HAL_Driver/Src/stm32h7xx_hal.c ****   * @brief  Disable the Debug Module during Domain1 STOP mode
 871:Drivers/STM32H7xx_HAL_Driver/Src/stm32h7xx_hal.c ****   * @retval None
 872:Drivers/STM32H7xx_HAL_Driver/Src/stm32h7xx_hal.c ****   */
 873:Drivers/STM32H7xx_HAL_Driver/Src/stm32h7xx_hal.c **** void HAL_DisableDBGStopMode(void)
 874:Drivers/STM32H7xx_HAL_Driver/Src/stm32h7xx_hal.c **** {
 1418              		.loc 1 874 1 is_stmt 1 view -0
 1419              		.cfi_startproc
 1420              		@ args = 0, pretend = 0, frame = 0
 1421              		@ frame_needed = 0, uses_anonymous_args = 0
 1422              		@ link register save eliminated.
 875:Drivers/STM32H7xx_HAL_Driver/Src/stm32h7xx_hal.c ****   CLEAR_BIT(DBGMCU->CR, DBGMCU_CR_DBG_STOPD1);
 1423              		.loc 1 875 3 view .LVU239
 1424 0000 024A     		ldr	r2, .L140
 1425 0002 5368     		ldr	r3, [r2, #4]
 1426 0004 23F00203 		bic	r3, r3, #2
 1427 0008 5360     		str	r3, [r2, #4]
 876:Drivers/STM32H7xx_HAL_Driver/Src/stm32h7xx_hal.c **** }
 1428              		.loc 1 876 1 is_stmt 0 view .LVU240
 1429 000a 7047     		bx	lr
 1430              	.L141:
 1431              		.align	2
 1432              	.L140:
 1433 000c 0010005C 		.word	1543507968
 1434              		.cfi_endproc
 1435              	.LFE179:
 1437              		.section	.text.HAL_DBGMCU_EnableDBGStandbyMode,"ax",%progbits
 1438              		.align	1
 1439              		.global	HAL_DBGMCU_EnableDBGStandbyMode
 1440              		.syntax unified
 1441              		.thumb
 1442              		.thumb_func
 1443              		.fpu fpv5-d16
 1445              	HAL_DBGMCU_EnableDBGStandbyMode:
 1446              	.LFB180:
 877:Drivers/STM32H7xx_HAL_Driver/Src/stm32h7xx_hal.c **** 
 878:Drivers/STM32H7xx_HAL_Driver/Src/stm32h7xx_hal.c **** /**
 879:Drivers/STM32H7xx_HAL_Driver/Src/stm32h7xx_hal.c ****   * @brief  Enable the Debug Module during Domain1 STANDBY mode
 880:Drivers/STM32H7xx_HAL_Driver/Src/stm32h7xx_hal.c ****   * @retval None
 881:Drivers/STM32H7xx_HAL_Driver/Src/stm32h7xx_hal.c ****   */
 882:Drivers/STM32H7xx_HAL_Driver/Src/stm32h7xx_hal.c **** void HAL_EnableDBGStandbyMode(void)
 883:Drivers/STM32H7xx_HAL_Driver/Src/stm32h7xx_hal.c **** {
 1447              		.loc 1 883 1 is_stmt 1 view -0
 1448              		.cfi_startproc
 1449              		@ args = 0, pretend = 0, frame = 0
 1450              		@ frame_needed = 0, uses_anonymous_args = 0
 1451              		@ link register save eliminated.
 884:Drivers/STM32H7xx_HAL_Driver/Src/stm32h7xx_hal.c ****   SET_BIT(DBGMCU->CR, DBGMCU_CR_DBG_STANDBYD1);
 1452              		.loc 1 884 3 view .LVU242
 1453 0000 024A     		ldr	r2, .L143
 1454 0002 5368     		ldr	r3, [r2, #4]
 1455 0004 43F00403 		orr	r3, r3, #4
 1456 0008 5360     		str	r3, [r2, #4]
 885:Drivers/STM32H7xx_HAL_Driver/Src/stm32h7xx_hal.c **** }
 1457              		.loc 1 885 1 is_stmt 0 view .LVU243
 1458 000a 7047     		bx	lr
 1459              	.L144:
ARM GAS  /tmp/cclcb5qw.s 			page 42


 1460              		.align	2
 1461              	.L143:
 1462 000c 0010005C 		.word	1543507968
 1463              		.cfi_endproc
 1464              	.LFE180:
 1466              		.section	.text.HAL_DBGMCU_DisableDBGStandbyMode,"ax",%progbits
 1467              		.align	1
 1468              		.global	HAL_DBGMCU_DisableDBGStandbyMode
 1469              		.syntax unified
 1470              		.thumb
 1471              		.thumb_func
 1472              		.fpu fpv5-d16
 1474              	HAL_DBGMCU_DisableDBGStandbyMode:
 1475              	.LFB181:
 886:Drivers/STM32H7xx_HAL_Driver/Src/stm32h7xx_hal.c **** 
 887:Drivers/STM32H7xx_HAL_Driver/Src/stm32h7xx_hal.c **** /**
 888:Drivers/STM32H7xx_HAL_Driver/Src/stm32h7xx_hal.c ****   * @brief  Disable the Debug Module during Domain1 STANDBY mode
 889:Drivers/STM32H7xx_HAL_Driver/Src/stm32h7xx_hal.c ****   * @retval None
 890:Drivers/STM32H7xx_HAL_Driver/Src/stm32h7xx_hal.c ****   */
 891:Drivers/STM32H7xx_HAL_Driver/Src/stm32h7xx_hal.c **** void HAL_DisableDBGStandbyMode(void)
 892:Drivers/STM32H7xx_HAL_Driver/Src/stm32h7xx_hal.c **** {
 1476              		.loc 1 892 1 is_stmt 1 view -0
 1477              		.cfi_startproc
 1478              		@ args = 0, pretend = 0, frame = 0
 1479              		@ frame_needed = 0, uses_anonymous_args = 0
 1480              		@ link register save eliminated.
 893:Drivers/STM32H7xx_HAL_Driver/Src/stm32h7xx_hal.c ****   CLEAR_BIT(DBGMCU->CR, DBGMCU_CR_DBG_STANDBYD1);
 1481              		.loc 1 893 3 view .LVU245
 1482 0000 024A     		ldr	r2, .L146
 1483 0002 5368     		ldr	r3, [r2, #4]
 1484 0004 23F00403 		bic	r3, r3, #4
 1485 0008 5360     		str	r3, [r2, #4]
 894:Drivers/STM32H7xx_HAL_Driver/Src/stm32h7xx_hal.c **** }
 1486              		.loc 1 894 1 is_stmt 0 view .LVU246
 1487 000a 7047     		bx	lr
 1488              	.L147:
 1489              		.align	2
 1490              	.L146:
 1491 000c 0010005C 		.word	1543507968
 1492              		.cfi_endproc
 1493              	.LFE181:
 1495              		.section	.text.HAL_EnableDomain3DBGStopMode,"ax",%progbits
 1496              		.align	1
 1497              		.global	HAL_EnableDomain3DBGStopMode
 1498              		.syntax unified
 1499              		.thumb
 1500              		.thumb_func
 1501              		.fpu fpv5-d16
 1503              	HAL_EnableDomain3DBGStopMode:
 1504              	.LFB182:
 895:Drivers/STM32H7xx_HAL_Driver/Src/stm32h7xx_hal.c **** 
 896:Drivers/STM32H7xx_HAL_Driver/Src/stm32h7xx_hal.c **** #if defined(DUAL_CORE)
 897:Drivers/STM32H7xx_HAL_Driver/Src/stm32h7xx_hal.c **** /**
 898:Drivers/STM32H7xx_HAL_Driver/Src/stm32h7xx_hal.c ****   * @brief  Enable the Debug Module during Domain1 SLEEP mode
 899:Drivers/STM32H7xx_HAL_Driver/Src/stm32h7xx_hal.c ****   * @retval None
 900:Drivers/STM32H7xx_HAL_Driver/Src/stm32h7xx_hal.c ****   */
 901:Drivers/STM32H7xx_HAL_Driver/Src/stm32h7xx_hal.c **** void HAL_EnableDomain2DBGSleepMode(void)
ARM GAS  /tmp/cclcb5qw.s 			page 43


 902:Drivers/STM32H7xx_HAL_Driver/Src/stm32h7xx_hal.c **** {
 903:Drivers/STM32H7xx_HAL_Driver/Src/stm32h7xx_hal.c ****   SET_BIT(DBGMCU->CR, DBGMCU_CR_DBG_SLEEPD2);
 904:Drivers/STM32H7xx_HAL_Driver/Src/stm32h7xx_hal.c **** }
 905:Drivers/STM32H7xx_HAL_Driver/Src/stm32h7xx_hal.c **** 
 906:Drivers/STM32H7xx_HAL_Driver/Src/stm32h7xx_hal.c **** /**
 907:Drivers/STM32H7xx_HAL_Driver/Src/stm32h7xx_hal.c ****   * @brief  Disable the Debug Module during Domain2 SLEEP mode
 908:Drivers/STM32H7xx_HAL_Driver/Src/stm32h7xx_hal.c ****   * @retval None
 909:Drivers/STM32H7xx_HAL_Driver/Src/stm32h7xx_hal.c ****   */
 910:Drivers/STM32H7xx_HAL_Driver/Src/stm32h7xx_hal.c **** void HAL_DisableDomain2DBGSleepMode(void)
 911:Drivers/STM32H7xx_HAL_Driver/Src/stm32h7xx_hal.c **** {
 912:Drivers/STM32H7xx_HAL_Driver/Src/stm32h7xx_hal.c ****   CLEAR_BIT(DBGMCU->CR, DBGMCU_CR_DBG_SLEEPD2);
 913:Drivers/STM32H7xx_HAL_Driver/Src/stm32h7xx_hal.c **** }
 914:Drivers/STM32H7xx_HAL_Driver/Src/stm32h7xx_hal.c **** 
 915:Drivers/STM32H7xx_HAL_Driver/Src/stm32h7xx_hal.c **** /**
 916:Drivers/STM32H7xx_HAL_Driver/Src/stm32h7xx_hal.c ****   * @brief  Enable the Debug Module during Domain2 STOP mode
 917:Drivers/STM32H7xx_HAL_Driver/Src/stm32h7xx_hal.c ****   * @retval None
 918:Drivers/STM32H7xx_HAL_Driver/Src/stm32h7xx_hal.c ****   */
 919:Drivers/STM32H7xx_HAL_Driver/Src/stm32h7xx_hal.c **** void HAL_EnableDomain2DBGStopMode(void)
 920:Drivers/STM32H7xx_HAL_Driver/Src/stm32h7xx_hal.c **** {
 921:Drivers/STM32H7xx_HAL_Driver/Src/stm32h7xx_hal.c ****   SET_BIT(DBGMCU->CR, DBGMCU_CR_DBG_STOPD2);
 922:Drivers/STM32H7xx_HAL_Driver/Src/stm32h7xx_hal.c **** }
 923:Drivers/STM32H7xx_HAL_Driver/Src/stm32h7xx_hal.c **** 
 924:Drivers/STM32H7xx_HAL_Driver/Src/stm32h7xx_hal.c **** /**
 925:Drivers/STM32H7xx_HAL_Driver/Src/stm32h7xx_hal.c ****   * @brief  Disable the Debug Module during Domain2 STOP mode
 926:Drivers/STM32H7xx_HAL_Driver/Src/stm32h7xx_hal.c ****   * @retval None
 927:Drivers/STM32H7xx_HAL_Driver/Src/stm32h7xx_hal.c ****   */
 928:Drivers/STM32H7xx_HAL_Driver/Src/stm32h7xx_hal.c **** void HAL_DisableDomain2DBGStopMode(void)
 929:Drivers/STM32H7xx_HAL_Driver/Src/stm32h7xx_hal.c **** {
 930:Drivers/STM32H7xx_HAL_Driver/Src/stm32h7xx_hal.c ****   CLEAR_BIT(DBGMCU->CR, DBGMCU_CR_DBG_STOPD2);
 931:Drivers/STM32H7xx_HAL_Driver/Src/stm32h7xx_hal.c **** }
 932:Drivers/STM32H7xx_HAL_Driver/Src/stm32h7xx_hal.c **** 
 933:Drivers/STM32H7xx_HAL_Driver/Src/stm32h7xx_hal.c **** /**
 934:Drivers/STM32H7xx_HAL_Driver/Src/stm32h7xx_hal.c ****   * @brief  Enable the Debug Module during Domain2 STANDBY mode
 935:Drivers/STM32H7xx_HAL_Driver/Src/stm32h7xx_hal.c ****   * @retval None
 936:Drivers/STM32H7xx_HAL_Driver/Src/stm32h7xx_hal.c ****   */
 937:Drivers/STM32H7xx_HAL_Driver/Src/stm32h7xx_hal.c **** void HAL_EnableDomain2DBGStandbyMode(void)
 938:Drivers/STM32H7xx_HAL_Driver/Src/stm32h7xx_hal.c **** {
 939:Drivers/STM32H7xx_HAL_Driver/Src/stm32h7xx_hal.c ****   SET_BIT(DBGMCU->CR, DBGMCU_CR_DBG_STANDBYD2);
 940:Drivers/STM32H7xx_HAL_Driver/Src/stm32h7xx_hal.c **** }
 941:Drivers/STM32H7xx_HAL_Driver/Src/stm32h7xx_hal.c **** 
 942:Drivers/STM32H7xx_HAL_Driver/Src/stm32h7xx_hal.c **** /**
 943:Drivers/STM32H7xx_HAL_Driver/Src/stm32h7xx_hal.c ****   * @brief  Disable the Debug Module during Domain2 STANDBY mode
 944:Drivers/STM32H7xx_HAL_Driver/Src/stm32h7xx_hal.c ****   * @retval None
 945:Drivers/STM32H7xx_HAL_Driver/Src/stm32h7xx_hal.c ****   */
 946:Drivers/STM32H7xx_HAL_Driver/Src/stm32h7xx_hal.c **** void HAL_DisableDomain2DBGStandbyMode(void)
 947:Drivers/STM32H7xx_HAL_Driver/Src/stm32h7xx_hal.c **** {
 948:Drivers/STM32H7xx_HAL_Driver/Src/stm32h7xx_hal.c ****   CLEAR_BIT(DBGMCU->CR, DBGMCU_CR_DBG_STANDBYD2);
 949:Drivers/STM32H7xx_HAL_Driver/Src/stm32h7xx_hal.c **** }
 950:Drivers/STM32H7xx_HAL_Driver/Src/stm32h7xx_hal.c **** #endif /*DUAL_CORE*/
 951:Drivers/STM32H7xx_HAL_Driver/Src/stm32h7xx_hal.c **** 
 952:Drivers/STM32H7xx_HAL_Driver/Src/stm32h7xx_hal.c **** 
 953:Drivers/STM32H7xx_HAL_Driver/Src/stm32h7xx_hal.c **** /**
 954:Drivers/STM32H7xx_HAL_Driver/Src/stm32h7xx_hal.c ****   * @brief  Enable the Debug Module during Domain3 STOP mode
 955:Drivers/STM32H7xx_HAL_Driver/Src/stm32h7xx_hal.c ****   * @retval None
 956:Drivers/STM32H7xx_HAL_Driver/Src/stm32h7xx_hal.c ****   */
 957:Drivers/STM32H7xx_HAL_Driver/Src/stm32h7xx_hal.c **** void HAL_EnableDomain3DBGStopMode(void)
 958:Drivers/STM32H7xx_HAL_Driver/Src/stm32h7xx_hal.c **** {
ARM GAS  /tmp/cclcb5qw.s 			page 44


 1505              		.loc 1 958 1 is_stmt 1 view -0
 1506              		.cfi_startproc
 1507              		@ args = 0, pretend = 0, frame = 0
 1508              		@ frame_needed = 0, uses_anonymous_args = 0
 1509              		@ link register save eliminated.
 959:Drivers/STM32H7xx_HAL_Driver/Src/stm32h7xx_hal.c ****   SET_BIT(DBGMCU->CR, DBGMCU_CR_DBG_STOPD3);
 1510              		.loc 1 959 3 view .LVU248
 1511 0000 024A     		ldr	r2, .L149
 1512 0002 5368     		ldr	r3, [r2, #4]
 1513 0004 43F08003 		orr	r3, r3, #128
 1514 0008 5360     		str	r3, [r2, #4]
 960:Drivers/STM32H7xx_HAL_Driver/Src/stm32h7xx_hal.c **** }
 1515              		.loc 1 960 1 is_stmt 0 view .LVU249
 1516 000a 7047     		bx	lr
 1517              	.L150:
 1518              		.align	2
 1519              	.L149:
 1520 000c 0010005C 		.word	1543507968
 1521              		.cfi_endproc
 1522              	.LFE182:
 1524              		.section	.text.HAL_DisableDomain3DBGStopMode,"ax",%progbits
 1525              		.align	1
 1526              		.global	HAL_DisableDomain3DBGStopMode
 1527              		.syntax unified
 1528              		.thumb
 1529              		.thumb_func
 1530              		.fpu fpv5-d16
 1532              	HAL_DisableDomain3DBGStopMode:
 1533              	.LFB183:
 961:Drivers/STM32H7xx_HAL_Driver/Src/stm32h7xx_hal.c **** 
 962:Drivers/STM32H7xx_HAL_Driver/Src/stm32h7xx_hal.c **** /**
 963:Drivers/STM32H7xx_HAL_Driver/Src/stm32h7xx_hal.c ****   * @brief  Disable the Debug Module during Domain3 STOP mode
 964:Drivers/STM32H7xx_HAL_Driver/Src/stm32h7xx_hal.c ****   * @retval None
 965:Drivers/STM32H7xx_HAL_Driver/Src/stm32h7xx_hal.c ****   */
 966:Drivers/STM32H7xx_HAL_Driver/Src/stm32h7xx_hal.c **** void HAL_DisableDomain3DBGStopMode(void)
 967:Drivers/STM32H7xx_HAL_Driver/Src/stm32h7xx_hal.c **** {
 1534              		.loc 1 967 1 is_stmt 1 view -0
 1535              		.cfi_startproc
 1536              		@ args = 0, pretend = 0, frame = 0
 1537              		@ frame_needed = 0, uses_anonymous_args = 0
 1538              		@ link register save eliminated.
 968:Drivers/STM32H7xx_HAL_Driver/Src/stm32h7xx_hal.c ****   CLEAR_BIT(DBGMCU->CR, DBGMCU_CR_DBG_STOPD3);
 1539              		.loc 1 968 3 view .LVU251
 1540 0000 024A     		ldr	r2, .L152
 1541 0002 5368     		ldr	r3, [r2, #4]
 1542 0004 23F08003 		bic	r3, r3, #128
 1543 0008 5360     		str	r3, [r2, #4]
 969:Drivers/STM32H7xx_HAL_Driver/Src/stm32h7xx_hal.c **** }
 1544              		.loc 1 969 1 is_stmt 0 view .LVU252
 1545 000a 7047     		bx	lr
 1546              	.L153:
 1547              		.align	2
 1548              	.L152:
 1549 000c 0010005C 		.word	1543507968
 1550              		.cfi_endproc
 1551              	.LFE183:
 1553              		.section	.text.HAL_EnableDomain3DBGStandbyMode,"ax",%progbits
ARM GAS  /tmp/cclcb5qw.s 			page 45


 1554              		.align	1
 1555              		.global	HAL_EnableDomain3DBGStandbyMode
 1556              		.syntax unified
 1557              		.thumb
 1558              		.thumb_func
 1559              		.fpu fpv5-d16
 1561              	HAL_EnableDomain3DBGStandbyMode:
 1562              	.LFB184:
 970:Drivers/STM32H7xx_HAL_Driver/Src/stm32h7xx_hal.c **** 
 971:Drivers/STM32H7xx_HAL_Driver/Src/stm32h7xx_hal.c **** /**
 972:Drivers/STM32H7xx_HAL_Driver/Src/stm32h7xx_hal.c ****   * @brief  Enable the Debug Module during Domain3 STANDBY mode
 973:Drivers/STM32H7xx_HAL_Driver/Src/stm32h7xx_hal.c ****   * @retval None
 974:Drivers/STM32H7xx_HAL_Driver/Src/stm32h7xx_hal.c ****   */
 975:Drivers/STM32H7xx_HAL_Driver/Src/stm32h7xx_hal.c **** void HAL_EnableDomain3DBGStandbyMode(void)
 976:Drivers/STM32H7xx_HAL_Driver/Src/stm32h7xx_hal.c **** {
 1563              		.loc 1 976 1 is_stmt 1 view -0
 1564              		.cfi_startproc
 1565              		@ args = 0, pretend = 0, frame = 0
 1566              		@ frame_needed = 0, uses_anonymous_args = 0
 1567              		@ link register save eliminated.
 977:Drivers/STM32H7xx_HAL_Driver/Src/stm32h7xx_hal.c ****   SET_BIT(DBGMCU->CR, DBGMCU_CR_DBG_STANDBYD3);
 1568              		.loc 1 977 3 view .LVU254
 1569 0000 024A     		ldr	r2, .L155
 1570 0002 5368     		ldr	r3, [r2, #4]
 1571 0004 43F48073 		orr	r3, r3, #256
 1572 0008 5360     		str	r3, [r2, #4]
 978:Drivers/STM32H7xx_HAL_Driver/Src/stm32h7xx_hal.c **** }
 1573              		.loc 1 978 1 is_stmt 0 view .LVU255
 1574 000a 7047     		bx	lr
 1575              	.L156:
 1576              		.align	2
 1577              	.L155:
 1578 000c 0010005C 		.word	1543507968
 1579              		.cfi_endproc
 1580              	.LFE184:
 1582              		.section	.text.HAL_DisableDomain3DBGStandbyMode,"ax",%progbits
 1583              		.align	1
 1584              		.global	HAL_DisableDomain3DBGStandbyMode
 1585              		.syntax unified
 1586              		.thumb
 1587              		.thumb_func
 1588              		.fpu fpv5-d16
 1590              	HAL_DisableDomain3DBGStandbyMode:
 1591              	.LFB185:
 979:Drivers/STM32H7xx_HAL_Driver/Src/stm32h7xx_hal.c **** 
 980:Drivers/STM32H7xx_HAL_Driver/Src/stm32h7xx_hal.c **** /**
 981:Drivers/STM32H7xx_HAL_Driver/Src/stm32h7xx_hal.c ****   * @brief  Disable the Debug Module during Domain3 STANDBY mode
 982:Drivers/STM32H7xx_HAL_Driver/Src/stm32h7xx_hal.c ****   * @retval None
 983:Drivers/STM32H7xx_HAL_Driver/Src/stm32h7xx_hal.c ****   */
 984:Drivers/STM32H7xx_HAL_Driver/Src/stm32h7xx_hal.c **** void HAL_DisableDomain3DBGStandbyMode(void)
 985:Drivers/STM32H7xx_HAL_Driver/Src/stm32h7xx_hal.c **** {
 1592              		.loc 1 985 1 is_stmt 1 view -0
 1593              		.cfi_startproc
 1594              		@ args = 0, pretend = 0, frame = 0
 1595              		@ frame_needed = 0, uses_anonymous_args = 0
 1596              		@ link register save eliminated.
 986:Drivers/STM32H7xx_HAL_Driver/Src/stm32h7xx_hal.c ****   CLEAR_BIT(DBGMCU->CR, DBGMCU_CR_DBG_STANDBYD3);
ARM GAS  /tmp/cclcb5qw.s 			page 46


 1597              		.loc 1 986 3 view .LVU257
 1598 0000 024A     		ldr	r2, .L158
 1599 0002 5368     		ldr	r3, [r2, #4]
 1600 0004 23F48073 		bic	r3, r3, #256
 1601 0008 5360     		str	r3, [r2, #4]
 987:Drivers/STM32H7xx_HAL_Driver/Src/stm32h7xx_hal.c **** }
 1602              		.loc 1 987 1 is_stmt 0 view .LVU258
 1603 000a 7047     		bx	lr
 1604              	.L159:
 1605              		.align	2
 1606              	.L158:
 1607 000c 0010005C 		.word	1543507968
 1608              		.cfi_endproc
 1609              	.LFE185:
 1611              		.section	.text.HAL_SetFMCMemorySwappingConfig,"ax",%progbits
 1612              		.align	1
 1613              		.global	HAL_SetFMCMemorySwappingConfig
 1614              		.syntax unified
 1615              		.thumb
 1616              		.thumb_func
 1617              		.fpu fpv5-d16
 1619              	HAL_SetFMCMemorySwappingConfig:
 1620              	.LVL41:
 1621              	.LFB186:
 988:Drivers/STM32H7xx_HAL_Driver/Src/stm32h7xx_hal.c **** 
 989:Drivers/STM32H7xx_HAL_Driver/Src/stm32h7xx_hal.c **** /**
 990:Drivers/STM32H7xx_HAL_Driver/Src/stm32h7xx_hal.c ****   * @brief  Set the FMC Memory Mapping Swapping config.
 991:Drivers/STM32H7xx_HAL_Driver/Src/stm32h7xx_hal.c ****   * @param  BankMapConfig: Defines the FMC Bank mapping configuration. This parameter can be
 992:Drivers/STM32H7xx_HAL_Driver/Src/stm32h7xx_hal.c ****             FMC_SWAPBMAP_DISABLE, FMC_SWAPBMAP_SDRAM_SRAM, FMC_SWAPBMAP_SDRAMB2
 993:Drivers/STM32H7xx_HAL_Driver/Src/stm32h7xx_hal.c ****   * @retval HAL state
 994:Drivers/STM32H7xx_HAL_Driver/Src/stm32h7xx_hal.c ****   */
 995:Drivers/STM32H7xx_HAL_Driver/Src/stm32h7xx_hal.c **** void HAL_SetFMCMemorySwappingConfig(uint32_t BankMapConfig)
 996:Drivers/STM32H7xx_HAL_Driver/Src/stm32h7xx_hal.c **** {
 1622              		.loc 1 996 1 is_stmt 1 view -0
 1623              		.cfi_startproc
 1624              		@ args = 0, pretend = 0, frame = 0
 1625              		@ frame_needed = 0, uses_anonymous_args = 0
 1626              		@ link register save eliminated.
 997:Drivers/STM32H7xx_HAL_Driver/Src/stm32h7xx_hal.c ****   /* Check the parameter */
 998:Drivers/STM32H7xx_HAL_Driver/Src/stm32h7xx_hal.c ****   assert_param(IS_FMC_SWAPBMAP_MODE(BankMapConfig));
 1627              		.loc 1 998 3 view .LVU260
 999:Drivers/STM32H7xx_HAL_Driver/Src/stm32h7xx_hal.c ****   MODIFY_REG(FMC_Bank1_R->BTCR[0], FMC_BCR1_BMAP, BankMapConfig);
 1628              		.loc 1 999 3 view .LVU261
 1629 0000 034A     		ldr	r2, .L161
 1630 0002 1368     		ldr	r3, [r2]
 1631 0004 23F04073 		bic	r3, r3, #50331648
 1632 0008 0343     		orrs	r3, r3, r0
 1633 000a 1360     		str	r3, [r2]
1000:Drivers/STM32H7xx_HAL_Driver/Src/stm32h7xx_hal.c **** }
 1634              		.loc 1 1000 1 is_stmt 0 view .LVU262
 1635 000c 7047     		bx	lr
 1636              	.L162:
 1637 000e 00BF     		.align	2
 1638              	.L161:
 1639 0010 00400052 		.word	1375748096
 1640              		.cfi_endproc
 1641              	.LFE186:
ARM GAS  /tmp/cclcb5qw.s 			page 47


 1643              		.section	.text.HAL_GetFMCMemorySwappingConfig,"ax",%progbits
 1644              		.align	1
 1645              		.global	HAL_GetFMCMemorySwappingConfig
 1646              		.syntax unified
 1647              		.thumb
 1648              		.thumb_func
 1649              		.fpu fpv5-d16
 1651              	HAL_GetFMCMemorySwappingConfig:
 1652              	.LFB187:
1001:Drivers/STM32H7xx_HAL_Driver/Src/stm32h7xx_hal.c **** 
1002:Drivers/STM32H7xx_HAL_Driver/Src/stm32h7xx_hal.c **** /**
1003:Drivers/STM32H7xx_HAL_Driver/Src/stm32h7xx_hal.c ****   * @brief  Get FMC Bank mapping mode.
1004:Drivers/STM32H7xx_HAL_Driver/Src/stm32h7xx_hal.c ****   * @retval The FMC Bank mapping mode. This parameter can be
1005:Drivers/STM32H7xx_HAL_Driver/Src/stm32h7xx_hal.c ****             FMC_SWAPBMAP_DISABLE, FMC_SWAPBMAP_SDRAM_SRAM, FMC_SWAPBMAP_SDRAMB2
1006:Drivers/STM32H7xx_HAL_Driver/Src/stm32h7xx_hal.c **** */
1007:Drivers/STM32H7xx_HAL_Driver/Src/stm32h7xx_hal.c **** uint32_t HAL_GetFMCMemorySwappingConfig(void)
1008:Drivers/STM32H7xx_HAL_Driver/Src/stm32h7xx_hal.c **** {
 1653              		.loc 1 1008 1 is_stmt 1 view -0
 1654              		.cfi_startproc
 1655              		@ args = 0, pretend = 0, frame = 0
 1656              		@ frame_needed = 0, uses_anonymous_args = 0
 1657              		@ link register save eliminated.
1009:Drivers/STM32H7xx_HAL_Driver/Src/stm32h7xx_hal.c ****   return READ_BIT(FMC_Bank1_R->BTCR[0], FMC_BCR1_BMAP);
 1658              		.loc 1 1009 3 view .LVU264
 1659              		.loc 1 1009 10 is_stmt 0 view .LVU265
 1660 0000 024B     		ldr	r3, .L164
 1661 0002 1868     		ldr	r0, [r3]
1010:Drivers/STM32H7xx_HAL_Driver/Src/stm32h7xx_hal.c **** }
 1662              		.loc 1 1010 1 view .LVU266
 1663 0004 00F04070 		and	r0, r0, #50331648
 1664 0008 7047     		bx	lr
 1665              	.L165:
 1666 000a 00BF     		.align	2
 1667              	.L164:
 1668 000c 00400052 		.word	1375748096
 1669              		.cfi_endproc
 1670              	.LFE187:
 1672              		.section	.text.HAL_EXTI_EdgeConfig,"ax",%progbits
 1673              		.align	1
 1674              		.global	HAL_EXTI_EdgeConfig
 1675              		.syntax unified
 1676              		.thumb
 1677              		.thumb_func
 1678              		.fpu fpv5-d16
 1680              	HAL_EXTI_EdgeConfig:
 1681              	.LVL42:
 1682              	.LFB188:
1011:Drivers/STM32H7xx_HAL_Driver/Src/stm32h7xx_hal.c **** 
1012:Drivers/STM32H7xx_HAL_Driver/Src/stm32h7xx_hal.c **** /**
1013:Drivers/STM32H7xx_HAL_Driver/Src/stm32h7xx_hal.c ****   * @brief  Configure the EXTI input event line edge
1014:Drivers/STM32H7xx_HAL_Driver/Src/stm32h7xx_hal.c ****   * @note    No edge configuration for direct lines but for configurable lines:(EXTI_LINE0..EXTI_LI
1015:Drivers/STM32H7xx_HAL_Driver/Src/stm32h7xx_hal.c ****   *          EXTI_LINE49,EXTI_LINE51,EXTI_LINE82,EXTI_LINE84,EXTI_LINE85 and EXTI_LINE86.
1016:Drivers/STM32H7xx_HAL_Driver/Src/stm32h7xx_hal.c ****   * @param   EXTI_Line: Specifies the EXTI LINE, it can be one of the following values,
1017:Drivers/STM32H7xx_HAL_Driver/Src/stm32h7xx_hal.c ****   *         (EXTI_LINE0....EXTI_LINE87)excluding :line45, line81,line83 which are reserved
1018:Drivers/STM32H7xx_HAL_Driver/Src/stm32h7xx_hal.c ****   * @param   EXTI_Edge: Specifies  EXTI line Edge used.
1019:Drivers/STM32H7xx_HAL_Driver/Src/stm32h7xx_hal.c ****   *          This parameter can be one of the following values :
1020:Drivers/STM32H7xx_HAL_Driver/Src/stm32h7xx_hal.c ****   *   @arg EXTI_RISING_EDGE : Configurable line, with Rising edge trigger detection
ARM GAS  /tmp/cclcb5qw.s 			page 48


1021:Drivers/STM32H7xx_HAL_Driver/Src/stm32h7xx_hal.c ****   *   @arg EXTI_FALLING_EDGE: Configurable line, with Falling edge trigger detection
1022:Drivers/STM32H7xx_HAL_Driver/Src/stm32h7xx_hal.c ****   * @retval None
1023:Drivers/STM32H7xx_HAL_Driver/Src/stm32h7xx_hal.c ****   */
1024:Drivers/STM32H7xx_HAL_Driver/Src/stm32h7xx_hal.c **** void HAL_EXTI_EdgeConfig(uint32_t EXTI_Line , uint32_t EXTI_Edge )
1025:Drivers/STM32H7xx_HAL_Driver/Src/stm32h7xx_hal.c **** {
 1683              		.loc 1 1025 1 is_stmt 1 view -0
 1684              		.cfi_startproc
 1685              		@ args = 0, pretend = 0, frame = 0
 1686              		@ frame_needed = 0, uses_anonymous_args = 0
 1687              		@ link register save eliminated.
 1688              		.loc 1 1025 1 is_stmt 0 view .LVU268
 1689 0000 70B4     		push	{r4, r5, r6}
 1690              	.LCFI6:
 1691              		.cfi_def_cfa_offset 12
 1692              		.cfi_offset 4, -12
 1693              		.cfi_offset 5, -8
 1694              		.cfi_offset 6, -4
1026:Drivers/STM32H7xx_HAL_Driver/Src/stm32h7xx_hal.c ****   /* Check the parameter */
1027:Drivers/STM32H7xx_HAL_Driver/Src/stm32h7xx_hal.c ****   assert_param(IS_HAL_EXTI_CONFIG_LINE(EXTI_Line));
 1695              		.loc 1 1027 3 is_stmt 1 view .LVU269
1028:Drivers/STM32H7xx_HAL_Driver/Src/stm32h7xx_hal.c ****   assert_param(IS_EXTI_EDGE_LINE(EXTI_Edge));
 1696              		.loc 1 1028 3 view .LVU270
1029:Drivers/STM32H7xx_HAL_Driver/Src/stm32h7xx_hal.c **** 
1030:Drivers/STM32H7xx_HAL_Driver/Src/stm32h7xx_hal.c ****   /* Clear Rising Falling edge configuration */
1031:Drivers/STM32H7xx_HAL_Driver/Src/stm32h7xx_hal.c ****   CLEAR_BIT(*(__IO uint32_t *) (((uint32_t) &(EXTI->FTSR1)) + ((EXTI_Line >> 5 ) * 0x20UL)), (uint3
 1697              		.loc 1 1031 3 view .LVU271
 1698 0002 4309     		lsrs	r3, r0, #5
 1699 0004 20F01F05 		bic	r5, r0, #31
 1700 0008 0F4C     		ldr	r4, .L170
 1701 000a 2E59     		ldr	r6, [r5, r4]
 1702 000c 00F01F00 		and	r0, r0, #31
 1703              	.LVL43:
 1704              		.loc 1 1031 3 is_stmt 0 view .LVU272
 1705 0010 0122     		movs	r2, #1
 1706 0012 02FA00F0 		lsl	r0, r2, r0
 1707 0016 26EA0006 		bic	r6, r6, r0
 1708 001a 2E51     		str	r6, [r5, r4]
1032:Drivers/STM32H7xx_HAL_Driver/Src/stm32h7xx_hal.c ****   CLEAR_BIT( *(__IO uint32_t *) (((uint32_t) &(EXTI->RTSR1)) + ((EXTI_Line >> 5 ) * 0x20UL)), (uint
 1709              		.loc 1 1032 3 is_stmt 1 view .LVU273
 1710 001c 03F13073 		add	r3, r3, #46137344
 1711 0020 5B01     		lsls	r3, r3, #5
 1712 0022 1A68     		ldr	r2, [r3]
 1713 0024 22EA0002 		bic	r2, r2, r0
 1714 0028 1A60     		str	r2, [r3]
1033:Drivers/STM32H7xx_HAL_Driver/Src/stm32h7xx_hal.c **** 
1034:Drivers/STM32H7xx_HAL_Driver/Src/stm32h7xx_hal.c ****   if( (EXTI_Edge & EXTI_RISING_EDGE) == EXTI_RISING_EDGE)
 1715              		.loc 1 1034 3 view .LVU274
 1716              		.loc 1 1034 5 is_stmt 0 view .LVU275
 1717 002a 11F4801F 		tst	r1, #1048576
 1718 002e 02D0     		beq	.L167
1035:Drivers/STM32H7xx_HAL_Driver/Src/stm32h7xx_hal.c ****   {
1036:Drivers/STM32H7xx_HAL_Driver/Src/stm32h7xx_hal.c ****    SET_BIT( *(__IO uint32_t *) (((uint32_t) &(EXTI->RTSR1)) + ((EXTI_Line >> 5 ) * 0x20UL)), (uint3
 1719              		.loc 1 1036 4 is_stmt 1 view .LVU276
 1720 0030 1A68     		ldr	r2, [r3]
 1721 0032 0243     		orrs	r2, r2, r0
 1722 0034 1A60     		str	r2, [r3]
 1723              	.L167:
ARM GAS  /tmp/cclcb5qw.s 			page 49


1037:Drivers/STM32H7xx_HAL_Driver/Src/stm32h7xx_hal.c ****   }
1038:Drivers/STM32H7xx_HAL_Driver/Src/stm32h7xx_hal.c ****   if( (EXTI_Edge & EXTI_FALLING_EDGE) == EXTI_FALLING_EDGE)
 1724              		.loc 1 1038 3 view .LVU277
 1725              		.loc 1 1038 5 is_stmt 0 view .LVU278
 1726 0036 11F4001F 		tst	r1, #2097152
 1727 003a 02D0     		beq	.L166
1039:Drivers/STM32H7xx_HAL_Driver/Src/stm32h7xx_hal.c ****   {
1040:Drivers/STM32H7xx_HAL_Driver/Src/stm32h7xx_hal.c ****    SET_BIT(*(__IO uint32_t *) (((uint32_t) &(EXTI->FTSR1)) + ((EXTI_Line >> 5 ) * 0x20UL)), (uint32
 1728              		.loc 1 1040 4 is_stmt 1 view .LVU279
 1729 003c 2B59     		ldr	r3, [r5, r4]
 1730 003e 1843     		orrs	r0, r0, r3
 1731 0040 2851     		str	r0, [r5, r4]
 1732              	.L166:
1041:Drivers/STM32H7xx_HAL_Driver/Src/stm32h7xx_hal.c ****   }
1042:Drivers/STM32H7xx_HAL_Driver/Src/stm32h7xx_hal.c **** }
 1733              		.loc 1 1042 1 is_stmt 0 view .LVU280
 1734 0042 70BC     		pop	{r4, r5, r6}
 1735              	.LCFI7:
 1736              		.cfi_restore 6
 1737              		.cfi_restore 5
 1738              		.cfi_restore 4
 1739              		.cfi_def_cfa_offset 0
 1740 0044 7047     		bx	lr
 1741              	.L171:
 1742 0046 00BF     		.align	2
 1743              	.L170:
 1744 0048 04000058 		.word	1476395012
 1745              		.cfi_endproc
 1746              	.LFE188:
 1748              		.section	.text.HAL_EXTI_GenerateSWInterrupt,"ax",%progbits
 1749              		.align	1
 1750              		.global	HAL_EXTI_GenerateSWInterrupt
 1751              		.syntax unified
 1752              		.thumb
 1753              		.thumb_func
 1754              		.fpu fpv5-d16
 1756              	HAL_EXTI_GenerateSWInterrupt:
 1757              	.LVL44:
 1758              	.LFB189:
1043:Drivers/STM32H7xx_HAL_Driver/Src/stm32h7xx_hal.c **** 
1044:Drivers/STM32H7xx_HAL_Driver/Src/stm32h7xx_hal.c **** /**
1045:Drivers/STM32H7xx_HAL_Driver/Src/stm32h7xx_hal.c ****   * @brief  Generates a Software interrupt on selected EXTI line.
1046:Drivers/STM32H7xx_HAL_Driver/Src/stm32h7xx_hal.c ****   * @param   EXTI_Line: Specifies the EXTI LINE, it can be one of the following values,
1047:Drivers/STM32H7xx_HAL_Driver/Src/stm32h7xx_hal.c ****   *          (EXTI_LINE0..EXTI_LINE21),EXTI_LINE49,EXTI_LINE51,EXTI_LINE82,EXTI_LINE84,EXTI_LINE85 
1048:Drivers/STM32H7xx_HAL_Driver/Src/stm32h7xx_hal.c ****   * @retval None
1049:Drivers/STM32H7xx_HAL_Driver/Src/stm32h7xx_hal.c ****   */
1050:Drivers/STM32H7xx_HAL_Driver/Src/stm32h7xx_hal.c **** void HAL_EXTI_GenerateSWInterrupt(uint32_t EXTI_Line)
1051:Drivers/STM32H7xx_HAL_Driver/Src/stm32h7xx_hal.c **** {
 1759              		.loc 1 1051 1 is_stmt 1 view -0
 1760              		.cfi_startproc
 1761              		@ args = 0, pretend = 0, frame = 0
 1762              		@ frame_needed = 0, uses_anonymous_args = 0
 1763              		@ link register save eliminated.
 1764              		.loc 1 1051 1 is_stmt 0 view .LVU282
 1765 0000 10B4     		push	{r4}
 1766              	.LCFI8:
 1767              		.cfi_def_cfa_offset 4
ARM GAS  /tmp/cclcb5qw.s 			page 50


 1768              		.cfi_offset 4, -4
1052:Drivers/STM32H7xx_HAL_Driver/Src/stm32h7xx_hal.c ****   /* Check the parameters */
1053:Drivers/STM32H7xx_HAL_Driver/Src/stm32h7xx_hal.c ****   assert_param(IS_HAL_EXTI_CONFIG_LINE(EXTI_Line));
 1769              		.loc 1 1053 3 is_stmt 1 view .LVU283
1054:Drivers/STM32H7xx_HAL_Driver/Src/stm32h7xx_hal.c **** 
1055:Drivers/STM32H7xx_HAL_Driver/Src/stm32h7xx_hal.c ****   SET_BIT(*(__IO uint32_t *) (((uint32_t) &(EXTI->SWIER1)) + ((EXTI_Line >> 5 ) * 0x20UL)), (uint32
 1770              		.loc 1 1055 3 view .LVU284
 1771 0002 20F01F04 		bic	r4, r0, #31
 1772 0006 0649     		ldr	r1, .L174
 1773 0008 6358     		ldr	r3, [r4, r1]
 1774 000a 00F01F00 		and	r0, r0, #31
 1775              	.LVL45:
 1776              		.loc 1 1055 3 is_stmt 0 view .LVU285
 1777 000e 0122     		movs	r2, #1
 1778 0010 02FA00F0 		lsl	r0, r2, r0
 1779 0014 1843     		orrs	r0, r0, r3
 1780 0016 6050     		str	r0, [r4, r1]
1056:Drivers/STM32H7xx_HAL_Driver/Src/stm32h7xx_hal.c **** }
 1781              		.loc 1 1056 1 view .LVU286
 1782 0018 5DF8044B 		ldr	r4, [sp], #4
 1783              	.LCFI9:
 1784              		.cfi_restore 4
 1785              		.cfi_def_cfa_offset 0
 1786 001c 7047     		bx	lr
 1787              	.L175:
 1788 001e 00BF     		.align	2
 1789              	.L174:
 1790 0020 08000058 		.word	1476395016
 1791              		.cfi_endproc
 1792              	.LFE189:
 1794              		.section	.text.HAL_EXTI_D1_ClearFlag,"ax",%progbits
 1795              		.align	1
 1796              		.global	HAL_EXTI_D1_ClearFlag
 1797              		.syntax unified
 1798              		.thumb
 1799              		.thumb_func
 1800              		.fpu fpv5-d16
 1802              	HAL_EXTI_D1_ClearFlag:
 1803              	.LVL46:
 1804              	.LFB190:
1057:Drivers/STM32H7xx_HAL_Driver/Src/stm32h7xx_hal.c **** 
1058:Drivers/STM32H7xx_HAL_Driver/Src/stm32h7xx_hal.c **** 
1059:Drivers/STM32H7xx_HAL_Driver/Src/stm32h7xx_hal.c **** /**
1060:Drivers/STM32H7xx_HAL_Driver/Src/stm32h7xx_hal.c ****   * @brief  Clears the EXTI's line pending flags for Domain D1
1061:Drivers/STM32H7xx_HAL_Driver/Src/stm32h7xx_hal.c ****   * @param   EXTI_Line: Specifies the EXTI LINE, it can be one of the following values,
1062:Drivers/STM32H7xx_HAL_Driver/Src/stm32h7xx_hal.c ****   *         (EXTI_LINE0....EXTI_LINE87)excluding :line45, line81,line83 which are reserved
1063:Drivers/STM32H7xx_HAL_Driver/Src/stm32h7xx_hal.c ****   * @retval None
1064:Drivers/STM32H7xx_HAL_Driver/Src/stm32h7xx_hal.c ****   */
1065:Drivers/STM32H7xx_HAL_Driver/Src/stm32h7xx_hal.c **** void HAL_EXTI_D1_ClearFlag(uint32_t EXTI_Line)
1066:Drivers/STM32H7xx_HAL_Driver/Src/stm32h7xx_hal.c **** {
 1805              		.loc 1 1066 1 is_stmt 1 view -0
 1806              		.cfi_startproc
 1807              		@ args = 0, pretend = 0, frame = 0
 1808              		@ frame_needed = 0, uses_anonymous_args = 0
 1809              		@ link register save eliminated.
 1810              		.loc 1 1066 1 is_stmt 0 view .LVU288
 1811 0000 10B4     		push	{r4}
ARM GAS  /tmp/cclcb5qw.s 			page 51


 1812              	.LCFI10:
 1813              		.cfi_def_cfa_offset 4
 1814              		.cfi_offset 4, -4
1067:Drivers/STM32H7xx_HAL_Driver/Src/stm32h7xx_hal.c ****   /* Check the parameters */
1068:Drivers/STM32H7xx_HAL_Driver/Src/stm32h7xx_hal.c ****  assert_param(IS_EXTI_D1_LINE(EXTI_Line));
 1815              		.loc 1 1068 2 is_stmt 1 view .LVU289
1069:Drivers/STM32H7xx_HAL_Driver/Src/stm32h7xx_hal.c ****  SET_BIT(*(__IO uint32_t *) (((uint32_t) &(EXTI_D1->PR1)) + ((EXTI_Line >> 5 ) * 0x10UL)), (uint32_
 1816              		.loc 1 1069 2 view .LVU290
 1817 0002 4309     		lsrs	r3, r0, #5
 1818 0004 1B01     		lsls	r3, r3, #4
 1819 0006 064C     		ldr	r4, .L178
 1820 0008 1A59     		ldr	r2, [r3, r4]
 1821 000a 00F01F00 		and	r0, r0, #31
 1822              	.LVL47:
 1823              		.loc 1 1069 2 is_stmt 0 view .LVU291
 1824 000e 0121     		movs	r1, #1
 1825 0010 01FA00F0 		lsl	r0, r1, r0
 1826 0014 1043     		orrs	r0, r0, r2
 1827 0016 1851     		str	r0, [r3, r4]
1070:Drivers/STM32H7xx_HAL_Driver/Src/stm32h7xx_hal.c **** 
1071:Drivers/STM32H7xx_HAL_Driver/Src/stm32h7xx_hal.c **** }
 1828              		.loc 1 1071 1 view .LVU292
 1829 0018 5DF8044B 		ldr	r4, [sp], #4
 1830              	.LCFI11:
 1831              		.cfi_restore 4
 1832              		.cfi_def_cfa_offset 0
 1833 001c 7047     		bx	lr
 1834              	.L179:
 1835 001e 00BF     		.align	2
 1836              	.L178:
 1837 0020 88000058 		.word	1476395144
 1838              		.cfi_endproc
 1839              	.LFE190:
 1841              		.section	.text.HAL_EXTI_D1_EventInputConfig,"ax",%progbits
 1842              		.align	1
 1843              		.global	HAL_EXTI_D1_EventInputConfig
 1844              		.syntax unified
 1845              		.thumb
 1846              		.thumb_func
 1847              		.fpu fpv5-d16
 1849              	HAL_EXTI_D1_EventInputConfig:
 1850              	.LVL48:
 1851              	.LFB191:
1072:Drivers/STM32H7xx_HAL_Driver/Src/stm32h7xx_hal.c **** 
1073:Drivers/STM32H7xx_HAL_Driver/Src/stm32h7xx_hal.c **** #if defined(DUAL_CORE)
1074:Drivers/STM32H7xx_HAL_Driver/Src/stm32h7xx_hal.c **** /**
1075:Drivers/STM32H7xx_HAL_Driver/Src/stm32h7xx_hal.c ****   * @brief  Clears the EXTI's line pending flags for Domain D2
1076:Drivers/STM32H7xx_HAL_Driver/Src/stm32h7xx_hal.c ****   * @param   EXTI_Line: Specifies the EXTI LINE, it can be one of the following values,
1077:Drivers/STM32H7xx_HAL_Driver/Src/stm32h7xx_hal.c ****   *         (EXTI_LINE0....EXTI_LINE87)excluding :line45, line81,line83 which are reserved
1078:Drivers/STM32H7xx_HAL_Driver/Src/stm32h7xx_hal.c ****   * @retval None
1079:Drivers/STM32H7xx_HAL_Driver/Src/stm32h7xx_hal.c ****   */
1080:Drivers/STM32H7xx_HAL_Driver/Src/stm32h7xx_hal.c **** void HAL_EXTI_D2_ClearFlag(uint32_t EXTI_Line)
1081:Drivers/STM32H7xx_HAL_Driver/Src/stm32h7xx_hal.c **** {
1082:Drivers/STM32H7xx_HAL_Driver/Src/stm32h7xx_hal.c ****   /* Check the parameters */
1083:Drivers/STM32H7xx_HAL_Driver/Src/stm32h7xx_hal.c ****  assert_param(IS_EXTI_D2_LINE(EXTI_Line));
1084:Drivers/STM32H7xx_HAL_Driver/Src/stm32h7xx_hal.c ****  SET_BIT(*(__IO uint32_t *) (((uint32_t) &(EXTI_D2->PR1)) + ((EXTI_Line >> 5 ) * 0x10UL)), (uint32_
1085:Drivers/STM32H7xx_HAL_Driver/Src/stm32h7xx_hal.c **** }
ARM GAS  /tmp/cclcb5qw.s 			page 52


1086:Drivers/STM32H7xx_HAL_Driver/Src/stm32h7xx_hal.c **** 
1087:Drivers/STM32H7xx_HAL_Driver/Src/stm32h7xx_hal.c **** #endif /*DUAL_CORE*/
1088:Drivers/STM32H7xx_HAL_Driver/Src/stm32h7xx_hal.c **** /**
1089:Drivers/STM32H7xx_HAL_Driver/Src/stm32h7xx_hal.c ****   * @brief  Configure the EXTI input event line for Domain D1
1090:Drivers/STM32H7xx_HAL_Driver/Src/stm32h7xx_hal.c ****   * @param   EXTI_Line: Specifies the EXTI LINE, it can be one of the following values,
1091:Drivers/STM32H7xx_HAL_Driver/Src/stm32h7xx_hal.c ****   *         (EXTI_LINE0....EXTI_LINE87)excluding :line45, line81,line83 which are reserved
1092:Drivers/STM32H7xx_HAL_Driver/Src/stm32h7xx_hal.c ****   * @param   EXTI_Mode: Specifies which EXTI line is used as interrupt or an event.
1093:Drivers/STM32H7xx_HAL_Driver/Src/stm32h7xx_hal.c ****   *          This parameter can be one or a combination of the following values :
1094:Drivers/STM32H7xx_HAL_Driver/Src/stm32h7xx_hal.c ****   *   @arg EXTI_MODE_IT :  Interrupt Mode selected
1095:Drivers/STM32H7xx_HAL_Driver/Src/stm32h7xx_hal.c ****   *   @arg EXTI_MODE_EVT : Event Mode selected
1096:Drivers/STM32H7xx_HAL_Driver/Src/stm32h7xx_hal.c ****   * @param   EXTI_LineCmd controls (Enable/Disable) the EXTI line.
1097:Drivers/STM32H7xx_HAL_Driver/Src/stm32h7xx_hal.c **** 
1098:Drivers/STM32H7xx_HAL_Driver/Src/stm32h7xx_hal.c ****   * @retval None
1099:Drivers/STM32H7xx_HAL_Driver/Src/stm32h7xx_hal.c ****   */
1100:Drivers/STM32H7xx_HAL_Driver/Src/stm32h7xx_hal.c **** void HAL_EXTI_D1_EventInputConfig(uint32_t EXTI_Line , uint32_t EXTI_Mode,  uint32_t EXTI_LineCmd )
1101:Drivers/STM32H7xx_HAL_Driver/Src/stm32h7xx_hal.c **** {
 1852              		.loc 1 1101 1 is_stmt 1 view -0
 1853              		.cfi_startproc
 1854              		@ args = 0, pretend = 0, frame = 0
 1855              		@ frame_needed = 0, uses_anonymous_args = 0
 1856              		@ link register save eliminated.
 1857              		.loc 1 1101 1 is_stmt 0 view .LVU294
 1858 0000 70B4     		push	{r4, r5, r6}
 1859              	.LCFI12:
 1860              		.cfi_def_cfa_offset 12
 1861              		.cfi_offset 4, -12
 1862              		.cfi_offset 5, -8
 1863              		.cfi_offset 6, -4
1102:Drivers/STM32H7xx_HAL_Driver/Src/stm32h7xx_hal.c ****   /* Check the parameter */
1103:Drivers/STM32H7xx_HAL_Driver/Src/stm32h7xx_hal.c ****   assert_param(IS_EXTI_D1_LINE(EXTI_Line));
 1864              		.loc 1 1103 3 is_stmt 1 view .LVU295
1104:Drivers/STM32H7xx_HAL_Driver/Src/stm32h7xx_hal.c ****   assert_param(IS_EXTI_MODE_LINE(EXTI_Mode));
 1865              		.loc 1 1104 3 view .LVU296
1105:Drivers/STM32H7xx_HAL_Driver/Src/stm32h7xx_hal.c **** 
1106:Drivers/STM32H7xx_HAL_Driver/Src/stm32h7xx_hal.c ****   if( (EXTI_Mode & EXTI_MODE_IT) == EXTI_MODE_IT)
 1866              		.loc 1 1106 3 view .LVU297
 1867              		.loc 1 1106 5 is_stmt 0 view .LVU298
 1868 0002 11F4803F 		tst	r1, #65536
 1869 0006 0CD0     		beq	.L181
1107:Drivers/STM32H7xx_HAL_Driver/Src/stm32h7xx_hal.c ****   {
1108:Drivers/STM32H7xx_HAL_Driver/Src/stm32h7xx_hal.c ****      if( EXTI_LineCmd == 0UL)
 1870              		.loc 1 1108 6 is_stmt 1 view .LVU299
 1871              		.loc 1 1108 8 is_stmt 0 view .LVU300
 1872 0008 E2B9     		cbnz	r2, .L182
1109:Drivers/STM32H7xx_HAL_Driver/Src/stm32h7xx_hal.c ****      {
1110:Drivers/STM32H7xx_HAL_Driver/Src/stm32h7xx_hal.c ****        /* Clear EXTI line configuration */
1111:Drivers/STM32H7xx_HAL_Driver/Src/stm32h7xx_hal.c ****         CLEAR_BIT(*(__IO uint32_t *) (((uint32_t) &(EXTI_D1->IMR1)) + ((EXTI_Line >> 5 ) * 0x10UL))
 1873              		.loc 1 1111 9 is_stmt 1 view .LVU301
 1874 000a 1A4B     		ldr	r3, .L186
 1875 000c 03EB5013 		add	r3, r3, r0, lsr #5
 1876 0010 1B01     		lsls	r3, r3, #4
 1877 0012 1C68     		ldr	r4, [r3]
 1878 0014 00F01F06 		and	r6, r0, #31
 1879 0018 0125     		movs	r5, #1
 1880 001a B540     		lsls	r5, r5, r6
 1881 001c 24EA0504 		bic	r4, r4, r5
 1882 0020 1C60     		str	r4, [r3]
ARM GAS  /tmp/cclcb5qw.s 			page 53


 1883              	.L181:
1112:Drivers/STM32H7xx_HAL_Driver/Src/stm32h7xx_hal.c ****      }
1113:Drivers/STM32H7xx_HAL_Driver/Src/stm32h7xx_hal.c ****      else
1114:Drivers/STM32H7xx_HAL_Driver/Src/stm32h7xx_hal.c ****      {
1115:Drivers/STM32H7xx_HAL_Driver/Src/stm32h7xx_hal.c ****         SET_BIT(*(__IO uint32_t *) (((uint32_t) &(EXTI_D1->IMR1)) + ((EXTI_Line >> 5 ) * 0x10UL)), 
1116:Drivers/STM32H7xx_HAL_Driver/Src/stm32h7xx_hal.c ****      }
1117:Drivers/STM32H7xx_HAL_Driver/Src/stm32h7xx_hal.c ****   }
1118:Drivers/STM32H7xx_HAL_Driver/Src/stm32h7xx_hal.c **** 
1119:Drivers/STM32H7xx_HAL_Driver/Src/stm32h7xx_hal.c ****   if( (EXTI_Mode & EXTI_MODE_EVT) == EXTI_MODE_EVT)
 1884              		.loc 1 1119 3 view .LVU302
 1885              		.loc 1 1119 5 is_stmt 0 view .LVU303
 1886 0022 11F4003F 		tst	r1, #131072
 1887 0026 0BD0     		beq	.L180
1120:Drivers/STM32H7xx_HAL_Driver/Src/stm32h7xx_hal.c ****   {
1121:Drivers/STM32H7xx_HAL_Driver/Src/stm32h7xx_hal.c ****     if( EXTI_LineCmd == 0UL)
 1888              		.loc 1 1121 5 is_stmt 1 view .LVU304
 1889              		.loc 1 1121 7 is_stmt 0 view .LVU305
 1890 0028 C2B9     		cbnz	r2, .L184
1122:Drivers/STM32H7xx_HAL_Driver/Src/stm32h7xx_hal.c ****     {
1123:Drivers/STM32H7xx_HAL_Driver/Src/stm32h7xx_hal.c ****       /* Clear EXTI line configuration */
1124:Drivers/STM32H7xx_HAL_Driver/Src/stm32h7xx_hal.c ****       CLEAR_BIT(  *(__IO uint32_t *) (((uint32_t) &(EXTI_D1->EMR1)) + ((EXTI_Line >> 5 ) * 0x10UL))
 1891              		.loc 1 1124 7 is_stmt 1 view .LVU306
 1892 002a 4309     		lsrs	r3, r0, #5
 1893 002c 1B01     		lsls	r3, r3, #4
 1894 002e 1249     		ldr	r1, .L186+4
 1895              	.LVL49:
 1896              		.loc 1 1124 7 is_stmt 0 view .LVU307
 1897 0030 5A58     		ldr	r2, [r3, r1]
 1898              	.LVL50:
 1899              		.loc 1 1124 7 view .LVU308
 1900 0032 00F01F04 		and	r4, r0, #31
 1901 0036 0120     		movs	r0, #1
 1902              	.LVL51:
 1903              		.loc 1 1124 7 view .LVU309
 1904 0038 A040     		lsls	r0, r0, r4
 1905 003a 22EA0000 		bic	r0, r2, r0
 1906 003e 5850     		str	r0, [r3, r1]
 1907              	.L180:
1125:Drivers/STM32H7xx_HAL_Driver/Src/stm32h7xx_hal.c ****     }
1126:Drivers/STM32H7xx_HAL_Driver/Src/stm32h7xx_hal.c ****     else
1127:Drivers/STM32H7xx_HAL_Driver/Src/stm32h7xx_hal.c ****     {
1128:Drivers/STM32H7xx_HAL_Driver/Src/stm32h7xx_hal.c ****       SET_BIT(  *(__IO uint32_t *) (((uint32_t) &(EXTI_D1->EMR1)) + ((EXTI_Line >> 5 ) * 0x10UL)), 
1129:Drivers/STM32H7xx_HAL_Driver/Src/stm32h7xx_hal.c ****     }
1130:Drivers/STM32H7xx_HAL_Driver/Src/stm32h7xx_hal.c ****   }
1131:Drivers/STM32H7xx_HAL_Driver/Src/stm32h7xx_hal.c **** }
 1908              		.loc 1 1131 1 view .LVU310
 1909 0040 70BC     		pop	{r4, r5, r6}
 1910              	.LCFI13:
 1911              		.cfi_remember_state
 1912              		.cfi_restore 6
 1913              		.cfi_restore 5
 1914              		.cfi_restore 4
 1915              		.cfi_def_cfa_offset 0
 1916 0042 7047     		bx	lr
 1917              	.LVL52:
 1918              	.L182:
 1919              	.LCFI14:
ARM GAS  /tmp/cclcb5qw.s 			page 54


 1920              		.cfi_restore_state
1115:Drivers/STM32H7xx_HAL_Driver/Src/stm32h7xx_hal.c ****      }
 1921              		.loc 1 1115 9 is_stmt 1 view .LVU311
 1922 0044 0B4B     		ldr	r3, .L186
 1923 0046 03EB5013 		add	r3, r3, r0, lsr #5
 1924 004a 1B01     		lsls	r3, r3, #4
 1925 004c 1C68     		ldr	r4, [r3]
 1926 004e 00F01F06 		and	r6, r0, #31
 1927 0052 0125     		movs	r5, #1
 1928 0054 B540     		lsls	r5, r5, r6
 1929 0056 2C43     		orrs	r4, r4, r5
 1930 0058 1C60     		str	r4, [r3]
 1931 005a E2E7     		b	.L181
 1932              	.L184:
1128:Drivers/STM32H7xx_HAL_Driver/Src/stm32h7xx_hal.c ****     }
 1933              		.loc 1 1128 7 view .LVU312
 1934 005c 4309     		lsrs	r3, r0, #5
 1935 005e 1B01     		lsls	r3, r3, #4
 1936 0060 054C     		ldr	r4, .L186+4
 1937 0062 1A59     		ldr	r2, [r3, r4]
 1938              	.LVL53:
1128:Drivers/STM32H7xx_HAL_Driver/Src/stm32h7xx_hal.c ****     }
 1939              		.loc 1 1128 7 is_stmt 0 view .LVU313
 1940 0064 00F01F00 		and	r0, r0, #31
 1941              	.LVL54:
1128:Drivers/STM32H7xx_HAL_Driver/Src/stm32h7xx_hal.c ****     }
 1942              		.loc 1 1128 7 view .LVU314
 1943 0068 0121     		movs	r1, #1
 1944              	.LVL55:
1128:Drivers/STM32H7xx_HAL_Driver/Src/stm32h7xx_hal.c ****     }
 1945              		.loc 1 1128 7 view .LVU315
 1946 006a 01FA00F0 		lsl	r0, r1, r0
 1947 006e 1043     		orrs	r0, r0, r2
 1948 0070 1851     		str	r0, [r3, r4]
 1949              		.loc 1 1131 1 view .LVU316
 1950 0072 E5E7     		b	.L180
 1951              	.L187:
 1952              		.align	2
 1953              	.L186:
 1954 0074 08008005 		.word	92274696
 1955 0078 84000058 		.word	1476395140
 1956              		.cfi_endproc
 1957              	.LFE191:
 1959              		.section	.text.HAL_EXTI_D3_EventInputConfig,"ax",%progbits
 1960              		.align	1
 1961              		.global	HAL_EXTI_D3_EventInputConfig
 1962              		.syntax unified
 1963              		.thumb
 1964              		.thumb_func
 1965              		.fpu fpv5-d16
 1967              	HAL_EXTI_D3_EventInputConfig:
 1968              	.LVL56:
 1969              	.LFB192:
1132:Drivers/STM32H7xx_HAL_Driver/Src/stm32h7xx_hal.c **** 
1133:Drivers/STM32H7xx_HAL_Driver/Src/stm32h7xx_hal.c **** #if defined(DUAL_CORE)
1134:Drivers/STM32H7xx_HAL_Driver/Src/stm32h7xx_hal.c **** /**
1135:Drivers/STM32H7xx_HAL_Driver/Src/stm32h7xx_hal.c ****   * @brief  Configure the EXTI input event line for Domain D2
ARM GAS  /tmp/cclcb5qw.s 			page 55


1136:Drivers/STM32H7xx_HAL_Driver/Src/stm32h7xx_hal.c ****   * @param   EXTI_Line: Specifies the EXTI LINE, it can be one of the following values,
1137:Drivers/STM32H7xx_HAL_Driver/Src/stm32h7xx_hal.c ****   *         (EXTI_LINE0....EXTI_LINE87)excluding :line45, line81,line83 which are reserved
1138:Drivers/STM32H7xx_HAL_Driver/Src/stm32h7xx_hal.c ****   * @param   EXTI_Mode: Specifies which EXTI line is used as interrupt or an event.
1139:Drivers/STM32H7xx_HAL_Driver/Src/stm32h7xx_hal.c ****   *          This parameter can be one or a combination of the following values :
1140:Drivers/STM32H7xx_HAL_Driver/Src/stm32h7xx_hal.c ****   *   @arg EXTI_MODE_IT :  Interrupt Mode selected
1141:Drivers/STM32H7xx_HAL_Driver/Src/stm32h7xx_hal.c ****   *   @arg EXTI_MODE_EVT : Event Mode selected
1142:Drivers/STM32H7xx_HAL_Driver/Src/stm32h7xx_hal.c ****   * @param   EXTI_LineCmd controls (Enable/Disable) the EXTI line.
1143:Drivers/STM32H7xx_HAL_Driver/Src/stm32h7xx_hal.c **** 
1144:Drivers/STM32H7xx_HAL_Driver/Src/stm32h7xx_hal.c ****   * @retval None
1145:Drivers/STM32H7xx_HAL_Driver/Src/stm32h7xx_hal.c ****   */
1146:Drivers/STM32H7xx_HAL_Driver/Src/stm32h7xx_hal.c **** void HAL_EXTI_D2_EventInputConfig(uint32_t EXTI_Line , uint32_t EXTI_Mode,  uint32_t EXTI_LineCmd )
1147:Drivers/STM32H7xx_HAL_Driver/Src/stm32h7xx_hal.c **** {
1148:Drivers/STM32H7xx_HAL_Driver/Src/stm32h7xx_hal.c ****   /* Check the parameter */
1149:Drivers/STM32H7xx_HAL_Driver/Src/stm32h7xx_hal.c ****   assert_param(IS_EXTI_D2_LINE(EXTI_Line));
1150:Drivers/STM32H7xx_HAL_Driver/Src/stm32h7xx_hal.c ****   assert_param(IS_EXTI_MODE_LINE(EXTI_Mode));
1151:Drivers/STM32H7xx_HAL_Driver/Src/stm32h7xx_hal.c **** 
1152:Drivers/STM32H7xx_HAL_Driver/Src/stm32h7xx_hal.c ****   if( (EXTI_Mode & EXTI_MODE_IT) == EXTI_MODE_IT)
1153:Drivers/STM32H7xx_HAL_Driver/Src/stm32h7xx_hal.c ****   {
1154:Drivers/STM32H7xx_HAL_Driver/Src/stm32h7xx_hal.c ****     if( EXTI_LineCmd == 0UL)
1155:Drivers/STM32H7xx_HAL_Driver/Src/stm32h7xx_hal.c ****     {
1156:Drivers/STM32H7xx_HAL_Driver/Src/stm32h7xx_hal.c ****     /* Clear EXTI line configuration */
1157:Drivers/STM32H7xx_HAL_Driver/Src/stm32h7xx_hal.c ****      CLEAR_BIT(*(__IO uint32_t *) (((uint32_t) &(EXTI_D2->IMR1)) + ((EXTI_Line >> 5 ) * 0x10UL)),(u
1158:Drivers/STM32H7xx_HAL_Driver/Src/stm32h7xx_hal.c ****     }
1159:Drivers/STM32H7xx_HAL_Driver/Src/stm32h7xx_hal.c ****     else
1160:Drivers/STM32H7xx_HAL_Driver/Src/stm32h7xx_hal.c ****     {
1161:Drivers/STM32H7xx_HAL_Driver/Src/stm32h7xx_hal.c ****      SET_BIT(*(__IO uint32_t *) (((uint32_t) &(EXTI_D2->IMR1)) + ((EXTI_Line >> 5 ) * 0x10UL)), (ui
1162:Drivers/STM32H7xx_HAL_Driver/Src/stm32h7xx_hal.c ****     }
1163:Drivers/STM32H7xx_HAL_Driver/Src/stm32h7xx_hal.c ****   }
1164:Drivers/STM32H7xx_HAL_Driver/Src/stm32h7xx_hal.c **** 
1165:Drivers/STM32H7xx_HAL_Driver/Src/stm32h7xx_hal.c ****   if( (EXTI_Mode & EXTI_MODE_EVT) == EXTI_MODE_EVT)
1166:Drivers/STM32H7xx_HAL_Driver/Src/stm32h7xx_hal.c ****   {
1167:Drivers/STM32H7xx_HAL_Driver/Src/stm32h7xx_hal.c ****     if( EXTI_LineCmd == 0UL)
1168:Drivers/STM32H7xx_HAL_Driver/Src/stm32h7xx_hal.c ****     {
1169:Drivers/STM32H7xx_HAL_Driver/Src/stm32h7xx_hal.c ****       /* Clear EXTI line configuration */
1170:Drivers/STM32H7xx_HAL_Driver/Src/stm32h7xx_hal.c ****       CLEAR_BIT(  *(__IO uint32_t *) (((uint32_t) &(EXTI_D2->EMR1)) + ((EXTI_Line >> 5 ) * 0x10UL))
1171:Drivers/STM32H7xx_HAL_Driver/Src/stm32h7xx_hal.c ****     }
1172:Drivers/STM32H7xx_HAL_Driver/Src/stm32h7xx_hal.c ****     else
1173:Drivers/STM32H7xx_HAL_Driver/Src/stm32h7xx_hal.c ****     {
1174:Drivers/STM32H7xx_HAL_Driver/Src/stm32h7xx_hal.c ****       SET_BIT(  *(__IO uint32_t *) (((uint32_t) &(EXTI_D2->EMR1)) + ((EXTI_Line >> 5 ) * 0x10UL)), 
1175:Drivers/STM32H7xx_HAL_Driver/Src/stm32h7xx_hal.c ****     }
1176:Drivers/STM32H7xx_HAL_Driver/Src/stm32h7xx_hal.c ****   }
1177:Drivers/STM32H7xx_HAL_Driver/Src/stm32h7xx_hal.c **** }
1178:Drivers/STM32H7xx_HAL_Driver/Src/stm32h7xx_hal.c **** #endif /*DUAL_CORE*/
1179:Drivers/STM32H7xx_HAL_Driver/Src/stm32h7xx_hal.c **** 
1180:Drivers/STM32H7xx_HAL_Driver/Src/stm32h7xx_hal.c **** /**
1181:Drivers/STM32H7xx_HAL_Driver/Src/stm32h7xx_hal.c ****   * @brief  Configure the EXTI input event line for Domain D3
1182:Drivers/STM32H7xx_HAL_Driver/Src/stm32h7xx_hal.c ****   * @param   EXTI_Line: Specifies the EXTI LINE, it can be one of the following values,
1183:Drivers/STM32H7xx_HAL_Driver/Src/stm32h7xx_hal.c ****   *         (EXTI_LINE0...EXTI_LINE15),(EXTI_LINE19...EXTI_LINE21),EXTI_LINE25, EXTI_LINE34,
1184:Drivers/STM32H7xx_HAL_Driver/Src/stm32h7xx_hal.c ****   *          EXTI_LINE35,EXTI_LINE41,(EXTI_LINE48...EXTI_LINE53)
1185:Drivers/STM32H7xx_HAL_Driver/Src/stm32h7xx_hal.c ****   * @param   EXTI_LineCmd controls (Enable/Disable) the EXTI line.
1186:Drivers/STM32H7xx_HAL_Driver/Src/stm32h7xx_hal.c ****   * @param   EXTI_ClearSrc: Specifies the clear source of D3 pending event.
1187:Drivers/STM32H7xx_HAL_Driver/Src/stm32h7xx_hal.c ****   *          This parameter can be one of the following values :
1188:Drivers/STM32H7xx_HAL_Driver/Src/stm32h7xx_hal.c ****   *   @arg BDMA_CH6_CLEAR : BDMA ch6 event selected as D3 domain pendclear source
1189:Drivers/STM32H7xx_HAL_Driver/Src/stm32h7xx_hal.c ****   *   @arg BDMA_CH7_CLEAR : BDMA ch7 event selected as D3 domain pendclear source
1190:Drivers/STM32H7xx_HAL_Driver/Src/stm32h7xx_hal.c ****   *   @arg LPTIM4_OUT_CLEAR : LPTIM4 out selected as D3 domain pendclear source
1191:Drivers/STM32H7xx_HAL_Driver/Src/stm32h7xx_hal.c ****   *   @arg LPTIM5_OUT_CLEAR : LPTIM5 out selected as D3 domain pendclear source
1192:Drivers/STM32H7xx_HAL_Driver/Src/stm32h7xx_hal.c ****   * @retval None
ARM GAS  /tmp/cclcb5qw.s 			page 56


1193:Drivers/STM32H7xx_HAL_Driver/Src/stm32h7xx_hal.c ****   */
1194:Drivers/STM32H7xx_HAL_Driver/Src/stm32h7xx_hal.c **** void HAL_EXTI_D3_EventInputConfig(uint32_t EXTI_Line, uint32_t EXTI_LineCmd , uint32_t EXTI_ClearSr
1195:Drivers/STM32H7xx_HAL_Driver/Src/stm32h7xx_hal.c **** {
 1970              		.loc 1 1195 1 is_stmt 1 view -0
 1971              		.cfi_startproc
 1972              		@ args = 0, pretend = 0, frame = 0
 1973              		@ frame_needed = 0, uses_anonymous_args = 0
 1974              		@ link register save eliminated.
 1975              		.loc 1 1195 1 is_stmt 0 view .LVU318
 1976 0000 70B4     		push	{r4, r5, r6}
 1977              	.LCFI15:
 1978              		.cfi_def_cfa_offset 12
 1979              		.cfi_offset 4, -12
 1980              		.cfi_offset 5, -8
 1981              		.cfi_offset 6, -4
1196:Drivers/STM32H7xx_HAL_Driver/Src/stm32h7xx_hal.c ****   __IO uint32_t *pRegv;
 1982              		.loc 1 1196 3 is_stmt 1 view .LVU319
1197:Drivers/STM32H7xx_HAL_Driver/Src/stm32h7xx_hal.c **** 
1198:Drivers/STM32H7xx_HAL_Driver/Src/stm32h7xx_hal.c ****   /* Check the parameter */
1199:Drivers/STM32H7xx_HAL_Driver/Src/stm32h7xx_hal.c ****   assert_param(IS_EXTI_D3_LINE(EXTI_Line));
 1983              		.loc 1 1199 3 view .LVU320
1200:Drivers/STM32H7xx_HAL_Driver/Src/stm32h7xx_hal.c ****   assert_param(IS_EXTI_D3_CLEAR(EXTI_ClearSrc));
 1984              		.loc 1 1200 3 view .LVU321
1201:Drivers/STM32H7xx_HAL_Driver/Src/stm32h7xx_hal.c **** 
1202:Drivers/STM32H7xx_HAL_Driver/Src/stm32h7xx_hal.c ****   if( EXTI_LineCmd == 0UL)
 1985              		.loc 1 1202 3 view .LVU322
 1986              		.loc 1 1202 5 is_stmt 0 view .LVU323
 1987 0002 F9B9     		cbnz	r1, .L189
1203:Drivers/STM32H7xx_HAL_Driver/Src/stm32h7xx_hal.c ****   {
1204:Drivers/STM32H7xx_HAL_Driver/Src/stm32h7xx_hal.c ****     /* Clear EXTI line configuration */
1205:Drivers/STM32H7xx_HAL_Driver/Src/stm32h7xx_hal.c ****     CLEAR_BIT(*(__IO uint32_t *) (((uint32_t) &(EXTI->D3PMR1)) + ((EXTI_Line >> 5 ) * 0x20UL)),(uin
 1988              		.loc 1 1205 5 is_stmt 1 view .LVU324
 1989 0004 20F01F03 		bic	r3, r0, #31
 1990 0008 164D     		ldr	r5, .L194
 1991 000a 5959     		ldr	r1, [r3, r5]
 1992              	.LVL57:
 1993              		.loc 1 1205 5 is_stmt 0 view .LVU325
 1994 000c 00F01F06 		and	r6, r0, #31
 1995 0010 0124     		movs	r4, #1
 1996 0012 B440     		lsls	r4, r4, r6
 1997 0014 21EA0401 		bic	r1, r1, r4
 1998 0018 5951     		str	r1, [r3, r5]
 1999              	.L190:
1206:Drivers/STM32H7xx_HAL_Driver/Src/stm32h7xx_hal.c ****   }
1207:Drivers/STM32H7xx_HAL_Driver/Src/stm32h7xx_hal.c ****   else
1208:Drivers/STM32H7xx_HAL_Driver/Src/stm32h7xx_hal.c ****   {
1209:Drivers/STM32H7xx_HAL_Driver/Src/stm32h7xx_hal.c ****     SET_BIT(*(__IO uint32_t *) (((uint32_t) &(EXTI->D3PMR1)) +((EXTI_Line >> 5 ) * 0x20UL)), (uint3
1210:Drivers/STM32H7xx_HAL_Driver/Src/stm32h7xx_hal.c ****   }
1211:Drivers/STM32H7xx_HAL_Driver/Src/stm32h7xx_hal.c **** 
1212:Drivers/STM32H7xx_HAL_Driver/Src/stm32h7xx_hal.c ****   if(((EXTI_Line>>4)%2UL) == 0UL)
 2000              		.loc 1 1212 3 is_stmt 1 view .LVU326
 2001              		.loc 1 1212 5 is_stmt 0 view .LVU327
 2002 001a 10F0100F 		tst	r0, #16
 2003 001e 1CD1     		bne	.L191
1213:Drivers/STM32H7xx_HAL_Driver/Src/stm32h7xx_hal.c ****   {
1214:Drivers/STM32H7xx_HAL_Driver/Src/stm32h7xx_hal.c ****     pRegv = (__IO uint32_t *) (((uint32_t) &(EXTI->D3PCR1L)) + ((EXTI_Line >> 5 ) * 0x20UL));
 2004              		.loc 1 1214 5 is_stmt 1 view .LVU328
ARM GAS  /tmp/cclcb5qw.s 			page 57


 2005              		.loc 1 1214 83 is_stmt 0 view .LVU329
 2006 0020 20F01F03 		bic	r3, r0, #31
 2007              		.loc 1 1214 62 view .LVU330
 2008 0024 1049     		ldr	r1, .L194+4
 2009 0026 1944     		add	r1, r1, r3
 2010              	.LVL58:
 2011              	.L192:
1215:Drivers/STM32H7xx_HAL_Driver/Src/stm32h7xx_hal.c ****   }
1216:Drivers/STM32H7xx_HAL_Driver/Src/stm32h7xx_hal.c ****   else
1217:Drivers/STM32H7xx_HAL_Driver/Src/stm32h7xx_hal.c ****   {
1218:Drivers/STM32H7xx_HAL_Driver/Src/stm32h7xx_hal.c ****     pRegv = (__IO uint32_t *) (((uint32_t) &(EXTI->D3PCR1H)) + ((EXTI_Line >> 5 ) * 0x20UL));
1219:Drivers/STM32H7xx_HAL_Driver/Src/stm32h7xx_hal.c ****   }
1220:Drivers/STM32H7xx_HAL_Driver/Src/stm32h7xx_hal.c ****   MODIFY_REG(*pRegv, (uint32_t)(3UL << ((EXTI_Line*2UL) & 0x1FUL)), (uint32_t)(EXTI_ClearSrc << ((E
 2012              		.loc 1 1220 3 is_stmt 1 view .LVU331
 2013 0028 0B68     		ldr	r3, [r1]
 2014 002a 4000     		lsls	r0, r0, #1
 2015              	.LVL59:
 2016              		.loc 1 1220 3 is_stmt 0 view .LVU332
 2017 002c 00F01E00 		and	r0, r0, #30
 2018 0030 0324     		movs	r4, #3
 2019 0032 8440     		lsls	r4, r4, r0
 2020 0034 23EA0403 		bic	r3, r3, r4
 2021 0038 02FA00F0 		lsl	r0, r2, r0
 2022 003c 1843     		orrs	r0, r0, r3
 2023 003e 0860     		str	r0, [r1]
1221:Drivers/STM32H7xx_HAL_Driver/Src/stm32h7xx_hal.c **** 
1222:Drivers/STM32H7xx_HAL_Driver/Src/stm32h7xx_hal.c **** }
 2024              		.loc 1 1222 1 view .LVU333
 2025 0040 70BC     		pop	{r4, r5, r6}
 2026              	.LCFI16:
 2027              		.cfi_remember_state
 2028              		.cfi_restore 6
 2029              		.cfi_restore 5
 2030              		.cfi_restore 4
 2031              		.cfi_def_cfa_offset 0
 2032 0042 7047     		bx	lr
 2033              	.LVL60:
 2034              	.L189:
 2035              	.LCFI17:
 2036              		.cfi_restore_state
1209:Drivers/STM32H7xx_HAL_Driver/Src/stm32h7xx_hal.c ****   }
 2037              		.loc 1 1209 5 is_stmt 1 view .LVU334
 2038 0044 20F01F03 		bic	r3, r0, #31
 2039 0048 064D     		ldr	r5, .L194
 2040 004a 5959     		ldr	r1, [r3, r5]
 2041              	.LVL61:
1209:Drivers/STM32H7xx_HAL_Driver/Src/stm32h7xx_hal.c ****   }
 2042              		.loc 1 1209 5 is_stmt 0 view .LVU335
 2043 004c 00F01F06 		and	r6, r0, #31
 2044 0050 0124     		movs	r4, #1
 2045 0052 B440     		lsls	r4, r4, r6
 2046 0054 2143     		orrs	r1, r1, r4
 2047 0056 5951     		str	r1, [r3, r5]
 2048 0058 DFE7     		b	.L190
 2049              	.L191:
1218:Drivers/STM32H7xx_HAL_Driver/Src/stm32h7xx_hal.c ****   }
 2050              		.loc 1 1218 5 is_stmt 1 view .LVU336
ARM GAS  /tmp/cclcb5qw.s 			page 58


1218:Drivers/STM32H7xx_HAL_Driver/Src/stm32h7xx_hal.c ****   }
 2051              		.loc 1 1218 83 is_stmt 0 view .LVU337
 2052 005a 20F01F03 		bic	r3, r0, #31
1218:Drivers/STM32H7xx_HAL_Driver/Src/stm32h7xx_hal.c ****   }
 2053              		.loc 1 1218 62 view .LVU338
 2054 005e 0349     		ldr	r1, .L194+8
 2055 0060 1944     		add	r1, r1, r3
 2056              	.LVL62:
1218:Drivers/STM32H7xx_HAL_Driver/Src/stm32h7xx_hal.c ****   }
 2057              		.loc 1 1218 62 view .LVU339
 2058 0062 E1E7     		b	.L192
 2059              	.L195:
 2060              		.align	2
 2061              	.L194:
 2062 0064 0C000058 		.word	1476395020
 2063 0068 10000058 		.word	1476395024
 2064 006c 14000058 		.word	1476395028
 2065              		.cfi_endproc
 2066              	.LFE192:
 2068              		.global	uwTickFreq
 2069              		.global	uwTickPrio
 2070              		.comm	uwTick,4,4
 2071              		.section	.data.uwTickFreq,"aw"
 2072              		.set	.LANCHOR0,. + 0
 2075              	uwTickFreq:
 2076 0000 01       		.byte	1
 2077              		.section	.data.uwTickPrio,"aw"
 2078              		.align	2
 2079              		.set	.LANCHOR1,. + 0
 2082              	uwTickPrio:
 2083 0000 10000000 		.word	16
 2084              		.text
 2085              	.Letext0:
 2086              		.file 2 "/usr/arm-none-eabi/include/machine/_default_types.h"
 2087              		.file 3 "/usr/arm-none-eabi/include/sys/_stdint.h"
 2088              		.file 4 "Drivers/CMSIS/Include/core_cm7.h"
 2089              		.file 5 "Drivers/CMSIS/Device/ST/STM32H7xx/Include/system_stm32h7xx.h"
 2090              		.file 6 "Drivers/CMSIS/Device/ST/STM32H7xx/Include/stm32h743xx.h"
 2091              		.file 7 "/usr/arm-none-eabi/include/sys/lock.h"
 2092              		.file 8 "/usr/arm-none-eabi/include/sys/_types.h"
 2093              		.file 9 "/usr/lib/gcc/arm-none-eabi/9.1.0/include/stddef.h"
 2094              		.file 10 "/usr/arm-none-eabi/include/sys/reent.h"
 2095              		.file 11 "/usr/arm-none-eabi/include/math.h"
 2096              		.file 12 "Drivers/STM32H7xx_HAL_Driver/Inc/stm32h7xx_hal_def.h"
 2097              		.file 13 "Drivers/STM32H7xx_HAL_Driver/Inc/stm32h7xx_hal_flash.h"
 2098              		.file 14 "Drivers/STM32H7xx_HAL_Driver/Inc/stm32h7xx_hal.h"
 2099              		.file 15 "Drivers/STM32H7xx_HAL_Driver/Inc/stm32h7xx_hal_cortex.h"
 2100              		.file 16 "Drivers/STM32H7xx_HAL_Driver/Inc/stm32h7xx_hal_rcc.h"
ARM GAS  /tmp/cclcb5qw.s 			page 59

