ARM GAS  /tmp/ccPfK4K4.s 			page 1


   1              		.cpu cortex-m7
   2              		.eabi_attribute 28, 1
   3              		.eabi_attribute 20, 1
   4              		.eabi_attribute 21, 1
   5              		.eabi_attribute 23, 3
   6              		.eabi_attribute 24, 1
   7              		.eabi_attribute 25, 1
   8              		.eabi_attribute 26, 1
   9              		.eabi_attribute 30, 1
  10              		.eabi_attribute 34, 1
  11              		.eabi_attribute 18, 4
  12              		.file	"timers.c"
  13              		.text
  14              	.Ltext0:
  15              		.cfi_sections	.debug_frame
  16              		.section	.text.prvGetNextExpireTime,"ax",%progbits
  17              		.align	1
  18              		.arch armv7e-m
  19              		.syntax unified
  20              		.thumb
  21              		.thumb_func
  22              		.fpu fpv5-d16
  24              	prvGetNextExpireTime:
  25              	.LVL0:
  26              	.LFB16:
  27              		.file 1 "Middlewares/Third_Party/FreeRTOS/Source/timers.c"
   1:Middlewares/Third_Party/FreeRTOS/Source/timers.c **** /*
   2:Middlewares/Third_Party/FreeRTOS/Source/timers.c ****  * FreeRTOS Kernel V10.0.1
   3:Middlewares/Third_Party/FreeRTOS/Source/timers.c ****  * Copyright (C) 2017 Amazon.com, Inc. or its affiliates.  All Rights Reserved.
   4:Middlewares/Third_Party/FreeRTOS/Source/timers.c ****  *
   5:Middlewares/Third_Party/FreeRTOS/Source/timers.c ****  * Permission is hereby granted, free of charge, to any person obtaining a copy of
   6:Middlewares/Third_Party/FreeRTOS/Source/timers.c ****  * this software and associated documentation files (the "Software"), to deal in
   7:Middlewares/Third_Party/FreeRTOS/Source/timers.c ****  * the Software without restriction, including without limitation the rights to
   8:Middlewares/Third_Party/FreeRTOS/Source/timers.c ****  * use, copy, modify, merge, publish, distribute, sublicense, and/or sell copies of
   9:Middlewares/Third_Party/FreeRTOS/Source/timers.c ****  * the Software, and to permit persons to whom the Software is furnished to do so,
  10:Middlewares/Third_Party/FreeRTOS/Source/timers.c ****  * subject to the following conditions:
  11:Middlewares/Third_Party/FreeRTOS/Source/timers.c ****  *
  12:Middlewares/Third_Party/FreeRTOS/Source/timers.c ****  * The above copyright notice and this permission notice shall be included in all
  13:Middlewares/Third_Party/FreeRTOS/Source/timers.c ****  * copies or substantial portions of the Software.
  14:Middlewares/Third_Party/FreeRTOS/Source/timers.c ****  *
  15:Middlewares/Third_Party/FreeRTOS/Source/timers.c ****  * THE SOFTWARE IS PROVIDED "AS IS", WITHOUT WARRANTY OF ANY KIND, EXPRESS OR
  16:Middlewares/Third_Party/FreeRTOS/Source/timers.c ****  * IMPLIED, INCLUDING BUT NOT LIMITED TO THE WARRANTIES OF MERCHANTABILITY, FITNESS
  17:Middlewares/Third_Party/FreeRTOS/Source/timers.c ****  * FOR A PARTICULAR PURPOSE AND NONINFRINGEMENT. IN NO EVENT SHALL THE AUTHORS OR
  18:Middlewares/Third_Party/FreeRTOS/Source/timers.c ****  * COPYRIGHT HOLDERS BE LIABLE FOR ANY CLAIM, DAMAGES OR OTHER LIABILITY, WHETHER
  19:Middlewares/Third_Party/FreeRTOS/Source/timers.c ****  * IN AN ACTION OF CONTRACT, TORT OR OTHERWISE, ARISING FROM, OUT OF OR IN
  20:Middlewares/Third_Party/FreeRTOS/Source/timers.c ****  * CONNECTION WITH THE SOFTWARE OR THE USE OR OTHER DEALINGS IN THE SOFTWARE.
  21:Middlewares/Third_Party/FreeRTOS/Source/timers.c ****  *
  22:Middlewares/Third_Party/FreeRTOS/Source/timers.c ****  * http://www.FreeRTOS.org
  23:Middlewares/Third_Party/FreeRTOS/Source/timers.c ****  * http://aws.amazon.com/freertos
  24:Middlewares/Third_Party/FreeRTOS/Source/timers.c ****  *
  25:Middlewares/Third_Party/FreeRTOS/Source/timers.c ****  * 1 tab == 4 spaces!
  26:Middlewares/Third_Party/FreeRTOS/Source/timers.c ****  */
  27:Middlewares/Third_Party/FreeRTOS/Source/timers.c **** 
  28:Middlewares/Third_Party/FreeRTOS/Source/timers.c **** /* Standard includes. */
  29:Middlewares/Third_Party/FreeRTOS/Source/timers.c **** #include <stdlib.h>
  30:Middlewares/Third_Party/FreeRTOS/Source/timers.c **** 
  31:Middlewares/Third_Party/FreeRTOS/Source/timers.c **** /* Defining MPU_WRAPPERS_INCLUDED_FROM_API_FILE prevents task.h from redefining
ARM GAS  /tmp/ccPfK4K4.s 			page 2


  32:Middlewares/Third_Party/FreeRTOS/Source/timers.c **** all the API functions to use the MPU wrappers.  That should only be done when
  33:Middlewares/Third_Party/FreeRTOS/Source/timers.c **** task.h is included from an application file. */
  34:Middlewares/Third_Party/FreeRTOS/Source/timers.c **** #define MPU_WRAPPERS_INCLUDED_FROM_API_FILE
  35:Middlewares/Third_Party/FreeRTOS/Source/timers.c **** 
  36:Middlewares/Third_Party/FreeRTOS/Source/timers.c **** #include "FreeRTOS.h"
  37:Middlewares/Third_Party/FreeRTOS/Source/timers.c **** #include "task.h"
  38:Middlewares/Third_Party/FreeRTOS/Source/timers.c **** #include "queue.h"
  39:Middlewares/Third_Party/FreeRTOS/Source/timers.c **** #include "timers.h"
  40:Middlewares/Third_Party/FreeRTOS/Source/timers.c **** 
  41:Middlewares/Third_Party/FreeRTOS/Source/timers.c **** #if ( INCLUDE_xTimerPendFunctionCall == 1 ) && ( configUSE_TIMERS == 0 )
  42:Middlewares/Third_Party/FreeRTOS/Source/timers.c **** 	#error configUSE_TIMERS must be set to 1 to make the xTimerPendFunctionCall() function available.
  43:Middlewares/Third_Party/FreeRTOS/Source/timers.c **** #endif
  44:Middlewares/Third_Party/FreeRTOS/Source/timers.c **** 
  45:Middlewares/Third_Party/FreeRTOS/Source/timers.c **** /* Lint e961 and e750 are suppressed as a MISRA exception justified because the
  46:Middlewares/Third_Party/FreeRTOS/Source/timers.c **** MPU ports require MPU_WRAPPERS_INCLUDED_FROM_API_FILE to be defined for the
  47:Middlewares/Third_Party/FreeRTOS/Source/timers.c **** header files above, but not in this file, in order to generate the correct
  48:Middlewares/Third_Party/FreeRTOS/Source/timers.c **** privileged Vs unprivileged linkage and placement. */
  49:Middlewares/Third_Party/FreeRTOS/Source/timers.c **** #undef MPU_WRAPPERS_INCLUDED_FROM_API_FILE /*lint !e961 !e750. */
  50:Middlewares/Third_Party/FreeRTOS/Source/timers.c **** 
  51:Middlewares/Third_Party/FreeRTOS/Source/timers.c **** 
  52:Middlewares/Third_Party/FreeRTOS/Source/timers.c **** /* This entire source file will be skipped if the application is not configured
  53:Middlewares/Third_Party/FreeRTOS/Source/timers.c **** to include software timer functionality.  This #if is closed at the very bottom
  54:Middlewares/Third_Party/FreeRTOS/Source/timers.c **** of this file.  If you want to include software timer functionality then ensure
  55:Middlewares/Third_Party/FreeRTOS/Source/timers.c **** configUSE_TIMERS is set to 1 in FreeRTOSConfig.h. */
  56:Middlewares/Third_Party/FreeRTOS/Source/timers.c **** #if ( configUSE_TIMERS == 1 )
  57:Middlewares/Third_Party/FreeRTOS/Source/timers.c **** 
  58:Middlewares/Third_Party/FreeRTOS/Source/timers.c **** /* Misc definitions. */
  59:Middlewares/Third_Party/FreeRTOS/Source/timers.c **** #define tmrNO_DELAY		( TickType_t ) 0U
  60:Middlewares/Third_Party/FreeRTOS/Source/timers.c **** 
  61:Middlewares/Third_Party/FreeRTOS/Source/timers.c **** /* The name assigned to the timer service task.  This can be overridden by
  62:Middlewares/Third_Party/FreeRTOS/Source/timers.c **** defining trmTIMER_SERVICE_TASK_NAME in FreeRTOSConfig.h. */
  63:Middlewares/Third_Party/FreeRTOS/Source/timers.c **** #ifndef configTIMER_SERVICE_TASK_NAME
  64:Middlewares/Third_Party/FreeRTOS/Source/timers.c **** 	#define configTIMER_SERVICE_TASK_NAME "Tmr Svc"
  65:Middlewares/Third_Party/FreeRTOS/Source/timers.c **** #endif
  66:Middlewares/Third_Party/FreeRTOS/Source/timers.c **** 
  67:Middlewares/Third_Party/FreeRTOS/Source/timers.c **** /* The definition of the timers themselves. */
  68:Middlewares/Third_Party/FreeRTOS/Source/timers.c **** typedef struct tmrTimerControl
  69:Middlewares/Third_Party/FreeRTOS/Source/timers.c **** {
  70:Middlewares/Third_Party/FreeRTOS/Source/timers.c **** 	const char				*pcTimerName;		/*<< Text name.  This is not used by the kernel, it is included simpl
  71:Middlewares/Third_Party/FreeRTOS/Source/timers.c **** 	ListItem_t				xTimerListItem;		/*<< Standard linked list item as used by all kernel features for e
  72:Middlewares/Third_Party/FreeRTOS/Source/timers.c **** 	TickType_t				xTimerPeriodInTicks;/*<< How quickly and often the timer expires. */
  73:Middlewares/Third_Party/FreeRTOS/Source/timers.c **** 	UBaseType_t				uxAutoReload;		/*<< Set to pdTRUE if the timer should be automatically restarted on
  74:Middlewares/Third_Party/FreeRTOS/Source/timers.c **** 	void 					*pvTimerID;			/*<< An ID to identify the timer.  This allows the timer to be identified 
  75:Middlewares/Third_Party/FreeRTOS/Source/timers.c **** 	TimerCallbackFunction_t	pxCallbackFunction;	/*<< The function that will be called when the timer e
  76:Middlewares/Third_Party/FreeRTOS/Source/timers.c **** 	#if( configUSE_TRACE_FACILITY == 1 )
  77:Middlewares/Third_Party/FreeRTOS/Source/timers.c **** 		UBaseType_t			uxTimerNumber;		/*<< An ID assigned by trace tools such as FreeRTOS+Trace */
  78:Middlewares/Third_Party/FreeRTOS/Source/timers.c **** 	#endif
  79:Middlewares/Third_Party/FreeRTOS/Source/timers.c **** 
  80:Middlewares/Third_Party/FreeRTOS/Source/timers.c **** 	#if( ( configSUPPORT_STATIC_ALLOCATION == 1 ) && ( configSUPPORT_DYNAMIC_ALLOCATION == 1 ) )
  81:Middlewares/Third_Party/FreeRTOS/Source/timers.c **** 		uint8_t 			ucStaticallyAllocated; /*<< Set to pdTRUE if the timer was created statically so no at
  82:Middlewares/Third_Party/FreeRTOS/Source/timers.c **** 	#endif
  83:Middlewares/Third_Party/FreeRTOS/Source/timers.c **** } xTIMER;
  84:Middlewares/Third_Party/FreeRTOS/Source/timers.c **** 
  85:Middlewares/Third_Party/FreeRTOS/Source/timers.c **** /* The old xTIMER name is maintained above then typedefed to the new Timer_t
  86:Middlewares/Third_Party/FreeRTOS/Source/timers.c **** name below to enable the use of older kernel aware debuggers. */
  87:Middlewares/Third_Party/FreeRTOS/Source/timers.c **** typedef xTIMER Timer_t;
  88:Middlewares/Third_Party/FreeRTOS/Source/timers.c **** 
ARM GAS  /tmp/ccPfK4K4.s 			page 3


  89:Middlewares/Third_Party/FreeRTOS/Source/timers.c **** /* The definition of messages that can be sent and received on the timer queue.
  90:Middlewares/Third_Party/FreeRTOS/Source/timers.c **** Two types of message can be queued - messages that manipulate a software timer,
  91:Middlewares/Third_Party/FreeRTOS/Source/timers.c **** and messages that request the execution of a non-timer related callback.  The
  92:Middlewares/Third_Party/FreeRTOS/Source/timers.c **** two message types are defined in two separate structures, xTimerParametersType
  93:Middlewares/Third_Party/FreeRTOS/Source/timers.c **** and xCallbackParametersType respectively. */
  94:Middlewares/Third_Party/FreeRTOS/Source/timers.c **** typedef struct tmrTimerParameters
  95:Middlewares/Third_Party/FreeRTOS/Source/timers.c **** {
  96:Middlewares/Third_Party/FreeRTOS/Source/timers.c **** 	TickType_t			xMessageValue;		/*<< An optional value used by a subset of commands, for example, whe
  97:Middlewares/Third_Party/FreeRTOS/Source/timers.c **** 	Timer_t *			pxTimer;			/*<< The timer to which the command will be applied. */
  98:Middlewares/Third_Party/FreeRTOS/Source/timers.c **** } TimerParameter_t;
  99:Middlewares/Third_Party/FreeRTOS/Source/timers.c **** 
 100:Middlewares/Third_Party/FreeRTOS/Source/timers.c **** 
 101:Middlewares/Third_Party/FreeRTOS/Source/timers.c **** typedef struct tmrCallbackParameters
 102:Middlewares/Third_Party/FreeRTOS/Source/timers.c **** {
 103:Middlewares/Third_Party/FreeRTOS/Source/timers.c **** 	PendedFunction_t	pxCallbackFunction;	/* << The callback function to execute. */
 104:Middlewares/Third_Party/FreeRTOS/Source/timers.c **** 	void *pvParameter1;						/* << The value that will be used as the callback functions first paramet
 105:Middlewares/Third_Party/FreeRTOS/Source/timers.c **** 	uint32_t ulParameter2;					/* << The value that will be used as the callback functions second para
 106:Middlewares/Third_Party/FreeRTOS/Source/timers.c **** } CallbackParameters_t;
 107:Middlewares/Third_Party/FreeRTOS/Source/timers.c **** 
 108:Middlewares/Third_Party/FreeRTOS/Source/timers.c **** /* The structure that contains the two message types, along with an identifier
 109:Middlewares/Third_Party/FreeRTOS/Source/timers.c **** that is used to determine which message type is valid. */
 110:Middlewares/Third_Party/FreeRTOS/Source/timers.c **** typedef struct tmrTimerQueueMessage
 111:Middlewares/Third_Party/FreeRTOS/Source/timers.c **** {
 112:Middlewares/Third_Party/FreeRTOS/Source/timers.c **** 	BaseType_t			xMessageID;			/*<< The command being sent to the timer service task. */
 113:Middlewares/Third_Party/FreeRTOS/Source/timers.c **** 	union
 114:Middlewares/Third_Party/FreeRTOS/Source/timers.c **** 	{
 115:Middlewares/Third_Party/FreeRTOS/Source/timers.c **** 		TimerParameter_t xTimerParameters;
 116:Middlewares/Third_Party/FreeRTOS/Source/timers.c **** 
 117:Middlewares/Third_Party/FreeRTOS/Source/timers.c **** 		/* Don't include xCallbackParameters if it is not going to be used as
 118:Middlewares/Third_Party/FreeRTOS/Source/timers.c **** 		it makes the structure (and therefore the timer queue) larger. */
 119:Middlewares/Third_Party/FreeRTOS/Source/timers.c **** 		#if ( INCLUDE_xTimerPendFunctionCall == 1 )
 120:Middlewares/Third_Party/FreeRTOS/Source/timers.c **** 			CallbackParameters_t xCallbackParameters;
 121:Middlewares/Third_Party/FreeRTOS/Source/timers.c **** 		#endif /* INCLUDE_xTimerPendFunctionCall */
 122:Middlewares/Third_Party/FreeRTOS/Source/timers.c **** 	} u;
 123:Middlewares/Third_Party/FreeRTOS/Source/timers.c **** } DaemonTaskMessage_t;
 124:Middlewares/Third_Party/FreeRTOS/Source/timers.c **** 
 125:Middlewares/Third_Party/FreeRTOS/Source/timers.c **** /*lint -save -e956 A manual analysis and inspection has been used to determine
 126:Middlewares/Third_Party/FreeRTOS/Source/timers.c **** which static variables must be declared volatile. */
 127:Middlewares/Third_Party/FreeRTOS/Source/timers.c **** 
 128:Middlewares/Third_Party/FreeRTOS/Source/timers.c **** /* The list in which active timers are stored.  Timers are referenced in expire
 129:Middlewares/Third_Party/FreeRTOS/Source/timers.c **** time order, with the nearest expiry time at the front of the list.  Only the
 130:Middlewares/Third_Party/FreeRTOS/Source/timers.c **** timer service task is allowed to access these lists. */
 131:Middlewares/Third_Party/FreeRTOS/Source/timers.c **** PRIVILEGED_DATA static List_t xActiveTimerList1 = {0};
 132:Middlewares/Third_Party/FreeRTOS/Source/timers.c **** PRIVILEGED_DATA static List_t xActiveTimerList2 = {0};
 133:Middlewares/Third_Party/FreeRTOS/Source/timers.c **** PRIVILEGED_DATA static List_t *pxCurrentTimerList = NULL;
 134:Middlewares/Third_Party/FreeRTOS/Source/timers.c **** PRIVILEGED_DATA static List_t *pxOverflowTimerList = NULL;
 135:Middlewares/Third_Party/FreeRTOS/Source/timers.c **** 
 136:Middlewares/Third_Party/FreeRTOS/Source/timers.c **** /* A queue that is used to send commands to the timer service task. */
 137:Middlewares/Third_Party/FreeRTOS/Source/timers.c **** PRIVILEGED_DATA static QueueHandle_t xTimerQueue = NULL;
 138:Middlewares/Third_Party/FreeRTOS/Source/timers.c **** PRIVILEGED_DATA static TaskHandle_t xTimerTaskHandle = NULL;
 139:Middlewares/Third_Party/FreeRTOS/Source/timers.c **** 
 140:Middlewares/Third_Party/FreeRTOS/Source/timers.c **** /*lint -restore */
 141:Middlewares/Third_Party/FreeRTOS/Source/timers.c **** 
 142:Middlewares/Third_Party/FreeRTOS/Source/timers.c **** /*-----------------------------------------------------------*/
 143:Middlewares/Third_Party/FreeRTOS/Source/timers.c **** 
 144:Middlewares/Third_Party/FreeRTOS/Source/timers.c **** #if( configSUPPORT_STATIC_ALLOCATION == 1 )
 145:Middlewares/Third_Party/FreeRTOS/Source/timers.c **** 
ARM GAS  /tmp/ccPfK4K4.s 			page 4


 146:Middlewares/Third_Party/FreeRTOS/Source/timers.c **** 	/* If static allocation is supported then the application must provide the
 147:Middlewares/Third_Party/FreeRTOS/Source/timers.c **** 	following callback function - which enables the application to optionally
 148:Middlewares/Third_Party/FreeRTOS/Source/timers.c **** 	provide the memory that will be used by the timer task as the task's stack
 149:Middlewares/Third_Party/FreeRTOS/Source/timers.c **** 	and TCB. */
 150:Middlewares/Third_Party/FreeRTOS/Source/timers.c **** 	extern void vApplicationGetTimerTaskMemory( StaticTask_t **ppxTimerTaskTCBBuffer, StackType_t **pp
 151:Middlewares/Third_Party/FreeRTOS/Source/timers.c **** 
 152:Middlewares/Third_Party/FreeRTOS/Source/timers.c **** #endif
 153:Middlewares/Third_Party/FreeRTOS/Source/timers.c **** 
 154:Middlewares/Third_Party/FreeRTOS/Source/timers.c **** /*
 155:Middlewares/Third_Party/FreeRTOS/Source/timers.c ****  * Initialise the infrastructure used by the timer service task if it has not
 156:Middlewares/Third_Party/FreeRTOS/Source/timers.c ****  * been initialised already.
 157:Middlewares/Third_Party/FreeRTOS/Source/timers.c ****  */
 158:Middlewares/Third_Party/FreeRTOS/Source/timers.c **** static void prvCheckForValidListAndQueue( void ) PRIVILEGED_FUNCTION;
 159:Middlewares/Third_Party/FreeRTOS/Source/timers.c **** 
 160:Middlewares/Third_Party/FreeRTOS/Source/timers.c **** /*
 161:Middlewares/Third_Party/FreeRTOS/Source/timers.c ****  * The timer service task (daemon).  Timer functionality is controlled by this
 162:Middlewares/Third_Party/FreeRTOS/Source/timers.c ****  * task.  Other tasks communicate with the timer service task using the
 163:Middlewares/Third_Party/FreeRTOS/Source/timers.c ****  * xTimerQueue queue.
 164:Middlewares/Third_Party/FreeRTOS/Source/timers.c ****  */
 165:Middlewares/Third_Party/FreeRTOS/Source/timers.c **** static void prvTimerTask( void *pvParameters ) PRIVILEGED_FUNCTION;
 166:Middlewares/Third_Party/FreeRTOS/Source/timers.c **** 
 167:Middlewares/Third_Party/FreeRTOS/Source/timers.c **** /*
 168:Middlewares/Third_Party/FreeRTOS/Source/timers.c ****  * Called by the timer service task to interpret and process a command it
 169:Middlewares/Third_Party/FreeRTOS/Source/timers.c ****  * received on the timer queue.
 170:Middlewares/Third_Party/FreeRTOS/Source/timers.c ****  */
 171:Middlewares/Third_Party/FreeRTOS/Source/timers.c **** static void prvProcessReceivedCommands( void ) PRIVILEGED_FUNCTION;
 172:Middlewares/Third_Party/FreeRTOS/Source/timers.c **** 
 173:Middlewares/Third_Party/FreeRTOS/Source/timers.c **** /*
 174:Middlewares/Third_Party/FreeRTOS/Source/timers.c ****  * Insert the timer into either xActiveTimerList1, or xActiveTimerList2,
 175:Middlewares/Third_Party/FreeRTOS/Source/timers.c ****  * depending on if the expire time causes a timer counter overflow.
 176:Middlewares/Third_Party/FreeRTOS/Source/timers.c ****  */
 177:Middlewares/Third_Party/FreeRTOS/Source/timers.c **** static BaseType_t prvInsertTimerInActiveList( Timer_t * const pxTimer, const TickType_t xNextExpiry
 178:Middlewares/Third_Party/FreeRTOS/Source/timers.c **** 
 179:Middlewares/Third_Party/FreeRTOS/Source/timers.c **** /*
 180:Middlewares/Third_Party/FreeRTOS/Source/timers.c ****  * An active timer has reached its expire time.  Reload the timer if it is an
 181:Middlewares/Third_Party/FreeRTOS/Source/timers.c ****  * auto reload timer, then call its callback.
 182:Middlewares/Third_Party/FreeRTOS/Source/timers.c ****  */
 183:Middlewares/Third_Party/FreeRTOS/Source/timers.c **** static void prvProcessExpiredTimer( const TickType_t xNextExpireTime, const TickType_t xTimeNow ) P
 184:Middlewares/Third_Party/FreeRTOS/Source/timers.c **** 
 185:Middlewares/Third_Party/FreeRTOS/Source/timers.c **** /*
 186:Middlewares/Third_Party/FreeRTOS/Source/timers.c ****  * The tick count has overflowed.  Switch the timer lists after ensuring the
 187:Middlewares/Third_Party/FreeRTOS/Source/timers.c ****  * current timer list does not still reference some timers.
 188:Middlewares/Third_Party/FreeRTOS/Source/timers.c ****  */
 189:Middlewares/Third_Party/FreeRTOS/Source/timers.c **** static void prvSwitchTimerLists( void ) PRIVILEGED_FUNCTION;
 190:Middlewares/Third_Party/FreeRTOS/Source/timers.c **** 
 191:Middlewares/Third_Party/FreeRTOS/Source/timers.c **** /*
 192:Middlewares/Third_Party/FreeRTOS/Source/timers.c ****  * Obtain the current tick count, setting *pxTimerListsWereSwitched to pdTRUE
 193:Middlewares/Third_Party/FreeRTOS/Source/timers.c ****  * if a tick count overflow occurred since prvSampleTimeNow() was last called.
 194:Middlewares/Third_Party/FreeRTOS/Source/timers.c ****  */
 195:Middlewares/Third_Party/FreeRTOS/Source/timers.c **** static TickType_t prvSampleTimeNow( BaseType_t * const pxTimerListsWereSwitched ) PRIVILEGED_FUNCTI
 196:Middlewares/Third_Party/FreeRTOS/Source/timers.c **** 
 197:Middlewares/Third_Party/FreeRTOS/Source/timers.c **** /*
 198:Middlewares/Third_Party/FreeRTOS/Source/timers.c ****  * If the timer list contains any active timers then return the expire time of
 199:Middlewares/Third_Party/FreeRTOS/Source/timers.c ****  * the timer that will expire first and set *pxListWasEmpty to false.  If the
 200:Middlewares/Third_Party/FreeRTOS/Source/timers.c ****  * timer list does not contain any timers then return 0 and set *pxListWasEmpty
 201:Middlewares/Third_Party/FreeRTOS/Source/timers.c ****  * to pdTRUE.
 202:Middlewares/Third_Party/FreeRTOS/Source/timers.c ****  */
ARM GAS  /tmp/ccPfK4K4.s 			page 5


 203:Middlewares/Third_Party/FreeRTOS/Source/timers.c **** static TickType_t prvGetNextExpireTime( BaseType_t * const pxListWasEmpty ) PRIVILEGED_FUNCTION;
 204:Middlewares/Third_Party/FreeRTOS/Source/timers.c **** 
 205:Middlewares/Third_Party/FreeRTOS/Source/timers.c **** /*
 206:Middlewares/Third_Party/FreeRTOS/Source/timers.c ****  * If a timer has expired, process it.  Otherwise, block the timer service task
 207:Middlewares/Third_Party/FreeRTOS/Source/timers.c ****  * until either a timer does expire or a command is received.
 208:Middlewares/Third_Party/FreeRTOS/Source/timers.c ****  */
 209:Middlewares/Third_Party/FreeRTOS/Source/timers.c **** static void prvProcessTimerOrBlockTask( const TickType_t xNextExpireTime, BaseType_t xListWasEmpty 
 210:Middlewares/Third_Party/FreeRTOS/Source/timers.c **** 
 211:Middlewares/Third_Party/FreeRTOS/Source/timers.c **** /*
 212:Middlewares/Third_Party/FreeRTOS/Source/timers.c ****  * Called after a Timer_t structure has been allocated either statically or
 213:Middlewares/Third_Party/FreeRTOS/Source/timers.c ****  * dynamically to fill in the structure's members.
 214:Middlewares/Third_Party/FreeRTOS/Source/timers.c ****  */
 215:Middlewares/Third_Party/FreeRTOS/Source/timers.c **** static void prvInitialiseNewTimer(	const char * const pcTimerName,			/*lint !e971 Unqualified char 
 216:Middlewares/Third_Party/FreeRTOS/Source/timers.c **** 									const TickType_t xTimerPeriodInTicks,
 217:Middlewares/Third_Party/FreeRTOS/Source/timers.c **** 									const UBaseType_t uxAutoReload,
 218:Middlewares/Third_Party/FreeRTOS/Source/timers.c **** 									void * const pvTimerID,
 219:Middlewares/Third_Party/FreeRTOS/Source/timers.c **** 									TimerCallbackFunction_t pxCallbackFunction,
 220:Middlewares/Third_Party/FreeRTOS/Source/timers.c **** 									Timer_t *pxNewTimer ) PRIVILEGED_FUNCTION;
 221:Middlewares/Third_Party/FreeRTOS/Source/timers.c **** /*-----------------------------------------------------------*/
 222:Middlewares/Third_Party/FreeRTOS/Source/timers.c **** 
 223:Middlewares/Third_Party/FreeRTOS/Source/timers.c **** BaseType_t xTimerCreateTimerTask( void )
 224:Middlewares/Third_Party/FreeRTOS/Source/timers.c **** {
 225:Middlewares/Third_Party/FreeRTOS/Source/timers.c **** BaseType_t xReturn = pdFAIL;
 226:Middlewares/Third_Party/FreeRTOS/Source/timers.c **** 
 227:Middlewares/Third_Party/FreeRTOS/Source/timers.c **** 	/* This function is called when the scheduler is started if
 228:Middlewares/Third_Party/FreeRTOS/Source/timers.c **** 	configUSE_TIMERS is set to 1.  Check that the infrastructure used by the
 229:Middlewares/Third_Party/FreeRTOS/Source/timers.c **** 	timer service task has been created/initialised.  If timers have already
 230:Middlewares/Third_Party/FreeRTOS/Source/timers.c **** 	been created then the initialisation will already have been performed. */
 231:Middlewares/Third_Party/FreeRTOS/Source/timers.c **** 	prvCheckForValidListAndQueue();
 232:Middlewares/Third_Party/FreeRTOS/Source/timers.c **** 
 233:Middlewares/Third_Party/FreeRTOS/Source/timers.c **** 	if( xTimerQueue != NULL )
 234:Middlewares/Third_Party/FreeRTOS/Source/timers.c **** 	{
 235:Middlewares/Third_Party/FreeRTOS/Source/timers.c **** 		#if( configSUPPORT_STATIC_ALLOCATION == 1 )
 236:Middlewares/Third_Party/FreeRTOS/Source/timers.c **** 		{
 237:Middlewares/Third_Party/FreeRTOS/Source/timers.c **** 			StaticTask_t *pxTimerTaskTCBBuffer = NULL;
 238:Middlewares/Third_Party/FreeRTOS/Source/timers.c **** 			StackType_t *pxTimerTaskStackBuffer = NULL;
 239:Middlewares/Third_Party/FreeRTOS/Source/timers.c **** 			uint32_t ulTimerTaskStackSize;
 240:Middlewares/Third_Party/FreeRTOS/Source/timers.c **** 
 241:Middlewares/Third_Party/FreeRTOS/Source/timers.c **** 			vApplicationGetTimerTaskMemory( &pxTimerTaskTCBBuffer, &pxTimerTaskStackBuffer, &ulTimerTaskStac
 242:Middlewares/Third_Party/FreeRTOS/Source/timers.c **** 			xTimerTaskHandle = xTaskCreateStatic(	prvTimerTask,
 243:Middlewares/Third_Party/FreeRTOS/Source/timers.c **** 													configTIMER_SERVICE_TASK_NAME,
 244:Middlewares/Third_Party/FreeRTOS/Source/timers.c **** 													ulTimerTaskStackSize,
 245:Middlewares/Third_Party/FreeRTOS/Source/timers.c **** 													NULL,
 246:Middlewares/Third_Party/FreeRTOS/Source/timers.c **** 													( ( UBaseType_t ) configTIMER_TASK_PRIORITY ) | portPRIVILEGE_BIT,
 247:Middlewares/Third_Party/FreeRTOS/Source/timers.c **** 													pxTimerTaskStackBuffer,
 248:Middlewares/Third_Party/FreeRTOS/Source/timers.c **** 													pxTimerTaskTCBBuffer );
 249:Middlewares/Third_Party/FreeRTOS/Source/timers.c **** 
 250:Middlewares/Third_Party/FreeRTOS/Source/timers.c **** 			if( xTimerTaskHandle != NULL )
 251:Middlewares/Third_Party/FreeRTOS/Source/timers.c **** 			{
 252:Middlewares/Third_Party/FreeRTOS/Source/timers.c **** 				xReturn = pdPASS;
 253:Middlewares/Third_Party/FreeRTOS/Source/timers.c **** 			}
 254:Middlewares/Third_Party/FreeRTOS/Source/timers.c **** 		}
 255:Middlewares/Third_Party/FreeRTOS/Source/timers.c **** 		#else
 256:Middlewares/Third_Party/FreeRTOS/Source/timers.c **** 		{
 257:Middlewares/Third_Party/FreeRTOS/Source/timers.c **** 			xReturn = xTaskCreate(	prvTimerTask,
 258:Middlewares/Third_Party/FreeRTOS/Source/timers.c **** 									configTIMER_SERVICE_TASK_NAME,
 259:Middlewares/Third_Party/FreeRTOS/Source/timers.c **** 									configTIMER_TASK_STACK_DEPTH,
ARM GAS  /tmp/ccPfK4K4.s 			page 6


 260:Middlewares/Third_Party/FreeRTOS/Source/timers.c **** 									NULL,
 261:Middlewares/Third_Party/FreeRTOS/Source/timers.c **** 									( ( UBaseType_t ) configTIMER_TASK_PRIORITY ) | portPRIVILEGE_BIT,
 262:Middlewares/Third_Party/FreeRTOS/Source/timers.c **** 									&xTimerTaskHandle );
 263:Middlewares/Third_Party/FreeRTOS/Source/timers.c **** 		}
 264:Middlewares/Third_Party/FreeRTOS/Source/timers.c **** 		#endif /* configSUPPORT_STATIC_ALLOCATION */
 265:Middlewares/Third_Party/FreeRTOS/Source/timers.c **** 	}
 266:Middlewares/Third_Party/FreeRTOS/Source/timers.c **** 	else
 267:Middlewares/Third_Party/FreeRTOS/Source/timers.c **** 	{
 268:Middlewares/Third_Party/FreeRTOS/Source/timers.c **** 		mtCOVERAGE_TEST_MARKER();
 269:Middlewares/Third_Party/FreeRTOS/Source/timers.c **** 	}
 270:Middlewares/Third_Party/FreeRTOS/Source/timers.c **** 
 271:Middlewares/Third_Party/FreeRTOS/Source/timers.c **** 	configASSERT( xReturn );
 272:Middlewares/Third_Party/FreeRTOS/Source/timers.c **** 	return xReturn;
 273:Middlewares/Third_Party/FreeRTOS/Source/timers.c **** }
 274:Middlewares/Third_Party/FreeRTOS/Source/timers.c **** /*-----------------------------------------------------------*/
 275:Middlewares/Third_Party/FreeRTOS/Source/timers.c **** 
 276:Middlewares/Third_Party/FreeRTOS/Source/timers.c **** #if( configSUPPORT_DYNAMIC_ALLOCATION == 1 )
 277:Middlewares/Third_Party/FreeRTOS/Source/timers.c **** 
 278:Middlewares/Third_Party/FreeRTOS/Source/timers.c **** 	TimerHandle_t xTimerCreate(	const char * const pcTimerName,			/*lint !e971 Unqualified char types 
 279:Middlewares/Third_Party/FreeRTOS/Source/timers.c **** 								const TickType_t xTimerPeriodInTicks,
 280:Middlewares/Third_Party/FreeRTOS/Source/timers.c **** 								const UBaseType_t uxAutoReload,
 281:Middlewares/Third_Party/FreeRTOS/Source/timers.c **** 								void * const pvTimerID,
 282:Middlewares/Third_Party/FreeRTOS/Source/timers.c **** 								TimerCallbackFunction_t pxCallbackFunction )
 283:Middlewares/Third_Party/FreeRTOS/Source/timers.c **** 	{
 284:Middlewares/Third_Party/FreeRTOS/Source/timers.c **** 	Timer_t *pxNewTimer;
 285:Middlewares/Third_Party/FreeRTOS/Source/timers.c **** 
 286:Middlewares/Third_Party/FreeRTOS/Source/timers.c **** 		pxNewTimer = ( Timer_t * ) pvPortMalloc( sizeof( Timer_t ) );
 287:Middlewares/Third_Party/FreeRTOS/Source/timers.c **** 
 288:Middlewares/Third_Party/FreeRTOS/Source/timers.c **** 		if( pxNewTimer != NULL )
 289:Middlewares/Third_Party/FreeRTOS/Source/timers.c **** 		{
 290:Middlewares/Third_Party/FreeRTOS/Source/timers.c **** 			prvInitialiseNewTimer( pcTimerName, xTimerPeriodInTicks, uxAutoReload, pvTimerID, pxCallbackFunc
 291:Middlewares/Third_Party/FreeRTOS/Source/timers.c **** 
 292:Middlewares/Third_Party/FreeRTOS/Source/timers.c **** 			#if( configSUPPORT_STATIC_ALLOCATION == 1 )
 293:Middlewares/Third_Party/FreeRTOS/Source/timers.c **** 			{
 294:Middlewares/Third_Party/FreeRTOS/Source/timers.c **** 				/* Timers can be created statically or dynamically, so note this
 295:Middlewares/Third_Party/FreeRTOS/Source/timers.c **** 				timer was created dynamically in case the timer is later
 296:Middlewares/Third_Party/FreeRTOS/Source/timers.c **** 				deleted. */
 297:Middlewares/Third_Party/FreeRTOS/Source/timers.c **** 				pxNewTimer->ucStaticallyAllocated = pdFALSE;
 298:Middlewares/Third_Party/FreeRTOS/Source/timers.c **** 			}
 299:Middlewares/Third_Party/FreeRTOS/Source/timers.c **** 			#endif /* configSUPPORT_STATIC_ALLOCATION */
 300:Middlewares/Third_Party/FreeRTOS/Source/timers.c **** 		}
 301:Middlewares/Third_Party/FreeRTOS/Source/timers.c **** 
 302:Middlewares/Third_Party/FreeRTOS/Source/timers.c **** 		return pxNewTimer;
 303:Middlewares/Third_Party/FreeRTOS/Source/timers.c **** 	}
 304:Middlewares/Third_Party/FreeRTOS/Source/timers.c **** 
 305:Middlewares/Third_Party/FreeRTOS/Source/timers.c **** #endif /* configSUPPORT_STATIC_ALLOCATION */
 306:Middlewares/Third_Party/FreeRTOS/Source/timers.c **** /*-----------------------------------------------------------*/
 307:Middlewares/Third_Party/FreeRTOS/Source/timers.c **** 
 308:Middlewares/Third_Party/FreeRTOS/Source/timers.c **** #if( configSUPPORT_STATIC_ALLOCATION == 1 )
 309:Middlewares/Third_Party/FreeRTOS/Source/timers.c **** 
 310:Middlewares/Third_Party/FreeRTOS/Source/timers.c **** 	TimerHandle_t xTimerCreateStatic(	const char * const pcTimerName,		/*lint !e971 Unqualified char t
 311:Middlewares/Third_Party/FreeRTOS/Source/timers.c **** 										const TickType_t xTimerPeriodInTicks,
 312:Middlewares/Third_Party/FreeRTOS/Source/timers.c **** 										const UBaseType_t uxAutoReload,
 313:Middlewares/Third_Party/FreeRTOS/Source/timers.c **** 										void * const pvTimerID,
 314:Middlewares/Third_Party/FreeRTOS/Source/timers.c **** 										TimerCallbackFunction_t pxCallbackFunction,
 315:Middlewares/Third_Party/FreeRTOS/Source/timers.c **** 										StaticTimer_t *pxTimerBuffer )
 316:Middlewares/Third_Party/FreeRTOS/Source/timers.c **** 	{
ARM GAS  /tmp/ccPfK4K4.s 			page 7


 317:Middlewares/Third_Party/FreeRTOS/Source/timers.c **** 	Timer_t *pxNewTimer;
 318:Middlewares/Third_Party/FreeRTOS/Source/timers.c **** 
 319:Middlewares/Third_Party/FreeRTOS/Source/timers.c **** 		#if( configASSERT_DEFINED == 1 )
 320:Middlewares/Third_Party/FreeRTOS/Source/timers.c **** 		{
 321:Middlewares/Third_Party/FreeRTOS/Source/timers.c **** 			/* Sanity check that the size of the structure used to declare a
 322:Middlewares/Third_Party/FreeRTOS/Source/timers.c **** 			variable of type StaticTimer_t equals the size of the real timer
 323:Middlewares/Third_Party/FreeRTOS/Source/timers.c **** 			structure. */
 324:Middlewares/Third_Party/FreeRTOS/Source/timers.c **** 			volatile size_t xSize = sizeof( StaticTimer_t );
 325:Middlewares/Third_Party/FreeRTOS/Source/timers.c **** 			configASSERT( xSize == sizeof( Timer_t ) );
 326:Middlewares/Third_Party/FreeRTOS/Source/timers.c **** 		}
 327:Middlewares/Third_Party/FreeRTOS/Source/timers.c **** 		#endif /* configASSERT_DEFINED */
 328:Middlewares/Third_Party/FreeRTOS/Source/timers.c **** 
 329:Middlewares/Third_Party/FreeRTOS/Source/timers.c **** 		/* A pointer to a StaticTimer_t structure MUST be provided, use it. */
 330:Middlewares/Third_Party/FreeRTOS/Source/timers.c **** 		configASSERT( pxTimerBuffer );
 331:Middlewares/Third_Party/FreeRTOS/Source/timers.c **** 		pxNewTimer = ( Timer_t * ) pxTimerBuffer; /*lint !e740 Unusual cast is ok as the structures are d
 332:Middlewares/Third_Party/FreeRTOS/Source/timers.c **** 
 333:Middlewares/Third_Party/FreeRTOS/Source/timers.c **** 		if( pxNewTimer != NULL )
 334:Middlewares/Third_Party/FreeRTOS/Source/timers.c **** 		{
 335:Middlewares/Third_Party/FreeRTOS/Source/timers.c **** 			prvInitialiseNewTimer( pcTimerName, xTimerPeriodInTicks, uxAutoReload, pvTimerID, pxCallbackFunc
 336:Middlewares/Third_Party/FreeRTOS/Source/timers.c **** 
 337:Middlewares/Third_Party/FreeRTOS/Source/timers.c **** 			#if( configSUPPORT_DYNAMIC_ALLOCATION == 1 )
 338:Middlewares/Third_Party/FreeRTOS/Source/timers.c **** 			{
 339:Middlewares/Third_Party/FreeRTOS/Source/timers.c **** 				/* Timers can be created statically or dynamically so note this
 340:Middlewares/Third_Party/FreeRTOS/Source/timers.c **** 				timer was created statically in case it is later deleted. */
 341:Middlewares/Third_Party/FreeRTOS/Source/timers.c **** 				pxNewTimer->ucStaticallyAllocated = pdTRUE;
 342:Middlewares/Third_Party/FreeRTOS/Source/timers.c **** 			}
 343:Middlewares/Third_Party/FreeRTOS/Source/timers.c **** 			#endif /* configSUPPORT_DYNAMIC_ALLOCATION */
 344:Middlewares/Third_Party/FreeRTOS/Source/timers.c **** 		}
 345:Middlewares/Third_Party/FreeRTOS/Source/timers.c **** 
 346:Middlewares/Third_Party/FreeRTOS/Source/timers.c **** 		return pxNewTimer;
 347:Middlewares/Third_Party/FreeRTOS/Source/timers.c **** 	}
 348:Middlewares/Third_Party/FreeRTOS/Source/timers.c **** 
 349:Middlewares/Third_Party/FreeRTOS/Source/timers.c **** #endif /* configSUPPORT_STATIC_ALLOCATION */
 350:Middlewares/Third_Party/FreeRTOS/Source/timers.c **** /*-----------------------------------------------------------*/
 351:Middlewares/Third_Party/FreeRTOS/Source/timers.c **** 
 352:Middlewares/Third_Party/FreeRTOS/Source/timers.c **** static void prvInitialiseNewTimer(	const char * const pcTimerName,			/*lint !e971 Unqualified char 
 353:Middlewares/Third_Party/FreeRTOS/Source/timers.c **** 									const TickType_t xTimerPeriodInTicks,
 354:Middlewares/Third_Party/FreeRTOS/Source/timers.c **** 									const UBaseType_t uxAutoReload,
 355:Middlewares/Third_Party/FreeRTOS/Source/timers.c **** 									void * const pvTimerID,
 356:Middlewares/Third_Party/FreeRTOS/Source/timers.c **** 									TimerCallbackFunction_t pxCallbackFunction,
 357:Middlewares/Third_Party/FreeRTOS/Source/timers.c **** 									Timer_t *pxNewTimer )
 358:Middlewares/Third_Party/FreeRTOS/Source/timers.c **** {
 359:Middlewares/Third_Party/FreeRTOS/Source/timers.c **** 	/* 0 is not a valid value for xTimerPeriodInTicks. */
 360:Middlewares/Third_Party/FreeRTOS/Source/timers.c **** 	configASSERT( ( xTimerPeriodInTicks > 0 ) );
 361:Middlewares/Third_Party/FreeRTOS/Source/timers.c **** 
 362:Middlewares/Third_Party/FreeRTOS/Source/timers.c **** 	if( pxNewTimer != NULL )
 363:Middlewares/Third_Party/FreeRTOS/Source/timers.c **** 	{
 364:Middlewares/Third_Party/FreeRTOS/Source/timers.c **** 		/* Ensure the infrastructure used by the timer service task has been
 365:Middlewares/Third_Party/FreeRTOS/Source/timers.c **** 		created/initialised. */
 366:Middlewares/Third_Party/FreeRTOS/Source/timers.c **** 		prvCheckForValidListAndQueue();
 367:Middlewares/Third_Party/FreeRTOS/Source/timers.c **** 
 368:Middlewares/Third_Party/FreeRTOS/Source/timers.c **** 		/* Initialise the timer structure members using the function
 369:Middlewares/Third_Party/FreeRTOS/Source/timers.c **** 		parameters. */
 370:Middlewares/Third_Party/FreeRTOS/Source/timers.c **** 		pxNewTimer->pcTimerName = pcTimerName;
 371:Middlewares/Third_Party/FreeRTOS/Source/timers.c **** 		pxNewTimer->xTimerPeriodInTicks = xTimerPeriodInTicks;
 372:Middlewares/Third_Party/FreeRTOS/Source/timers.c **** 		pxNewTimer->uxAutoReload = uxAutoReload;
 373:Middlewares/Third_Party/FreeRTOS/Source/timers.c **** 		pxNewTimer->pvTimerID = pvTimerID;
ARM GAS  /tmp/ccPfK4K4.s 			page 8


 374:Middlewares/Third_Party/FreeRTOS/Source/timers.c **** 		pxNewTimer->pxCallbackFunction = pxCallbackFunction;
 375:Middlewares/Third_Party/FreeRTOS/Source/timers.c **** 		vListInitialiseItem( &( pxNewTimer->xTimerListItem ) );
 376:Middlewares/Third_Party/FreeRTOS/Source/timers.c **** 		traceTIMER_CREATE( pxNewTimer );
 377:Middlewares/Third_Party/FreeRTOS/Source/timers.c **** 	}
 378:Middlewares/Third_Party/FreeRTOS/Source/timers.c **** }
 379:Middlewares/Third_Party/FreeRTOS/Source/timers.c **** /*-----------------------------------------------------------*/
 380:Middlewares/Third_Party/FreeRTOS/Source/timers.c **** 
 381:Middlewares/Third_Party/FreeRTOS/Source/timers.c **** BaseType_t xTimerGenericCommand( TimerHandle_t xTimer, const BaseType_t xCommandID, const TickType_
 382:Middlewares/Third_Party/FreeRTOS/Source/timers.c **** {
 383:Middlewares/Third_Party/FreeRTOS/Source/timers.c **** BaseType_t xReturn = pdFAIL;
 384:Middlewares/Third_Party/FreeRTOS/Source/timers.c **** DaemonTaskMessage_t xMessage;
 385:Middlewares/Third_Party/FreeRTOS/Source/timers.c **** 
 386:Middlewares/Third_Party/FreeRTOS/Source/timers.c **** 	configASSERT( xTimer );
 387:Middlewares/Third_Party/FreeRTOS/Source/timers.c **** 
 388:Middlewares/Third_Party/FreeRTOS/Source/timers.c **** 	/* Send a message to the timer service task to perform a particular action
 389:Middlewares/Third_Party/FreeRTOS/Source/timers.c **** 	on a particular timer definition. */
 390:Middlewares/Third_Party/FreeRTOS/Source/timers.c **** 	if( xTimerQueue != NULL )
 391:Middlewares/Third_Party/FreeRTOS/Source/timers.c **** 	{
 392:Middlewares/Third_Party/FreeRTOS/Source/timers.c **** 		/* Send a command to the timer service task to start the xTimer timer. */
 393:Middlewares/Third_Party/FreeRTOS/Source/timers.c **** 		xMessage.xMessageID = xCommandID;
 394:Middlewares/Third_Party/FreeRTOS/Source/timers.c **** 		xMessage.u.xTimerParameters.xMessageValue = xOptionalValue;
 395:Middlewares/Third_Party/FreeRTOS/Source/timers.c **** 		xMessage.u.xTimerParameters.pxTimer = ( Timer_t * ) xTimer;
 396:Middlewares/Third_Party/FreeRTOS/Source/timers.c **** 
 397:Middlewares/Third_Party/FreeRTOS/Source/timers.c **** 		if( xCommandID < tmrFIRST_FROM_ISR_COMMAND )
 398:Middlewares/Third_Party/FreeRTOS/Source/timers.c **** 		{
 399:Middlewares/Third_Party/FreeRTOS/Source/timers.c **** 			if( xTaskGetSchedulerState() == taskSCHEDULER_RUNNING )
 400:Middlewares/Third_Party/FreeRTOS/Source/timers.c **** 			{
 401:Middlewares/Third_Party/FreeRTOS/Source/timers.c **** 				xReturn = xQueueSendToBack( xTimerQueue, &xMessage, xTicksToWait );
 402:Middlewares/Third_Party/FreeRTOS/Source/timers.c **** 			}
 403:Middlewares/Third_Party/FreeRTOS/Source/timers.c **** 			else
 404:Middlewares/Third_Party/FreeRTOS/Source/timers.c **** 			{
 405:Middlewares/Third_Party/FreeRTOS/Source/timers.c **** 				xReturn = xQueueSendToBack( xTimerQueue, &xMessage, tmrNO_DELAY );
 406:Middlewares/Third_Party/FreeRTOS/Source/timers.c **** 			}
 407:Middlewares/Third_Party/FreeRTOS/Source/timers.c **** 		}
 408:Middlewares/Third_Party/FreeRTOS/Source/timers.c **** 		else
 409:Middlewares/Third_Party/FreeRTOS/Source/timers.c **** 		{
 410:Middlewares/Third_Party/FreeRTOS/Source/timers.c **** 			xReturn = xQueueSendToBackFromISR( xTimerQueue, &xMessage, pxHigherPriorityTaskWoken );
 411:Middlewares/Third_Party/FreeRTOS/Source/timers.c **** 		}
 412:Middlewares/Third_Party/FreeRTOS/Source/timers.c **** 
 413:Middlewares/Third_Party/FreeRTOS/Source/timers.c **** 		traceTIMER_COMMAND_SEND( xTimer, xCommandID, xOptionalValue, xReturn );
 414:Middlewares/Third_Party/FreeRTOS/Source/timers.c **** 	}
 415:Middlewares/Third_Party/FreeRTOS/Source/timers.c **** 	else
 416:Middlewares/Third_Party/FreeRTOS/Source/timers.c **** 	{
 417:Middlewares/Third_Party/FreeRTOS/Source/timers.c **** 		mtCOVERAGE_TEST_MARKER();
 418:Middlewares/Third_Party/FreeRTOS/Source/timers.c **** 	}
 419:Middlewares/Third_Party/FreeRTOS/Source/timers.c **** 
 420:Middlewares/Third_Party/FreeRTOS/Source/timers.c **** 	return xReturn;
 421:Middlewares/Third_Party/FreeRTOS/Source/timers.c **** }
 422:Middlewares/Third_Party/FreeRTOS/Source/timers.c **** /*-----------------------------------------------------------*/
 423:Middlewares/Third_Party/FreeRTOS/Source/timers.c **** 
 424:Middlewares/Third_Party/FreeRTOS/Source/timers.c **** TaskHandle_t xTimerGetTimerDaemonTaskHandle( void )
 425:Middlewares/Third_Party/FreeRTOS/Source/timers.c **** {
 426:Middlewares/Third_Party/FreeRTOS/Source/timers.c **** 	/* If xTimerGetTimerDaemonTaskHandle() is called before the scheduler has been
 427:Middlewares/Third_Party/FreeRTOS/Source/timers.c **** 	started, then xTimerTaskHandle will be NULL. */
 428:Middlewares/Third_Party/FreeRTOS/Source/timers.c **** 	configASSERT( ( xTimerTaskHandle != NULL ) );
 429:Middlewares/Third_Party/FreeRTOS/Source/timers.c **** 	return xTimerTaskHandle;
 430:Middlewares/Third_Party/FreeRTOS/Source/timers.c **** }
ARM GAS  /tmp/ccPfK4K4.s 			page 9


 431:Middlewares/Third_Party/FreeRTOS/Source/timers.c **** /*-----------------------------------------------------------*/
 432:Middlewares/Third_Party/FreeRTOS/Source/timers.c **** 
 433:Middlewares/Third_Party/FreeRTOS/Source/timers.c **** TickType_t xTimerGetPeriod( TimerHandle_t xTimer )
 434:Middlewares/Third_Party/FreeRTOS/Source/timers.c **** {
 435:Middlewares/Third_Party/FreeRTOS/Source/timers.c **** Timer_t *pxTimer = ( Timer_t * ) xTimer;
 436:Middlewares/Third_Party/FreeRTOS/Source/timers.c **** 
 437:Middlewares/Third_Party/FreeRTOS/Source/timers.c **** 	configASSERT( xTimer );
 438:Middlewares/Third_Party/FreeRTOS/Source/timers.c **** 	return pxTimer->xTimerPeriodInTicks;
 439:Middlewares/Third_Party/FreeRTOS/Source/timers.c **** }
 440:Middlewares/Third_Party/FreeRTOS/Source/timers.c **** /*-----------------------------------------------------------*/
 441:Middlewares/Third_Party/FreeRTOS/Source/timers.c **** 
 442:Middlewares/Third_Party/FreeRTOS/Source/timers.c **** TickType_t xTimerGetExpiryTime( TimerHandle_t xTimer )
 443:Middlewares/Third_Party/FreeRTOS/Source/timers.c **** {
 444:Middlewares/Third_Party/FreeRTOS/Source/timers.c **** Timer_t * pxTimer = ( Timer_t * ) xTimer;
 445:Middlewares/Third_Party/FreeRTOS/Source/timers.c **** TickType_t xReturn;
 446:Middlewares/Third_Party/FreeRTOS/Source/timers.c **** 
 447:Middlewares/Third_Party/FreeRTOS/Source/timers.c **** 	configASSERT( xTimer );
 448:Middlewares/Third_Party/FreeRTOS/Source/timers.c **** 	xReturn = listGET_LIST_ITEM_VALUE( &( pxTimer->xTimerListItem ) );
 449:Middlewares/Third_Party/FreeRTOS/Source/timers.c **** 	return xReturn;
 450:Middlewares/Third_Party/FreeRTOS/Source/timers.c **** }
 451:Middlewares/Third_Party/FreeRTOS/Source/timers.c **** /*-----------------------------------------------------------*/
 452:Middlewares/Third_Party/FreeRTOS/Source/timers.c **** 
 453:Middlewares/Third_Party/FreeRTOS/Source/timers.c **** const char * pcTimerGetName( TimerHandle_t xTimer ) /*lint !e971 Unqualified char types are allowed
 454:Middlewares/Third_Party/FreeRTOS/Source/timers.c **** {
 455:Middlewares/Third_Party/FreeRTOS/Source/timers.c **** Timer_t *pxTimer = ( Timer_t * ) xTimer;
 456:Middlewares/Third_Party/FreeRTOS/Source/timers.c **** 
 457:Middlewares/Third_Party/FreeRTOS/Source/timers.c **** 	configASSERT( xTimer );
 458:Middlewares/Third_Party/FreeRTOS/Source/timers.c **** 	return pxTimer->pcTimerName;
 459:Middlewares/Third_Party/FreeRTOS/Source/timers.c **** }
 460:Middlewares/Third_Party/FreeRTOS/Source/timers.c **** /*-----------------------------------------------------------*/
 461:Middlewares/Third_Party/FreeRTOS/Source/timers.c **** 
 462:Middlewares/Third_Party/FreeRTOS/Source/timers.c **** static void prvProcessExpiredTimer( const TickType_t xNextExpireTime, const TickType_t xTimeNow )
 463:Middlewares/Third_Party/FreeRTOS/Source/timers.c **** {
 464:Middlewares/Third_Party/FreeRTOS/Source/timers.c **** BaseType_t xResult;
 465:Middlewares/Third_Party/FreeRTOS/Source/timers.c **** Timer_t * const pxTimer = ( Timer_t * ) listGET_OWNER_OF_HEAD_ENTRY( pxCurrentTimerList );
 466:Middlewares/Third_Party/FreeRTOS/Source/timers.c **** 
 467:Middlewares/Third_Party/FreeRTOS/Source/timers.c **** 	/* Remove the timer from the list of active timers.  A check has already
 468:Middlewares/Third_Party/FreeRTOS/Source/timers.c **** 	been performed to ensure the list is not empty. */
 469:Middlewares/Third_Party/FreeRTOS/Source/timers.c **** 	( void ) uxListRemove( &( pxTimer->xTimerListItem ) );
 470:Middlewares/Third_Party/FreeRTOS/Source/timers.c **** 	traceTIMER_EXPIRED( pxTimer );
 471:Middlewares/Third_Party/FreeRTOS/Source/timers.c **** 
 472:Middlewares/Third_Party/FreeRTOS/Source/timers.c **** 	/* If the timer is an auto reload timer then calculate the next
 473:Middlewares/Third_Party/FreeRTOS/Source/timers.c **** 	expiry time and re-insert the timer in the list of active timers. */
 474:Middlewares/Third_Party/FreeRTOS/Source/timers.c **** 	if( pxTimer->uxAutoReload == ( UBaseType_t ) pdTRUE )
 475:Middlewares/Third_Party/FreeRTOS/Source/timers.c **** 	{
 476:Middlewares/Third_Party/FreeRTOS/Source/timers.c **** 		/* The timer is inserted into a list using a time relative to anything
 477:Middlewares/Third_Party/FreeRTOS/Source/timers.c **** 		other than the current time.  It will therefore be inserted into the
 478:Middlewares/Third_Party/FreeRTOS/Source/timers.c **** 		correct list relative to the time this task thinks it is now. */
 479:Middlewares/Third_Party/FreeRTOS/Source/timers.c **** 		if( prvInsertTimerInActiveList( pxTimer, ( xNextExpireTime + pxTimer->xTimerPeriodInTicks ), xTim
 480:Middlewares/Third_Party/FreeRTOS/Source/timers.c **** 		{
 481:Middlewares/Third_Party/FreeRTOS/Source/timers.c **** 			/* The timer expired before it was added to the active timer
 482:Middlewares/Third_Party/FreeRTOS/Source/timers.c **** 			list.  Reload it now.  */
 483:Middlewares/Third_Party/FreeRTOS/Source/timers.c **** 			xResult = xTimerGenericCommand( pxTimer, tmrCOMMAND_START_DONT_TRACE, xNextExpireTime, NULL, tmr
 484:Middlewares/Third_Party/FreeRTOS/Source/timers.c **** 			configASSERT( xResult );
 485:Middlewares/Third_Party/FreeRTOS/Source/timers.c **** 			( void ) xResult;
 486:Middlewares/Third_Party/FreeRTOS/Source/timers.c **** 		}
 487:Middlewares/Third_Party/FreeRTOS/Source/timers.c **** 		else
ARM GAS  /tmp/ccPfK4K4.s 			page 10


 488:Middlewares/Third_Party/FreeRTOS/Source/timers.c **** 		{
 489:Middlewares/Third_Party/FreeRTOS/Source/timers.c **** 			mtCOVERAGE_TEST_MARKER();
 490:Middlewares/Third_Party/FreeRTOS/Source/timers.c **** 		}
 491:Middlewares/Third_Party/FreeRTOS/Source/timers.c **** 	}
 492:Middlewares/Third_Party/FreeRTOS/Source/timers.c **** 	else
 493:Middlewares/Third_Party/FreeRTOS/Source/timers.c **** 	{
 494:Middlewares/Third_Party/FreeRTOS/Source/timers.c **** 		mtCOVERAGE_TEST_MARKER();
 495:Middlewares/Third_Party/FreeRTOS/Source/timers.c **** 	}
 496:Middlewares/Third_Party/FreeRTOS/Source/timers.c **** 
 497:Middlewares/Third_Party/FreeRTOS/Source/timers.c **** 	/* Call the timer callback. */
 498:Middlewares/Third_Party/FreeRTOS/Source/timers.c **** 	pxTimer->pxCallbackFunction( ( TimerHandle_t ) pxTimer );
 499:Middlewares/Third_Party/FreeRTOS/Source/timers.c **** }
 500:Middlewares/Third_Party/FreeRTOS/Source/timers.c **** /*-----------------------------------------------------------*/
 501:Middlewares/Third_Party/FreeRTOS/Source/timers.c **** 
 502:Middlewares/Third_Party/FreeRTOS/Source/timers.c **** static void prvTimerTask( void *pvParameters )
 503:Middlewares/Third_Party/FreeRTOS/Source/timers.c **** {
 504:Middlewares/Third_Party/FreeRTOS/Source/timers.c **** TickType_t xNextExpireTime;
 505:Middlewares/Third_Party/FreeRTOS/Source/timers.c **** BaseType_t xListWasEmpty;
 506:Middlewares/Third_Party/FreeRTOS/Source/timers.c **** 
 507:Middlewares/Third_Party/FreeRTOS/Source/timers.c **** 	/* Just to avoid compiler warnings. */
 508:Middlewares/Third_Party/FreeRTOS/Source/timers.c **** 	( void ) pvParameters;
 509:Middlewares/Third_Party/FreeRTOS/Source/timers.c **** 
 510:Middlewares/Third_Party/FreeRTOS/Source/timers.c **** 	#if( configUSE_DAEMON_TASK_STARTUP_HOOK == 1 )
 511:Middlewares/Third_Party/FreeRTOS/Source/timers.c **** 	{
 512:Middlewares/Third_Party/FreeRTOS/Source/timers.c **** 		extern void vApplicationDaemonTaskStartupHook( void );
 513:Middlewares/Third_Party/FreeRTOS/Source/timers.c **** 
 514:Middlewares/Third_Party/FreeRTOS/Source/timers.c **** 		/* Allow the application writer to execute some code in the context of
 515:Middlewares/Third_Party/FreeRTOS/Source/timers.c **** 		this task at the point the task starts executing.  This is useful if the
 516:Middlewares/Third_Party/FreeRTOS/Source/timers.c **** 		application includes initialisation code that would benefit from
 517:Middlewares/Third_Party/FreeRTOS/Source/timers.c **** 		executing after the scheduler has been started. */
 518:Middlewares/Third_Party/FreeRTOS/Source/timers.c **** 		vApplicationDaemonTaskStartupHook();
 519:Middlewares/Third_Party/FreeRTOS/Source/timers.c **** 	}
 520:Middlewares/Third_Party/FreeRTOS/Source/timers.c **** 	#endif /* configUSE_DAEMON_TASK_STARTUP_HOOK */
 521:Middlewares/Third_Party/FreeRTOS/Source/timers.c **** 
 522:Middlewares/Third_Party/FreeRTOS/Source/timers.c **** 	for( ;; )
 523:Middlewares/Third_Party/FreeRTOS/Source/timers.c **** 	{
 524:Middlewares/Third_Party/FreeRTOS/Source/timers.c **** 		/* Query the timers list to see if it contains any timers, and if so,
 525:Middlewares/Third_Party/FreeRTOS/Source/timers.c **** 		obtain the time at which the next timer will expire. */
 526:Middlewares/Third_Party/FreeRTOS/Source/timers.c **** 		xNextExpireTime = prvGetNextExpireTime( &xListWasEmpty );
 527:Middlewares/Third_Party/FreeRTOS/Source/timers.c **** 
 528:Middlewares/Third_Party/FreeRTOS/Source/timers.c **** 		/* If a timer has expired, process it.  Otherwise, block this task
 529:Middlewares/Third_Party/FreeRTOS/Source/timers.c **** 		until either a timer does expire, or a command is received. */
 530:Middlewares/Third_Party/FreeRTOS/Source/timers.c **** 		prvProcessTimerOrBlockTask( xNextExpireTime, xListWasEmpty );
 531:Middlewares/Third_Party/FreeRTOS/Source/timers.c **** 
 532:Middlewares/Third_Party/FreeRTOS/Source/timers.c **** 		/* Empty the command queue. */
 533:Middlewares/Third_Party/FreeRTOS/Source/timers.c **** 		prvProcessReceivedCommands();
 534:Middlewares/Third_Party/FreeRTOS/Source/timers.c **** 	}
 535:Middlewares/Third_Party/FreeRTOS/Source/timers.c **** }
 536:Middlewares/Third_Party/FreeRTOS/Source/timers.c **** /*-----------------------------------------------------------*/
 537:Middlewares/Third_Party/FreeRTOS/Source/timers.c **** 
 538:Middlewares/Third_Party/FreeRTOS/Source/timers.c **** static void prvProcessTimerOrBlockTask( const TickType_t xNextExpireTime, BaseType_t xListWasEmpty 
 539:Middlewares/Third_Party/FreeRTOS/Source/timers.c **** {
 540:Middlewares/Third_Party/FreeRTOS/Source/timers.c **** TickType_t xTimeNow;
 541:Middlewares/Third_Party/FreeRTOS/Source/timers.c **** BaseType_t xTimerListsWereSwitched;
 542:Middlewares/Third_Party/FreeRTOS/Source/timers.c **** 
 543:Middlewares/Third_Party/FreeRTOS/Source/timers.c **** 	vTaskSuspendAll();
 544:Middlewares/Third_Party/FreeRTOS/Source/timers.c **** 	{
ARM GAS  /tmp/ccPfK4K4.s 			page 11


 545:Middlewares/Third_Party/FreeRTOS/Source/timers.c **** 		/* Obtain the time now to make an assessment as to whether the timer
 546:Middlewares/Third_Party/FreeRTOS/Source/timers.c **** 		has expired or not.  If obtaining the time causes the lists to switch
 547:Middlewares/Third_Party/FreeRTOS/Source/timers.c **** 		then don't process this timer as any timers that remained in the list
 548:Middlewares/Third_Party/FreeRTOS/Source/timers.c **** 		when the lists were switched will have been processed within the
 549:Middlewares/Third_Party/FreeRTOS/Source/timers.c **** 		prvSampleTimeNow() function. */
 550:Middlewares/Third_Party/FreeRTOS/Source/timers.c **** 		xTimeNow = prvSampleTimeNow( &xTimerListsWereSwitched );
 551:Middlewares/Third_Party/FreeRTOS/Source/timers.c **** 		if( xTimerListsWereSwitched == pdFALSE )
 552:Middlewares/Third_Party/FreeRTOS/Source/timers.c **** 		{
 553:Middlewares/Third_Party/FreeRTOS/Source/timers.c **** 			/* The tick count has not overflowed, has the timer expired? */
 554:Middlewares/Third_Party/FreeRTOS/Source/timers.c **** 			if( ( xListWasEmpty == pdFALSE ) && ( xNextExpireTime <= xTimeNow ) )
 555:Middlewares/Third_Party/FreeRTOS/Source/timers.c **** 			{
 556:Middlewares/Third_Party/FreeRTOS/Source/timers.c **** 				( void ) xTaskResumeAll();
 557:Middlewares/Third_Party/FreeRTOS/Source/timers.c **** 				prvProcessExpiredTimer( xNextExpireTime, xTimeNow );
 558:Middlewares/Third_Party/FreeRTOS/Source/timers.c **** 			}
 559:Middlewares/Third_Party/FreeRTOS/Source/timers.c **** 			else
 560:Middlewares/Third_Party/FreeRTOS/Source/timers.c **** 			{
 561:Middlewares/Third_Party/FreeRTOS/Source/timers.c **** 				/* The tick count has not overflowed, and the next expire
 562:Middlewares/Third_Party/FreeRTOS/Source/timers.c **** 				time has not been reached yet.  This task should therefore
 563:Middlewares/Third_Party/FreeRTOS/Source/timers.c **** 				block to wait for the next expire time or a command to be
 564:Middlewares/Third_Party/FreeRTOS/Source/timers.c **** 				received - whichever comes first.  The following line cannot
 565:Middlewares/Third_Party/FreeRTOS/Source/timers.c **** 				be reached unless xNextExpireTime > xTimeNow, except in the
 566:Middlewares/Third_Party/FreeRTOS/Source/timers.c **** 				case when the current timer list is empty. */
 567:Middlewares/Third_Party/FreeRTOS/Source/timers.c **** 				if( xListWasEmpty != pdFALSE )
 568:Middlewares/Third_Party/FreeRTOS/Source/timers.c **** 				{
 569:Middlewares/Third_Party/FreeRTOS/Source/timers.c **** 					/* The current timer list is empty - is the overflow list
 570:Middlewares/Third_Party/FreeRTOS/Source/timers.c **** 					also empty? */
 571:Middlewares/Third_Party/FreeRTOS/Source/timers.c **** 					xListWasEmpty = listLIST_IS_EMPTY( pxOverflowTimerList );
 572:Middlewares/Third_Party/FreeRTOS/Source/timers.c **** 				}
 573:Middlewares/Third_Party/FreeRTOS/Source/timers.c **** 
 574:Middlewares/Third_Party/FreeRTOS/Source/timers.c **** 				vQueueWaitForMessageRestricted( xTimerQueue, ( xNextExpireTime - xTimeNow ), xListWasEmpty );
 575:Middlewares/Third_Party/FreeRTOS/Source/timers.c **** 
 576:Middlewares/Third_Party/FreeRTOS/Source/timers.c **** 				if( xTaskResumeAll() == pdFALSE )
 577:Middlewares/Third_Party/FreeRTOS/Source/timers.c **** 				{
 578:Middlewares/Third_Party/FreeRTOS/Source/timers.c **** 					/* Yield to wait for either a command to arrive, or the
 579:Middlewares/Third_Party/FreeRTOS/Source/timers.c **** 					block time to expire.  If a command arrived between the
 580:Middlewares/Third_Party/FreeRTOS/Source/timers.c **** 					critical section being exited and this yield then the yield
 581:Middlewares/Third_Party/FreeRTOS/Source/timers.c **** 					will not cause the task to block. */
 582:Middlewares/Third_Party/FreeRTOS/Source/timers.c **** 					portYIELD_WITHIN_API();
 583:Middlewares/Third_Party/FreeRTOS/Source/timers.c **** 				}
 584:Middlewares/Third_Party/FreeRTOS/Source/timers.c **** 				else
 585:Middlewares/Third_Party/FreeRTOS/Source/timers.c **** 				{
 586:Middlewares/Third_Party/FreeRTOS/Source/timers.c **** 					mtCOVERAGE_TEST_MARKER();
 587:Middlewares/Third_Party/FreeRTOS/Source/timers.c **** 				}
 588:Middlewares/Third_Party/FreeRTOS/Source/timers.c **** 			}
 589:Middlewares/Third_Party/FreeRTOS/Source/timers.c **** 		}
 590:Middlewares/Third_Party/FreeRTOS/Source/timers.c **** 		else
 591:Middlewares/Third_Party/FreeRTOS/Source/timers.c **** 		{
 592:Middlewares/Third_Party/FreeRTOS/Source/timers.c **** 			( void ) xTaskResumeAll();
 593:Middlewares/Third_Party/FreeRTOS/Source/timers.c **** 		}
 594:Middlewares/Third_Party/FreeRTOS/Source/timers.c **** 	}
 595:Middlewares/Third_Party/FreeRTOS/Source/timers.c **** }
 596:Middlewares/Third_Party/FreeRTOS/Source/timers.c **** /*-----------------------------------------------------------*/
 597:Middlewares/Third_Party/FreeRTOS/Source/timers.c **** 
 598:Middlewares/Third_Party/FreeRTOS/Source/timers.c **** static TickType_t prvGetNextExpireTime( BaseType_t * const pxListWasEmpty )
 599:Middlewares/Third_Party/FreeRTOS/Source/timers.c **** {
  28              		.loc 1 599 1 view -0
  29              		.cfi_startproc
ARM GAS  /tmp/ccPfK4K4.s 			page 12


  30              		@ args = 0, pretend = 0, frame = 0
  31              		@ frame_needed = 0, uses_anonymous_args = 0
  32              		@ link register save eliminated.
 600:Middlewares/Third_Party/FreeRTOS/Source/timers.c **** TickType_t xNextExpireTime;
  33              		.loc 1 600 1 view .LVU1
 601:Middlewares/Third_Party/FreeRTOS/Source/timers.c **** 
 602:Middlewares/Third_Party/FreeRTOS/Source/timers.c **** 	/* Timers are listed in expiry time order, with the head of the list
 603:Middlewares/Third_Party/FreeRTOS/Source/timers.c **** 	referencing the task that will expire first.  Obtain the time at which
 604:Middlewares/Third_Party/FreeRTOS/Source/timers.c **** 	the timer with the nearest expiry time will expire.  If there are no
 605:Middlewares/Third_Party/FreeRTOS/Source/timers.c **** 	active timers then just set the next expire time to 0.  That will cause
 606:Middlewares/Third_Party/FreeRTOS/Source/timers.c **** 	this task to unblock when the tick count overflows, at which point the
 607:Middlewares/Third_Party/FreeRTOS/Source/timers.c **** 	timer lists will be switched and the next expiry time can be
 608:Middlewares/Third_Party/FreeRTOS/Source/timers.c **** 	re-assessed.  */
 609:Middlewares/Third_Party/FreeRTOS/Source/timers.c **** 	*pxListWasEmpty = listLIST_IS_EMPTY( pxCurrentTimerList );
  34              		.loc 1 609 2 view .LVU2
  35              		.loc 1 609 20 is_stmt 0 view .LVU3
  36 0000 064B     		ldr	r3, .L4
  37 0002 1A68     		ldr	r2, [r3]
  38 0004 1368     		ldr	r3, [r2]
  39 0006 B3FA83F3 		clz	r3, r3
  40 000a 5B09     		lsrs	r3, r3, #5
  41              		.loc 1 609 18 view .LVU4
  42 000c 0360     		str	r3, [r0]
 610:Middlewares/Third_Party/FreeRTOS/Source/timers.c **** 	if( *pxListWasEmpty == pdFALSE )
  43              		.loc 1 610 2 is_stmt 1 view .LVU5
  44              		.loc 1 610 4 is_stmt 0 view .LVU6
  45 000e 13B9     		cbnz	r3, .L3
 611:Middlewares/Third_Party/FreeRTOS/Source/timers.c **** 	{
 612:Middlewares/Third_Party/FreeRTOS/Source/timers.c **** 		xNextExpireTime = listGET_ITEM_VALUE_OF_HEAD_ENTRY( pxCurrentTimerList );
  46              		.loc 1 612 3 is_stmt 1 view .LVU7
  47              		.loc 1 612 21 is_stmt 0 view .LVU8
  48 0010 D368     		ldr	r3, [r2, #12]
  49              		.loc 1 612 19 view .LVU9
  50 0012 1868     		ldr	r0, [r3]
  51              	.LVL1:
  52              		.loc 1 612 19 view .LVU10
  53 0014 7047     		bx	lr
  54              	.LVL2:
  55              	.L3:
 613:Middlewares/Third_Party/FreeRTOS/Source/timers.c **** 	}
 614:Middlewares/Third_Party/FreeRTOS/Source/timers.c **** 	else
 615:Middlewares/Third_Party/FreeRTOS/Source/timers.c **** 	{
 616:Middlewares/Third_Party/FreeRTOS/Source/timers.c **** 		/* Ensure the task unblocks when the tick count rolls over. */
 617:Middlewares/Third_Party/FreeRTOS/Source/timers.c **** 		xNextExpireTime = ( TickType_t ) 0U;
  56              		.loc 1 617 19 view .LVU11
  57 0016 0020     		movs	r0, #0
  58              	.LVL3:
 618:Middlewares/Third_Party/FreeRTOS/Source/timers.c **** 	}
 619:Middlewares/Third_Party/FreeRTOS/Source/timers.c **** 
 620:Middlewares/Third_Party/FreeRTOS/Source/timers.c **** 	return xNextExpireTime;
  59              		.loc 1 620 2 is_stmt 1 view .LVU12
 621:Middlewares/Third_Party/FreeRTOS/Source/timers.c **** }
  60              		.loc 1 621 1 is_stmt 0 view .LVU13
  61 0018 7047     		bx	lr
  62              	.L5:
  63 001a 00BF     		.align	2
  64              	.L4:
ARM GAS  /tmp/ccPfK4K4.s 			page 13


  65 001c 00000000 		.word	.LANCHOR0
  66              		.cfi_endproc
  67              	.LFE16:
  69              		.section	.text.prvInsertTimerInActiveList,"ax",%progbits
  70              		.align	1
  71              		.syntax unified
  72              		.thumb
  73              		.thumb_func
  74              		.fpu fpv5-d16
  76              	prvInsertTimerInActiveList:
  77              	.LVL4:
  78              	.LFB18:
 622:Middlewares/Third_Party/FreeRTOS/Source/timers.c **** /*-----------------------------------------------------------*/
 623:Middlewares/Third_Party/FreeRTOS/Source/timers.c **** 
 624:Middlewares/Third_Party/FreeRTOS/Source/timers.c **** static TickType_t prvSampleTimeNow( BaseType_t * const pxTimerListsWereSwitched )
 625:Middlewares/Third_Party/FreeRTOS/Source/timers.c **** {
 626:Middlewares/Third_Party/FreeRTOS/Source/timers.c **** TickType_t xTimeNow;
 627:Middlewares/Third_Party/FreeRTOS/Source/timers.c **** PRIVILEGED_DATA static TickType_t xLastTime = ( TickType_t ) 0U; /*lint !e956 Variable is only acce
 628:Middlewares/Third_Party/FreeRTOS/Source/timers.c **** 
 629:Middlewares/Third_Party/FreeRTOS/Source/timers.c **** 	xTimeNow = xTaskGetTickCount();
 630:Middlewares/Third_Party/FreeRTOS/Source/timers.c **** 
 631:Middlewares/Third_Party/FreeRTOS/Source/timers.c **** 	if( xTimeNow < xLastTime )
 632:Middlewares/Third_Party/FreeRTOS/Source/timers.c **** 	{
 633:Middlewares/Third_Party/FreeRTOS/Source/timers.c **** 		prvSwitchTimerLists();
 634:Middlewares/Third_Party/FreeRTOS/Source/timers.c **** 		*pxTimerListsWereSwitched = pdTRUE;
 635:Middlewares/Third_Party/FreeRTOS/Source/timers.c **** 	}
 636:Middlewares/Third_Party/FreeRTOS/Source/timers.c **** 	else
 637:Middlewares/Third_Party/FreeRTOS/Source/timers.c **** 	{
 638:Middlewares/Third_Party/FreeRTOS/Source/timers.c **** 		*pxTimerListsWereSwitched = pdFALSE;
 639:Middlewares/Third_Party/FreeRTOS/Source/timers.c **** 	}
 640:Middlewares/Third_Party/FreeRTOS/Source/timers.c **** 
 641:Middlewares/Third_Party/FreeRTOS/Source/timers.c **** 	xLastTime = xTimeNow;
 642:Middlewares/Third_Party/FreeRTOS/Source/timers.c **** 
 643:Middlewares/Third_Party/FreeRTOS/Source/timers.c **** 	return xTimeNow;
 644:Middlewares/Third_Party/FreeRTOS/Source/timers.c **** }
 645:Middlewares/Third_Party/FreeRTOS/Source/timers.c **** /*-----------------------------------------------------------*/
 646:Middlewares/Third_Party/FreeRTOS/Source/timers.c **** 
 647:Middlewares/Third_Party/FreeRTOS/Source/timers.c **** static BaseType_t prvInsertTimerInActiveList( Timer_t * const pxTimer, const TickType_t xNextExpiry
 648:Middlewares/Third_Party/FreeRTOS/Source/timers.c **** {
  79              		.loc 1 648 1 is_stmt 1 view -0
  80              		.cfi_startproc
  81              		@ args = 0, pretend = 0, frame = 0
  82              		@ frame_needed = 0, uses_anonymous_args = 0
  83              		.loc 1 648 1 is_stmt 0 view .LVU15
  84 0000 08B5     		push	{r3, lr}
  85              	.LCFI0:
  86              		.cfi_def_cfa_offset 8
  87              		.cfi_offset 3, -8
  88              		.cfi_offset 14, -4
 649:Middlewares/Third_Party/FreeRTOS/Source/timers.c **** BaseType_t xProcessTimerNow = pdFALSE;
  89              		.loc 1 649 1 is_stmt 1 view .LVU16
  90              	.LVL5:
 650:Middlewares/Third_Party/FreeRTOS/Source/timers.c **** 
 651:Middlewares/Third_Party/FreeRTOS/Source/timers.c **** 	listSET_LIST_ITEM_VALUE( &( pxTimer->xTimerListItem ), xNextExpiryTime );
  91              		.loc 1 651 2 view .LVU17
  92 0002 4160     		str	r1, [r0, #4]
 652:Middlewares/Third_Party/FreeRTOS/Source/timers.c **** 	listSET_LIST_ITEM_OWNER( &( pxTimer->xTimerListItem ), pxTimer );
ARM GAS  /tmp/ccPfK4K4.s 			page 14


  93              		.loc 1 652 2 view .LVU18
  94 0004 0061     		str	r0, [r0, #16]
 653:Middlewares/Third_Party/FreeRTOS/Source/timers.c **** 
 654:Middlewares/Third_Party/FreeRTOS/Source/timers.c **** 	if( xNextExpiryTime <= xTimeNow )
  95              		.loc 1 654 2 view .LVU19
  96              		.loc 1 654 4 is_stmt 0 view .LVU20
  97 0006 9142     		cmp	r1, r2
  98 0008 0CD8     		bhi	.L7
 655:Middlewares/Third_Party/FreeRTOS/Source/timers.c **** 	{
 656:Middlewares/Third_Party/FreeRTOS/Source/timers.c **** 		/* Has the expiry time elapsed between the command to start/reset a
 657:Middlewares/Third_Party/FreeRTOS/Source/timers.c **** 		timer was issued, and the time the command was processed? */
 658:Middlewares/Third_Party/FreeRTOS/Source/timers.c **** 		if( ( ( TickType_t ) ( xTimeNow - xCommandTime ) ) >= pxTimer->xTimerPeriodInTicks ) /*lint !e961
  99              		.loc 1 658 3 is_stmt 1 view .LVU21
 100              		.loc 1 658 9 is_stmt 0 view .LVU22
 101 000a D21A     		subs	r2, r2, r3
 102              	.LVL6:
 103              		.loc 1 658 64 view .LVU23
 104 000c 8369     		ldr	r3, [r0, #24]
 105              	.LVL7:
 106              		.loc 1 658 5 view .LVU24
 107 000e 9A42     		cmp	r2, r3
 108 0010 01D3     		bcc	.L12
 659:Middlewares/Third_Party/FreeRTOS/Source/timers.c **** 		{
 660:Middlewares/Third_Party/FreeRTOS/Source/timers.c **** 			/* The time between a command being issued and the command being
 661:Middlewares/Third_Party/FreeRTOS/Source/timers.c **** 			processed actually exceeds the timers period.  */
 662:Middlewares/Third_Party/FreeRTOS/Source/timers.c **** 			xProcessTimerNow = pdTRUE;
 109              		.loc 1 662 21 view .LVU25
 110 0012 0120     		movs	r0, #1
 111              	.LVL8:
 112              	.L6:
 663:Middlewares/Third_Party/FreeRTOS/Source/timers.c **** 		}
 664:Middlewares/Third_Party/FreeRTOS/Source/timers.c **** 		else
 665:Middlewares/Third_Party/FreeRTOS/Source/timers.c **** 		{
 666:Middlewares/Third_Party/FreeRTOS/Source/timers.c **** 			vListInsert( pxOverflowTimerList, &( pxTimer->xTimerListItem ) );
 667:Middlewares/Third_Party/FreeRTOS/Source/timers.c **** 		}
 668:Middlewares/Third_Party/FreeRTOS/Source/timers.c **** 	}
 669:Middlewares/Third_Party/FreeRTOS/Source/timers.c **** 	else
 670:Middlewares/Third_Party/FreeRTOS/Source/timers.c **** 	{
 671:Middlewares/Third_Party/FreeRTOS/Source/timers.c **** 		if( ( xTimeNow < xCommandTime ) && ( xNextExpiryTime >= xCommandTime ) )
 672:Middlewares/Third_Party/FreeRTOS/Source/timers.c **** 		{
 673:Middlewares/Third_Party/FreeRTOS/Source/timers.c **** 			/* If, since the command was issued, the tick count has overflowed
 674:Middlewares/Third_Party/FreeRTOS/Source/timers.c **** 			but the expiry time has not, then the timer must have already passed
 675:Middlewares/Third_Party/FreeRTOS/Source/timers.c **** 			its expiry time and should be processed immediately. */
 676:Middlewares/Third_Party/FreeRTOS/Source/timers.c **** 			xProcessTimerNow = pdTRUE;
 677:Middlewares/Third_Party/FreeRTOS/Source/timers.c **** 		}
 678:Middlewares/Third_Party/FreeRTOS/Source/timers.c **** 		else
 679:Middlewares/Third_Party/FreeRTOS/Source/timers.c **** 		{
 680:Middlewares/Third_Party/FreeRTOS/Source/timers.c **** 			vListInsert( pxCurrentTimerList, &( pxTimer->xTimerListItem ) );
 681:Middlewares/Third_Party/FreeRTOS/Source/timers.c **** 		}
 682:Middlewares/Third_Party/FreeRTOS/Source/timers.c **** 	}
 683:Middlewares/Third_Party/FreeRTOS/Source/timers.c **** 
 684:Middlewares/Third_Party/FreeRTOS/Source/timers.c **** 	return xProcessTimerNow;
 685:Middlewares/Third_Party/FreeRTOS/Source/timers.c **** }
 113              		.loc 1 685 1 view .LVU26
 114 0014 08BD     		pop	{r3, pc}
 115              	.LVL9:
 116              	.L12:
ARM GAS  /tmp/ccPfK4K4.s 			page 15


 666:Middlewares/Third_Party/FreeRTOS/Source/timers.c **** 		}
 117              		.loc 1 666 4 is_stmt 1 view .LVU27
 118 0016 011D     		adds	r1, r0, #4
 119              	.LVL10:
 666:Middlewares/Third_Party/FreeRTOS/Source/timers.c **** 		}
 120              		.loc 1 666 4 is_stmt 0 view .LVU28
 121 0018 0B4B     		ldr	r3, .L14
 122 001a 1868     		ldr	r0, [r3]
 123              	.LVL11:
 666:Middlewares/Third_Party/FreeRTOS/Source/timers.c **** 		}
 124              		.loc 1 666 4 view .LVU29
 125 001c FFF7FEFF 		bl	vListInsert
 126              	.LVL12:
 649:Middlewares/Third_Party/FreeRTOS/Source/timers.c **** 
 127              		.loc 1 649 12 view .LVU30
 128 0020 0020     		movs	r0, #0
 129 0022 F7E7     		b	.L6
 130              	.LVL13:
 131              	.L7:
 671:Middlewares/Third_Party/FreeRTOS/Source/timers.c **** 		{
 132              		.loc 1 671 3 is_stmt 1 view .LVU31
 671:Middlewares/Third_Party/FreeRTOS/Source/timers.c **** 		{
 133              		.loc 1 671 35 is_stmt 0 view .LVU32
 134 0024 9A42     		cmp	r2, r3
 135 0026 2CBF     		ite	cs
 136 0028 0022     		movcs	r2, #0
 137              	.LVL14:
 671:Middlewares/Third_Party/FreeRTOS/Source/timers.c **** 		{
 138              		.loc 1 671 35 view .LVU33
 139 002a 0122     		movcc	r2, #1
 140 002c 9942     		cmp	r1, r3
 141 002e 38BF     		it	cc
 142 0030 0022     		movcc	r2, #0
 671:Middlewares/Third_Party/FreeRTOS/Source/timers.c **** 		{
 143              		.loc 1 671 5 view .LVU34
 144 0032 0AB1     		cbz	r2, .L13
 676:Middlewares/Third_Party/FreeRTOS/Source/timers.c **** 		}
 145              		.loc 1 676 21 view .LVU35
 146 0034 0120     		movs	r0, #1
 147              	.LVL15:
 684:Middlewares/Third_Party/FreeRTOS/Source/timers.c **** }
 148              		.loc 1 684 2 is_stmt 1 view .LVU36
 684:Middlewares/Third_Party/FreeRTOS/Source/timers.c **** }
 149              		.loc 1 684 9 is_stmt 0 view .LVU37
 150 0036 EDE7     		b	.L6
 151              	.LVL16:
 152              	.L13:
 680:Middlewares/Third_Party/FreeRTOS/Source/timers.c **** 		}
 153              		.loc 1 680 4 is_stmt 1 view .LVU38
 154 0038 011D     		adds	r1, r0, #4
 155              	.LVL17:
 680:Middlewares/Third_Party/FreeRTOS/Source/timers.c **** 		}
 156              		.loc 1 680 4 is_stmt 0 view .LVU39
 157 003a 044B     		ldr	r3, .L14+4
 158              	.LVL18:
 680:Middlewares/Third_Party/FreeRTOS/Source/timers.c **** 		}
 159              		.loc 1 680 4 view .LVU40
ARM GAS  /tmp/ccPfK4K4.s 			page 16


 160 003c 1868     		ldr	r0, [r3]
 161              	.LVL19:
 680:Middlewares/Third_Party/FreeRTOS/Source/timers.c **** 		}
 162              		.loc 1 680 4 view .LVU41
 163 003e FFF7FEFF 		bl	vListInsert
 164              	.LVL20:
 649:Middlewares/Third_Party/FreeRTOS/Source/timers.c **** 
 165              		.loc 1 649 12 view .LVU42
 166 0042 0020     		movs	r0, #0
 167 0044 E6E7     		b	.L6
 168              	.L15:
 169 0046 00BF     		.align	2
 170              	.L14:
 171 0048 00000000 		.word	.LANCHOR1
 172 004c 00000000 		.word	.LANCHOR0
 173              		.cfi_endproc
 174              	.LFE18:
 176              		.section	.rodata.prvCheckForValidListAndQueue.str1.4,"aMS",%progbits,1
 177              		.align	2
 178              	.LC0:
 179 0000 546D7251 		.ascii	"TmrQ\000"
 179      00
 180              		.section	.text.prvCheckForValidListAndQueue,"ax",%progbits
 181              		.align	1
 182              		.syntax unified
 183              		.thumb
 184              		.thumb_func
 185              		.fpu fpv5-d16
 187              	prvCheckForValidListAndQueue:
 188              	.LFB21:
 686:Middlewares/Third_Party/FreeRTOS/Source/timers.c **** /*-----------------------------------------------------------*/
 687:Middlewares/Third_Party/FreeRTOS/Source/timers.c **** 
 688:Middlewares/Third_Party/FreeRTOS/Source/timers.c **** static void	prvProcessReceivedCommands( void )
 689:Middlewares/Third_Party/FreeRTOS/Source/timers.c **** {
 690:Middlewares/Third_Party/FreeRTOS/Source/timers.c **** DaemonTaskMessage_t xMessage;
 691:Middlewares/Third_Party/FreeRTOS/Source/timers.c **** Timer_t *pxTimer;
 692:Middlewares/Third_Party/FreeRTOS/Source/timers.c **** BaseType_t xTimerListsWereSwitched, xResult;
 693:Middlewares/Third_Party/FreeRTOS/Source/timers.c **** TickType_t xTimeNow;
 694:Middlewares/Third_Party/FreeRTOS/Source/timers.c **** 
 695:Middlewares/Third_Party/FreeRTOS/Source/timers.c **** 	while( xQueueReceive( xTimerQueue, &xMessage, tmrNO_DELAY ) != pdFAIL ) /*lint !e603 xMessage does
 696:Middlewares/Third_Party/FreeRTOS/Source/timers.c **** 	{
 697:Middlewares/Third_Party/FreeRTOS/Source/timers.c **** 		#if ( INCLUDE_xTimerPendFunctionCall == 1 )
 698:Middlewares/Third_Party/FreeRTOS/Source/timers.c **** 		{
 699:Middlewares/Third_Party/FreeRTOS/Source/timers.c **** 			/* Negative commands are pended function calls rather than timer
 700:Middlewares/Third_Party/FreeRTOS/Source/timers.c **** 			commands. */
 701:Middlewares/Third_Party/FreeRTOS/Source/timers.c **** 			if( xMessage.xMessageID < ( BaseType_t ) 0 )
 702:Middlewares/Third_Party/FreeRTOS/Source/timers.c **** 			{
 703:Middlewares/Third_Party/FreeRTOS/Source/timers.c **** 				const CallbackParameters_t * const pxCallback = &( xMessage.u.xCallbackParameters );
 704:Middlewares/Third_Party/FreeRTOS/Source/timers.c **** 
 705:Middlewares/Third_Party/FreeRTOS/Source/timers.c **** 				/* The timer uses the xCallbackParameters member to request a
 706:Middlewares/Third_Party/FreeRTOS/Source/timers.c **** 				callback be executed.  Check the callback is not NULL. */
 707:Middlewares/Third_Party/FreeRTOS/Source/timers.c **** 				configASSERT( pxCallback );
 708:Middlewares/Third_Party/FreeRTOS/Source/timers.c **** 
 709:Middlewares/Third_Party/FreeRTOS/Source/timers.c **** 				/* Call the function. */
 710:Middlewares/Third_Party/FreeRTOS/Source/timers.c **** 				pxCallback->pxCallbackFunction( pxCallback->pvParameter1, pxCallback->ulParameter2 );
 711:Middlewares/Third_Party/FreeRTOS/Source/timers.c **** 			}
 712:Middlewares/Third_Party/FreeRTOS/Source/timers.c **** 			else
ARM GAS  /tmp/ccPfK4K4.s 			page 17


 713:Middlewares/Third_Party/FreeRTOS/Source/timers.c **** 			{
 714:Middlewares/Third_Party/FreeRTOS/Source/timers.c **** 				mtCOVERAGE_TEST_MARKER();
 715:Middlewares/Third_Party/FreeRTOS/Source/timers.c **** 			}
 716:Middlewares/Third_Party/FreeRTOS/Source/timers.c **** 		}
 717:Middlewares/Third_Party/FreeRTOS/Source/timers.c **** 		#endif /* INCLUDE_xTimerPendFunctionCall */
 718:Middlewares/Third_Party/FreeRTOS/Source/timers.c **** 
 719:Middlewares/Third_Party/FreeRTOS/Source/timers.c **** 		/* Commands that are positive are timer commands rather than pended
 720:Middlewares/Third_Party/FreeRTOS/Source/timers.c **** 		function calls. */
 721:Middlewares/Third_Party/FreeRTOS/Source/timers.c **** 		if( xMessage.xMessageID >= ( BaseType_t ) 0 )
 722:Middlewares/Third_Party/FreeRTOS/Source/timers.c **** 		{
 723:Middlewares/Third_Party/FreeRTOS/Source/timers.c **** 			/* The messages uses the xTimerParameters member to work on a
 724:Middlewares/Third_Party/FreeRTOS/Source/timers.c **** 			software timer. */
 725:Middlewares/Third_Party/FreeRTOS/Source/timers.c **** 			pxTimer = xMessage.u.xTimerParameters.pxTimer;
 726:Middlewares/Third_Party/FreeRTOS/Source/timers.c **** 
 727:Middlewares/Third_Party/FreeRTOS/Source/timers.c **** 			if( listIS_CONTAINED_WITHIN( NULL, &( pxTimer->xTimerListItem ) ) == pdFALSE ) /*lint !e961. The
 728:Middlewares/Third_Party/FreeRTOS/Source/timers.c **** 			{
 729:Middlewares/Third_Party/FreeRTOS/Source/timers.c **** 				/* The timer is in a list, remove it. */
 730:Middlewares/Third_Party/FreeRTOS/Source/timers.c **** 				( void ) uxListRemove( &( pxTimer->xTimerListItem ) );
 731:Middlewares/Third_Party/FreeRTOS/Source/timers.c **** 			}
 732:Middlewares/Third_Party/FreeRTOS/Source/timers.c **** 			else
 733:Middlewares/Third_Party/FreeRTOS/Source/timers.c **** 			{
 734:Middlewares/Third_Party/FreeRTOS/Source/timers.c **** 				mtCOVERAGE_TEST_MARKER();
 735:Middlewares/Third_Party/FreeRTOS/Source/timers.c **** 			}
 736:Middlewares/Third_Party/FreeRTOS/Source/timers.c **** 
 737:Middlewares/Third_Party/FreeRTOS/Source/timers.c **** 			traceTIMER_COMMAND_RECEIVED( pxTimer, xMessage.xMessageID, xMessage.u.xTimerParameters.xMessageV
 738:Middlewares/Third_Party/FreeRTOS/Source/timers.c **** 
 739:Middlewares/Third_Party/FreeRTOS/Source/timers.c **** 			/* In this case the xTimerListsWereSwitched parameter is not used, but
 740:Middlewares/Third_Party/FreeRTOS/Source/timers.c **** 			it must be present in the function call.  prvSampleTimeNow() must be
 741:Middlewares/Third_Party/FreeRTOS/Source/timers.c **** 			called after the message is received from xTimerQueue so there is no
 742:Middlewares/Third_Party/FreeRTOS/Source/timers.c **** 			possibility of a higher priority task adding a message to the message
 743:Middlewares/Third_Party/FreeRTOS/Source/timers.c **** 			queue with a time that is ahead of the timer daemon task (because it
 744:Middlewares/Third_Party/FreeRTOS/Source/timers.c **** 			pre-empted the timer daemon task after the xTimeNow value was set). */
 745:Middlewares/Third_Party/FreeRTOS/Source/timers.c **** 			xTimeNow = prvSampleTimeNow( &xTimerListsWereSwitched );
 746:Middlewares/Third_Party/FreeRTOS/Source/timers.c **** 
 747:Middlewares/Third_Party/FreeRTOS/Source/timers.c **** 			switch( xMessage.xMessageID )
 748:Middlewares/Third_Party/FreeRTOS/Source/timers.c **** 			{
 749:Middlewares/Third_Party/FreeRTOS/Source/timers.c **** 				case tmrCOMMAND_START :
 750:Middlewares/Third_Party/FreeRTOS/Source/timers.c **** 			    case tmrCOMMAND_START_FROM_ISR :
 751:Middlewares/Third_Party/FreeRTOS/Source/timers.c **** 			    case tmrCOMMAND_RESET :
 752:Middlewares/Third_Party/FreeRTOS/Source/timers.c **** 			    case tmrCOMMAND_RESET_FROM_ISR :
 753:Middlewares/Third_Party/FreeRTOS/Source/timers.c **** 				case tmrCOMMAND_START_DONT_TRACE :
 754:Middlewares/Third_Party/FreeRTOS/Source/timers.c **** 					/* Start or restart a timer. */
 755:Middlewares/Third_Party/FreeRTOS/Source/timers.c **** 					if( prvInsertTimerInActiveList( pxTimer,  xMessage.u.xTimerParameters.xMessageValue + pxTimer-
 756:Middlewares/Third_Party/FreeRTOS/Source/timers.c **** 					{
 757:Middlewares/Third_Party/FreeRTOS/Source/timers.c **** 						/* The timer expired before it was added to the active
 758:Middlewares/Third_Party/FreeRTOS/Source/timers.c **** 						timer list.  Process it now. */
 759:Middlewares/Third_Party/FreeRTOS/Source/timers.c **** 						pxTimer->pxCallbackFunction( ( TimerHandle_t ) pxTimer );
 760:Middlewares/Third_Party/FreeRTOS/Source/timers.c **** 						traceTIMER_EXPIRED( pxTimer );
 761:Middlewares/Third_Party/FreeRTOS/Source/timers.c **** 
 762:Middlewares/Third_Party/FreeRTOS/Source/timers.c **** 						if( pxTimer->uxAutoReload == ( UBaseType_t ) pdTRUE )
 763:Middlewares/Third_Party/FreeRTOS/Source/timers.c **** 						{
 764:Middlewares/Third_Party/FreeRTOS/Source/timers.c **** 							xResult = xTimerGenericCommand( pxTimer, tmrCOMMAND_START_DONT_TRACE, xMessage.u.xTimerParam
 765:Middlewares/Third_Party/FreeRTOS/Source/timers.c **** 							configASSERT( xResult );
 766:Middlewares/Third_Party/FreeRTOS/Source/timers.c **** 							( void ) xResult;
 767:Middlewares/Third_Party/FreeRTOS/Source/timers.c **** 						}
 768:Middlewares/Third_Party/FreeRTOS/Source/timers.c **** 						else
 769:Middlewares/Third_Party/FreeRTOS/Source/timers.c **** 						{
ARM GAS  /tmp/ccPfK4K4.s 			page 18


 770:Middlewares/Third_Party/FreeRTOS/Source/timers.c **** 							mtCOVERAGE_TEST_MARKER();
 771:Middlewares/Third_Party/FreeRTOS/Source/timers.c **** 						}
 772:Middlewares/Third_Party/FreeRTOS/Source/timers.c **** 					}
 773:Middlewares/Third_Party/FreeRTOS/Source/timers.c **** 					else
 774:Middlewares/Third_Party/FreeRTOS/Source/timers.c **** 					{
 775:Middlewares/Third_Party/FreeRTOS/Source/timers.c **** 						mtCOVERAGE_TEST_MARKER();
 776:Middlewares/Third_Party/FreeRTOS/Source/timers.c **** 					}
 777:Middlewares/Third_Party/FreeRTOS/Source/timers.c **** 					break;
 778:Middlewares/Third_Party/FreeRTOS/Source/timers.c **** 
 779:Middlewares/Third_Party/FreeRTOS/Source/timers.c **** 				case tmrCOMMAND_STOP :
 780:Middlewares/Third_Party/FreeRTOS/Source/timers.c **** 				case tmrCOMMAND_STOP_FROM_ISR :
 781:Middlewares/Third_Party/FreeRTOS/Source/timers.c **** 					/* The timer has already been removed from the active list.
 782:Middlewares/Third_Party/FreeRTOS/Source/timers.c **** 					There is nothing to do here. */
 783:Middlewares/Third_Party/FreeRTOS/Source/timers.c **** 					break;
 784:Middlewares/Third_Party/FreeRTOS/Source/timers.c **** 
 785:Middlewares/Third_Party/FreeRTOS/Source/timers.c **** 				case tmrCOMMAND_CHANGE_PERIOD :
 786:Middlewares/Third_Party/FreeRTOS/Source/timers.c **** 				case tmrCOMMAND_CHANGE_PERIOD_FROM_ISR :
 787:Middlewares/Third_Party/FreeRTOS/Source/timers.c **** 					pxTimer->xTimerPeriodInTicks = xMessage.u.xTimerParameters.xMessageValue;
 788:Middlewares/Third_Party/FreeRTOS/Source/timers.c **** 					configASSERT( ( pxTimer->xTimerPeriodInTicks > 0 ) );
 789:Middlewares/Third_Party/FreeRTOS/Source/timers.c **** 
 790:Middlewares/Third_Party/FreeRTOS/Source/timers.c **** 					/* The new period does not really have a reference, and can
 791:Middlewares/Third_Party/FreeRTOS/Source/timers.c **** 					be longer or shorter than the old one.  The command time is
 792:Middlewares/Third_Party/FreeRTOS/Source/timers.c **** 					therefore set to the current time, and as the period cannot
 793:Middlewares/Third_Party/FreeRTOS/Source/timers.c **** 					be zero the next expiry time can only be in the future,
 794:Middlewares/Third_Party/FreeRTOS/Source/timers.c **** 					meaning (unlike for the xTimerStart() case above) there is
 795:Middlewares/Third_Party/FreeRTOS/Source/timers.c **** 					no fail case that needs to be handled here. */
 796:Middlewares/Third_Party/FreeRTOS/Source/timers.c **** 					( void ) prvInsertTimerInActiveList( pxTimer, ( xTimeNow + pxTimer->xTimerPeriodInTicks ), xTi
 797:Middlewares/Third_Party/FreeRTOS/Source/timers.c **** 					break;
 798:Middlewares/Third_Party/FreeRTOS/Source/timers.c **** 
 799:Middlewares/Third_Party/FreeRTOS/Source/timers.c **** 				case tmrCOMMAND_DELETE :
 800:Middlewares/Third_Party/FreeRTOS/Source/timers.c **** 					/* The timer has already been removed from the active list,
 801:Middlewares/Third_Party/FreeRTOS/Source/timers.c **** 					just free up the memory if the memory was dynamically
 802:Middlewares/Third_Party/FreeRTOS/Source/timers.c **** 					allocated. */
 803:Middlewares/Third_Party/FreeRTOS/Source/timers.c **** 					#if( ( configSUPPORT_DYNAMIC_ALLOCATION == 1 ) && ( configSUPPORT_STATIC_ALLOCATION == 0 ) )
 804:Middlewares/Third_Party/FreeRTOS/Source/timers.c **** 					{
 805:Middlewares/Third_Party/FreeRTOS/Source/timers.c **** 						/* The timer can only have been allocated dynamically -
 806:Middlewares/Third_Party/FreeRTOS/Source/timers.c **** 						free it again. */
 807:Middlewares/Third_Party/FreeRTOS/Source/timers.c **** 						vPortFree( pxTimer );
 808:Middlewares/Third_Party/FreeRTOS/Source/timers.c **** 					}
 809:Middlewares/Third_Party/FreeRTOS/Source/timers.c **** 					#elif( ( configSUPPORT_DYNAMIC_ALLOCATION == 1 ) && ( configSUPPORT_STATIC_ALLOCATION == 1 ) )
 810:Middlewares/Third_Party/FreeRTOS/Source/timers.c **** 					{
 811:Middlewares/Third_Party/FreeRTOS/Source/timers.c **** 						/* The timer could have been allocated statically or
 812:Middlewares/Third_Party/FreeRTOS/Source/timers.c **** 						dynamically, so check before attempting to free the
 813:Middlewares/Third_Party/FreeRTOS/Source/timers.c **** 						memory. */
 814:Middlewares/Third_Party/FreeRTOS/Source/timers.c **** 						if( pxTimer->ucStaticallyAllocated == ( uint8_t ) pdFALSE )
 815:Middlewares/Third_Party/FreeRTOS/Source/timers.c **** 						{
 816:Middlewares/Third_Party/FreeRTOS/Source/timers.c **** 							vPortFree( pxTimer );
 817:Middlewares/Third_Party/FreeRTOS/Source/timers.c **** 						}
 818:Middlewares/Third_Party/FreeRTOS/Source/timers.c **** 						else
 819:Middlewares/Third_Party/FreeRTOS/Source/timers.c **** 						{
 820:Middlewares/Third_Party/FreeRTOS/Source/timers.c **** 							mtCOVERAGE_TEST_MARKER();
 821:Middlewares/Third_Party/FreeRTOS/Source/timers.c **** 						}
 822:Middlewares/Third_Party/FreeRTOS/Source/timers.c **** 					}
 823:Middlewares/Third_Party/FreeRTOS/Source/timers.c **** 					#endif /* configSUPPORT_DYNAMIC_ALLOCATION */
 824:Middlewares/Third_Party/FreeRTOS/Source/timers.c **** 					break;
 825:Middlewares/Third_Party/FreeRTOS/Source/timers.c **** 
 826:Middlewares/Third_Party/FreeRTOS/Source/timers.c **** 				default	:
ARM GAS  /tmp/ccPfK4K4.s 			page 19


 827:Middlewares/Third_Party/FreeRTOS/Source/timers.c **** 					/* Don't expect to get here. */
 828:Middlewares/Third_Party/FreeRTOS/Source/timers.c **** 					break;
 829:Middlewares/Third_Party/FreeRTOS/Source/timers.c **** 			}
 830:Middlewares/Third_Party/FreeRTOS/Source/timers.c **** 		}
 831:Middlewares/Third_Party/FreeRTOS/Source/timers.c **** 	}
 832:Middlewares/Third_Party/FreeRTOS/Source/timers.c **** }
 833:Middlewares/Third_Party/FreeRTOS/Source/timers.c **** /*-----------------------------------------------------------*/
 834:Middlewares/Third_Party/FreeRTOS/Source/timers.c **** 
 835:Middlewares/Third_Party/FreeRTOS/Source/timers.c **** static void prvSwitchTimerLists( void )
 836:Middlewares/Third_Party/FreeRTOS/Source/timers.c **** {
 837:Middlewares/Third_Party/FreeRTOS/Source/timers.c **** TickType_t xNextExpireTime, xReloadTime;
 838:Middlewares/Third_Party/FreeRTOS/Source/timers.c **** List_t *pxTemp;
 839:Middlewares/Third_Party/FreeRTOS/Source/timers.c **** Timer_t *pxTimer;
 840:Middlewares/Third_Party/FreeRTOS/Source/timers.c **** BaseType_t xResult;
 841:Middlewares/Third_Party/FreeRTOS/Source/timers.c **** 
 842:Middlewares/Third_Party/FreeRTOS/Source/timers.c **** 	/* The tick count has overflowed.  The timer lists must be switched.
 843:Middlewares/Third_Party/FreeRTOS/Source/timers.c **** 	If there are any timers still referenced from the current timer list
 844:Middlewares/Third_Party/FreeRTOS/Source/timers.c **** 	then they must have expired and should be processed before the lists
 845:Middlewares/Third_Party/FreeRTOS/Source/timers.c **** 	are switched. */
 846:Middlewares/Third_Party/FreeRTOS/Source/timers.c **** 	while( listLIST_IS_EMPTY( pxCurrentTimerList ) == pdFALSE )
 847:Middlewares/Third_Party/FreeRTOS/Source/timers.c **** 	{
 848:Middlewares/Third_Party/FreeRTOS/Source/timers.c **** 		xNextExpireTime = listGET_ITEM_VALUE_OF_HEAD_ENTRY( pxCurrentTimerList );
 849:Middlewares/Third_Party/FreeRTOS/Source/timers.c **** 
 850:Middlewares/Third_Party/FreeRTOS/Source/timers.c **** 		/* Remove the timer from the list. */
 851:Middlewares/Third_Party/FreeRTOS/Source/timers.c **** 		pxTimer = ( Timer_t * ) listGET_OWNER_OF_HEAD_ENTRY( pxCurrentTimerList );
 852:Middlewares/Third_Party/FreeRTOS/Source/timers.c **** 		( void ) uxListRemove( &( pxTimer->xTimerListItem ) );
 853:Middlewares/Third_Party/FreeRTOS/Source/timers.c **** 		traceTIMER_EXPIRED( pxTimer );
 854:Middlewares/Third_Party/FreeRTOS/Source/timers.c **** 
 855:Middlewares/Third_Party/FreeRTOS/Source/timers.c **** 		/* Execute its callback, then send a command to restart the timer if
 856:Middlewares/Third_Party/FreeRTOS/Source/timers.c **** 		it is an auto-reload timer.  It cannot be restarted here as the lists
 857:Middlewares/Third_Party/FreeRTOS/Source/timers.c **** 		have not yet been switched. */
 858:Middlewares/Third_Party/FreeRTOS/Source/timers.c **** 		pxTimer->pxCallbackFunction( ( TimerHandle_t ) pxTimer );
 859:Middlewares/Third_Party/FreeRTOS/Source/timers.c **** 
 860:Middlewares/Third_Party/FreeRTOS/Source/timers.c **** 		if( pxTimer->uxAutoReload == ( UBaseType_t ) pdTRUE )
 861:Middlewares/Third_Party/FreeRTOS/Source/timers.c **** 		{
 862:Middlewares/Third_Party/FreeRTOS/Source/timers.c **** 			/* Calculate the reload value, and if the reload value results in
 863:Middlewares/Third_Party/FreeRTOS/Source/timers.c **** 			the timer going into the same timer list then it has already expired
 864:Middlewares/Third_Party/FreeRTOS/Source/timers.c **** 			and the timer should be re-inserted into the current list so it is
 865:Middlewares/Third_Party/FreeRTOS/Source/timers.c **** 			processed again within this loop.  Otherwise a command should be sent
 866:Middlewares/Third_Party/FreeRTOS/Source/timers.c **** 			to restart the timer to ensure it is only inserted into a list after
 867:Middlewares/Third_Party/FreeRTOS/Source/timers.c **** 			the lists have been swapped. */
 868:Middlewares/Third_Party/FreeRTOS/Source/timers.c **** 			xReloadTime = ( xNextExpireTime + pxTimer->xTimerPeriodInTicks );
 869:Middlewares/Third_Party/FreeRTOS/Source/timers.c **** 			if( xReloadTime > xNextExpireTime )
 870:Middlewares/Third_Party/FreeRTOS/Source/timers.c **** 			{
 871:Middlewares/Third_Party/FreeRTOS/Source/timers.c **** 				listSET_LIST_ITEM_VALUE( &( pxTimer->xTimerListItem ), xReloadTime );
 872:Middlewares/Third_Party/FreeRTOS/Source/timers.c **** 				listSET_LIST_ITEM_OWNER( &( pxTimer->xTimerListItem ), pxTimer );
 873:Middlewares/Third_Party/FreeRTOS/Source/timers.c **** 				vListInsert( pxCurrentTimerList, &( pxTimer->xTimerListItem ) );
 874:Middlewares/Third_Party/FreeRTOS/Source/timers.c **** 			}
 875:Middlewares/Third_Party/FreeRTOS/Source/timers.c **** 			else
 876:Middlewares/Third_Party/FreeRTOS/Source/timers.c **** 			{
 877:Middlewares/Third_Party/FreeRTOS/Source/timers.c **** 				xResult = xTimerGenericCommand( pxTimer, tmrCOMMAND_START_DONT_TRACE, xNextExpireTime, NULL, tm
 878:Middlewares/Third_Party/FreeRTOS/Source/timers.c **** 				configASSERT( xResult );
 879:Middlewares/Third_Party/FreeRTOS/Source/timers.c **** 				( void ) xResult;
 880:Middlewares/Third_Party/FreeRTOS/Source/timers.c **** 			}
 881:Middlewares/Third_Party/FreeRTOS/Source/timers.c **** 		}
 882:Middlewares/Third_Party/FreeRTOS/Source/timers.c **** 		else
 883:Middlewares/Third_Party/FreeRTOS/Source/timers.c **** 		{
ARM GAS  /tmp/ccPfK4K4.s 			page 20


 884:Middlewares/Third_Party/FreeRTOS/Source/timers.c **** 			mtCOVERAGE_TEST_MARKER();
 885:Middlewares/Third_Party/FreeRTOS/Source/timers.c **** 		}
 886:Middlewares/Third_Party/FreeRTOS/Source/timers.c **** 	}
 887:Middlewares/Third_Party/FreeRTOS/Source/timers.c **** 
 888:Middlewares/Third_Party/FreeRTOS/Source/timers.c **** 	pxTemp = pxCurrentTimerList;
 889:Middlewares/Third_Party/FreeRTOS/Source/timers.c **** 	pxCurrentTimerList = pxOverflowTimerList;
 890:Middlewares/Third_Party/FreeRTOS/Source/timers.c **** 	pxOverflowTimerList = pxTemp;
 891:Middlewares/Third_Party/FreeRTOS/Source/timers.c **** }
 892:Middlewares/Third_Party/FreeRTOS/Source/timers.c **** /*-----------------------------------------------------------*/
 893:Middlewares/Third_Party/FreeRTOS/Source/timers.c **** 
 894:Middlewares/Third_Party/FreeRTOS/Source/timers.c **** static void prvCheckForValidListAndQueue( void )
 895:Middlewares/Third_Party/FreeRTOS/Source/timers.c **** {
 189              		.loc 1 895 1 is_stmt 1 view -0
 190              		.cfi_startproc
 191              		@ args = 0, pretend = 0, frame = 0
 192              		@ frame_needed = 0, uses_anonymous_args = 0
 193 0000 30B5     		push	{r4, r5, lr}
 194              	.LCFI1:
 195              		.cfi_def_cfa_offset 12
 196              		.cfi_offset 4, -12
 197              		.cfi_offset 5, -8
 198              		.cfi_offset 14, -4
 199 0002 83B0     		sub	sp, sp, #12
 200              	.LCFI2:
 201              		.cfi_def_cfa_offset 24
 896:Middlewares/Third_Party/FreeRTOS/Source/timers.c **** 	/* Check that the list from which active timers are referenced, and the
 897:Middlewares/Third_Party/FreeRTOS/Source/timers.c **** 	queue used to communicate with the timer service, have been
 898:Middlewares/Third_Party/FreeRTOS/Source/timers.c **** 	initialised. */
 899:Middlewares/Third_Party/FreeRTOS/Source/timers.c **** 	taskENTER_CRITICAL();
 202              		.loc 1 899 2 view .LVU44
 203 0004 FFF7FEFF 		bl	vPortEnterCritical
 204              	.LVL21:
 900:Middlewares/Third_Party/FreeRTOS/Source/timers.c **** 	{
 901:Middlewares/Third_Party/FreeRTOS/Source/timers.c **** 		if( xTimerQueue == NULL )
 205              		.loc 1 901 3 view .LVU45
 206              		.loc 1 901 19 is_stmt 0 view .LVU46
 207 0008 114B     		ldr	r3, .L20
 208 000a 1B68     		ldr	r3, [r3]
 209              		.loc 1 901 5 view .LVU47
 210 000c 1BB1     		cbz	r3, .L19
 211              	.L17:
 902:Middlewares/Third_Party/FreeRTOS/Source/timers.c **** 		{
 903:Middlewares/Third_Party/FreeRTOS/Source/timers.c **** 			vListInitialise( &xActiveTimerList1 );
 904:Middlewares/Third_Party/FreeRTOS/Source/timers.c **** 			vListInitialise( &xActiveTimerList2 );
 905:Middlewares/Third_Party/FreeRTOS/Source/timers.c **** 			pxCurrentTimerList = &xActiveTimerList1;
 906:Middlewares/Third_Party/FreeRTOS/Source/timers.c **** 			pxOverflowTimerList = &xActiveTimerList2;
 907:Middlewares/Third_Party/FreeRTOS/Source/timers.c **** 
 908:Middlewares/Third_Party/FreeRTOS/Source/timers.c **** 			#if( configSUPPORT_STATIC_ALLOCATION == 1 )
 909:Middlewares/Third_Party/FreeRTOS/Source/timers.c **** 			{
 910:Middlewares/Third_Party/FreeRTOS/Source/timers.c **** 				/* The timer queue is allocated statically in case
 911:Middlewares/Third_Party/FreeRTOS/Source/timers.c **** 				configSUPPORT_DYNAMIC_ALLOCATION is 0. */
 912:Middlewares/Third_Party/FreeRTOS/Source/timers.c **** 				static StaticQueue_t xStaticTimerQueue; /*lint !e956 Ok to declare in this manner to prevent ad
 913:Middlewares/Third_Party/FreeRTOS/Source/timers.c **** 				static uint8_t ucStaticTimerQueueStorage[ ( size_t ) configTIMER_QUEUE_LENGTH * sizeof( DaemonT
 914:Middlewares/Third_Party/FreeRTOS/Source/timers.c **** 
 915:Middlewares/Third_Party/FreeRTOS/Source/timers.c **** 				xTimerQueue = xQueueCreateStatic( ( UBaseType_t ) configTIMER_QUEUE_LENGTH, ( UBaseType_t ) siz
 916:Middlewares/Third_Party/FreeRTOS/Source/timers.c **** 			}
 917:Middlewares/Third_Party/FreeRTOS/Source/timers.c **** 			#else
ARM GAS  /tmp/ccPfK4K4.s 			page 21


 918:Middlewares/Third_Party/FreeRTOS/Source/timers.c **** 			{
 919:Middlewares/Third_Party/FreeRTOS/Source/timers.c **** 				xTimerQueue = xQueueCreate( ( UBaseType_t ) configTIMER_QUEUE_LENGTH, sizeof( DaemonTaskMessage
 920:Middlewares/Third_Party/FreeRTOS/Source/timers.c **** 			}
 921:Middlewares/Third_Party/FreeRTOS/Source/timers.c **** 			#endif
 922:Middlewares/Third_Party/FreeRTOS/Source/timers.c **** 
 923:Middlewares/Third_Party/FreeRTOS/Source/timers.c **** 			#if ( configQUEUE_REGISTRY_SIZE > 0 )
 924:Middlewares/Third_Party/FreeRTOS/Source/timers.c **** 			{
 925:Middlewares/Third_Party/FreeRTOS/Source/timers.c **** 				if( xTimerQueue != NULL )
 926:Middlewares/Third_Party/FreeRTOS/Source/timers.c **** 				{
 927:Middlewares/Third_Party/FreeRTOS/Source/timers.c **** 					vQueueAddToRegistry( xTimerQueue, "TmrQ" );
 928:Middlewares/Third_Party/FreeRTOS/Source/timers.c **** 				}
 929:Middlewares/Third_Party/FreeRTOS/Source/timers.c **** 				else
 930:Middlewares/Third_Party/FreeRTOS/Source/timers.c **** 				{
 931:Middlewares/Third_Party/FreeRTOS/Source/timers.c **** 					mtCOVERAGE_TEST_MARKER();
 932:Middlewares/Third_Party/FreeRTOS/Source/timers.c **** 				}
 933:Middlewares/Third_Party/FreeRTOS/Source/timers.c **** 			}
 934:Middlewares/Third_Party/FreeRTOS/Source/timers.c **** 			#endif /* configQUEUE_REGISTRY_SIZE */
 935:Middlewares/Third_Party/FreeRTOS/Source/timers.c **** 		}
 936:Middlewares/Third_Party/FreeRTOS/Source/timers.c **** 		else
 937:Middlewares/Third_Party/FreeRTOS/Source/timers.c **** 		{
 938:Middlewares/Third_Party/FreeRTOS/Source/timers.c **** 			mtCOVERAGE_TEST_MARKER();
 212              		.loc 1 938 28 is_stmt 1 view .LVU48
 939:Middlewares/Third_Party/FreeRTOS/Source/timers.c **** 		}
 940:Middlewares/Third_Party/FreeRTOS/Source/timers.c **** 	}
 941:Middlewares/Third_Party/FreeRTOS/Source/timers.c **** 	taskEXIT_CRITICAL();
 213              		.loc 1 941 2 view .LVU49
 214 000e FFF7FEFF 		bl	vPortExitCritical
 215              	.LVL22:
 942:Middlewares/Third_Party/FreeRTOS/Source/timers.c **** }
 216              		.loc 1 942 1 is_stmt 0 view .LVU50
 217 0012 03B0     		add	sp, sp, #12
 218              	.LCFI3:
 219              		.cfi_remember_state
 220              		.cfi_def_cfa_offset 12
 221              		@ sp needed
 222 0014 30BD     		pop	{r4, r5, pc}
 223              	.L19:
 224              	.LCFI4:
 225              		.cfi_restore_state
 903:Middlewares/Third_Party/FreeRTOS/Source/timers.c **** 			vListInitialise( &xActiveTimerList2 );
 226              		.loc 1 903 4 is_stmt 1 view .LVU51
 227 0016 0F4D     		ldr	r5, .L20+4
 228 0018 2846     		mov	r0, r5
 229 001a FFF7FEFF 		bl	vListInitialise
 230              	.LVL23:
 904:Middlewares/Third_Party/FreeRTOS/Source/timers.c **** 			pxCurrentTimerList = &xActiveTimerList1;
 231              		.loc 1 904 4 view .LVU52
 232 001e 0E4C     		ldr	r4, .L20+8
 233 0020 2046     		mov	r0, r4
 234 0022 FFF7FEFF 		bl	vListInitialise
 235              	.LVL24:
 905:Middlewares/Third_Party/FreeRTOS/Source/timers.c **** 			pxOverflowTimerList = &xActiveTimerList2;
 236              		.loc 1 905 4 view .LVU53
 905:Middlewares/Third_Party/FreeRTOS/Source/timers.c **** 			pxOverflowTimerList = &xActiveTimerList2;
 237              		.loc 1 905 23 is_stmt 0 view .LVU54
 238 0026 0D4B     		ldr	r3, .L20+12
 239 0028 1D60     		str	r5, [r3]
ARM GAS  /tmp/ccPfK4K4.s 			page 22


 906:Middlewares/Third_Party/FreeRTOS/Source/timers.c **** 
 240              		.loc 1 906 4 is_stmt 1 view .LVU55
 906:Middlewares/Third_Party/FreeRTOS/Source/timers.c **** 
 241              		.loc 1 906 24 is_stmt 0 view .LVU56
 242 002a 0D4B     		ldr	r3, .L20+16
 243 002c 1C60     		str	r4, [r3]
 244              	.LBB41:
 912:Middlewares/Third_Party/FreeRTOS/Source/timers.c **** 				static uint8_t ucStaticTimerQueueStorage[ ( size_t ) configTIMER_QUEUE_LENGTH * sizeof( DaemonT
 245              		.loc 1 912 5 is_stmt 1 view .LVU57
 913:Middlewares/Third_Party/FreeRTOS/Source/timers.c **** 
 246              		.loc 1 913 5 view .LVU58
 915:Middlewares/Third_Party/FreeRTOS/Source/timers.c **** 			}
 247              		.loc 1 915 5 view .LVU59
 915:Middlewares/Third_Party/FreeRTOS/Source/timers.c **** 			}
 248              		.loc 1 915 19 is_stmt 0 view .LVU60
 249 002e 0023     		movs	r3, #0
 250 0030 0093     		str	r3, [sp]
 251 0032 0C4B     		ldr	r3, .L20+20
 252 0034 0C4A     		ldr	r2, .L20+24
 253 0036 1021     		movs	r1, #16
 254 0038 0A20     		movs	r0, #10
 255 003a FFF7FEFF 		bl	xQueueGenericCreateStatic
 256              	.LVL25:
 915:Middlewares/Third_Party/FreeRTOS/Source/timers.c **** 			}
 257              		.loc 1 915 17 view .LVU61
 258 003e 044B     		ldr	r3, .L20
 259 0040 1860     		str	r0, [r3]
 260              	.LBE41:
 925:Middlewares/Third_Party/FreeRTOS/Source/timers.c **** 				{
 261              		.loc 1 925 5 is_stmt 1 view .LVU62
 925:Middlewares/Third_Party/FreeRTOS/Source/timers.c **** 				{
 262              		.loc 1 925 7 is_stmt 0 view .LVU63
 263 0042 0028     		cmp	r0, #0
 264 0044 E3D0     		beq	.L17
 927:Middlewares/Third_Party/FreeRTOS/Source/timers.c **** 				}
 265              		.loc 1 927 6 is_stmt 1 view .LVU64
 266 0046 0949     		ldr	r1, .L20+28
 267 0048 FFF7FEFF 		bl	vQueueAddToRegistry
 268              	.LVL26:
 269 004c DFE7     		b	.L17
 270              	.L21:
 271 004e 00BF     		.align	2
 272              	.L20:
 273 0050 00000000 		.word	.LANCHOR2
 274 0054 00000000 		.word	.LANCHOR3
 275 0058 00000000 		.word	.LANCHOR4
 276 005c 00000000 		.word	.LANCHOR0
 277 0060 00000000 		.word	.LANCHOR1
 278 0064 00000000 		.word	.LANCHOR5
 279 0068 00000000 		.word	.LANCHOR6
 280 006c 00000000 		.word	.LC0
 281              		.cfi_endproc
 282              	.LFE21:
 284              		.section	.text.prvInitialiseNewTimer,"ax",%progbits
 285              		.align	1
 286              		.syntax unified
 287              		.thumb
ARM GAS  /tmp/ccPfK4K4.s 			page 23


 288              		.thumb_func
 289              		.fpu fpv5-d16
 291              	prvInitialiseNewTimer:
 292              	.LVL27:
 293              	.LFB7:
 358:Middlewares/Third_Party/FreeRTOS/Source/timers.c **** 	/* 0 is not a valid value for xTimerPeriodInTicks. */
 294              		.loc 1 358 1 view -0
 295              		.cfi_startproc
 296              		@ args = 8, pretend = 0, frame = 0
 297              		@ frame_needed = 0, uses_anonymous_args = 0
 358:Middlewares/Third_Party/FreeRTOS/Source/timers.c **** 	/* 0 is not a valid value for xTimerPeriodInTicks. */
 298              		.loc 1 358 1 is_stmt 0 view .LVU66
 299 0000 2DE9F041 		push	{r4, r5, r6, r7, r8, lr}
 300              	.LCFI5:
 301              		.cfi_def_cfa_offset 24
 302              		.cfi_offset 4, -24
 303              		.cfi_offset 5, -20
 304              		.cfi_offset 6, -16
 305              		.cfi_offset 7, -12
 306              		.cfi_offset 8, -8
 307              		.cfi_offset 14, -4
 308 0004 079C     		ldr	r4, [sp, #28]
 360:Middlewares/Third_Party/FreeRTOS/Source/timers.c **** 
 309              		.loc 1 360 2 is_stmt 1 view .LVU67
 310 0006 41B9     		cbnz	r1, .L23
 360:Middlewares/Third_Party/FreeRTOS/Source/timers.c **** 
 311              		.loc 1 360 2 view .LVU68
 312              	.LBB42:
 313              	.LBI42:
 314              		.file 2 "Middlewares/Third_Party/FreeRTOS/Source/portable/GCC/ARM_CM4F/portmacro.h"
   1:Middlewares/Third_Party/FreeRTOS/Source/portable/GCC/ARM_CM4F/portmacro.h **** /*
   2:Middlewares/Third_Party/FreeRTOS/Source/portable/GCC/ARM_CM4F/portmacro.h ****  * FreeRTOS Kernel V10.0.1
   3:Middlewares/Third_Party/FreeRTOS/Source/portable/GCC/ARM_CM4F/portmacro.h ****  * Copyright (C) 2017 Amazon.com, Inc. or its affiliates.  All Rights Reserved.
   4:Middlewares/Third_Party/FreeRTOS/Source/portable/GCC/ARM_CM4F/portmacro.h ****  *
   5:Middlewares/Third_Party/FreeRTOS/Source/portable/GCC/ARM_CM4F/portmacro.h ****  * Permission is hereby granted, free of charge, to any person obtaining a copy of
   6:Middlewares/Third_Party/FreeRTOS/Source/portable/GCC/ARM_CM4F/portmacro.h ****  * this software and associated documentation files (the "Software"), to deal in
   7:Middlewares/Third_Party/FreeRTOS/Source/portable/GCC/ARM_CM4F/portmacro.h ****  * the Software without restriction, including without limitation the rights to
   8:Middlewares/Third_Party/FreeRTOS/Source/portable/GCC/ARM_CM4F/portmacro.h ****  * use, copy, modify, merge, publish, distribute, sublicense, and/or sell copies of
   9:Middlewares/Third_Party/FreeRTOS/Source/portable/GCC/ARM_CM4F/portmacro.h ****  * the Software, and to permit persons to whom the Software is furnished to do so,
  10:Middlewares/Third_Party/FreeRTOS/Source/portable/GCC/ARM_CM4F/portmacro.h ****  * subject to the following conditions:
  11:Middlewares/Third_Party/FreeRTOS/Source/portable/GCC/ARM_CM4F/portmacro.h ****  *
  12:Middlewares/Third_Party/FreeRTOS/Source/portable/GCC/ARM_CM4F/portmacro.h ****  * The above copyright notice and this permission notice shall be included in all
  13:Middlewares/Third_Party/FreeRTOS/Source/portable/GCC/ARM_CM4F/portmacro.h ****  * copies or substantial portions of the Software.
  14:Middlewares/Third_Party/FreeRTOS/Source/portable/GCC/ARM_CM4F/portmacro.h ****  *
  15:Middlewares/Third_Party/FreeRTOS/Source/portable/GCC/ARM_CM4F/portmacro.h ****  * THE SOFTWARE IS PROVIDED "AS IS", WITHOUT WARRANTY OF ANY KIND, EXPRESS OR
  16:Middlewares/Third_Party/FreeRTOS/Source/portable/GCC/ARM_CM4F/portmacro.h ****  * IMPLIED, INCLUDING BUT NOT LIMITED TO THE WARRANTIES OF MERCHANTABILITY, FITNESS
  17:Middlewares/Third_Party/FreeRTOS/Source/portable/GCC/ARM_CM4F/portmacro.h ****  * FOR A PARTICULAR PURPOSE AND NONINFRINGEMENT. IN NO EVENT SHALL THE AUTHORS OR
  18:Middlewares/Third_Party/FreeRTOS/Source/portable/GCC/ARM_CM4F/portmacro.h ****  * COPYRIGHT HOLDERS BE LIABLE FOR ANY CLAIM, DAMAGES OR OTHER LIABILITY, WHETHER
  19:Middlewares/Third_Party/FreeRTOS/Source/portable/GCC/ARM_CM4F/portmacro.h ****  * IN AN ACTION OF CONTRACT, TORT OR OTHERWISE, ARISING FROM, OUT OF OR IN
  20:Middlewares/Third_Party/FreeRTOS/Source/portable/GCC/ARM_CM4F/portmacro.h ****  * CONNECTION WITH THE SOFTWARE OR THE USE OR OTHER DEALINGS IN THE SOFTWARE.
  21:Middlewares/Third_Party/FreeRTOS/Source/portable/GCC/ARM_CM4F/portmacro.h ****  *
  22:Middlewares/Third_Party/FreeRTOS/Source/portable/GCC/ARM_CM4F/portmacro.h ****  * http://www.FreeRTOS.org
  23:Middlewares/Third_Party/FreeRTOS/Source/portable/GCC/ARM_CM4F/portmacro.h ****  * http://aws.amazon.com/freertos
  24:Middlewares/Third_Party/FreeRTOS/Source/portable/GCC/ARM_CM4F/portmacro.h ****  *
  25:Middlewares/Third_Party/FreeRTOS/Source/portable/GCC/ARM_CM4F/portmacro.h ****  * 1 tab == 4 spaces!
  26:Middlewares/Third_Party/FreeRTOS/Source/portable/GCC/ARM_CM4F/portmacro.h ****  */
  27:Middlewares/Third_Party/FreeRTOS/Source/portable/GCC/ARM_CM4F/portmacro.h **** 
ARM GAS  /tmp/ccPfK4K4.s 			page 24


  28:Middlewares/Third_Party/FreeRTOS/Source/portable/GCC/ARM_CM4F/portmacro.h **** 
  29:Middlewares/Third_Party/FreeRTOS/Source/portable/GCC/ARM_CM4F/portmacro.h **** #ifndef PORTMACRO_H
  30:Middlewares/Third_Party/FreeRTOS/Source/portable/GCC/ARM_CM4F/portmacro.h **** #define PORTMACRO_H
  31:Middlewares/Third_Party/FreeRTOS/Source/portable/GCC/ARM_CM4F/portmacro.h **** 
  32:Middlewares/Third_Party/FreeRTOS/Source/portable/GCC/ARM_CM4F/portmacro.h **** #ifdef __cplusplus
  33:Middlewares/Third_Party/FreeRTOS/Source/portable/GCC/ARM_CM4F/portmacro.h **** extern "C" {
  34:Middlewares/Third_Party/FreeRTOS/Source/portable/GCC/ARM_CM4F/portmacro.h **** #endif
  35:Middlewares/Third_Party/FreeRTOS/Source/portable/GCC/ARM_CM4F/portmacro.h **** 
  36:Middlewares/Third_Party/FreeRTOS/Source/portable/GCC/ARM_CM4F/portmacro.h **** /*-----------------------------------------------------------
  37:Middlewares/Third_Party/FreeRTOS/Source/portable/GCC/ARM_CM4F/portmacro.h ****  * Port specific definitions.
  38:Middlewares/Third_Party/FreeRTOS/Source/portable/GCC/ARM_CM4F/portmacro.h ****  *
  39:Middlewares/Third_Party/FreeRTOS/Source/portable/GCC/ARM_CM4F/portmacro.h ****  * The settings in this file configure FreeRTOS correctly for the
  40:Middlewares/Third_Party/FreeRTOS/Source/portable/GCC/ARM_CM4F/portmacro.h ****  * given hardware and compiler.
  41:Middlewares/Third_Party/FreeRTOS/Source/portable/GCC/ARM_CM4F/portmacro.h ****  *
  42:Middlewares/Third_Party/FreeRTOS/Source/portable/GCC/ARM_CM4F/portmacro.h ****  * These settings should not be altered.
  43:Middlewares/Third_Party/FreeRTOS/Source/portable/GCC/ARM_CM4F/portmacro.h ****  *-----------------------------------------------------------
  44:Middlewares/Third_Party/FreeRTOS/Source/portable/GCC/ARM_CM4F/portmacro.h ****  */
  45:Middlewares/Third_Party/FreeRTOS/Source/portable/GCC/ARM_CM4F/portmacro.h **** 
  46:Middlewares/Third_Party/FreeRTOS/Source/portable/GCC/ARM_CM4F/portmacro.h **** /* Type definitions. */
  47:Middlewares/Third_Party/FreeRTOS/Source/portable/GCC/ARM_CM4F/portmacro.h **** #define portCHAR		char
  48:Middlewares/Third_Party/FreeRTOS/Source/portable/GCC/ARM_CM4F/portmacro.h **** #define portFLOAT		float
  49:Middlewares/Third_Party/FreeRTOS/Source/portable/GCC/ARM_CM4F/portmacro.h **** #define portDOUBLE		double
  50:Middlewares/Third_Party/FreeRTOS/Source/portable/GCC/ARM_CM4F/portmacro.h **** #define portLONG		long
  51:Middlewares/Third_Party/FreeRTOS/Source/portable/GCC/ARM_CM4F/portmacro.h **** #define portSHORT		short
  52:Middlewares/Third_Party/FreeRTOS/Source/portable/GCC/ARM_CM4F/portmacro.h **** #define portSTACK_TYPE	uint32_t
  53:Middlewares/Third_Party/FreeRTOS/Source/portable/GCC/ARM_CM4F/portmacro.h **** #define portBASE_TYPE	long
  54:Middlewares/Third_Party/FreeRTOS/Source/portable/GCC/ARM_CM4F/portmacro.h **** 
  55:Middlewares/Third_Party/FreeRTOS/Source/portable/GCC/ARM_CM4F/portmacro.h **** typedef portSTACK_TYPE StackType_t;
  56:Middlewares/Third_Party/FreeRTOS/Source/portable/GCC/ARM_CM4F/portmacro.h **** typedef long BaseType_t;
  57:Middlewares/Third_Party/FreeRTOS/Source/portable/GCC/ARM_CM4F/portmacro.h **** typedef unsigned long UBaseType_t;
  58:Middlewares/Third_Party/FreeRTOS/Source/portable/GCC/ARM_CM4F/portmacro.h **** 
  59:Middlewares/Third_Party/FreeRTOS/Source/portable/GCC/ARM_CM4F/portmacro.h **** #if( configUSE_16_BIT_TICKS == 1 )
  60:Middlewares/Third_Party/FreeRTOS/Source/portable/GCC/ARM_CM4F/portmacro.h **** 	typedef uint16_t TickType_t;
  61:Middlewares/Third_Party/FreeRTOS/Source/portable/GCC/ARM_CM4F/portmacro.h **** 	#define portMAX_DELAY ( TickType_t ) 0xffff
  62:Middlewares/Third_Party/FreeRTOS/Source/portable/GCC/ARM_CM4F/portmacro.h **** #else
  63:Middlewares/Third_Party/FreeRTOS/Source/portable/GCC/ARM_CM4F/portmacro.h **** 	typedef uint32_t TickType_t;
  64:Middlewares/Third_Party/FreeRTOS/Source/portable/GCC/ARM_CM4F/portmacro.h **** 	#define portMAX_DELAY ( TickType_t ) 0xffffffffUL
  65:Middlewares/Third_Party/FreeRTOS/Source/portable/GCC/ARM_CM4F/portmacro.h **** 
  66:Middlewares/Third_Party/FreeRTOS/Source/portable/GCC/ARM_CM4F/portmacro.h **** 	/* 32-bit tick type on a 32-bit architecture, so reads of the tick count do
  67:Middlewares/Third_Party/FreeRTOS/Source/portable/GCC/ARM_CM4F/portmacro.h **** 	not need to be guarded with a critical section. */
  68:Middlewares/Third_Party/FreeRTOS/Source/portable/GCC/ARM_CM4F/portmacro.h **** 	#define portTICK_TYPE_IS_ATOMIC 1
  69:Middlewares/Third_Party/FreeRTOS/Source/portable/GCC/ARM_CM4F/portmacro.h **** #endif
  70:Middlewares/Third_Party/FreeRTOS/Source/portable/GCC/ARM_CM4F/portmacro.h **** /*-----------------------------------------------------------*/
  71:Middlewares/Third_Party/FreeRTOS/Source/portable/GCC/ARM_CM4F/portmacro.h **** 
  72:Middlewares/Third_Party/FreeRTOS/Source/portable/GCC/ARM_CM4F/portmacro.h **** /* Architecture specifics. */
  73:Middlewares/Third_Party/FreeRTOS/Source/portable/GCC/ARM_CM4F/portmacro.h **** #define portSTACK_GROWTH			( -1 )
  74:Middlewares/Third_Party/FreeRTOS/Source/portable/GCC/ARM_CM4F/portmacro.h **** #define portTICK_PERIOD_MS			( ( TickType_t ) 1000 / configTICK_RATE_HZ )
  75:Middlewares/Third_Party/FreeRTOS/Source/portable/GCC/ARM_CM4F/portmacro.h **** #define portBYTE_ALIGNMENT			8
  76:Middlewares/Third_Party/FreeRTOS/Source/portable/GCC/ARM_CM4F/portmacro.h **** /*-----------------------------------------------------------*/
  77:Middlewares/Third_Party/FreeRTOS/Source/portable/GCC/ARM_CM4F/portmacro.h **** 
  78:Middlewares/Third_Party/FreeRTOS/Source/portable/GCC/ARM_CM4F/portmacro.h **** /* Scheduler utilities. */
  79:Middlewares/Third_Party/FreeRTOS/Source/portable/GCC/ARM_CM4F/portmacro.h **** #define portYIELD() 															\
  80:Middlewares/Third_Party/FreeRTOS/Source/portable/GCC/ARM_CM4F/portmacro.h **** {																				\
  81:Middlewares/Third_Party/FreeRTOS/Source/portable/GCC/ARM_CM4F/portmacro.h **** 	/* Set a PendSV to request a context switch. */								\
  82:Middlewares/Third_Party/FreeRTOS/Source/portable/GCC/ARM_CM4F/portmacro.h **** 	portNVIC_INT_CTRL_REG = portNVIC_PENDSVSET_BIT;								\
  83:Middlewares/Third_Party/FreeRTOS/Source/portable/GCC/ARM_CM4F/portmacro.h **** 																				\
  84:Middlewares/Third_Party/FreeRTOS/Source/portable/GCC/ARM_CM4F/portmacro.h **** 	/* Barriers are normally not required but do ensure the code is completely	\
ARM GAS  /tmp/ccPfK4K4.s 			page 25


  85:Middlewares/Third_Party/FreeRTOS/Source/portable/GCC/ARM_CM4F/portmacro.h **** 	within the specified behaviour for the architecture. */						\
  86:Middlewares/Third_Party/FreeRTOS/Source/portable/GCC/ARM_CM4F/portmacro.h **** 	__asm volatile( "dsb" ::: "memory" );										\
  87:Middlewares/Third_Party/FreeRTOS/Source/portable/GCC/ARM_CM4F/portmacro.h **** 	__asm volatile( "isb" );													\
  88:Middlewares/Third_Party/FreeRTOS/Source/portable/GCC/ARM_CM4F/portmacro.h **** }
  89:Middlewares/Third_Party/FreeRTOS/Source/portable/GCC/ARM_CM4F/portmacro.h **** 
  90:Middlewares/Third_Party/FreeRTOS/Source/portable/GCC/ARM_CM4F/portmacro.h **** #define portNVIC_INT_CTRL_REG		( * ( ( volatile uint32_t * ) 0xe000ed04 ) )
  91:Middlewares/Third_Party/FreeRTOS/Source/portable/GCC/ARM_CM4F/portmacro.h **** #define portNVIC_PENDSVSET_BIT		( 1UL << 28UL )
  92:Middlewares/Third_Party/FreeRTOS/Source/portable/GCC/ARM_CM4F/portmacro.h **** #define portEND_SWITCHING_ISR( xSwitchRequired ) if( xSwitchRequired != pdFALSE ) portYIELD()
  93:Middlewares/Third_Party/FreeRTOS/Source/portable/GCC/ARM_CM4F/portmacro.h **** #define portYIELD_FROM_ISR( x ) portEND_SWITCHING_ISR( x )
  94:Middlewares/Third_Party/FreeRTOS/Source/portable/GCC/ARM_CM4F/portmacro.h **** /*-----------------------------------------------------------*/
  95:Middlewares/Third_Party/FreeRTOS/Source/portable/GCC/ARM_CM4F/portmacro.h **** 
  96:Middlewares/Third_Party/FreeRTOS/Source/portable/GCC/ARM_CM4F/portmacro.h **** /* Critical section management. */
  97:Middlewares/Third_Party/FreeRTOS/Source/portable/GCC/ARM_CM4F/portmacro.h **** extern void vPortEnterCritical( void );
  98:Middlewares/Third_Party/FreeRTOS/Source/portable/GCC/ARM_CM4F/portmacro.h **** extern void vPortExitCritical( void );
  99:Middlewares/Third_Party/FreeRTOS/Source/portable/GCC/ARM_CM4F/portmacro.h **** #define portSET_INTERRUPT_MASK_FROM_ISR()		ulPortRaiseBASEPRI()
 100:Middlewares/Third_Party/FreeRTOS/Source/portable/GCC/ARM_CM4F/portmacro.h **** #define portCLEAR_INTERRUPT_MASK_FROM_ISR(x)	vPortSetBASEPRI(x)
 101:Middlewares/Third_Party/FreeRTOS/Source/portable/GCC/ARM_CM4F/portmacro.h **** #define portDISABLE_INTERRUPTS()				vPortRaiseBASEPRI()
 102:Middlewares/Third_Party/FreeRTOS/Source/portable/GCC/ARM_CM4F/portmacro.h **** #define portENABLE_INTERRUPTS()					vPortSetBASEPRI(0)
 103:Middlewares/Third_Party/FreeRTOS/Source/portable/GCC/ARM_CM4F/portmacro.h **** #define portENTER_CRITICAL()					vPortEnterCritical()
 104:Middlewares/Third_Party/FreeRTOS/Source/portable/GCC/ARM_CM4F/portmacro.h **** #define portEXIT_CRITICAL()						vPortExitCritical()
 105:Middlewares/Third_Party/FreeRTOS/Source/portable/GCC/ARM_CM4F/portmacro.h **** 
 106:Middlewares/Third_Party/FreeRTOS/Source/portable/GCC/ARM_CM4F/portmacro.h **** /*-----------------------------------------------------------*/
 107:Middlewares/Third_Party/FreeRTOS/Source/portable/GCC/ARM_CM4F/portmacro.h **** 
 108:Middlewares/Third_Party/FreeRTOS/Source/portable/GCC/ARM_CM4F/portmacro.h **** /* Task function macros as described on the FreeRTOS.org WEB site.  These are
 109:Middlewares/Third_Party/FreeRTOS/Source/portable/GCC/ARM_CM4F/portmacro.h **** not necessary for to use this port.  They are defined so the common demo files
 110:Middlewares/Third_Party/FreeRTOS/Source/portable/GCC/ARM_CM4F/portmacro.h **** (which build with all the ports) will build. */
 111:Middlewares/Third_Party/FreeRTOS/Source/portable/GCC/ARM_CM4F/portmacro.h **** #define portTASK_FUNCTION_PROTO( vFunction, pvParameters ) void vFunction( void *pvParameters )
 112:Middlewares/Third_Party/FreeRTOS/Source/portable/GCC/ARM_CM4F/portmacro.h **** #define portTASK_FUNCTION( vFunction, pvParameters ) void vFunction( void *pvParameters )
 113:Middlewares/Third_Party/FreeRTOS/Source/portable/GCC/ARM_CM4F/portmacro.h **** /*-----------------------------------------------------------*/
 114:Middlewares/Third_Party/FreeRTOS/Source/portable/GCC/ARM_CM4F/portmacro.h **** 
 115:Middlewares/Third_Party/FreeRTOS/Source/portable/GCC/ARM_CM4F/portmacro.h **** /* Tickless idle/low power functionality. */
 116:Middlewares/Third_Party/FreeRTOS/Source/portable/GCC/ARM_CM4F/portmacro.h **** #ifndef portSUPPRESS_TICKS_AND_SLEEP
 117:Middlewares/Third_Party/FreeRTOS/Source/portable/GCC/ARM_CM4F/portmacro.h **** 	extern void vPortSuppressTicksAndSleep( TickType_t xExpectedIdleTime );
 118:Middlewares/Third_Party/FreeRTOS/Source/portable/GCC/ARM_CM4F/portmacro.h **** 	#define portSUPPRESS_TICKS_AND_SLEEP( xExpectedIdleTime ) vPortSuppressTicksAndSleep( xExpectedIdl
 119:Middlewares/Third_Party/FreeRTOS/Source/portable/GCC/ARM_CM4F/portmacro.h **** #endif
 120:Middlewares/Third_Party/FreeRTOS/Source/portable/GCC/ARM_CM4F/portmacro.h **** /*-----------------------------------------------------------*/
 121:Middlewares/Third_Party/FreeRTOS/Source/portable/GCC/ARM_CM4F/portmacro.h **** 
 122:Middlewares/Third_Party/FreeRTOS/Source/portable/GCC/ARM_CM4F/portmacro.h **** /* Architecture specific optimisations. */
 123:Middlewares/Third_Party/FreeRTOS/Source/portable/GCC/ARM_CM4F/portmacro.h **** #ifndef configUSE_PORT_OPTIMISED_TASK_SELECTION
 124:Middlewares/Third_Party/FreeRTOS/Source/portable/GCC/ARM_CM4F/portmacro.h **** 	#define configUSE_PORT_OPTIMISED_TASK_SELECTION 1
 125:Middlewares/Third_Party/FreeRTOS/Source/portable/GCC/ARM_CM4F/portmacro.h **** #endif
 126:Middlewares/Third_Party/FreeRTOS/Source/portable/GCC/ARM_CM4F/portmacro.h **** 
 127:Middlewares/Third_Party/FreeRTOS/Source/portable/GCC/ARM_CM4F/portmacro.h **** #if configUSE_PORT_OPTIMISED_TASK_SELECTION == 1
 128:Middlewares/Third_Party/FreeRTOS/Source/portable/GCC/ARM_CM4F/portmacro.h **** 
 129:Middlewares/Third_Party/FreeRTOS/Source/portable/GCC/ARM_CM4F/portmacro.h **** 	/* Generic helper function. */
 130:Middlewares/Third_Party/FreeRTOS/Source/portable/GCC/ARM_CM4F/portmacro.h **** 	__attribute__( ( always_inline ) ) static inline uint8_t ucPortCountLeadingZeros( uint32_t ulBitma
 131:Middlewares/Third_Party/FreeRTOS/Source/portable/GCC/ARM_CM4F/portmacro.h **** 	{
 132:Middlewares/Third_Party/FreeRTOS/Source/portable/GCC/ARM_CM4F/portmacro.h **** 	uint8_t ucReturn;
 133:Middlewares/Third_Party/FreeRTOS/Source/portable/GCC/ARM_CM4F/portmacro.h **** 
 134:Middlewares/Third_Party/FreeRTOS/Source/portable/GCC/ARM_CM4F/portmacro.h **** 		__asm volatile ( "clz %0, %1" : "=r" ( ucReturn ) : "r" ( ulBitmap ) : "memory" );
 135:Middlewares/Third_Party/FreeRTOS/Source/portable/GCC/ARM_CM4F/portmacro.h **** 		return ucReturn;
 136:Middlewares/Third_Party/FreeRTOS/Source/portable/GCC/ARM_CM4F/portmacro.h **** 	}
 137:Middlewares/Third_Party/FreeRTOS/Source/portable/GCC/ARM_CM4F/portmacro.h **** 
 138:Middlewares/Third_Party/FreeRTOS/Source/portable/GCC/ARM_CM4F/portmacro.h **** 	/* Check the configuration. */
 139:Middlewares/Third_Party/FreeRTOS/Source/portable/GCC/ARM_CM4F/portmacro.h **** 	#if( configMAX_PRIORITIES > 32 )
 140:Middlewares/Third_Party/FreeRTOS/Source/portable/GCC/ARM_CM4F/portmacro.h **** 		#error configUSE_PORT_OPTIMISED_TASK_SELECTION can only be set to 1 when configMAX_PRIORITIES is 
 141:Middlewares/Third_Party/FreeRTOS/Source/portable/GCC/ARM_CM4F/portmacro.h **** 	#endif
ARM GAS  /tmp/ccPfK4K4.s 			page 26


 142:Middlewares/Third_Party/FreeRTOS/Source/portable/GCC/ARM_CM4F/portmacro.h **** 
 143:Middlewares/Third_Party/FreeRTOS/Source/portable/GCC/ARM_CM4F/portmacro.h **** 	/* Store/clear the ready priorities in a bit map. */
 144:Middlewares/Third_Party/FreeRTOS/Source/portable/GCC/ARM_CM4F/portmacro.h **** 	#define portRECORD_READY_PRIORITY( uxPriority, uxReadyPriorities ) ( uxReadyPriorities ) |= ( 1UL 
 145:Middlewares/Third_Party/FreeRTOS/Source/portable/GCC/ARM_CM4F/portmacro.h **** 	#define portRESET_READY_PRIORITY( uxPriority, uxReadyPriorities ) ( uxReadyPriorities ) &= ~( 1UL 
 146:Middlewares/Third_Party/FreeRTOS/Source/portable/GCC/ARM_CM4F/portmacro.h **** 
 147:Middlewares/Third_Party/FreeRTOS/Source/portable/GCC/ARM_CM4F/portmacro.h **** 	/*-----------------------------------------------------------*/
 148:Middlewares/Third_Party/FreeRTOS/Source/portable/GCC/ARM_CM4F/portmacro.h **** 
 149:Middlewares/Third_Party/FreeRTOS/Source/portable/GCC/ARM_CM4F/portmacro.h **** 	#define portGET_HIGHEST_PRIORITY( uxTopPriority, uxReadyPriorities ) uxTopPriority = ( 31UL - ( ui
 150:Middlewares/Third_Party/FreeRTOS/Source/portable/GCC/ARM_CM4F/portmacro.h **** 
 151:Middlewares/Third_Party/FreeRTOS/Source/portable/GCC/ARM_CM4F/portmacro.h **** #endif /* configUSE_PORT_OPTIMISED_TASK_SELECTION */
 152:Middlewares/Third_Party/FreeRTOS/Source/portable/GCC/ARM_CM4F/portmacro.h **** 
 153:Middlewares/Third_Party/FreeRTOS/Source/portable/GCC/ARM_CM4F/portmacro.h **** /*-----------------------------------------------------------*/
 154:Middlewares/Third_Party/FreeRTOS/Source/portable/GCC/ARM_CM4F/portmacro.h **** 
 155:Middlewares/Third_Party/FreeRTOS/Source/portable/GCC/ARM_CM4F/portmacro.h **** #ifdef configASSERT
 156:Middlewares/Third_Party/FreeRTOS/Source/portable/GCC/ARM_CM4F/portmacro.h **** 	void vPortValidateInterruptPriority( void );
 157:Middlewares/Third_Party/FreeRTOS/Source/portable/GCC/ARM_CM4F/portmacro.h **** 	#define portASSERT_IF_INTERRUPT_PRIORITY_INVALID() 	vPortValidateInterruptPriority()
 158:Middlewares/Third_Party/FreeRTOS/Source/portable/GCC/ARM_CM4F/portmacro.h **** #endif
 159:Middlewares/Third_Party/FreeRTOS/Source/portable/GCC/ARM_CM4F/portmacro.h **** 
 160:Middlewares/Third_Party/FreeRTOS/Source/portable/GCC/ARM_CM4F/portmacro.h **** /* portNOP() is not required by this port. */
 161:Middlewares/Third_Party/FreeRTOS/Source/portable/GCC/ARM_CM4F/portmacro.h **** #define portNOP()
 162:Middlewares/Third_Party/FreeRTOS/Source/portable/GCC/ARM_CM4F/portmacro.h **** 
 163:Middlewares/Third_Party/FreeRTOS/Source/portable/GCC/ARM_CM4F/portmacro.h **** #define portINLINE	__inline
 164:Middlewares/Third_Party/FreeRTOS/Source/portable/GCC/ARM_CM4F/portmacro.h **** 
 165:Middlewares/Third_Party/FreeRTOS/Source/portable/GCC/ARM_CM4F/portmacro.h **** #ifndef portFORCE_INLINE
 166:Middlewares/Third_Party/FreeRTOS/Source/portable/GCC/ARM_CM4F/portmacro.h **** 	#define portFORCE_INLINE inline __attribute__(( always_inline))
 167:Middlewares/Third_Party/FreeRTOS/Source/portable/GCC/ARM_CM4F/portmacro.h **** #endif
 168:Middlewares/Third_Party/FreeRTOS/Source/portable/GCC/ARM_CM4F/portmacro.h **** 
 169:Middlewares/Third_Party/FreeRTOS/Source/portable/GCC/ARM_CM4F/portmacro.h **** portFORCE_INLINE static BaseType_t xPortIsInsideInterrupt( void )
 170:Middlewares/Third_Party/FreeRTOS/Source/portable/GCC/ARM_CM4F/portmacro.h **** {
 171:Middlewares/Third_Party/FreeRTOS/Source/portable/GCC/ARM_CM4F/portmacro.h **** uint32_t ulCurrentInterrupt;
 172:Middlewares/Third_Party/FreeRTOS/Source/portable/GCC/ARM_CM4F/portmacro.h **** BaseType_t xReturn;
 173:Middlewares/Third_Party/FreeRTOS/Source/portable/GCC/ARM_CM4F/portmacro.h **** 
 174:Middlewares/Third_Party/FreeRTOS/Source/portable/GCC/ARM_CM4F/portmacro.h **** 	/* Obtain the number of the currently executing interrupt. */
 175:Middlewares/Third_Party/FreeRTOS/Source/portable/GCC/ARM_CM4F/portmacro.h **** 	__asm volatile( "mrs %0, ipsr" : "=r"( ulCurrentInterrupt ) :: "memory" );
 176:Middlewares/Third_Party/FreeRTOS/Source/portable/GCC/ARM_CM4F/portmacro.h **** 
 177:Middlewares/Third_Party/FreeRTOS/Source/portable/GCC/ARM_CM4F/portmacro.h **** 	if( ulCurrentInterrupt == 0 )
 178:Middlewares/Third_Party/FreeRTOS/Source/portable/GCC/ARM_CM4F/portmacro.h **** 	{
 179:Middlewares/Third_Party/FreeRTOS/Source/portable/GCC/ARM_CM4F/portmacro.h **** 		xReturn = pdFALSE;
 180:Middlewares/Third_Party/FreeRTOS/Source/portable/GCC/ARM_CM4F/portmacro.h **** 	}
 181:Middlewares/Third_Party/FreeRTOS/Source/portable/GCC/ARM_CM4F/portmacro.h **** 	else
 182:Middlewares/Third_Party/FreeRTOS/Source/portable/GCC/ARM_CM4F/portmacro.h **** 	{
 183:Middlewares/Third_Party/FreeRTOS/Source/portable/GCC/ARM_CM4F/portmacro.h **** 		xReturn = pdTRUE;
 184:Middlewares/Third_Party/FreeRTOS/Source/portable/GCC/ARM_CM4F/portmacro.h **** 	}
 185:Middlewares/Third_Party/FreeRTOS/Source/portable/GCC/ARM_CM4F/portmacro.h **** 
 186:Middlewares/Third_Party/FreeRTOS/Source/portable/GCC/ARM_CM4F/portmacro.h **** 	return xReturn;
 187:Middlewares/Third_Party/FreeRTOS/Source/portable/GCC/ARM_CM4F/portmacro.h **** }
 188:Middlewares/Third_Party/FreeRTOS/Source/portable/GCC/ARM_CM4F/portmacro.h **** 
 189:Middlewares/Third_Party/FreeRTOS/Source/portable/GCC/ARM_CM4F/portmacro.h **** /*-----------------------------------------------------------*/
 190:Middlewares/Third_Party/FreeRTOS/Source/portable/GCC/ARM_CM4F/portmacro.h **** 
 191:Middlewares/Third_Party/FreeRTOS/Source/portable/GCC/ARM_CM4F/portmacro.h **** portFORCE_INLINE static void vPortRaiseBASEPRI( void )
 315              		.loc 2 191 30 view .LVU69
 316              	.LBB43:
 192:Middlewares/Third_Party/FreeRTOS/Source/portable/GCC/ARM_CM4F/portmacro.h **** {
 193:Middlewares/Third_Party/FreeRTOS/Source/portable/GCC/ARM_CM4F/portmacro.h **** uint32_t ulNewBASEPRI;
 317              		.loc 2 193 1 view .LVU70
 194:Middlewares/Third_Party/FreeRTOS/Source/portable/GCC/ARM_CM4F/portmacro.h **** 
 195:Middlewares/Third_Party/FreeRTOS/Source/portable/GCC/ARM_CM4F/portmacro.h **** 	__asm volatile
ARM GAS  /tmp/ccPfK4K4.s 			page 27


 318              		.loc 2 195 2 view .LVU71
 319              		.syntax unified
 320              	@ 195 "Middlewares/Third_Party/FreeRTOS/Source/portable/GCC/ARM_CM4F/portmacro.h" 1
 321 0008 4FF05003 			mov r3, #80												
 322 000c 83F31188 		msr basepri, r3											
 323 0010 BFF36F8F 		isb														
 324 0014 BFF34F8F 		dsb														
 325              	
 326              	@ 0 "" 2
 327              	.LVL28:
 328              		.thumb
 329              		.syntax unified
 330              	.L24:
 331              		.loc 2 195 2 is_stmt 0 view .LVU72
 332              	.LBE43:
 333              	.LBE42:
 360:Middlewares/Third_Party/FreeRTOS/Source/timers.c **** 
 334              		.loc 1 360 2 is_stmt 1 discriminator 1 view .LVU73
 360:Middlewares/Third_Party/FreeRTOS/Source/timers.c **** 
 335              		.loc 1 360 2 discriminator 1 view .LVU74
 336 0018 FEE7     		b	.L24
 337              	.LVL29:
 338              	.L23:
 360:Middlewares/Third_Party/FreeRTOS/Source/timers.c **** 
 339              		.loc 1 360 2 is_stmt 0 discriminator 1 view .LVU75
 340 001a 0746     		mov	r7, r0
 341 001c 1646     		mov	r6, r2
 342 001e 1D46     		mov	r5, r3
 343 0020 8846     		mov	r8, r1
 360:Middlewares/Third_Party/FreeRTOS/Source/timers.c **** 
 344              		.loc 1 360 45 is_stmt 1 discriminator 2 view .LVU76
 362:Middlewares/Third_Party/FreeRTOS/Source/timers.c **** 	{
 345              		.loc 1 362 2 discriminator 2 view .LVU77
 362:Middlewares/Third_Party/FreeRTOS/Source/timers.c **** 	{
 346              		.loc 1 362 4 is_stmt 0 discriminator 2 view .LVU78
 347 0022 5CB1     		cbz	r4, .L22
 366:Middlewares/Third_Party/FreeRTOS/Source/timers.c **** 
 348              		.loc 1 366 3 is_stmt 1 view .LVU79
 349 0024 FFF7FEFF 		bl	prvCheckForValidListAndQueue
 350              	.LVL30:
 370:Middlewares/Third_Party/FreeRTOS/Source/timers.c **** 		pxNewTimer->xTimerPeriodInTicks = xTimerPeriodInTicks;
 351              		.loc 1 370 3 view .LVU80
 370:Middlewares/Third_Party/FreeRTOS/Source/timers.c **** 		pxNewTimer->xTimerPeriodInTicks = xTimerPeriodInTicks;
 352              		.loc 1 370 27 is_stmt 0 view .LVU81
 353 0028 2760     		str	r7, [r4]
 371:Middlewares/Third_Party/FreeRTOS/Source/timers.c **** 		pxNewTimer->uxAutoReload = uxAutoReload;
 354              		.loc 1 371 3 is_stmt 1 view .LVU82
 371:Middlewares/Third_Party/FreeRTOS/Source/timers.c **** 		pxNewTimer->uxAutoReload = uxAutoReload;
 355              		.loc 1 371 35 is_stmt 0 view .LVU83
 356 002a C4F81880 		str	r8, [r4, #24]
 372:Middlewares/Third_Party/FreeRTOS/Source/timers.c **** 		pxNewTimer->pvTimerID = pvTimerID;
 357              		.loc 1 372 3 is_stmt 1 view .LVU84
 372:Middlewares/Third_Party/FreeRTOS/Source/timers.c **** 		pxNewTimer->pvTimerID = pvTimerID;
 358              		.loc 1 372 28 is_stmt 0 view .LVU85
 359 002e E661     		str	r6, [r4, #28]
 373:Middlewares/Third_Party/FreeRTOS/Source/timers.c **** 		pxNewTimer->pxCallbackFunction = pxCallbackFunction;
 360              		.loc 1 373 3 is_stmt 1 view .LVU86
ARM GAS  /tmp/ccPfK4K4.s 			page 28


 373:Middlewares/Third_Party/FreeRTOS/Source/timers.c **** 		pxNewTimer->pxCallbackFunction = pxCallbackFunction;
 361              		.loc 1 373 25 is_stmt 0 view .LVU87
 362 0030 2562     		str	r5, [r4, #32]
 374:Middlewares/Third_Party/FreeRTOS/Source/timers.c **** 		vListInitialiseItem( &( pxNewTimer->xTimerListItem ) );
 363              		.loc 1 374 3 is_stmt 1 view .LVU88
 374:Middlewares/Third_Party/FreeRTOS/Source/timers.c **** 		vListInitialiseItem( &( pxNewTimer->xTimerListItem ) );
 364              		.loc 1 374 34 is_stmt 0 view .LVU89
 365 0032 069B     		ldr	r3, [sp, #24]
 366 0034 6362     		str	r3, [r4, #36]
 375:Middlewares/Third_Party/FreeRTOS/Source/timers.c **** 		traceTIMER_CREATE( pxNewTimer );
 367              		.loc 1 375 3 is_stmt 1 view .LVU90
 368 0036 201D     		adds	r0, r4, #4
 369 0038 FFF7FEFF 		bl	vListInitialiseItem
 370              	.LVL31:
 376:Middlewares/Third_Party/FreeRTOS/Source/timers.c **** 	}
 371              		.loc 1 376 34 view .LVU91
 372              	.L22:
 378:Middlewares/Third_Party/FreeRTOS/Source/timers.c **** /*-----------------------------------------------------------*/
 373              		.loc 1 378 1 is_stmt 0 view .LVU92
 374 003c BDE8F081 		pop	{r4, r5, r6, r7, r8, pc}
 378:Middlewares/Third_Party/FreeRTOS/Source/timers.c **** /*-----------------------------------------------------------*/
 375              		.loc 1 378 1 view .LVU93
 376              		.cfi_endproc
 377              	.LFE7:
 379              		.section	.rodata.xTimerCreateTimerTask.str1.4,"aMS",%progbits,1
 380              		.align	2
 381              	.LC1:
 382 0000 546D7220 		.ascii	"Tmr Svc\000"
 382      53766300 
 383              		.section	.text.xTimerCreateTimerTask,"ax",%progbits
 384              		.align	1
 385              		.global	xTimerCreateTimerTask
 386              		.syntax unified
 387              		.thumb
 388              		.thumb_func
 389              		.fpu fpv5-d16
 391              	xTimerCreateTimerTask:
 392              	.LFB4:
 224:Middlewares/Third_Party/FreeRTOS/Source/timers.c **** BaseType_t xReturn = pdFAIL;
 393              		.loc 1 224 1 is_stmt 1 view -0
 394              		.cfi_startproc
 395              		@ args = 0, pretend = 0, frame = 16
 396              		@ frame_needed = 0, uses_anonymous_args = 0
 397 0000 10B5     		push	{r4, lr}
 398              	.LCFI6:
 399              		.cfi_def_cfa_offset 8
 400              		.cfi_offset 4, -8
 401              		.cfi_offset 14, -4
 402 0002 88B0     		sub	sp, sp, #32
 403              	.LCFI7:
 404              		.cfi_def_cfa_offset 40
 225:Middlewares/Third_Party/FreeRTOS/Source/timers.c **** 
 405              		.loc 1 225 1 view .LVU95
 406              	.LVL32:
 231:Middlewares/Third_Party/FreeRTOS/Source/timers.c **** 
 407              		.loc 1 231 2 view .LVU96
 408 0004 FFF7FEFF 		bl	prvCheckForValidListAndQueue
ARM GAS  /tmp/ccPfK4K4.s 			page 29


 409              	.LVL33:
 233:Middlewares/Third_Party/FreeRTOS/Source/timers.c **** 	{
 410              		.loc 1 233 2 view .LVU97
 233:Middlewares/Third_Party/FreeRTOS/Source/timers.c **** 	{
 411              		.loc 1 233 18 is_stmt 0 view .LVU98
 412 0008 124B     		ldr	r3, .L33
 413 000a 1B68     		ldr	r3, [r3]
 233:Middlewares/Third_Party/FreeRTOS/Source/timers.c **** 	{
 414              		.loc 1 233 4 view .LVU99
 415 000c CBB1     		cbz	r3, .L28
 416              	.LBB44:
 237:Middlewares/Third_Party/FreeRTOS/Source/timers.c **** 			StackType_t *pxTimerTaskStackBuffer = NULL;
 417              		.loc 1 237 4 is_stmt 1 view .LVU100
 237:Middlewares/Third_Party/FreeRTOS/Source/timers.c **** 			StackType_t *pxTimerTaskStackBuffer = NULL;
 418              		.loc 1 237 18 is_stmt 0 view .LVU101
 419 000e 0024     		movs	r4, #0
 420 0010 0594     		str	r4, [sp, #20]
 238:Middlewares/Third_Party/FreeRTOS/Source/timers.c **** 			uint32_t ulTimerTaskStackSize;
 421              		.loc 1 238 4 is_stmt 1 view .LVU102
 238:Middlewares/Third_Party/FreeRTOS/Source/timers.c **** 			uint32_t ulTimerTaskStackSize;
 422              		.loc 1 238 17 is_stmt 0 view .LVU103
 423 0012 0694     		str	r4, [sp, #24]
 239:Middlewares/Third_Party/FreeRTOS/Source/timers.c **** 
 424              		.loc 1 239 4 is_stmt 1 view .LVU104
 241:Middlewares/Third_Party/FreeRTOS/Source/timers.c **** 			xTimerTaskHandle = xTaskCreateStatic(	prvTimerTask,
 425              		.loc 1 241 4 view .LVU105
 426 0014 07AA     		add	r2, sp, #28
 427 0016 06A9     		add	r1, sp, #24
 428 0018 05A8     		add	r0, sp, #20
 429 001a FFF7FEFF 		bl	vApplicationGetTimerTaskMemory
 430              	.LVL34:
 242:Middlewares/Third_Party/FreeRTOS/Source/timers.c **** 													configTIMER_SERVICE_TASK_NAME,
 431              		.loc 1 242 4 view .LVU106
 242:Middlewares/Third_Party/FreeRTOS/Source/timers.c **** 													configTIMER_SERVICE_TASK_NAME,
 432              		.loc 1 242 23 is_stmt 0 view .LVU107
 433 001e 059B     		ldr	r3, [sp, #20]
 434 0020 0293     		str	r3, [sp, #8]
 435 0022 069B     		ldr	r3, [sp, #24]
 436 0024 0193     		str	r3, [sp, #4]
 437 0026 0223     		movs	r3, #2
 438 0028 0093     		str	r3, [sp]
 439 002a 2346     		mov	r3, r4
 440 002c 079A     		ldr	r2, [sp, #28]
 441 002e 0A49     		ldr	r1, .L33+4
 442 0030 0A48     		ldr	r0, .L33+8
 443 0032 FFF7FEFF 		bl	xTaskCreateStatic
 444              	.LVL35:
 242:Middlewares/Third_Party/FreeRTOS/Source/timers.c **** 													configTIMER_SERVICE_TASK_NAME,
 445              		.loc 1 242 21 view .LVU108
 446 0036 0A4A     		ldr	r2, .L33+12
 447 0038 1060     		str	r0, [r2]
 250:Middlewares/Third_Party/FreeRTOS/Source/timers.c **** 			{
 448              		.loc 1 250 4 is_stmt 1 view .LVU109
 250:Middlewares/Third_Party/FreeRTOS/Source/timers.c **** 			{
 449              		.loc 1 250 6 is_stmt 0 view .LVU110
 450 003a 10B1     		cbz	r0, .L28
 451              	.LBE44:
ARM GAS  /tmp/ccPfK4K4.s 			page 30


 273:Middlewares/Third_Party/FreeRTOS/Source/timers.c **** /*-----------------------------------------------------------*/
 452              		.loc 1 273 1 view .LVU111
 453 003c 0120     		movs	r0, #1
 454 003e 08B0     		add	sp, sp, #32
 455              	.LCFI8:
 456              		.cfi_remember_state
 457              		.cfi_def_cfa_offset 8
 458              		@ sp needed
 459 0040 10BD     		pop	{r4, pc}
 460              	.L28:
 461              	.LCFI9:
 462              		.cfi_restore_state
 463              	.LVL36:
 271:Middlewares/Third_Party/FreeRTOS/Source/timers.c **** 	return xReturn;
 464              		.loc 1 271 2 is_stmt 1 view .LVU112
 465              	.LBB45:
 466              	.LBI45:
 191:Middlewares/Third_Party/FreeRTOS/Source/portable/GCC/ARM_CM4F/portmacro.h **** {
 467              		.loc 2 191 30 view .LVU113
 468              	.LBB46:
 193:Middlewares/Third_Party/FreeRTOS/Source/portable/GCC/ARM_CM4F/portmacro.h **** 
 469              		.loc 2 193 1 view .LVU114
 470              		.loc 2 195 2 view .LVU115
 471              		.syntax unified
 472              	@ 195 "Middlewares/Third_Party/FreeRTOS/Source/portable/GCC/ARM_CM4F/portmacro.h" 1
 473 0042 4FF05003 			mov r3, #80												
 474 0046 83F31188 		msr basepri, r3											
 475 004a BFF36F8F 		isb														
 476 004e BFF34F8F 		dsb														
 477              	
 478              	@ 0 "" 2
 479              	.LVL37:
 480              		.thumb
 481              		.syntax unified
 482              	.L30:
 483              		.loc 2 195 2 is_stmt 0 view .LVU116
 484              	.LBE46:
 485              	.LBE45:
 271:Middlewares/Third_Party/FreeRTOS/Source/timers.c **** 	return xReturn;
 486              		.loc 1 271 2 is_stmt 1 discriminator 1 view .LVU117
 271:Middlewares/Third_Party/FreeRTOS/Source/timers.c **** 	return xReturn;
 487              		.loc 1 271 2 discriminator 1 view .LVU118
 488 0052 FEE7     		b	.L30
 489              	.L34:
 490              		.align	2
 491              	.L33:
 492 0054 00000000 		.word	.LANCHOR2
 493 0058 00000000 		.word	.LC1
 494 005c 00000000 		.word	prvTimerTask
 495 0060 00000000 		.word	.LANCHOR7
 496              		.cfi_endproc
 497              	.LFE4:
 499              		.section	.text.xTimerCreate,"ax",%progbits
 500              		.align	1
 501              		.global	xTimerCreate
 502              		.syntax unified
 503              		.thumb
ARM GAS  /tmp/ccPfK4K4.s 			page 31


 504              		.thumb_func
 505              		.fpu fpv5-d16
 507              	xTimerCreate:
 508              	.LVL38:
 509              	.LFB5:
 283:Middlewares/Third_Party/FreeRTOS/Source/timers.c **** 	Timer_t *pxNewTimer;
 510              		.loc 1 283 2 view -0
 511              		.cfi_startproc
 512              		@ args = 4, pretend = 0, frame = 0
 513              		@ frame_needed = 0, uses_anonymous_args = 0
 283:Middlewares/Third_Party/FreeRTOS/Source/timers.c **** 	Timer_t *pxNewTimer;
 514              		.loc 1 283 2 is_stmt 0 view .LVU120
 515 0000 2DE9F041 		push	{r4, r5, r6, r7, r8, lr}
 516              	.LCFI10:
 517              		.cfi_def_cfa_offset 24
 518              		.cfi_offset 4, -24
 519              		.cfi_offset 5, -20
 520              		.cfi_offset 6, -16
 521              		.cfi_offset 7, -12
 522              		.cfi_offset 8, -8
 523              		.cfi_offset 14, -4
 524 0004 82B0     		sub	sp, sp, #8
 525              	.LCFI11:
 526              		.cfi_def_cfa_offset 32
 527 0006 0446     		mov	r4, r0
 528 0008 8846     		mov	r8, r1
 529 000a 1546     		mov	r5, r2
 530 000c 1E46     		mov	r6, r3
 284:Middlewares/Third_Party/FreeRTOS/Source/timers.c **** 
 531              		.loc 1 284 2 is_stmt 1 view .LVU121
 286:Middlewares/Third_Party/FreeRTOS/Source/timers.c **** 
 532              		.loc 1 286 3 view .LVU122
 286:Middlewares/Third_Party/FreeRTOS/Source/timers.c **** 
 533              		.loc 1 286 30 is_stmt 0 view .LVU123
 534 000e 3020     		movs	r0, #48
 535              	.LVL39:
 286:Middlewares/Third_Party/FreeRTOS/Source/timers.c **** 
 536              		.loc 1 286 30 view .LVU124
 537 0010 FFF7FEFF 		bl	pvPortMalloc
 538              	.LVL40:
 288:Middlewares/Third_Party/FreeRTOS/Source/timers.c **** 		{
 539              		.loc 1 288 3 is_stmt 1 view .LVU125
 288:Middlewares/Third_Party/FreeRTOS/Source/timers.c **** 		{
 540              		.loc 1 288 5 is_stmt 0 view .LVU126
 541 0014 0746     		mov	r7, r0
 542 0016 58B1     		cbz	r0, .L35
 290:Middlewares/Third_Party/FreeRTOS/Source/timers.c **** 
 543              		.loc 1 290 4 is_stmt 1 view .LVU127
 544 0018 0190     		str	r0, [sp, #4]
 545 001a 089B     		ldr	r3, [sp, #32]
 546 001c 0093     		str	r3, [sp]
 547 001e 3346     		mov	r3, r6
 548 0020 2A46     		mov	r2, r5
 549 0022 4146     		mov	r1, r8
 550 0024 2046     		mov	r0, r4
 551              	.LVL41:
 290:Middlewares/Third_Party/FreeRTOS/Source/timers.c **** 
ARM GAS  /tmp/ccPfK4K4.s 			page 32


 552              		.loc 1 290 4 is_stmt 0 view .LVU128
 553 0026 FFF7FEFF 		bl	prvInitialiseNewTimer
 554              	.LVL42:
 297:Middlewares/Third_Party/FreeRTOS/Source/timers.c **** 			}
 555              		.loc 1 297 5 is_stmt 1 view .LVU129
 297:Middlewares/Third_Party/FreeRTOS/Source/timers.c **** 			}
 556              		.loc 1 297 39 is_stmt 0 view .LVU130
 557 002a 0023     		movs	r3, #0
 558 002c 87F82C30 		strb	r3, [r7, #44]
 302:Middlewares/Third_Party/FreeRTOS/Source/timers.c **** 	}
 559              		.loc 1 302 3 is_stmt 1 view .LVU131
 560              	.L35:
 303:Middlewares/Third_Party/FreeRTOS/Source/timers.c **** 
 561              		.loc 1 303 2 is_stmt 0 view .LVU132
 562 0030 3846     		mov	r0, r7
 563 0032 02B0     		add	sp, sp, #8
 564              	.LCFI12:
 565              		.cfi_def_cfa_offset 24
 566              		@ sp needed
 567 0034 BDE8F081 		pop	{r4, r5, r6, r7, r8, pc}
 303:Middlewares/Third_Party/FreeRTOS/Source/timers.c **** 
 568              		.loc 1 303 2 view .LVU133
 569              		.cfi_endproc
 570              	.LFE5:
 572              		.section	.text.xTimerCreateStatic,"ax",%progbits
 573              		.align	1
 574              		.global	xTimerCreateStatic
 575              		.syntax unified
 576              		.thumb
 577              		.thumb_func
 578              		.fpu fpv5-d16
 580              	xTimerCreateStatic:
 581              	.LVL43:
 582              	.LFB6:
 316:Middlewares/Third_Party/FreeRTOS/Source/timers.c **** 	Timer_t *pxNewTimer;
 583              		.loc 1 316 2 is_stmt 1 view -0
 584              		.cfi_startproc
 585              		@ args = 8, pretend = 0, frame = 8
 586              		@ frame_needed = 0, uses_anonymous_args = 0
 316:Middlewares/Third_Party/FreeRTOS/Source/timers.c **** 	Timer_t *pxNewTimer;
 587              		.loc 1 316 2 is_stmt 0 view .LVU135
 588 0000 30B5     		push	{r4, r5, lr}
 589              	.LCFI13:
 590              		.cfi_def_cfa_offset 12
 591              		.cfi_offset 4, -12
 592              		.cfi_offset 5, -8
 593              		.cfi_offset 14, -4
 594 0002 85B0     		sub	sp, sp, #20
 595              	.LCFI14:
 596              		.cfi_def_cfa_offset 32
 597 0004 099C     		ldr	r4, [sp, #36]
 317:Middlewares/Third_Party/FreeRTOS/Source/timers.c **** 
 598              		.loc 1 317 2 is_stmt 1 view .LVU136
 599              	.LBB47:
 324:Middlewares/Third_Party/FreeRTOS/Source/timers.c **** 			configASSERT( xSize == sizeof( Timer_t ) );
 600              		.loc 1 324 4 view .LVU137
 324:Middlewares/Third_Party/FreeRTOS/Source/timers.c **** 			configASSERT( xSize == sizeof( Timer_t ) );
ARM GAS  /tmp/ccPfK4K4.s 			page 33


 601              		.loc 1 324 20 is_stmt 0 view .LVU138
 602 0006 3025     		movs	r5, #48
 603 0008 0395     		str	r5, [sp, #12]
 325:Middlewares/Third_Party/FreeRTOS/Source/timers.c **** 		}
 604              		.loc 1 325 4 is_stmt 1 view .LVU139
 605 000a 039D     		ldr	r5, [sp, #12]
 606 000c 302D     		cmp	r5, #48
 607 000e 08D0     		beq	.L39
 325:Middlewares/Third_Party/FreeRTOS/Source/timers.c **** 		}
 608              		.loc 1 325 4 view .LVU140
 609              	.LBB48:
 610              	.LBI48:
 191:Middlewares/Third_Party/FreeRTOS/Source/portable/GCC/ARM_CM4F/portmacro.h **** {
 611              		.loc 2 191 30 view .LVU141
 612              	.LBB49:
 193:Middlewares/Third_Party/FreeRTOS/Source/portable/GCC/ARM_CM4F/portmacro.h **** 
 613              		.loc 2 193 1 view .LVU142
 614              		.loc 2 195 2 view .LVU143
 615              		.syntax unified
 616              	@ 195 "Middlewares/Third_Party/FreeRTOS/Source/portable/GCC/ARM_CM4F/portmacro.h" 1
 617 0010 4FF05003 			mov r3, #80												
 618 0014 83F31188 		msr basepri, r3											
 619 0018 BFF36F8F 		isb														
 620 001c BFF34F8F 		dsb														
 621              	
 622              	@ 0 "" 2
 623              	.LVL44:
 624              		.thumb
 625              		.syntax unified
 626              	.L40:
 627              		.loc 2 195 2 is_stmt 0 view .LVU144
 628              	.LBE49:
 629              	.LBE48:
 325:Middlewares/Third_Party/FreeRTOS/Source/timers.c **** 		}
 630              		.loc 1 325 4 is_stmt 1 discriminator 1 view .LVU145
 325:Middlewares/Third_Party/FreeRTOS/Source/timers.c **** 		}
 631              		.loc 1 325 4 discriminator 1 view .LVU146
 632 0020 FEE7     		b	.L40
 633              	.LVL45:
 634              	.L39:
 325:Middlewares/Third_Party/FreeRTOS/Source/timers.c **** 		}
 635              		.loc 1 325 46 discriminator 2 view .LVU147
 636              	.LBE47:
 330:Middlewares/Third_Party/FreeRTOS/Source/timers.c **** 		pxNewTimer = ( Timer_t * ) pxTimerBuffer; /*lint !e740 Unusual cast is ok as the structures are d
 637              		.loc 1 330 3 discriminator 2 view .LVU148
 638 0022 54B1     		cbz	r4, .L44
 330:Middlewares/Third_Party/FreeRTOS/Source/timers.c **** 		pxNewTimer = ( Timer_t * ) pxTimerBuffer; /*lint !e740 Unusual cast is ok as the structures are d
 639              		.loc 1 330 32 view .LVU149
 331:Middlewares/Third_Party/FreeRTOS/Source/timers.c **** 
 640              		.loc 1 331 3 view .LVU150
 641              	.LVL46:
 333:Middlewares/Third_Party/FreeRTOS/Source/timers.c **** 		{
 642              		.loc 1 333 3 view .LVU151
 335:Middlewares/Third_Party/FreeRTOS/Source/timers.c **** 
 643              		.loc 1 335 4 view .LVU152
 644 0024 0194     		str	r4, [sp, #4]
 645 0026 089D     		ldr	r5, [sp, #32]
ARM GAS  /tmp/ccPfK4K4.s 			page 34


 646 0028 0095     		str	r5, [sp]
 647 002a FFF7FEFF 		bl	prvInitialiseNewTimer
 648              	.LVL47:
 341:Middlewares/Third_Party/FreeRTOS/Source/timers.c **** 			}
 649              		.loc 1 341 5 view .LVU153
 341:Middlewares/Third_Party/FreeRTOS/Source/timers.c **** 			}
 650              		.loc 1 341 39 is_stmt 0 view .LVU154
 651 002e 0123     		movs	r3, #1
 652 0030 84F82C30 		strb	r3, [r4, #44]
 346:Middlewares/Third_Party/FreeRTOS/Source/timers.c **** 	}
 653              		.loc 1 346 3 is_stmt 1 view .LVU155
 347:Middlewares/Third_Party/FreeRTOS/Source/timers.c **** 
 654              		.loc 1 347 2 is_stmt 0 view .LVU156
 655 0034 2046     		mov	r0, r4
 656 0036 05B0     		add	sp, sp, #20
 657              	.LCFI15:
 658              		.cfi_remember_state
 659              		.cfi_def_cfa_offset 12
 660              		@ sp needed
 661 0038 30BD     		pop	{r4, r5, pc}
 662              	.LVL48:
 663              	.L44:
 664              	.LCFI16:
 665              		.cfi_restore_state
 330:Middlewares/Third_Party/FreeRTOS/Source/timers.c **** 		pxNewTimer = ( Timer_t * ) pxTimerBuffer; /*lint !e740 Unusual cast is ok as the structures are d
 666              		.loc 1 330 3 is_stmt 1 view .LVU157
 667              	.LBB50:
 668              	.LBI50:
 191:Middlewares/Third_Party/FreeRTOS/Source/portable/GCC/ARM_CM4F/portmacro.h **** {
 669              		.loc 2 191 30 view .LVU158
 670              	.LBB51:
 193:Middlewares/Third_Party/FreeRTOS/Source/portable/GCC/ARM_CM4F/portmacro.h **** 
 671              		.loc 2 193 1 view .LVU159
 672              		.loc 2 195 2 view .LVU160
 673              		.syntax unified
 674              	@ 195 "Middlewares/Third_Party/FreeRTOS/Source/portable/GCC/ARM_CM4F/portmacro.h" 1
 675 003a 4FF05003 			mov r3, #80												
 676 003e 83F31188 		msr basepri, r3											
 677 0042 BFF36F8F 		isb														
 678 0046 BFF34F8F 		dsb														
 679              	
 680              	@ 0 "" 2
 681              	.LVL49:
 682              		.thumb
 683              		.syntax unified
 684              	.L42:
 685              		.loc 2 195 2 is_stmt 0 view .LVU161
 686              	.LBE51:
 687              	.LBE50:
 330:Middlewares/Third_Party/FreeRTOS/Source/timers.c **** 		pxNewTimer = ( Timer_t * ) pxTimerBuffer; /*lint !e740 Unusual cast is ok as the structures are d
 688              		.loc 1 330 3 is_stmt 1 discriminator 2 view .LVU162
 330:Middlewares/Third_Party/FreeRTOS/Source/timers.c **** 		pxNewTimer = ( Timer_t * ) pxTimerBuffer; /*lint !e740 Unusual cast is ok as the structures are d
 689              		.loc 1 330 3 discriminator 2 view .LVU163
 690 004a FEE7     		b	.L42
 691              		.cfi_endproc
 692              	.LFE6:
 694              		.section	.text.xTimerGenericCommand,"ax",%progbits
ARM GAS  /tmp/ccPfK4K4.s 			page 35


 695              		.align	1
 696              		.global	xTimerGenericCommand
 697              		.syntax unified
 698              		.thumb
 699              		.thumb_func
 700              		.fpu fpv5-d16
 702              	xTimerGenericCommand:
 703              	.LVL50:
 704              	.LFB8:
 382:Middlewares/Third_Party/FreeRTOS/Source/timers.c **** BaseType_t xReturn = pdFAIL;
 705              		.loc 1 382 1 view -0
 706              		.cfi_startproc
 707              		@ args = 4, pretend = 0, frame = 16
 708              		@ frame_needed = 0, uses_anonymous_args = 0
 383:Middlewares/Third_Party/FreeRTOS/Source/timers.c **** DaemonTaskMessage_t xMessage;
 709              		.loc 1 383 1 view .LVU165
 384:Middlewares/Third_Party/FreeRTOS/Source/timers.c **** 
 710              		.loc 1 384 1 view .LVU166
 386:Middlewares/Third_Party/FreeRTOS/Source/timers.c **** 
 711              		.loc 1 386 2 view .LVU167
 712 0000 C0B1     		cbz	r0, .L54
 382:Middlewares/Third_Party/FreeRTOS/Source/timers.c **** BaseType_t xReturn = pdFAIL;
 713              		.loc 1 382 1 is_stmt 0 discriminator 2 view .LVU168
 714 0002 10B5     		push	{r4, lr}
 715              	.LCFI17:
 716              		.cfi_def_cfa_offset 8
 717              		.cfi_offset 4, -8
 718              		.cfi_offset 14, -4
 719 0004 84B0     		sub	sp, sp, #16
 720              	.LCFI18:
 721              		.cfi_def_cfa_offset 24
 722 0006 1446     		mov	r4, r2
 723 0008 1A46     		mov	r2, r3
 724              	.LVL51:
 382:Middlewares/Third_Party/FreeRTOS/Source/timers.c **** BaseType_t xReturn = pdFAIL;
 725              		.loc 1 382 1 discriminator 2 view .LVU169
 726 000a 0346     		mov	r3, r0
 727              	.LVL52:
 386:Middlewares/Third_Party/FreeRTOS/Source/timers.c **** 
 728              		.loc 1 386 24 is_stmt 1 discriminator 2 view .LVU170
 390:Middlewares/Third_Party/FreeRTOS/Source/timers.c **** 	{
 729              		.loc 1 390 2 discriminator 2 view .LVU171
 390:Middlewares/Third_Party/FreeRTOS/Source/timers.c **** 	{
 730              		.loc 1 390 18 is_stmt 0 discriminator 2 view .LVU172
 731 000c 1648     		ldr	r0, .L56
 732              	.LVL53:
 390:Middlewares/Third_Party/FreeRTOS/Source/timers.c **** 	{
 733              		.loc 1 390 18 discriminator 2 view .LVU173
 734 000e 0068     		ldr	r0, [r0]
 390:Middlewares/Third_Party/FreeRTOS/Source/timers.c **** 	{
 735              		.loc 1 390 4 discriminator 2 view .LVU174
 736 0010 38B3     		cbz	r0, .L51
 393:Middlewares/Third_Party/FreeRTOS/Source/timers.c **** 		xMessage.u.xTimerParameters.xMessageValue = xOptionalValue;
 737              		.loc 1 393 3 is_stmt 1 view .LVU175
 393:Middlewares/Third_Party/FreeRTOS/Source/timers.c **** 		xMessage.u.xTimerParameters.xMessageValue = xOptionalValue;
 738              		.loc 1 393 23 is_stmt 0 view .LVU176
 739 0012 0091     		str	r1, [sp]
ARM GAS  /tmp/ccPfK4K4.s 			page 36


 394:Middlewares/Third_Party/FreeRTOS/Source/timers.c **** 		xMessage.u.xTimerParameters.pxTimer = ( Timer_t * ) xTimer;
 740              		.loc 1 394 3 is_stmt 1 view .LVU177
 394:Middlewares/Third_Party/FreeRTOS/Source/timers.c **** 		xMessage.u.xTimerParameters.pxTimer = ( Timer_t * ) xTimer;
 741              		.loc 1 394 45 is_stmt 0 view .LVU178
 742 0014 0194     		str	r4, [sp, #4]
 395:Middlewares/Third_Party/FreeRTOS/Source/timers.c **** 
 743              		.loc 1 395 3 is_stmt 1 view .LVU179
 395:Middlewares/Third_Party/FreeRTOS/Source/timers.c **** 
 744              		.loc 1 395 39 is_stmt 0 view .LVU180
 745 0016 0293     		str	r3, [sp, #8]
 397:Middlewares/Third_Party/FreeRTOS/Source/timers.c **** 		{
 746              		.loc 1 397 3 is_stmt 1 view .LVU181
 397:Middlewares/Third_Party/FreeRTOS/Source/timers.c **** 		{
 747              		.loc 1 397 5 is_stmt 0 view .LVU182
 748 0018 0529     		cmp	r1, #5
 749 001a 1CDC     		bgt	.L49
 399:Middlewares/Third_Party/FreeRTOS/Source/timers.c **** 			{
 750              		.loc 1 399 4 is_stmt 1 view .LVU183
 399:Middlewares/Third_Party/FreeRTOS/Source/timers.c **** 			{
 751              		.loc 1 399 8 is_stmt 0 view .LVU184
 752 001c FFF7FEFF 		bl	xTaskGetSchedulerState
 753              	.LVL54:
 399:Middlewares/Third_Party/FreeRTOS/Source/timers.c **** 			{
 754              		.loc 1 399 6 view .LVU185
 755 0020 0228     		cmp	r0, #2
 756 0022 10D0     		beq	.L55
 405:Middlewares/Third_Party/FreeRTOS/Source/timers.c **** 			}
 757              		.loc 1 405 5 is_stmt 1 view .LVU186
 405:Middlewares/Third_Party/FreeRTOS/Source/timers.c **** 			}
 758              		.loc 1 405 15 is_stmt 0 view .LVU187
 759 0024 0023     		movs	r3, #0
 760 0026 1A46     		mov	r2, r3
 761 0028 6946     		mov	r1, sp
 762 002a 0F48     		ldr	r0, .L56
 763 002c 0068     		ldr	r0, [r0]
 764 002e FFF7FEFF 		bl	xQueueGenericSend
 765              	.LVL55:
 405:Middlewares/Third_Party/FreeRTOS/Source/timers.c **** 			}
 766              		.loc 1 405 15 view .LVU188
 767 0032 14E0     		b	.L45
 768              	.LVL56:
 769              	.L54:
 770              	.LCFI19:
 771              		.cfi_def_cfa_offset 0
 772              		.cfi_restore 4
 773              		.cfi_restore 14
 386:Middlewares/Third_Party/FreeRTOS/Source/timers.c **** 
 774              		.loc 1 386 2 is_stmt 1 view .LVU189
 775              	.LBB52:
 776              	.LBI52:
 191:Middlewares/Third_Party/FreeRTOS/Source/portable/GCC/ARM_CM4F/portmacro.h **** {
 777              		.loc 2 191 30 view .LVU190
 778              	.LBB53:
 193:Middlewares/Third_Party/FreeRTOS/Source/portable/GCC/ARM_CM4F/portmacro.h **** 
 779              		.loc 2 193 1 view .LVU191
 780              		.loc 2 195 2 view .LVU192
 781              		.syntax unified
ARM GAS  /tmp/ccPfK4K4.s 			page 37


 782              	@ 195 "Middlewares/Third_Party/FreeRTOS/Source/portable/GCC/ARM_CM4F/portmacro.h" 1
 783 0034 4FF05003 			mov r3, #80												
 784 0038 83F31188 		msr basepri, r3											
 785 003c BFF36F8F 		isb														
 786 0040 BFF34F8F 		dsb														
 787              	
 788              	@ 0 "" 2
 789              	.LVL57:
 790              		.thumb
 791              		.syntax unified
 792              	.L47:
 793              		.loc 2 195 2 is_stmt 0 view .LVU193
 794              	.LBE53:
 795              	.LBE52:
 386:Middlewares/Third_Party/FreeRTOS/Source/timers.c **** 
 796              		.loc 1 386 2 is_stmt 1 discriminator 1 view .LVU194
 386:Middlewares/Third_Party/FreeRTOS/Source/timers.c **** 
 797              		.loc 1 386 2 discriminator 1 view .LVU195
 798 0044 FEE7     		b	.L47
 799              	.LVL58:
 800              	.L55:
 801              	.LCFI20:
 802              		.cfi_def_cfa_offset 24
 803              		.cfi_offset 4, -8
 804              		.cfi_offset 14, -4
 401:Middlewares/Third_Party/FreeRTOS/Source/timers.c **** 			}
 805              		.loc 1 401 5 view .LVU196
 401:Middlewares/Third_Party/FreeRTOS/Source/timers.c **** 			}
 806              		.loc 1 401 15 is_stmt 0 view .LVU197
 807 0046 0023     		movs	r3, #0
 808 0048 069A     		ldr	r2, [sp, #24]
 809 004a 6946     		mov	r1, sp
 810 004c 0648     		ldr	r0, .L56
 811 004e 0068     		ldr	r0, [r0]
 812 0050 FFF7FEFF 		bl	xQueueGenericSend
 813              	.LVL59:
 401:Middlewares/Third_Party/FreeRTOS/Source/timers.c **** 			}
 814              		.loc 1 401 15 view .LVU198
 815 0054 03E0     		b	.L45
 816              	.LVL60:
 817              	.L49:
 410:Middlewares/Third_Party/FreeRTOS/Source/timers.c **** 		}
 818              		.loc 1 410 4 is_stmt 1 view .LVU199
 410:Middlewares/Third_Party/FreeRTOS/Source/timers.c **** 		}
 819              		.loc 1 410 14 is_stmt 0 view .LVU200
 820 0056 0023     		movs	r3, #0
 821              	.LVL61:
 410:Middlewares/Third_Party/FreeRTOS/Source/timers.c **** 		}
 822              		.loc 1 410 14 view .LVU201
 823 0058 6946     		mov	r1, sp
 824              	.LVL62:
 410:Middlewares/Third_Party/FreeRTOS/Source/timers.c **** 		}
 825              		.loc 1 410 14 view .LVU202
 826 005a FFF7FEFF 		bl	xQueueGenericSendFromISR
 827              	.LVL63:
 828              	.L45:
 421:Middlewares/Third_Party/FreeRTOS/Source/timers.c **** /*-----------------------------------------------------------*/
ARM GAS  /tmp/ccPfK4K4.s 			page 38


 829              		.loc 1 421 1 view .LVU203
 830 005e 04B0     		add	sp, sp, #16
 831              	.LCFI21:
 832              		.cfi_remember_state
 833              		.cfi_def_cfa_offset 8
 834              		@ sp needed
 835 0060 10BD     		pop	{r4, pc}
 836              	.LVL64:
 837              	.L51:
 838              	.LCFI22:
 839              		.cfi_restore_state
 383:Middlewares/Third_Party/FreeRTOS/Source/timers.c **** DaemonTaskMessage_t xMessage;
 840              		.loc 1 383 12 view .LVU204
 841 0062 0020     		movs	r0, #0
 417:Middlewares/Third_Party/FreeRTOS/Source/timers.c **** 	}
 842              		.loc 1 417 27 is_stmt 1 view .LVU205
 420:Middlewares/Third_Party/FreeRTOS/Source/timers.c **** }
 843              		.loc 1 420 2 view .LVU206
 420:Middlewares/Third_Party/FreeRTOS/Source/timers.c **** }
 844              		.loc 1 420 9 is_stmt 0 view .LVU207
 845 0064 FBE7     		b	.L45
 846              	.L57:
 847 0066 00BF     		.align	2
 848              	.L56:
 849 0068 00000000 		.word	.LANCHOR2
 850              		.cfi_endproc
 851              	.LFE8:
 853              		.section	.text.prvSwitchTimerLists,"ax",%progbits
 854              		.align	1
 855              		.syntax unified
 856              		.thumb
 857              		.thumb_func
 858              		.fpu fpv5-d16
 860              	prvSwitchTimerLists:
 861              	.LFB20:
 836:Middlewares/Third_Party/FreeRTOS/Source/timers.c **** TickType_t xNextExpireTime, xReloadTime;
 862              		.loc 1 836 1 is_stmt 1 view -0
 863              		.cfi_startproc
 864              		@ args = 0, pretend = 0, frame = 0
 865              		@ frame_needed = 0, uses_anonymous_args = 0
 866 0000 70B5     		push	{r4, r5, r6, lr}
 867              	.LCFI23:
 868              		.cfi_def_cfa_offset 16
 869              		.cfi_offset 4, -16
 870              		.cfi_offset 5, -12
 871              		.cfi_offset 6, -8
 872              		.cfi_offset 14, -4
 873 0002 82B0     		sub	sp, sp, #8
 874              	.LCFI24:
 875              		.cfi_def_cfa_offset 24
 837:Middlewares/Third_Party/FreeRTOS/Source/timers.c **** List_t *pxTemp;
 876              		.loc 1 837 1 view .LVU209
 838:Middlewares/Third_Party/FreeRTOS/Source/timers.c **** Timer_t *pxTimer;
 877              		.loc 1 838 1 view .LVU210
 839:Middlewares/Third_Party/FreeRTOS/Source/timers.c **** BaseType_t xResult;
 878              		.loc 1 839 1 view .LVU211
 840:Middlewares/Third_Party/FreeRTOS/Source/timers.c **** 
ARM GAS  /tmp/ccPfK4K4.s 			page 39


 879              		.loc 1 840 1 view .LVU212
 846:Middlewares/Third_Party/FreeRTOS/Source/timers.c **** 	{
 880              		.loc 1 846 2 view .LVU213
 881              	.L60:
 884:Middlewares/Third_Party/FreeRTOS/Source/timers.c **** 		}
 882              		.loc 1 884 28 view .LVU214
 846:Middlewares/Third_Party/FreeRTOS/Source/timers.c **** 	{
 883              		.loc 1 846 9 is_stmt 0 view .LVU215
 884 0004 1A4B     		ldr	r3, .L67
 885 0006 1B68     		ldr	r3, [r3]
 886 0008 1A68     		ldr	r2, [r3]
 846:Middlewares/Third_Party/FreeRTOS/Source/timers.c **** 	{
 887              		.loc 1 846 7 view .LVU216
 888 000a 52B3     		cbz	r2, .L66
 848:Middlewares/Third_Party/FreeRTOS/Source/timers.c **** 
 889              		.loc 1 848 3 is_stmt 1 view .LVU217
 848:Middlewares/Third_Party/FreeRTOS/Source/timers.c **** 
 890              		.loc 1 848 21 is_stmt 0 view .LVU218
 891 000c DB68     		ldr	r3, [r3, #12]
 848:Middlewares/Third_Party/FreeRTOS/Source/timers.c **** 
 892              		.loc 1 848 19 view .LVU219
 893 000e 1E68     		ldr	r6, [r3]
 894              	.LVL65:
 851:Middlewares/Third_Party/FreeRTOS/Source/timers.c **** 		( void ) uxListRemove( &( pxTimer->xTimerListItem ) );
 895              		.loc 1 851 3 is_stmt 1 view .LVU220
 851:Middlewares/Third_Party/FreeRTOS/Source/timers.c **** 		( void ) uxListRemove( &( pxTimer->xTimerListItem ) );
 896              		.loc 1 851 11 is_stmt 0 view .LVU221
 897 0010 DC68     		ldr	r4, [r3, #12]
 898              	.LVL66:
 852:Middlewares/Third_Party/FreeRTOS/Source/timers.c **** 		traceTIMER_EXPIRED( pxTimer );
 899              		.loc 1 852 3 is_stmt 1 view .LVU222
 852:Middlewares/Third_Party/FreeRTOS/Source/timers.c **** 		traceTIMER_EXPIRED( pxTimer );
 900              		.loc 1 852 12 is_stmt 0 view .LVU223
 901 0012 251D     		adds	r5, r4, #4
 902 0014 2846     		mov	r0, r5
 903 0016 FFF7FEFF 		bl	uxListRemove
 904              	.LVL67:
 853:Middlewares/Third_Party/FreeRTOS/Source/timers.c **** 
 905              		.loc 1 853 32 is_stmt 1 view .LVU224
 858:Middlewares/Third_Party/FreeRTOS/Source/timers.c **** 
 906              		.loc 1 858 3 view .LVU225
 858:Middlewares/Third_Party/FreeRTOS/Source/timers.c **** 
 907              		.loc 1 858 10 is_stmt 0 view .LVU226
 908 001a 636A     		ldr	r3, [r4, #36]
 858:Middlewares/Third_Party/FreeRTOS/Source/timers.c **** 
 909              		.loc 1 858 3 view .LVU227
 910 001c 2046     		mov	r0, r4
 911 001e 9847     		blx	r3
 912              	.LVL68:
 860:Middlewares/Third_Party/FreeRTOS/Source/timers.c **** 		{
 913              		.loc 1 860 3 is_stmt 1 view .LVU228
 860:Middlewares/Third_Party/FreeRTOS/Source/timers.c **** 		{
 914              		.loc 1 860 14 is_stmt 0 view .LVU229
 915 0020 E369     		ldr	r3, [r4, #28]
 860:Middlewares/Third_Party/FreeRTOS/Source/timers.c **** 		{
 916              		.loc 1 860 5 view .LVU230
 917 0022 012B     		cmp	r3, #1
ARM GAS  /tmp/ccPfK4K4.s 			page 40


 918 0024 EED1     		bne	.L60
 868:Middlewares/Third_Party/FreeRTOS/Source/timers.c **** 			if( xReloadTime > xNextExpireTime )
 919              		.loc 1 868 4 is_stmt 1 view .LVU231
 868:Middlewares/Third_Party/FreeRTOS/Source/timers.c **** 			if( xReloadTime > xNextExpireTime )
 920              		.loc 1 868 45 is_stmt 0 view .LVU232
 921 0026 A369     		ldr	r3, [r4, #24]
 868:Middlewares/Third_Party/FreeRTOS/Source/timers.c **** 			if( xReloadTime > xNextExpireTime )
 922              		.loc 1 868 16 view .LVU233
 923 0028 3344     		add	r3, r3, r6
 924              	.LVL69:
 869:Middlewares/Third_Party/FreeRTOS/Source/timers.c **** 			{
 925              		.loc 1 869 4 is_stmt 1 view .LVU234
 869:Middlewares/Third_Party/FreeRTOS/Source/timers.c **** 			{
 926              		.loc 1 869 6 is_stmt 0 view .LVU235
 927 002a 9E42     		cmp	r6, r3
 928 002c 07D2     		bcs	.L61
 871:Middlewares/Third_Party/FreeRTOS/Source/timers.c **** 				listSET_LIST_ITEM_OWNER( &( pxTimer->xTimerListItem ), pxTimer );
 929              		.loc 1 871 5 is_stmt 1 view .LVU236
 930 002e 6360     		str	r3, [r4, #4]
 872:Middlewares/Third_Party/FreeRTOS/Source/timers.c **** 				vListInsert( pxCurrentTimerList, &( pxTimer->xTimerListItem ) );
 931              		.loc 1 872 5 view .LVU237
 932 0030 2461     		str	r4, [r4, #16]
 873:Middlewares/Third_Party/FreeRTOS/Source/timers.c **** 			}
 933              		.loc 1 873 5 view .LVU238
 934 0032 2946     		mov	r1, r5
 935 0034 0E4B     		ldr	r3, .L67
 936              	.LVL70:
 873:Middlewares/Third_Party/FreeRTOS/Source/timers.c **** 			}
 937              		.loc 1 873 5 is_stmt 0 view .LVU239
 938 0036 1868     		ldr	r0, [r3]
 939 0038 FFF7FEFF 		bl	vListInsert
 940              	.LVL71:
 873:Middlewares/Third_Party/FreeRTOS/Source/timers.c **** 			}
 941              		.loc 1 873 5 view .LVU240
 942 003c E2E7     		b	.L60
 943              	.LVL72:
 944              	.L61:
 877:Middlewares/Third_Party/FreeRTOS/Source/timers.c **** 				configASSERT( xResult );
 945              		.loc 1 877 5 is_stmt 1 view .LVU241
 877:Middlewares/Third_Party/FreeRTOS/Source/timers.c **** 				configASSERT( xResult );
 946              		.loc 1 877 15 is_stmt 0 view .LVU242
 947 003e 0021     		movs	r1, #0
 948 0040 0091     		str	r1, [sp]
 949 0042 0B46     		mov	r3, r1
 950              	.LVL73:
 877:Middlewares/Third_Party/FreeRTOS/Source/timers.c **** 				configASSERT( xResult );
 951              		.loc 1 877 15 view .LVU243
 952 0044 3246     		mov	r2, r6
 953 0046 2046     		mov	r0, r4
 954 0048 FFF7FEFF 		bl	xTimerGenericCommand
 955              	.LVL74:
 878:Middlewares/Third_Party/FreeRTOS/Source/timers.c **** 				( void ) xResult;
 956              		.loc 1 878 5 is_stmt 1 view .LVU244
 957 004c 0028     		cmp	r0, #0
 958 004e D9D1     		bne	.L60
 878:Middlewares/Third_Party/FreeRTOS/Source/timers.c **** 				( void ) xResult;
 959              		.loc 1 878 5 view .LVU245
ARM GAS  /tmp/ccPfK4K4.s 			page 41


 960              	.LBB54:
 961              	.LBI54:
 191:Middlewares/Third_Party/FreeRTOS/Source/portable/GCC/ARM_CM4F/portmacro.h **** {
 962              		.loc 2 191 30 view .LVU246
 963              	.LBB55:
 193:Middlewares/Third_Party/FreeRTOS/Source/portable/GCC/ARM_CM4F/portmacro.h **** 
 964              		.loc 2 193 1 view .LVU247
 965              		.loc 2 195 2 view .LVU248
 966              		.syntax unified
 967              	@ 195 "Middlewares/Third_Party/FreeRTOS/Source/portable/GCC/ARM_CM4F/portmacro.h" 1
 968 0050 4FF05003 			mov r3, #80												
 969 0054 83F31188 		msr basepri, r3											
 970 0058 BFF36F8F 		isb														
 971 005c BFF34F8F 		dsb														
 972              	
 973              	@ 0 "" 2
 974              	.LVL75:
 975              		.thumb
 976              		.syntax unified
 977              	.L63:
 978              		.loc 2 195 2 is_stmt 0 view .LVU249
 979              	.LBE55:
 980              	.LBE54:
 878:Middlewares/Third_Party/FreeRTOS/Source/timers.c **** 				( void ) xResult;
 981              		.loc 1 878 5 is_stmt 1 discriminator 1 view .LVU250
 878:Middlewares/Third_Party/FreeRTOS/Source/timers.c **** 				( void ) xResult;
 982              		.loc 1 878 5 discriminator 1 view .LVU251
 983 0060 FEE7     		b	.L63
 984              	.LVL76:
 985              	.L66:
 888:Middlewares/Third_Party/FreeRTOS/Source/timers.c **** 	pxCurrentTimerList = pxOverflowTimerList;
 986              		.loc 1 888 2 view .LVU252
 889:Middlewares/Third_Party/FreeRTOS/Source/timers.c **** 	pxOverflowTimerList = pxTemp;
 987              		.loc 1 889 2 view .LVU253
 889:Middlewares/Third_Party/FreeRTOS/Source/timers.c **** 	pxOverflowTimerList = pxTemp;
 988              		.loc 1 889 21 is_stmt 0 view .LVU254
 989 0062 044A     		ldr	r2, .L67+4
 990 0064 1068     		ldr	r0, [r2]
 991 0066 0249     		ldr	r1, .L67
 992 0068 0860     		str	r0, [r1]
 890:Middlewares/Third_Party/FreeRTOS/Source/timers.c **** }
 993              		.loc 1 890 2 is_stmt 1 view .LVU255
 890:Middlewares/Third_Party/FreeRTOS/Source/timers.c **** }
 994              		.loc 1 890 22 is_stmt 0 view .LVU256
 995 006a 1360     		str	r3, [r2]
 891:Middlewares/Third_Party/FreeRTOS/Source/timers.c **** /*-----------------------------------------------------------*/
 996              		.loc 1 891 1 view .LVU257
 997 006c 02B0     		add	sp, sp, #8
 998              	.LCFI25:
 999              		.cfi_def_cfa_offset 16
 1000              		@ sp needed
 1001 006e 70BD     		pop	{r4, r5, r6, pc}
 1002              	.L68:
 1003              		.align	2
 1004              	.L67:
 1005 0070 00000000 		.word	.LANCHOR0
 1006 0074 00000000 		.word	.LANCHOR1
ARM GAS  /tmp/ccPfK4K4.s 			page 42


 1007              		.cfi_endproc
 1008              	.LFE20:
 1010              		.section	.text.prvSampleTimeNow,"ax",%progbits
 1011              		.align	1
 1012              		.syntax unified
 1013              		.thumb
 1014              		.thumb_func
 1015              		.fpu fpv5-d16
 1017              	prvSampleTimeNow:
 1018              	.LVL77:
 1019              	.LFB17:
 625:Middlewares/Third_Party/FreeRTOS/Source/timers.c **** TickType_t xTimeNow;
 1020              		.loc 1 625 1 is_stmt 1 view -0
 1021              		.cfi_startproc
 1022              		@ args = 0, pretend = 0, frame = 0
 1023              		@ frame_needed = 0, uses_anonymous_args = 0
 625:Middlewares/Third_Party/FreeRTOS/Source/timers.c **** TickType_t xTimeNow;
 1024              		.loc 1 625 1 is_stmt 0 view .LVU259
 1025 0000 38B5     		push	{r3, r4, r5, lr}
 1026              	.LCFI26:
 1027              		.cfi_def_cfa_offset 16
 1028              		.cfi_offset 3, -16
 1029              		.cfi_offset 4, -12
 1030              		.cfi_offset 5, -8
 1031              		.cfi_offset 14, -4
 1032 0002 0546     		mov	r5, r0
 626:Middlewares/Third_Party/FreeRTOS/Source/timers.c **** PRIVILEGED_DATA static TickType_t xLastTime = ( TickType_t ) 0U; /*lint !e956 Variable is only acce
 1033              		.loc 1 626 1 is_stmt 1 view .LVU260
 627:Middlewares/Third_Party/FreeRTOS/Source/timers.c **** 
 1034              		.loc 1 627 17 view .LVU261
 629:Middlewares/Third_Party/FreeRTOS/Source/timers.c **** 
 1035              		.loc 1 629 2 view .LVU262
 629:Middlewares/Third_Party/FreeRTOS/Source/timers.c **** 
 1036              		.loc 1 629 13 is_stmt 0 view .LVU263
 1037 0004 FFF7FEFF 		bl	xTaskGetTickCount
 1038              	.LVL78:
 629:Middlewares/Third_Party/FreeRTOS/Source/timers.c **** 
 1039              		.loc 1 629 13 view .LVU264
 1040 0008 0446     		mov	r4, r0
 1041              	.LVL79:
 631:Middlewares/Third_Party/FreeRTOS/Source/timers.c **** 	{
 1042              		.loc 1 631 2 is_stmt 1 view .LVU265
 631:Middlewares/Third_Party/FreeRTOS/Source/timers.c **** 	{
 1043              		.loc 1 631 15 is_stmt 0 view .LVU266
 1044 000a 074B     		ldr	r3, .L74
 1045 000c 1B68     		ldr	r3, [r3]
 631:Middlewares/Third_Party/FreeRTOS/Source/timers.c **** 	{
 1046              		.loc 1 631 4 view .LVU267
 1047 000e 8342     		cmp	r3, r0
 1048 0010 05D8     		bhi	.L73
 638:Middlewares/Third_Party/FreeRTOS/Source/timers.c **** 	}
 1049              		.loc 1 638 3 is_stmt 1 view .LVU268
 638:Middlewares/Third_Party/FreeRTOS/Source/timers.c **** 	}
 1050              		.loc 1 638 29 is_stmt 0 view .LVU269
 1051 0012 0023     		movs	r3, #0
 1052 0014 2B60     		str	r3, [r5]
 1053              	.LVL80:
ARM GAS  /tmp/ccPfK4K4.s 			page 43


 1054              	.L71:
 641:Middlewares/Third_Party/FreeRTOS/Source/timers.c **** 
 1055              		.loc 1 641 2 is_stmt 1 view .LVU270
 641:Middlewares/Third_Party/FreeRTOS/Source/timers.c **** 
 1056              		.loc 1 641 12 is_stmt 0 view .LVU271
 1057 0016 044B     		ldr	r3, .L74
 1058 0018 1C60     		str	r4, [r3]
 643:Middlewares/Third_Party/FreeRTOS/Source/timers.c **** }
 1059              		.loc 1 643 2 is_stmt 1 view .LVU272
 644:Middlewares/Third_Party/FreeRTOS/Source/timers.c **** /*-----------------------------------------------------------*/
 1060              		.loc 1 644 1 is_stmt 0 view .LVU273
 1061 001a 2046     		mov	r0, r4
 1062 001c 38BD     		pop	{r3, r4, r5, pc}
 1063              	.LVL81:
 1064              	.L73:
 633:Middlewares/Third_Party/FreeRTOS/Source/timers.c **** 		*pxTimerListsWereSwitched = pdTRUE;
 1065              		.loc 1 633 3 is_stmt 1 view .LVU274
 1066 001e FFF7FEFF 		bl	prvSwitchTimerLists
 1067              	.LVL82:
 634:Middlewares/Third_Party/FreeRTOS/Source/timers.c **** 	}
 1068              		.loc 1 634 3 view .LVU275
 634:Middlewares/Third_Party/FreeRTOS/Source/timers.c **** 	}
 1069              		.loc 1 634 29 is_stmt 0 view .LVU276
 1070 0022 0123     		movs	r3, #1
 1071 0024 2B60     		str	r3, [r5]
 1072 0026 F6E7     		b	.L71
 1073              	.L75:
 1074              		.align	2
 1075              	.L74:
 1076 0028 00000000 		.word	.LANCHOR8
 1077              		.cfi_endproc
 1078              	.LFE17:
 1080              		.section	.text.prvProcessExpiredTimer,"ax",%progbits
 1081              		.align	1
 1082              		.syntax unified
 1083              		.thumb
 1084              		.thumb_func
 1085              		.fpu fpv5-d16
 1087              	prvProcessExpiredTimer:
 1088              	.LVL83:
 1089              	.LFB13:
 463:Middlewares/Third_Party/FreeRTOS/Source/timers.c **** BaseType_t xResult;
 1090              		.loc 1 463 1 is_stmt 1 view -0
 1091              		.cfi_startproc
 1092              		@ args = 0, pretend = 0, frame = 0
 1093              		@ frame_needed = 0, uses_anonymous_args = 0
 463:Middlewares/Third_Party/FreeRTOS/Source/timers.c **** BaseType_t xResult;
 1094              		.loc 1 463 1 is_stmt 0 view .LVU278
 1095 0000 70B5     		push	{r4, r5, r6, lr}
 1096              	.LCFI27:
 1097              		.cfi_def_cfa_offset 16
 1098              		.cfi_offset 4, -16
 1099              		.cfi_offset 5, -12
 1100              		.cfi_offset 6, -8
 1101              		.cfi_offset 14, -4
 1102 0002 82B0     		sub	sp, sp, #8
 1103              	.LCFI28:
ARM GAS  /tmp/ccPfK4K4.s 			page 44


 1104              		.cfi_def_cfa_offset 24
 1105 0004 0546     		mov	r5, r0
 1106 0006 0E46     		mov	r6, r1
 464:Middlewares/Third_Party/FreeRTOS/Source/timers.c **** Timer_t * const pxTimer = ( Timer_t * ) listGET_OWNER_OF_HEAD_ENTRY( pxCurrentTimerList );
 1107              		.loc 1 464 1 is_stmt 1 view .LVU279
 465:Middlewares/Third_Party/FreeRTOS/Source/timers.c **** 
 1108              		.loc 1 465 1 view .LVU280
 465:Middlewares/Third_Party/FreeRTOS/Source/timers.c **** 
 1109              		.loc 1 465 41 is_stmt 0 view .LVU281
 1110 0008 144B     		ldr	r3, .L81
 1111 000a 1B68     		ldr	r3, [r3]
 1112 000c DB68     		ldr	r3, [r3, #12]
 465:Middlewares/Third_Party/FreeRTOS/Source/timers.c **** 
 1113              		.loc 1 465 17 view .LVU282
 1114 000e DC68     		ldr	r4, [r3, #12]
 1115              	.LVL84:
 469:Middlewares/Third_Party/FreeRTOS/Source/timers.c **** 	traceTIMER_EXPIRED( pxTimer );
 1116              		.loc 1 469 2 is_stmt 1 view .LVU283
 469:Middlewares/Third_Party/FreeRTOS/Source/timers.c **** 	traceTIMER_EXPIRED( pxTimer );
 1117              		.loc 1 469 11 is_stmt 0 view .LVU284
 1118 0010 201D     		adds	r0, r4, #4
 1119              	.LVL85:
 469:Middlewares/Third_Party/FreeRTOS/Source/timers.c **** 	traceTIMER_EXPIRED( pxTimer );
 1120              		.loc 1 469 11 view .LVU285
 1121 0012 FFF7FEFF 		bl	uxListRemove
 1122              	.LVL86:
 470:Middlewares/Third_Party/FreeRTOS/Source/timers.c **** 
 1123              		.loc 1 470 31 is_stmt 1 view .LVU286
 474:Middlewares/Third_Party/FreeRTOS/Source/timers.c **** 	{
 1124              		.loc 1 474 2 view .LVU287
 474:Middlewares/Third_Party/FreeRTOS/Source/timers.c **** 	{
 1125              		.loc 1 474 13 is_stmt 0 view .LVU288
 1126 0016 E369     		ldr	r3, [r4, #28]
 474:Middlewares/Third_Party/FreeRTOS/Source/timers.c **** 	{
 1127              		.loc 1 474 4 view .LVU289
 1128 0018 012B     		cmp	r3, #1
 1129 001a 04D0     		beq	.L80
 1130              	.L77:
 494:Middlewares/Third_Party/FreeRTOS/Source/timers.c **** 	}
 1131              		.loc 1 494 27 is_stmt 1 view .LVU290
 498:Middlewares/Third_Party/FreeRTOS/Source/timers.c **** }
 1132              		.loc 1 498 2 view .LVU291
 498:Middlewares/Third_Party/FreeRTOS/Source/timers.c **** }
 1133              		.loc 1 498 9 is_stmt 0 view .LVU292
 1134 001c 636A     		ldr	r3, [r4, #36]
 498:Middlewares/Third_Party/FreeRTOS/Source/timers.c **** }
 1135              		.loc 1 498 2 view .LVU293
 1136 001e 2046     		mov	r0, r4
 1137 0020 9847     		blx	r3
 1138              	.LVL87:
 499:Middlewares/Third_Party/FreeRTOS/Source/timers.c **** /*-----------------------------------------------------------*/
 1139              		.loc 1 499 1 view .LVU294
 1140 0022 02B0     		add	sp, sp, #8
 1141              	.LCFI29:
 1142              		.cfi_remember_state
 1143              		.cfi_def_cfa_offset 16
 1144              		@ sp needed
ARM GAS  /tmp/ccPfK4K4.s 			page 45


 1145 0024 70BD     		pop	{r4, r5, r6, pc}
 1146              	.LVL88:
 1147              	.L80:
 1148              	.LCFI30:
 1149              		.cfi_restore_state
 479:Middlewares/Third_Party/FreeRTOS/Source/timers.c **** 		{
 1150              		.loc 1 479 3 is_stmt 1 view .LVU295
 479:Middlewares/Third_Party/FreeRTOS/Source/timers.c **** 		{
 1151              		.loc 1 479 71 is_stmt 0 view .LVU296
 1152 0026 A169     		ldr	r1, [r4, #24]
 479:Middlewares/Third_Party/FreeRTOS/Source/timers.c **** 		{
 1153              		.loc 1 479 7 view .LVU297
 1154 0028 2B46     		mov	r3, r5
 1155 002a 3246     		mov	r2, r6
 1156 002c 2944     		add	r1, r1, r5
 1157 002e 2046     		mov	r0, r4
 1158 0030 FFF7FEFF 		bl	prvInsertTimerInActiveList
 1159              	.LVL89:
 479:Middlewares/Third_Party/FreeRTOS/Source/timers.c **** 		{
 1160              		.loc 1 479 5 view .LVU298
 1161 0034 0028     		cmp	r0, #0
 1162 0036 F1D0     		beq	.L77
 483:Middlewares/Third_Party/FreeRTOS/Source/timers.c **** 			configASSERT( xResult );
 1163              		.loc 1 483 4 is_stmt 1 view .LVU299
 483:Middlewares/Third_Party/FreeRTOS/Source/timers.c **** 			configASSERT( xResult );
 1164              		.loc 1 483 14 is_stmt 0 view .LVU300
 1165 0038 0021     		movs	r1, #0
 1166 003a 0091     		str	r1, [sp]
 1167 003c 0B46     		mov	r3, r1
 1168 003e 2A46     		mov	r2, r5
 1169 0040 2046     		mov	r0, r4
 1170 0042 FFF7FEFF 		bl	xTimerGenericCommand
 1171              	.LVL90:
 484:Middlewares/Third_Party/FreeRTOS/Source/timers.c **** 			( void ) xResult;
 1172              		.loc 1 484 4 is_stmt 1 view .LVU301
 1173 0046 0028     		cmp	r0, #0
 1174 0048 E8D1     		bne	.L77
 484:Middlewares/Third_Party/FreeRTOS/Source/timers.c **** 			( void ) xResult;
 1175              		.loc 1 484 4 view .LVU302
 1176              	.LBB56:
 1177              	.LBI56:
 191:Middlewares/Third_Party/FreeRTOS/Source/portable/GCC/ARM_CM4F/portmacro.h **** {
 1178              		.loc 2 191 30 view .LVU303
 1179              	.LBB57:
 193:Middlewares/Third_Party/FreeRTOS/Source/portable/GCC/ARM_CM4F/portmacro.h **** 
 1180              		.loc 2 193 1 view .LVU304
 1181              		.loc 2 195 2 view .LVU305
 1182              		.syntax unified
 1183              	@ 195 "Middlewares/Third_Party/FreeRTOS/Source/portable/GCC/ARM_CM4F/portmacro.h" 1
 1184 004a 4FF05003 			mov r3, #80												
 1185 004e 83F31188 		msr basepri, r3											
 1186 0052 BFF36F8F 		isb														
 1187 0056 BFF34F8F 		dsb														
 1188              	
 1189              	@ 0 "" 2
 1190              	.LVL91:
 1191              		.thumb
ARM GAS  /tmp/ccPfK4K4.s 			page 46


 1192              		.syntax unified
 1193              	.L78:
 1194              		.loc 2 195 2 is_stmt 0 view .LVU306
 1195              	.LBE57:
 1196              	.LBE56:
 484:Middlewares/Third_Party/FreeRTOS/Source/timers.c **** 			( void ) xResult;
 1197              		.loc 1 484 4 is_stmt 1 discriminator 1 view .LVU307
 484:Middlewares/Third_Party/FreeRTOS/Source/timers.c **** 			( void ) xResult;
 1198              		.loc 1 484 4 discriminator 1 view .LVU308
 1199 005a FEE7     		b	.L78
 1200              	.L82:
 1201              		.align	2
 1202              	.L81:
 1203 005c 00000000 		.word	.LANCHOR0
 1204              		.cfi_endproc
 1205              	.LFE13:
 1207              		.section	.text.prvProcessTimerOrBlockTask,"ax",%progbits
 1208              		.align	1
 1209              		.syntax unified
 1210              		.thumb
 1211              		.thumb_func
 1212              		.fpu fpv5-d16
 1214              	prvProcessTimerOrBlockTask:
 1215              	.LVL92:
 1216              	.LFB15:
 539:Middlewares/Third_Party/FreeRTOS/Source/timers.c **** TickType_t xTimeNow;
 1217              		.loc 1 539 1 view -0
 1218              		.cfi_startproc
 1219              		@ args = 0, pretend = 0, frame = 8
 1220              		@ frame_needed = 0, uses_anonymous_args = 0
 539:Middlewares/Third_Party/FreeRTOS/Source/timers.c **** TickType_t xTimeNow;
 1221              		.loc 1 539 1 is_stmt 0 view .LVU310
 1222 0000 70B5     		push	{r4, r5, r6, lr}
 1223              	.LCFI31:
 1224              		.cfi_def_cfa_offset 16
 1225              		.cfi_offset 4, -16
 1226              		.cfi_offset 5, -12
 1227              		.cfi_offset 6, -8
 1228              		.cfi_offset 14, -4
 1229 0002 82B0     		sub	sp, sp, #8
 1230              	.LCFI32:
 1231              		.cfi_def_cfa_offset 24
 1232 0004 0646     		mov	r6, r0
 1233 0006 0C46     		mov	r4, r1
 540:Middlewares/Third_Party/FreeRTOS/Source/timers.c **** BaseType_t xTimerListsWereSwitched;
 1234              		.loc 1 540 1 is_stmt 1 view .LVU311
 541:Middlewares/Third_Party/FreeRTOS/Source/timers.c **** 
 1235              		.loc 1 541 1 view .LVU312
 543:Middlewares/Third_Party/FreeRTOS/Source/timers.c **** 	{
 1236              		.loc 1 543 2 view .LVU313
 1237 0008 FFF7FEFF 		bl	vTaskSuspendAll
 1238              	.LVL93:
 550:Middlewares/Third_Party/FreeRTOS/Source/timers.c **** 		if( xTimerListsWereSwitched == pdFALSE )
 1239              		.loc 1 550 3 view .LVU314
 550:Middlewares/Third_Party/FreeRTOS/Source/timers.c **** 		if( xTimerListsWereSwitched == pdFALSE )
 1240              		.loc 1 550 14 is_stmt 0 view .LVU315
 1241 000c 01A8     		add	r0, sp, #4
ARM GAS  /tmp/ccPfK4K4.s 			page 47


 1242 000e FFF7FEFF 		bl	prvSampleTimeNow
 1243              	.LVL94:
 551:Middlewares/Third_Party/FreeRTOS/Source/timers.c **** 		{
 1244              		.loc 1 551 3 is_stmt 1 view .LVU316
 551:Middlewares/Third_Party/FreeRTOS/Source/timers.c **** 		{
 1245              		.loc 1 551 31 is_stmt 0 view .LVU317
 1246 0012 019B     		ldr	r3, [sp, #4]
 551:Middlewares/Third_Party/FreeRTOS/Source/timers.c **** 		{
 1247              		.loc 1 551 5 view .LVU318
 1248 0014 43BB     		cbnz	r3, .L84
 1249 0016 0546     		mov	r5, r0
 554:Middlewares/Third_Party/FreeRTOS/Source/timers.c **** 			{
 1250              		.loc 1 554 4 is_stmt 1 view .LVU319
 554:Middlewares/Third_Party/FreeRTOS/Source/timers.c **** 			{
 1251              		.loc 1 554 58 is_stmt 0 view .LVU320
 1252 0018 B042     		cmp	r0, r6
 1253 001a 34BF     		ite	cc
 1254 001c 0023     		movcc	r3, #0
 1255 001e 0123     		movcs	r3, #1
 554:Middlewares/Third_Party/FreeRTOS/Source/timers.c **** 			{
 1256              		.loc 1 554 37 view .LVU321
 1257 0020 002C     		cmp	r4, #0
 1258 0022 18BF     		it	ne
 1259 0024 0023     		movne	r3, #0
 554:Middlewares/Third_Party/FreeRTOS/Source/timers.c **** 			{
 1260              		.loc 1 554 6 view .LVU322
 1261 0026 C3B9     		cbnz	r3, .L89
 567:Middlewares/Third_Party/FreeRTOS/Source/timers.c **** 				{
 1262              		.loc 1 567 5 is_stmt 1 view .LVU323
 567:Middlewares/Third_Party/FreeRTOS/Source/timers.c **** 				{
 1263              		.loc 1 567 7 is_stmt 0 view .LVU324
 1264 0028 2CB1     		cbz	r4, .L87
 571:Middlewares/Third_Party/FreeRTOS/Source/timers.c **** 				}
 1265              		.loc 1 571 6 is_stmt 1 view .LVU325
 571:Middlewares/Third_Party/FreeRTOS/Source/timers.c **** 				}
 1266              		.loc 1 571 22 is_stmt 0 view .LVU326
 1267 002a 114B     		ldr	r3, .L90
 1268 002c 1B68     		ldr	r3, [r3]
 1269 002e 1C68     		ldr	r4, [r3]
 1270              	.LVL95:
 571:Middlewares/Third_Party/FreeRTOS/Source/timers.c **** 				}
 1271              		.loc 1 571 22 view .LVU327
 1272 0030 B4FA84F4 		clz	r4, r4
 1273 0034 6409     		lsrs	r4, r4, #5
 1274              	.LVL96:
 1275              	.L87:
 574:Middlewares/Third_Party/FreeRTOS/Source/timers.c **** 
 1276              		.loc 1 574 5 is_stmt 1 view .LVU328
 1277 0036 2246     		mov	r2, r4
 1278 0038 711B     		subs	r1, r6, r5
 1279 003a 0E4B     		ldr	r3, .L90+4
 1280 003c 1868     		ldr	r0, [r3]
 1281              	.LVL97:
 574:Middlewares/Third_Party/FreeRTOS/Source/timers.c **** 
 1282              		.loc 1 574 5 is_stmt 0 view .LVU329
 1283 003e FFF7FEFF 		bl	vQueueWaitForMessageRestricted
 1284              	.LVL98:
ARM GAS  /tmp/ccPfK4K4.s 			page 48


 576:Middlewares/Third_Party/FreeRTOS/Source/timers.c **** 				{
 1285              		.loc 1 576 5 is_stmt 1 view .LVU330
 576:Middlewares/Third_Party/FreeRTOS/Source/timers.c **** 				{
 1286              		.loc 1 576 9 is_stmt 0 view .LVU331
 1287 0042 FFF7FEFF 		bl	xTaskResumeAll
 1288              	.LVL99:
 576:Middlewares/Third_Party/FreeRTOS/Source/timers.c **** 				{
 1289              		.loc 1 576 7 view .LVU332
 1290 0046 88B9     		cbnz	r0, .L83
 582:Middlewares/Third_Party/FreeRTOS/Source/timers.c **** 				}
 1291              		.loc 1 582 6 is_stmt 1 view .LVU333
 1292 0048 0B4B     		ldr	r3, .L90+8
 1293 004a 4FF08052 		mov	r2, #268435456
 1294 004e 1A60     		str	r2, [r3]
 582:Middlewares/Third_Party/FreeRTOS/Source/timers.c **** 				}
 1295              		.loc 1 582 6 view .LVU334
 1296              		.syntax unified
 1297              	@ 582 "Middlewares/Third_Party/FreeRTOS/Source/timers.c" 1
 1298 0050 BFF34F8F 		dsb
 1299              	@ 0 "" 2
 582:Middlewares/Third_Party/FreeRTOS/Source/timers.c **** 				}
 1300              		.loc 1 582 6 view .LVU335
 1301              	@ 582 "Middlewares/Third_Party/FreeRTOS/Source/timers.c" 1
 1302 0054 BFF36F8F 		isb
 1303              	@ 0 "" 2
 582:Middlewares/Third_Party/FreeRTOS/Source/timers.c **** 				}
 1304              		.loc 1 582 28 view .LVU336
 1305              		.thumb
 1306              		.syntax unified
 1307 0058 08E0     		b	.L83
 1308              	.LVL100:
 1309              	.L89:
 556:Middlewares/Third_Party/FreeRTOS/Source/timers.c **** 				prvProcessExpiredTimer( xNextExpireTime, xTimeNow );
 1310              		.loc 1 556 5 view .LVU337
 556:Middlewares/Third_Party/FreeRTOS/Source/timers.c **** 				prvProcessExpiredTimer( xNextExpireTime, xTimeNow );
 1311              		.loc 1 556 14 is_stmt 0 view .LVU338
 1312 005a FFF7FEFF 		bl	xTaskResumeAll
 1313              	.LVL101:
 557:Middlewares/Third_Party/FreeRTOS/Source/timers.c **** 			}
 1314              		.loc 1 557 5 is_stmt 1 view .LVU339
 1315 005e 2946     		mov	r1, r5
 1316 0060 3046     		mov	r0, r6
 1317 0062 FFF7FEFF 		bl	prvProcessExpiredTimer
 1318              	.LVL102:
 1319 0066 01E0     		b	.L83
 1320              	.LVL103:
 1321              	.L84:
 592:Middlewares/Third_Party/FreeRTOS/Source/timers.c **** 		}
 1322              		.loc 1 592 4 view .LVU340
 592:Middlewares/Third_Party/FreeRTOS/Source/timers.c **** 		}
 1323              		.loc 1 592 13 is_stmt 0 view .LVU341
 1324 0068 FFF7FEFF 		bl	xTaskResumeAll
 1325              	.LVL104:
 1326              	.L83:
 595:Middlewares/Third_Party/FreeRTOS/Source/timers.c **** /*-----------------------------------------------------------*/
 1327              		.loc 1 595 1 view .LVU342
 1328 006c 02B0     		add	sp, sp, #8
ARM GAS  /tmp/ccPfK4K4.s 			page 49


 1329              	.LCFI33:
 1330              		.cfi_def_cfa_offset 16
 1331              		@ sp needed
 1332 006e 70BD     		pop	{r4, r5, r6, pc}
 1333              	.LVL105:
 1334              	.L91:
 595:Middlewares/Third_Party/FreeRTOS/Source/timers.c **** /*-----------------------------------------------------------*/
 1335              		.loc 1 595 1 view .LVU343
 1336              		.align	2
 1337              	.L90:
 1338 0070 00000000 		.word	.LANCHOR1
 1339 0074 00000000 		.word	.LANCHOR2
 1340 0078 04ED00E0 		.word	-536810236
 1341              		.cfi_endproc
 1342              	.LFE15:
 1344              		.section	.text.prvProcessReceivedCommands,"ax",%progbits
 1345              		.align	1
 1346              		.syntax unified
 1347              		.thumb
 1348              		.thumb_func
 1349              		.fpu fpv5-d16
 1351              	prvProcessReceivedCommands:
 1352              	.LFB19:
 689:Middlewares/Third_Party/FreeRTOS/Source/timers.c **** DaemonTaskMessage_t xMessage;
 1353              		.loc 1 689 1 is_stmt 1 view -0
 1354              		.cfi_startproc
 1355              		@ args = 0, pretend = 0, frame = 24
 1356              		@ frame_needed = 0, uses_anonymous_args = 0
 1357 0000 10B5     		push	{r4, lr}
 1358              	.LCFI34:
 1359              		.cfi_def_cfa_offset 8
 1360              		.cfi_offset 4, -8
 1361              		.cfi_offset 14, -4
 1362 0002 88B0     		sub	sp, sp, #32
 1363              	.LCFI35:
 1364              		.cfi_def_cfa_offset 40
 690:Middlewares/Third_Party/FreeRTOS/Source/timers.c **** Timer_t *pxTimer;
 1365              		.loc 1 690 1 view .LVU345
 691:Middlewares/Third_Party/FreeRTOS/Source/timers.c **** BaseType_t xTimerListsWereSwitched, xResult;
 1366              		.loc 1 691 1 view .LVU346
 692:Middlewares/Third_Party/FreeRTOS/Source/timers.c **** TickType_t xTimeNow;
 1367              		.loc 1 692 1 view .LVU347
 693:Middlewares/Third_Party/FreeRTOS/Source/timers.c **** 
 1368              		.loc 1 693 1 view .LVU348
 695:Middlewares/Third_Party/FreeRTOS/Source/timers.c **** 	{
 1369              		.loc 1 695 2 view .LVU349
 695:Middlewares/Third_Party/FreeRTOS/Source/timers.c **** 	{
 1370              		.loc 1 695 7 is_stmt 0 view .LVU350
 1371 0004 06E0     		b	.L95
 1372              	.L109:
 1373              	.LBB58:
 703:Middlewares/Third_Party/FreeRTOS/Source/timers.c **** 
 1374              		.loc 1 703 5 is_stmt 1 discriminator 2 view .LVU351
 1375              	.LVL106:
 707:Middlewares/Third_Party/FreeRTOS/Source/timers.c **** 
 1376              		.loc 1 707 5 discriminator 2 view .LVU352
 707:Middlewares/Third_Party/FreeRTOS/Source/timers.c **** 
ARM GAS  /tmp/ccPfK4K4.s 			page 50


 1377              		.loc 1 707 31 discriminator 2 view .LVU353
 710:Middlewares/Third_Party/FreeRTOS/Source/timers.c **** 			}
 1378              		.loc 1 710 5 discriminator 2 view .LVU354
 1379 0006 0799     		ldr	r1, [sp, #28]
 1380 0008 0698     		ldr	r0, [sp, #24]
 1381 000a 059B     		ldr	r3, [sp, #20]
 1382 000c 9847     		blx	r3
 1383              	.LVL107:
 1384              	.L94:
 710:Middlewares/Third_Party/FreeRTOS/Source/timers.c **** 			}
 1385              		.loc 1 710 5 is_stmt 0 discriminator 2 view .LVU355
 1386              	.LBE58:
 714:Middlewares/Third_Party/FreeRTOS/Source/timers.c **** 			}
 1387              		.loc 1 714 29 is_stmt 1 view .LVU356
 721:Middlewares/Third_Party/FreeRTOS/Source/timers.c **** 		{
 1388              		.loc 1 721 3 view .LVU357
 721:Middlewares/Third_Party/FreeRTOS/Source/timers.c **** 		{
 1389              		.loc 1 721 15 is_stmt 0 view .LVU358
 1390 000e 049B     		ldr	r3, [sp, #16]
 721:Middlewares/Third_Party/FreeRTOS/Source/timers.c **** 		{
 1391              		.loc 1 721 5 view .LVU359
 1392 0010 002B     		cmp	r3, #0
 1393 0012 0BDA     		bge	.L107
 1394              	.L95:
 695:Middlewares/Third_Party/FreeRTOS/Source/timers.c **** 	{
 1395              		.loc 1 695 9 view .LVU360
 1396 0014 0022     		movs	r2, #0
 1397 0016 04A9     		add	r1, sp, #16
 1398 0018 364B     		ldr	r3, .L111
 1399 001a 1868     		ldr	r0, [r3]
 1400 001c FFF7FEFF 		bl	xQueueReceive
 1401              	.LVL108:
 695:Middlewares/Third_Party/FreeRTOS/Source/timers.c **** 	{
 1402              		.loc 1 695 7 view .LVU361
 1403 0020 0028     		cmp	r0, #0
 1404 0022 65D0     		beq	.L108
 701:Middlewares/Third_Party/FreeRTOS/Source/timers.c **** 			{
 1405              		.loc 1 701 4 is_stmt 1 view .LVU362
 701:Middlewares/Third_Party/FreeRTOS/Source/timers.c **** 			{
 1406              		.loc 1 701 16 is_stmt 0 view .LVU363
 1407 0024 049B     		ldr	r3, [sp, #16]
 701:Middlewares/Third_Party/FreeRTOS/Source/timers.c **** 			{
 1408              		.loc 1 701 6 view .LVU364
 1409 0026 002B     		cmp	r3, #0
 1410 0028 F1DA     		bge	.L94
 1411 002a ECE7     		b	.L109
 1412              	.L107:
 725:Middlewares/Third_Party/FreeRTOS/Source/timers.c **** 
 1413              		.loc 1 725 4 is_stmt 1 view .LVU365
 725:Middlewares/Third_Party/FreeRTOS/Source/timers.c **** 
 1414              		.loc 1 725 12 is_stmt 0 view .LVU366
 1415 002c 069C     		ldr	r4, [sp, #24]
 1416              	.LVL109:
 727:Middlewares/Third_Party/FreeRTOS/Source/timers.c **** 			{
 1417              		.loc 1 727 4 is_stmt 1 view .LVU367
 727:Middlewares/Third_Party/FreeRTOS/Source/timers.c **** 			{
 1418              		.loc 1 727 8 is_stmt 0 view .LVU368
ARM GAS  /tmp/ccPfK4K4.s 			page 51


 1419 002e 6369     		ldr	r3, [r4, #20]
 727:Middlewares/Third_Party/FreeRTOS/Source/timers.c **** 			{
 1420              		.loc 1 727 6 view .LVU369
 1421 0030 13B1     		cbz	r3, .L96
 730:Middlewares/Third_Party/FreeRTOS/Source/timers.c **** 			}
 1422              		.loc 1 730 5 is_stmt 1 view .LVU370
 730:Middlewares/Third_Party/FreeRTOS/Source/timers.c **** 			}
 1423              		.loc 1 730 14 is_stmt 0 view .LVU371
 1424 0032 201D     		adds	r0, r4, #4
 1425 0034 FFF7FEFF 		bl	uxListRemove
 1426              	.LVL110:
 1427              	.L96:
 734:Middlewares/Third_Party/FreeRTOS/Source/timers.c **** 			}
 1428              		.loc 1 734 29 is_stmt 1 view .LVU372
 737:Middlewares/Third_Party/FreeRTOS/Source/timers.c **** 
 1429              		.loc 1 737 106 view .LVU373
 745:Middlewares/Third_Party/FreeRTOS/Source/timers.c **** 
 1430              		.loc 1 745 4 view .LVU374
 745:Middlewares/Third_Party/FreeRTOS/Source/timers.c **** 
 1431              		.loc 1 745 15 is_stmt 0 view .LVU375
 1432 0038 03A8     		add	r0, sp, #12
 1433 003a FFF7FEFF 		bl	prvSampleTimeNow
 1434              	.LVL111:
 747:Middlewares/Third_Party/FreeRTOS/Source/timers.c **** 			{
 1435              		.loc 1 747 4 is_stmt 1 view .LVU376
 747:Middlewares/Third_Party/FreeRTOS/Source/timers.c **** 			{
 1436              		.loc 1 747 20 is_stmt 0 view .LVU377
 1437 003e 049B     		ldr	r3, [sp, #16]
 1438 0040 092B     		cmp	r3, #9
 1439 0042 E7D8     		bhi	.L95
 1440 0044 01A2     		adr	r2, .L99
 1441 0046 52F823F0 		ldr	pc, [r2, r3, lsl #2]
 1442 004a 00BF     		.p2align 2
 1443              	.L99:
 1444 004c 75000000 		.word	.L100+1
 1445 0050 75000000 		.word	.L100+1
 1446 0054 75000000 		.word	.L100+1
 1447 0058 15000000 		.word	.L95+1
 1448 005c BB000000 		.word	.L98+1
 1449 0060 E1000000 		.word	.L101+1
 1450 0064 75000000 		.word	.L100+1
 1451 0068 75000000 		.word	.L100+1
 1452 006c 15000000 		.word	.L95+1
 1453 0070 BB000000 		.word	.L98+1
 1454              		.p2align 1
 1455              	.L100:
 755:Middlewares/Third_Party/FreeRTOS/Source/timers.c **** 					{
 1456              		.loc 1 755 6 is_stmt 1 view .LVU378
 755:Middlewares/Third_Party/FreeRTOS/Source/timers.c **** 					{
 1457              		.loc 1 755 75 is_stmt 0 view .LVU379
 1458 0074 059B     		ldr	r3, [sp, #20]
 755:Middlewares/Third_Party/FreeRTOS/Source/timers.c **** 					{
 1459              		.loc 1 755 99 view .LVU380
 1460 0076 A169     		ldr	r1, [r4, #24]
 755:Middlewares/Third_Party/FreeRTOS/Source/timers.c **** 					{
 1461              		.loc 1 755 10 view .LVU381
 1462 0078 0246     		mov	r2, r0
ARM GAS  /tmp/ccPfK4K4.s 			page 52


 1463 007a 1944     		add	r1, r1, r3
 1464 007c 2046     		mov	r0, r4
 1465              	.LVL112:
 755:Middlewares/Third_Party/FreeRTOS/Source/timers.c **** 					{
 1466              		.loc 1 755 10 view .LVU382
 1467 007e FFF7FEFF 		bl	prvInsertTimerInActiveList
 1468              	.LVL113:
 755:Middlewares/Third_Party/FreeRTOS/Source/timers.c **** 					{
 1469              		.loc 1 755 8 view .LVU383
 1470 0082 0028     		cmp	r0, #0
 1471 0084 C6D0     		beq	.L95
 759:Middlewares/Third_Party/FreeRTOS/Source/timers.c **** 						traceTIMER_EXPIRED( pxTimer );
 1472              		.loc 1 759 7 is_stmt 1 view .LVU384
 759:Middlewares/Third_Party/FreeRTOS/Source/timers.c **** 						traceTIMER_EXPIRED( pxTimer );
 1473              		.loc 1 759 14 is_stmt 0 view .LVU385
 1474 0086 636A     		ldr	r3, [r4, #36]
 759:Middlewares/Third_Party/FreeRTOS/Source/timers.c **** 						traceTIMER_EXPIRED( pxTimer );
 1475              		.loc 1 759 7 view .LVU386
 1476 0088 2046     		mov	r0, r4
 1477 008a 9847     		blx	r3
 1478              	.LVL114:
 760:Middlewares/Third_Party/FreeRTOS/Source/timers.c **** 
 1479              		.loc 1 760 36 is_stmt 1 view .LVU387
 762:Middlewares/Third_Party/FreeRTOS/Source/timers.c **** 						{
 1480              		.loc 1 762 7 view .LVU388
 762:Middlewares/Third_Party/FreeRTOS/Source/timers.c **** 						{
 1481              		.loc 1 762 18 is_stmt 0 view .LVU389
 1482 008c E369     		ldr	r3, [r4, #28]
 762:Middlewares/Third_Party/FreeRTOS/Source/timers.c **** 						{
 1483              		.loc 1 762 9 view .LVU390
 1484 008e 012B     		cmp	r3, #1
 1485 0090 C0D1     		bne	.L95
 764:Middlewares/Third_Party/FreeRTOS/Source/timers.c **** 							configASSERT( xResult );
 1486              		.loc 1 764 8 is_stmt 1 view .LVU391
 764:Middlewares/Third_Party/FreeRTOS/Source/timers.c **** 							configASSERT( xResult );
 1487              		.loc 1 764 129 is_stmt 0 view .LVU392
 1488 0092 A269     		ldr	r2, [r4, #24]
 764:Middlewares/Third_Party/FreeRTOS/Source/timers.c **** 							configASSERT( xResult );
 1489              		.loc 1 764 18 view .LVU393
 1490 0094 0021     		movs	r1, #0
 1491 0096 0091     		str	r1, [sp]
 1492 0098 0B46     		mov	r3, r1
 1493 009a 0598     		ldr	r0, [sp, #20]
 1494 009c 0244     		add	r2, r2, r0
 1495 009e 2046     		mov	r0, r4
 1496 00a0 FFF7FEFF 		bl	xTimerGenericCommand
 1497              	.LVL115:
 765:Middlewares/Third_Party/FreeRTOS/Source/timers.c **** 							( void ) xResult;
 1498              		.loc 1 765 8 is_stmt 1 view .LVU394
 1499 00a4 0028     		cmp	r0, #0
 1500 00a6 B5D1     		bne	.L95
 765:Middlewares/Third_Party/FreeRTOS/Source/timers.c **** 							( void ) xResult;
 1501              		.loc 1 765 8 view .LVU395
 1502              	.LBB59:
 1503              	.LBI59:
 191:Middlewares/Third_Party/FreeRTOS/Source/portable/GCC/ARM_CM4F/portmacro.h **** {
 1504              		.loc 2 191 30 view .LVU396
ARM GAS  /tmp/ccPfK4K4.s 			page 53


 1505              	.LBB60:
 193:Middlewares/Third_Party/FreeRTOS/Source/portable/GCC/ARM_CM4F/portmacro.h **** 
 1506              		.loc 2 193 1 view .LVU397
 1507              		.loc 2 195 2 view .LVU398
 1508              		.syntax unified
 1509              	@ 195 "Middlewares/Third_Party/FreeRTOS/Source/portable/GCC/ARM_CM4F/portmacro.h" 1
 1510 00a8 4FF05003 			mov r3, #80												
 1511 00ac 83F31188 		msr basepri, r3											
 1512 00b0 BFF36F8F 		isb														
 1513 00b4 BFF34F8F 		dsb														
 1514              	
 1515              	@ 0 "" 2
 1516              	.LVL116:
 1517              		.thumb
 1518              		.syntax unified
 1519              	.L102:
 1520              		.loc 2 195 2 is_stmt 0 view .LVU399
 1521              	.LBE60:
 1522              	.LBE59:
 765:Middlewares/Third_Party/FreeRTOS/Source/timers.c **** 							( void ) xResult;
 1523              		.loc 1 765 8 is_stmt 1 discriminator 2 view .LVU400
 765:Middlewares/Third_Party/FreeRTOS/Source/timers.c **** 							( void ) xResult;
 1524              		.loc 1 765 8 discriminator 2 view .LVU401
 1525 00b8 FEE7     		b	.L102
 1526              	.LVL117:
 1527              	.L98:
 787:Middlewares/Third_Party/FreeRTOS/Source/timers.c **** 					configASSERT( ( pxTimer->xTimerPeriodInTicks > 0 ) );
 1528              		.loc 1 787 6 view .LVU402
 787:Middlewares/Third_Party/FreeRTOS/Source/timers.c **** 					configASSERT( ( pxTimer->xTimerPeriodInTicks > 0 ) );
 1529              		.loc 1 787 64 is_stmt 0 view .LVU403
 1530 00ba 0599     		ldr	r1, [sp, #20]
 787:Middlewares/Third_Party/FreeRTOS/Source/timers.c **** 					configASSERT( ( pxTimer->xTimerPeriodInTicks > 0 ) );
 1531              		.loc 1 787 35 view .LVU404
 1532 00bc A161     		str	r1, [r4, #24]
 788:Middlewares/Third_Party/FreeRTOS/Source/timers.c **** 
 1533              		.loc 1 788 6 is_stmt 1 view .LVU405
 1534 00be 31B1     		cbz	r1, .L110
 788:Middlewares/Third_Party/FreeRTOS/Source/timers.c **** 
 1535              		.loc 1 788 58 discriminator 2 view .LVU406
 796:Middlewares/Third_Party/FreeRTOS/Source/timers.c **** 					break;
 1536              		.loc 1 796 6 discriminator 2 view .LVU407
 796:Middlewares/Third_Party/FreeRTOS/Source/timers.c **** 					break;
 1537              		.loc 1 796 15 is_stmt 0 discriminator 2 view .LVU408
 1538 00c0 0346     		mov	r3, r0
 1539 00c2 0246     		mov	r2, r0
 1540 00c4 0144     		add	r1, r1, r0
 1541 00c6 2046     		mov	r0, r4
 1542              	.LVL118:
 796:Middlewares/Third_Party/FreeRTOS/Source/timers.c **** 					break;
 1543              		.loc 1 796 15 discriminator 2 view .LVU409
 1544 00c8 FFF7FEFF 		bl	prvInsertTimerInActiveList
 1545              	.LVL119:
 797:Middlewares/Third_Party/FreeRTOS/Source/timers.c **** 
 1546              		.loc 1 797 6 is_stmt 1 discriminator 2 view .LVU410
 1547 00cc A2E7     		b	.L95
 1548              	.LVL120:
 1549              	.L110:
ARM GAS  /tmp/ccPfK4K4.s 			page 54


 788:Middlewares/Third_Party/FreeRTOS/Source/timers.c **** 
 1550              		.loc 1 788 6 view .LVU411
 1551              	.LBB61:
 1552              	.LBI61:
 191:Middlewares/Third_Party/FreeRTOS/Source/portable/GCC/ARM_CM4F/portmacro.h **** {
 1553              		.loc 2 191 30 view .LVU412
 1554              	.LBB62:
 193:Middlewares/Third_Party/FreeRTOS/Source/portable/GCC/ARM_CM4F/portmacro.h **** 
 1555              		.loc 2 193 1 view .LVU413
 1556              		.loc 2 195 2 view .LVU414
 1557              		.syntax unified
 1558              	@ 195 "Middlewares/Third_Party/FreeRTOS/Source/portable/GCC/ARM_CM4F/portmacro.h" 1
 1559 00ce 4FF05003 			mov r3, #80												
 1560 00d2 83F31188 		msr basepri, r3											
 1561 00d6 BFF36F8F 		isb														
 1562 00da BFF34F8F 		dsb														
 1563              	
 1564              	@ 0 "" 2
 1565              	.LVL121:
 1566              		.thumb
 1567              		.syntax unified
 1568              	.L104:
 1569              		.loc 2 195 2 is_stmt 0 view .LVU415
 1570              	.LBE62:
 1571              	.LBE61:
 788:Middlewares/Third_Party/FreeRTOS/Source/timers.c **** 
 1572              		.loc 1 788 6 is_stmt 1 discriminator 5 view .LVU416
 788:Middlewares/Third_Party/FreeRTOS/Source/timers.c **** 
 1573              		.loc 1 788 6 discriminator 5 view .LVU417
 1574 00de FEE7     		b	.L104
 1575              	.L101:
 814:Middlewares/Third_Party/FreeRTOS/Source/timers.c **** 						{
 1576              		.loc 1 814 7 view .LVU418
 814:Middlewares/Third_Party/FreeRTOS/Source/timers.c **** 						{
 1577              		.loc 1 814 18 is_stmt 0 view .LVU419
 1578 00e0 94F82C30 		ldrb	r3, [r4, #44]	@ zero_extendqisi2
 814:Middlewares/Third_Party/FreeRTOS/Source/timers.c **** 						{
 1579              		.loc 1 814 9 view .LVU420
 1580 00e4 002B     		cmp	r3, #0
 1581 00e6 95D1     		bne	.L95
 816:Middlewares/Third_Party/FreeRTOS/Source/timers.c **** 						}
 1582              		.loc 1 816 8 is_stmt 1 view .LVU421
 1583 00e8 2046     		mov	r0, r4
 1584              	.LVL122:
 816:Middlewares/Third_Party/FreeRTOS/Source/timers.c **** 						}
 1585              		.loc 1 816 8 is_stmt 0 view .LVU422
 1586 00ea FFF7FEFF 		bl	vPortFree
 1587              	.LVL123:
 1588 00ee 91E7     		b	.L95
 1589              	.LVL124:
 1590              	.L108:
 832:Middlewares/Third_Party/FreeRTOS/Source/timers.c **** /*-----------------------------------------------------------*/
 1591              		.loc 1 832 1 view .LVU423
 1592 00f0 08B0     		add	sp, sp, #32
 1593              	.LCFI36:
 1594              		.cfi_def_cfa_offset 8
 1595              		@ sp needed
ARM GAS  /tmp/ccPfK4K4.s 			page 55


 1596 00f2 10BD     		pop	{r4, pc}
 1597              	.L112:
 1598              		.align	2
 1599              	.L111:
 1600 00f4 00000000 		.word	.LANCHOR2
 1601              		.cfi_endproc
 1602              	.LFE19:
 1604              		.section	.text.prvTimerTask,"ax",%progbits
 1605              		.align	1
 1606              		.syntax unified
 1607              		.thumb
 1608              		.thumb_func
 1609              		.fpu fpv5-d16
 1611              	prvTimerTask:
 1612              	.LFB14:
 503:Middlewares/Third_Party/FreeRTOS/Source/timers.c **** TickType_t xNextExpireTime;
 1613              		.loc 1 503 1 is_stmt 1 view -0
 1614              		.cfi_startproc
 1615              		@ args = 0, pretend = 0, frame = 8
 1616              		@ frame_needed = 0, uses_anonymous_args = 0
 1617              	.LVL125:
 503:Middlewares/Third_Party/FreeRTOS/Source/timers.c **** TickType_t xNextExpireTime;
 1618              		.loc 1 503 1 is_stmt 0 view .LVU425
 1619 0000 00B5     		push	{lr}
 1620              	.LCFI37:
 1621              		.cfi_def_cfa_offset 4
 1622              		.cfi_offset 14, -4
 1623 0002 83B0     		sub	sp, sp, #12
 1624              	.LCFI38:
 1625              		.cfi_def_cfa_offset 16
 1626              	.LVL126:
 1627              	.L114:
 504:Middlewares/Third_Party/FreeRTOS/Source/timers.c **** BaseType_t xListWasEmpty;
 1628              		.loc 1 504 1 is_stmt 1 discriminator 1 view .LVU426
 505:Middlewares/Third_Party/FreeRTOS/Source/timers.c **** 
 1629              		.loc 1 505 1 discriminator 1 view .LVU427
 508:Middlewares/Third_Party/FreeRTOS/Source/timers.c **** 
 1630              		.loc 1 508 2 discriminator 1 view .LVU428
 522:Middlewares/Third_Party/FreeRTOS/Source/timers.c **** 	{
 1631              		.loc 1 522 2 discriminator 1 view .LVU429
 526:Middlewares/Third_Party/FreeRTOS/Source/timers.c **** 
 1632              		.loc 1 526 3 discriminator 1 view .LVU430
 526:Middlewares/Third_Party/FreeRTOS/Source/timers.c **** 
 1633              		.loc 1 526 21 is_stmt 0 discriminator 1 view .LVU431
 1634 0004 01A8     		add	r0, sp, #4
 1635 0006 FFF7FEFF 		bl	prvGetNextExpireTime
 1636              	.LVL127:
 530:Middlewares/Third_Party/FreeRTOS/Source/timers.c **** 
 1637              		.loc 1 530 3 is_stmt 1 discriminator 1 view .LVU432
 1638 000a 0199     		ldr	r1, [sp, #4]
 1639 000c FFF7FEFF 		bl	prvProcessTimerOrBlockTask
 1640              	.LVL128:
 533:Middlewares/Third_Party/FreeRTOS/Source/timers.c **** 	}
 1641              		.loc 1 533 3 discriminator 1 view .LVU433
 1642 0010 FFF7FEFF 		bl	prvProcessReceivedCommands
 1643              	.LVL129:
 1644 0014 F6E7     		b	.L114
ARM GAS  /tmp/ccPfK4K4.s 			page 56


 1645              		.cfi_endproc
 1646              	.LFE14:
 1648              		.section	.text.xTimerGetTimerDaemonTaskHandle,"ax",%progbits
 1649              		.align	1
 1650              		.global	xTimerGetTimerDaemonTaskHandle
 1651              		.syntax unified
 1652              		.thumb
 1653              		.thumb_func
 1654              		.fpu fpv5-d16
 1656              	xTimerGetTimerDaemonTaskHandle:
 1657              	.LFB9:
 425:Middlewares/Third_Party/FreeRTOS/Source/timers.c **** 	/* If xTimerGetTimerDaemonTaskHandle() is called before the scheduler has been
 1658              		.loc 1 425 1 view -0
 1659              		.cfi_startproc
 1660              		@ args = 0, pretend = 0, frame = 0
 1661              		@ frame_needed = 0, uses_anonymous_args = 0
 1662              		@ link register save eliminated.
 428:Middlewares/Third_Party/FreeRTOS/Source/timers.c **** 	return xTimerTaskHandle;
 1663              		.loc 1 428 2 view .LVU435
 1664 0000 064B     		ldr	r3, .L120
 1665 0002 1868     		ldr	r0, [r3]
 1666 0004 00B1     		cbz	r0, .L119
 430:Middlewares/Third_Party/FreeRTOS/Source/timers.c **** /*-----------------------------------------------------------*/
 1667              		.loc 1 430 1 is_stmt 0 view .LVU436
 1668 0006 7047     		bx	lr
 1669              	.L119:
 428:Middlewares/Third_Party/FreeRTOS/Source/timers.c **** 	return xTimerTaskHandle;
 1670              		.loc 1 428 2 is_stmt 1 view .LVU437
 1671              	.LBB63:
 1672              	.LBI63:
 191:Middlewares/Third_Party/FreeRTOS/Source/portable/GCC/ARM_CM4F/portmacro.h **** {
 1673              		.loc 2 191 30 view .LVU438
 1674              	.LBB64:
 193:Middlewares/Third_Party/FreeRTOS/Source/portable/GCC/ARM_CM4F/portmacro.h **** 
 1675              		.loc 2 193 1 view .LVU439
 1676              		.loc 2 195 2 view .LVU440
 1677              		.syntax unified
 1678              	@ 195 "Middlewares/Third_Party/FreeRTOS/Source/portable/GCC/ARM_CM4F/portmacro.h" 1
 1679 0008 4FF05003 			mov r3, #80												
 1680 000c 83F31188 		msr basepri, r3											
 1681 0010 BFF36F8F 		isb														
 1682 0014 BFF34F8F 		dsb														
 1683              	
 1684              	@ 0 "" 2
 1685              	.LVL130:
 1686              		.thumb
 1687              		.syntax unified
 1688              	.L118:
 1689              		.loc 2 195 2 is_stmt 0 view .LVU441
 1690              	.LBE64:
 1691              	.LBE63:
 428:Middlewares/Third_Party/FreeRTOS/Source/timers.c **** 	return xTimerTaskHandle;
 1692              		.loc 1 428 2 is_stmt 1 discriminator 1 view .LVU442
 428:Middlewares/Third_Party/FreeRTOS/Source/timers.c **** 	return xTimerTaskHandle;
 1693              		.loc 1 428 2 discriminator 1 view .LVU443
 1694 0018 FEE7     		b	.L118
 1695              	.L121:
ARM GAS  /tmp/ccPfK4K4.s 			page 57


 1696 001a 00BF     		.align	2
 1697              	.L120:
 1698 001c 00000000 		.word	.LANCHOR7
 1699              		.cfi_endproc
 1700              	.LFE9:
 1702              		.section	.text.xTimerGetPeriod,"ax",%progbits
 1703              		.align	1
 1704              		.global	xTimerGetPeriod
 1705              		.syntax unified
 1706              		.thumb
 1707              		.thumb_func
 1708              		.fpu fpv5-d16
 1710              	xTimerGetPeriod:
 1711              	.LVL131:
 1712              	.LFB10:
 434:Middlewares/Third_Party/FreeRTOS/Source/timers.c **** Timer_t *pxTimer = ( Timer_t * ) xTimer;
 1713              		.loc 1 434 1 view -0
 1714              		.cfi_startproc
 1715              		@ args = 0, pretend = 0, frame = 0
 1716              		@ frame_needed = 0, uses_anonymous_args = 0
 1717              		@ link register save eliminated.
 435:Middlewares/Third_Party/FreeRTOS/Source/timers.c **** 
 1718              		.loc 1 435 1 view .LVU445
 437:Middlewares/Third_Party/FreeRTOS/Source/timers.c **** 	return pxTimer->xTimerPeriodInTicks;
 1719              		.loc 1 437 2 view .LVU446
 1720 0000 08B1     		cbz	r0, .L125
 437:Middlewares/Third_Party/FreeRTOS/Source/timers.c **** 	return pxTimer->xTimerPeriodInTicks;
 1721              		.loc 1 437 24 discriminator 2 view .LVU447
 438:Middlewares/Third_Party/FreeRTOS/Source/timers.c **** }
 1722              		.loc 1 438 2 discriminator 2 view .LVU448
 439:Middlewares/Third_Party/FreeRTOS/Source/timers.c **** /*-----------------------------------------------------------*/
 1723              		.loc 1 439 1 is_stmt 0 discriminator 2 view .LVU449
 1724 0002 8069     		ldr	r0, [r0, #24]
 1725              	.LVL132:
 439:Middlewares/Third_Party/FreeRTOS/Source/timers.c **** /*-----------------------------------------------------------*/
 1726              		.loc 1 439 1 discriminator 2 view .LVU450
 1727 0004 7047     		bx	lr
 1728              	.LVL133:
 1729              	.L125:
 437:Middlewares/Third_Party/FreeRTOS/Source/timers.c **** 	return pxTimer->xTimerPeriodInTicks;
 1730              		.loc 1 437 2 is_stmt 1 view .LVU451
 1731              	.LBB65:
 1732              	.LBI65:
 191:Middlewares/Third_Party/FreeRTOS/Source/portable/GCC/ARM_CM4F/portmacro.h **** {
 1733              		.loc 2 191 30 view .LVU452
 1734              	.LBB66:
 193:Middlewares/Third_Party/FreeRTOS/Source/portable/GCC/ARM_CM4F/portmacro.h **** 
 1735              		.loc 2 193 1 view .LVU453
 1736              		.loc 2 195 2 view .LVU454
 1737              		.syntax unified
 1738              	@ 195 "Middlewares/Third_Party/FreeRTOS/Source/portable/GCC/ARM_CM4F/portmacro.h" 1
 1739 0006 4FF05003 			mov r3, #80												
 1740 000a 83F31188 		msr basepri, r3											
 1741 000e BFF36F8F 		isb														
 1742 0012 BFF34F8F 		dsb														
 1743              	
 1744              	@ 0 "" 2
ARM GAS  /tmp/ccPfK4K4.s 			page 58


 1745              	.LVL134:
 1746              		.thumb
 1747              		.syntax unified
 1748              	.L124:
 1749              		.loc 2 195 2 is_stmt 0 view .LVU455
 1750              	.LBE66:
 1751              	.LBE65:
 437:Middlewares/Third_Party/FreeRTOS/Source/timers.c **** 	return pxTimer->xTimerPeriodInTicks;
 1752              		.loc 1 437 2 is_stmt 1 discriminator 1 view .LVU456
 437:Middlewares/Third_Party/FreeRTOS/Source/timers.c **** 	return pxTimer->xTimerPeriodInTicks;
 1753              		.loc 1 437 2 discriminator 1 view .LVU457
 1754 0016 FEE7     		b	.L124
 1755              		.cfi_endproc
 1756              	.LFE10:
 1758              		.section	.text.xTimerGetExpiryTime,"ax",%progbits
 1759              		.align	1
 1760              		.global	xTimerGetExpiryTime
 1761              		.syntax unified
 1762              		.thumb
 1763              		.thumb_func
 1764              		.fpu fpv5-d16
 1766              	xTimerGetExpiryTime:
 1767              	.LVL135:
 1768              	.LFB11:
 443:Middlewares/Third_Party/FreeRTOS/Source/timers.c **** Timer_t * pxTimer = ( Timer_t * ) xTimer;
 1769              		.loc 1 443 1 view -0
 1770              		.cfi_startproc
 1771              		@ args = 0, pretend = 0, frame = 0
 1772              		@ frame_needed = 0, uses_anonymous_args = 0
 1773              		@ link register save eliminated.
 444:Middlewares/Third_Party/FreeRTOS/Source/timers.c **** TickType_t xReturn;
 1774              		.loc 1 444 1 view .LVU459
 445:Middlewares/Third_Party/FreeRTOS/Source/timers.c **** 
 1775              		.loc 1 445 1 view .LVU460
 447:Middlewares/Third_Party/FreeRTOS/Source/timers.c **** 	xReturn = listGET_LIST_ITEM_VALUE( &( pxTimer->xTimerListItem ) );
 1776              		.loc 1 447 2 view .LVU461
 1777 0000 08B1     		cbz	r0, .L129
 447:Middlewares/Third_Party/FreeRTOS/Source/timers.c **** 	xReturn = listGET_LIST_ITEM_VALUE( &( pxTimer->xTimerListItem ) );
 1778              		.loc 1 447 24 discriminator 2 view .LVU462
 448:Middlewares/Third_Party/FreeRTOS/Source/timers.c **** 	return xReturn;
 1779              		.loc 1 448 2 discriminator 2 view .LVU463
 1780              	.LVL136:
 449:Middlewares/Third_Party/FreeRTOS/Source/timers.c **** }
 1781              		.loc 1 449 2 discriminator 2 view .LVU464
 450:Middlewares/Third_Party/FreeRTOS/Source/timers.c **** /*-----------------------------------------------------------*/
 1782              		.loc 1 450 1 is_stmt 0 discriminator 2 view .LVU465
 1783 0002 4068     		ldr	r0, [r0, #4]
 1784              	.LVL137:
 450:Middlewares/Third_Party/FreeRTOS/Source/timers.c **** /*-----------------------------------------------------------*/
 1785              		.loc 1 450 1 discriminator 2 view .LVU466
 1786 0004 7047     		bx	lr
 1787              	.LVL138:
 1788              	.L129:
 447:Middlewares/Third_Party/FreeRTOS/Source/timers.c **** 	xReturn = listGET_LIST_ITEM_VALUE( &( pxTimer->xTimerListItem ) );
 1789              		.loc 1 447 2 is_stmt 1 view .LVU467
 1790              	.LBB67:
 1791              	.LBI67:
ARM GAS  /tmp/ccPfK4K4.s 			page 59


 191:Middlewares/Third_Party/FreeRTOS/Source/portable/GCC/ARM_CM4F/portmacro.h **** {
 1792              		.loc 2 191 30 view .LVU468
 1793              	.LBB68:
 193:Middlewares/Third_Party/FreeRTOS/Source/portable/GCC/ARM_CM4F/portmacro.h **** 
 1794              		.loc 2 193 1 view .LVU469
 1795              		.loc 2 195 2 view .LVU470
 1796              		.syntax unified
 1797              	@ 195 "Middlewares/Third_Party/FreeRTOS/Source/portable/GCC/ARM_CM4F/portmacro.h" 1
 1798 0006 4FF05003 			mov r3, #80												
 1799 000a 83F31188 		msr basepri, r3											
 1800 000e BFF36F8F 		isb														
 1801 0012 BFF34F8F 		dsb														
 1802              	
 1803              	@ 0 "" 2
 1804              	.LVL139:
 1805              		.thumb
 1806              		.syntax unified
 1807              	.L128:
 1808              		.loc 2 195 2 is_stmt 0 view .LVU471
 1809              	.LBE68:
 1810              	.LBE67:
 447:Middlewares/Third_Party/FreeRTOS/Source/timers.c **** 	xReturn = listGET_LIST_ITEM_VALUE( &( pxTimer->xTimerListItem ) );
 1811              		.loc 1 447 2 is_stmt 1 discriminator 1 view .LVU472
 447:Middlewares/Third_Party/FreeRTOS/Source/timers.c **** 	xReturn = listGET_LIST_ITEM_VALUE( &( pxTimer->xTimerListItem ) );
 1812              		.loc 1 447 2 discriminator 1 view .LVU473
 1813 0016 FEE7     		b	.L128
 1814              		.cfi_endproc
 1815              	.LFE11:
 1817              		.section	.text.pcTimerGetName,"ax",%progbits
 1818              		.align	1
 1819              		.global	pcTimerGetName
 1820              		.syntax unified
 1821              		.thumb
 1822              		.thumb_func
 1823              		.fpu fpv5-d16
 1825              	pcTimerGetName:
 1826              	.LVL140:
 1827              	.LFB12:
 454:Middlewares/Third_Party/FreeRTOS/Source/timers.c **** Timer_t *pxTimer = ( Timer_t * ) xTimer;
 1828              		.loc 1 454 1 view -0
 1829              		.cfi_startproc
 1830              		@ args = 0, pretend = 0, frame = 0
 1831              		@ frame_needed = 0, uses_anonymous_args = 0
 1832              		@ link register save eliminated.
 455:Middlewares/Third_Party/FreeRTOS/Source/timers.c **** 
 1833              		.loc 1 455 1 view .LVU475
 457:Middlewares/Third_Party/FreeRTOS/Source/timers.c **** 	return pxTimer->pcTimerName;
 1834              		.loc 1 457 2 view .LVU476
 1835 0000 08B1     		cbz	r0, .L133
 457:Middlewares/Third_Party/FreeRTOS/Source/timers.c **** 	return pxTimer->pcTimerName;
 1836              		.loc 1 457 24 discriminator 2 view .LVU477
 458:Middlewares/Third_Party/FreeRTOS/Source/timers.c **** }
 1837              		.loc 1 458 2 discriminator 2 view .LVU478
 459:Middlewares/Third_Party/FreeRTOS/Source/timers.c **** /*-----------------------------------------------------------*/
 1838              		.loc 1 459 1 is_stmt 0 discriminator 2 view .LVU479
 1839 0002 0068     		ldr	r0, [r0]
 1840              	.LVL141:
ARM GAS  /tmp/ccPfK4K4.s 			page 60


 459:Middlewares/Third_Party/FreeRTOS/Source/timers.c **** /*-----------------------------------------------------------*/
 1841              		.loc 1 459 1 discriminator 2 view .LVU480
 1842 0004 7047     		bx	lr
 1843              	.LVL142:
 1844              	.L133:
 457:Middlewares/Third_Party/FreeRTOS/Source/timers.c **** 	return pxTimer->pcTimerName;
 1845              		.loc 1 457 2 is_stmt 1 view .LVU481
 1846              	.LBB69:
 1847              	.LBI69:
 191:Middlewares/Third_Party/FreeRTOS/Source/portable/GCC/ARM_CM4F/portmacro.h **** {
 1848              		.loc 2 191 30 view .LVU482
 1849              	.LBB70:
 193:Middlewares/Third_Party/FreeRTOS/Source/portable/GCC/ARM_CM4F/portmacro.h **** 
 1850              		.loc 2 193 1 view .LVU483
 1851              		.loc 2 195 2 view .LVU484
 1852              		.syntax unified
 1853              	@ 195 "Middlewares/Third_Party/FreeRTOS/Source/portable/GCC/ARM_CM4F/portmacro.h" 1
 1854 0006 4FF05003 			mov r3, #80												
 1855 000a 83F31188 		msr basepri, r3											
 1856 000e BFF36F8F 		isb														
 1857 0012 BFF34F8F 		dsb														
 1858              	
 1859              	@ 0 "" 2
 1860              	.LVL143:
 1861              		.thumb
 1862              		.syntax unified
 1863              	.L132:
 1864              		.loc 2 195 2 is_stmt 0 view .LVU485
 1865              	.LBE70:
 1866              	.LBE69:
 457:Middlewares/Third_Party/FreeRTOS/Source/timers.c **** 	return pxTimer->pcTimerName;
 1867              		.loc 1 457 2 is_stmt 1 discriminator 1 view .LVU486
 457:Middlewares/Third_Party/FreeRTOS/Source/timers.c **** 	return pxTimer->pcTimerName;
 1868              		.loc 1 457 2 discriminator 1 view .LVU487
 1869 0016 FEE7     		b	.L132
 1870              		.cfi_endproc
 1871              	.LFE12:
 1873              		.section	.text.xTimerIsTimerActive,"ax",%progbits
 1874              		.align	1
 1875              		.global	xTimerIsTimerActive
 1876              		.syntax unified
 1877              		.thumb
 1878              		.thumb_func
 1879              		.fpu fpv5-d16
 1881              	xTimerIsTimerActive:
 1882              	.LVL144:
 1883              	.LFB22:
 943:Middlewares/Third_Party/FreeRTOS/Source/timers.c **** /*-----------------------------------------------------------*/
 944:Middlewares/Third_Party/FreeRTOS/Source/timers.c **** 
 945:Middlewares/Third_Party/FreeRTOS/Source/timers.c **** BaseType_t xTimerIsTimerActive( TimerHandle_t xTimer )
 946:Middlewares/Third_Party/FreeRTOS/Source/timers.c **** {
 1884              		.loc 1 946 1 view -0
 1885              		.cfi_startproc
 1886              		@ args = 0, pretend = 0, frame = 0
 1887              		@ frame_needed = 0, uses_anonymous_args = 0
 947:Middlewares/Third_Party/FreeRTOS/Source/timers.c **** BaseType_t xTimerIsInActiveList;
 1888              		.loc 1 947 1 view .LVU489
ARM GAS  /tmp/ccPfK4K4.s 			page 61


 948:Middlewares/Third_Party/FreeRTOS/Source/timers.c **** Timer_t *pxTimer = ( Timer_t * ) xTimer;
 1889              		.loc 1 948 1 view .LVU490
 949:Middlewares/Third_Party/FreeRTOS/Source/timers.c **** 
 950:Middlewares/Third_Party/FreeRTOS/Source/timers.c **** 	configASSERT( xTimer );
 1890              		.loc 1 950 2 view .LVU491
 1891 0000 58B1     		cbz	r0, .L139
 946:Middlewares/Third_Party/FreeRTOS/Source/timers.c **** BaseType_t xTimerIsInActiveList;
 1892              		.loc 1 946 1 is_stmt 0 discriminator 2 view .LVU492
 1893 0002 10B5     		push	{r4, lr}
 1894              	.LCFI39:
 1895              		.cfi_def_cfa_offset 8
 1896              		.cfi_offset 4, -8
 1897              		.cfi_offset 14, -4
 1898 0004 0446     		mov	r4, r0
 1899              		.loc 1 950 24 is_stmt 1 discriminator 2 view .LVU493
 951:Middlewares/Third_Party/FreeRTOS/Source/timers.c **** 
 952:Middlewares/Third_Party/FreeRTOS/Source/timers.c **** 	/* Is the timer in the list of active timers? */
 953:Middlewares/Third_Party/FreeRTOS/Source/timers.c **** 	taskENTER_CRITICAL();
 1900              		.loc 1 953 2 discriminator 2 view .LVU494
 1901 0006 FFF7FEFF 		bl	vPortEnterCritical
 1902              	.LVL145:
 954:Middlewares/Third_Party/FreeRTOS/Source/timers.c **** 	{
 955:Middlewares/Third_Party/FreeRTOS/Source/timers.c **** 		/* Checking to see if it is in the NULL list in effect checks to see if
 956:Middlewares/Third_Party/FreeRTOS/Source/timers.c **** 		it is referenced from either the current or the overflow timer lists in
 957:Middlewares/Third_Party/FreeRTOS/Source/timers.c **** 		one go, but the logic has to be reversed, hence the '!'. */
 958:Middlewares/Third_Party/FreeRTOS/Source/timers.c **** 		xTimerIsInActiveList = ( BaseType_t ) !( listIS_CONTAINED_WITHIN( NULL, &( pxTimer->xTimerListIte
 1903              		.loc 1 958 3 discriminator 2 view .LVU495
 1904              		.loc 1 958 44 is_stmt 0 discriminator 2 view .LVU496
 1905 000a 6469     		ldr	r4, [r4, #20]
 1906              	.LVL146:
 1907              		.loc 1 958 26 discriminator 2 view .LVU497
 1908 000c 003C     		subs	r4, r4, #0
 1909 000e 18BF     		it	ne
 1910 0010 0124     		movne	r4, #1
 1911              	.LVL147:
 959:Middlewares/Third_Party/FreeRTOS/Source/timers.c **** 	}
 960:Middlewares/Third_Party/FreeRTOS/Source/timers.c **** 	taskEXIT_CRITICAL();
 1912              		.loc 1 960 2 is_stmt 1 discriminator 2 view .LVU498
 1913 0012 FFF7FEFF 		bl	vPortExitCritical
 1914              	.LVL148:
 961:Middlewares/Third_Party/FreeRTOS/Source/timers.c **** 
 962:Middlewares/Third_Party/FreeRTOS/Source/timers.c **** 	return xTimerIsInActiveList;
 1915              		.loc 1 962 2 discriminator 2 view .LVU499
 963:Middlewares/Third_Party/FreeRTOS/Source/timers.c **** } /*lint !e818 Can't be pointer to const due to the typedef. */
 1916              		.loc 1 963 1 is_stmt 0 discriminator 2 view .LVU500
 1917 0016 2046     		mov	r0, r4
 1918 0018 10BD     		pop	{r4, pc}
 1919              	.LVL149:
 1920              	.L139:
 1921              	.LCFI40:
 1922              		.cfi_def_cfa_offset 0
 1923              		.cfi_restore 4
 1924              		.cfi_restore 14
 950:Middlewares/Third_Party/FreeRTOS/Source/timers.c **** 
 1925              		.loc 1 950 2 is_stmt 1 view .LVU501
 1926              	.LBB71:
 1927              	.LBI71:
ARM GAS  /tmp/ccPfK4K4.s 			page 62


 191:Middlewares/Third_Party/FreeRTOS/Source/portable/GCC/ARM_CM4F/portmacro.h **** {
 1928              		.loc 2 191 30 view .LVU502
 1929              	.LBB72:
 193:Middlewares/Third_Party/FreeRTOS/Source/portable/GCC/ARM_CM4F/portmacro.h **** 
 1930              		.loc 2 193 1 view .LVU503
 1931              		.loc 2 195 2 view .LVU504
 1932              		.syntax unified
 1933              	@ 195 "Middlewares/Third_Party/FreeRTOS/Source/portable/GCC/ARM_CM4F/portmacro.h" 1
 1934 001a 4FF05003 			mov r3, #80												
 1935 001e 83F31188 		msr basepri, r3											
 1936 0022 BFF36F8F 		isb														
 1937 0026 BFF34F8F 		dsb														
 1938              	
 1939              	@ 0 "" 2
 1940              	.LVL150:
 1941              		.thumb
 1942              		.syntax unified
 1943              	.L136:
 1944              		.loc 2 195 2 is_stmt 0 view .LVU505
 1945              	.LBE72:
 1946              	.LBE71:
 950:Middlewares/Third_Party/FreeRTOS/Source/timers.c **** 
 1947              		.loc 1 950 2 is_stmt 1 discriminator 1 view .LVU506
 950:Middlewares/Third_Party/FreeRTOS/Source/timers.c **** 
 1948              		.loc 1 950 2 discriminator 1 view .LVU507
 1949 002a FEE7     		b	.L136
 1950              		.cfi_endproc
 1951              	.LFE22:
 1953              		.section	.text.pvTimerGetTimerID,"ax",%progbits
 1954              		.align	1
 1955              		.global	pvTimerGetTimerID
 1956              		.syntax unified
 1957              		.thumb
 1958              		.thumb_func
 1959              		.fpu fpv5-d16
 1961              	pvTimerGetTimerID:
 1962              	.LVL151:
 1963              	.LFB23:
 964:Middlewares/Third_Party/FreeRTOS/Source/timers.c **** /*-----------------------------------------------------------*/
 965:Middlewares/Third_Party/FreeRTOS/Source/timers.c **** 
 966:Middlewares/Third_Party/FreeRTOS/Source/timers.c **** void *pvTimerGetTimerID( const TimerHandle_t xTimer )
 967:Middlewares/Third_Party/FreeRTOS/Source/timers.c **** {
 1964              		.loc 1 967 1 view -0
 1965              		.cfi_startproc
 1966              		@ args = 0, pretend = 0, frame = 0
 1967              		@ frame_needed = 0, uses_anonymous_args = 0
 968:Middlewares/Third_Party/FreeRTOS/Source/timers.c **** Timer_t * const pxTimer = ( Timer_t * ) xTimer;
 1968              		.loc 1 968 1 view .LVU509
 969:Middlewares/Third_Party/FreeRTOS/Source/timers.c **** void *pvReturn;
 1969              		.loc 1 969 1 view .LVU510
 970:Middlewares/Third_Party/FreeRTOS/Source/timers.c **** 
 971:Middlewares/Third_Party/FreeRTOS/Source/timers.c **** 	configASSERT( xTimer );
 1970              		.loc 1 971 2 view .LVU511
 1971 0000 40B1     		cbz	r0, .L145
 967:Middlewares/Third_Party/FreeRTOS/Source/timers.c **** Timer_t * const pxTimer = ( Timer_t * ) xTimer;
 1972              		.loc 1 967 1 is_stmt 0 discriminator 2 view .LVU512
 1973 0002 10B5     		push	{r4, lr}
ARM GAS  /tmp/ccPfK4K4.s 			page 63


 1974              	.LCFI41:
 1975              		.cfi_def_cfa_offset 8
 1976              		.cfi_offset 4, -8
 1977              		.cfi_offset 14, -4
 1978 0004 0446     		mov	r4, r0
 1979              		.loc 1 971 24 is_stmt 1 discriminator 2 view .LVU513
 972:Middlewares/Third_Party/FreeRTOS/Source/timers.c **** 
 973:Middlewares/Third_Party/FreeRTOS/Source/timers.c **** 	taskENTER_CRITICAL();
 1980              		.loc 1 973 2 discriminator 2 view .LVU514
 1981 0006 FFF7FEFF 		bl	vPortEnterCritical
 1982              	.LVL152:
 974:Middlewares/Third_Party/FreeRTOS/Source/timers.c **** 	{
 975:Middlewares/Third_Party/FreeRTOS/Source/timers.c **** 		pvReturn = pxTimer->pvTimerID;
 1983              		.loc 1 975 3 discriminator 2 view .LVU515
 1984              		.loc 1 975 12 is_stmt 0 discriminator 2 view .LVU516
 1985 000a 246A     		ldr	r4, [r4, #32]
 1986              	.LVL153:
 976:Middlewares/Third_Party/FreeRTOS/Source/timers.c **** 	}
 977:Middlewares/Third_Party/FreeRTOS/Source/timers.c **** 	taskEXIT_CRITICAL();
 1987              		.loc 1 977 2 is_stmt 1 discriminator 2 view .LVU517
 1988 000c FFF7FEFF 		bl	vPortExitCritical
 1989              	.LVL154:
 978:Middlewares/Third_Party/FreeRTOS/Source/timers.c **** 
 979:Middlewares/Third_Party/FreeRTOS/Source/timers.c **** 	return pvReturn;
 1990              		.loc 1 979 2 discriminator 2 view .LVU518
 980:Middlewares/Third_Party/FreeRTOS/Source/timers.c **** }
 1991              		.loc 1 980 1 is_stmt 0 discriminator 2 view .LVU519
 1992 0010 2046     		mov	r0, r4
 1993 0012 10BD     		pop	{r4, pc}
 1994              	.LVL155:
 1995              	.L145:
 1996              	.LCFI42:
 1997              		.cfi_def_cfa_offset 0
 1998              		.cfi_restore 4
 1999              		.cfi_restore 14
 971:Middlewares/Third_Party/FreeRTOS/Source/timers.c **** 
 2000              		.loc 1 971 2 is_stmt 1 view .LVU520
 2001              	.LBB73:
 2002              	.LBI73:
 191:Middlewares/Third_Party/FreeRTOS/Source/portable/GCC/ARM_CM4F/portmacro.h **** {
 2003              		.loc 2 191 30 view .LVU521
 2004              	.LBB74:
 193:Middlewares/Third_Party/FreeRTOS/Source/portable/GCC/ARM_CM4F/portmacro.h **** 
 2005              		.loc 2 193 1 view .LVU522
 2006              		.loc 2 195 2 view .LVU523
 2007              		.syntax unified
 2008              	@ 195 "Middlewares/Third_Party/FreeRTOS/Source/portable/GCC/ARM_CM4F/portmacro.h" 1
 2009 0014 4FF05003 			mov r3, #80												
 2010 0018 83F31188 		msr basepri, r3											
 2011 001c BFF36F8F 		isb														
 2012 0020 BFF34F8F 		dsb														
 2013              	
 2014              	@ 0 "" 2
 2015              	.LVL156:
 2016              		.thumb
 2017              		.syntax unified
 2018              	.L142:
ARM GAS  /tmp/ccPfK4K4.s 			page 64


 2019              		.loc 2 195 2 is_stmt 0 view .LVU524
 2020              	.LBE74:
 2021              	.LBE73:
 971:Middlewares/Third_Party/FreeRTOS/Source/timers.c **** 
 2022              		.loc 1 971 2 is_stmt 1 discriminator 1 view .LVU525
 971:Middlewares/Third_Party/FreeRTOS/Source/timers.c **** 
 2023              		.loc 1 971 2 discriminator 1 view .LVU526
 2024 0024 FEE7     		b	.L142
 2025              		.cfi_endproc
 2026              	.LFE23:
 2028              		.section	.text.vTimerSetTimerID,"ax",%progbits
 2029              		.align	1
 2030              		.global	vTimerSetTimerID
 2031              		.syntax unified
 2032              		.thumb
 2033              		.thumb_func
 2034              		.fpu fpv5-d16
 2036              	vTimerSetTimerID:
 2037              	.LVL157:
 2038              	.LFB24:
 981:Middlewares/Third_Party/FreeRTOS/Source/timers.c **** /*-----------------------------------------------------------*/
 982:Middlewares/Third_Party/FreeRTOS/Source/timers.c **** 
 983:Middlewares/Third_Party/FreeRTOS/Source/timers.c **** void vTimerSetTimerID( TimerHandle_t xTimer, void *pvNewID )
 984:Middlewares/Third_Party/FreeRTOS/Source/timers.c **** {
 2039              		.loc 1 984 1 view -0
 2040              		.cfi_startproc
 2041              		@ args = 0, pretend = 0, frame = 0
 2042              		@ frame_needed = 0, uses_anonymous_args = 0
 2043              		.loc 1 984 1 is_stmt 0 view .LVU528
 2044 0000 38B5     		push	{r3, r4, r5, lr}
 2045              	.LCFI43:
 2046              		.cfi_def_cfa_offset 16
 2047              		.cfi_offset 3, -16
 2048              		.cfi_offset 4, -12
 2049              		.cfi_offset 5, -8
 2050              		.cfi_offset 14, -4
 985:Middlewares/Third_Party/FreeRTOS/Source/timers.c **** Timer_t * const pxTimer = ( Timer_t * ) xTimer;
 2051              		.loc 1 985 1 is_stmt 1 view .LVU529
 2052              	.LVL158:
 986:Middlewares/Third_Party/FreeRTOS/Source/timers.c **** 
 987:Middlewares/Third_Party/FreeRTOS/Source/timers.c **** 	configASSERT( xTimer );
 2053              		.loc 1 987 2 view .LVU530
 2054 0002 38B1     		cbz	r0, .L150
 2055 0004 0C46     		mov	r4, r1
 2056 0006 0546     		mov	r5, r0
 2057              		.loc 1 987 24 discriminator 2 view .LVU531
 988:Middlewares/Third_Party/FreeRTOS/Source/timers.c **** 
 989:Middlewares/Third_Party/FreeRTOS/Source/timers.c **** 	taskENTER_CRITICAL();
 2058              		.loc 1 989 2 discriminator 2 view .LVU532
 2059 0008 FFF7FEFF 		bl	vPortEnterCritical
 2060              	.LVL159:
 990:Middlewares/Third_Party/FreeRTOS/Source/timers.c **** 	{
 991:Middlewares/Third_Party/FreeRTOS/Source/timers.c **** 		pxTimer->pvTimerID = pvNewID;
 2061              		.loc 1 991 3 discriminator 2 view .LVU533
 2062              		.loc 1 991 22 is_stmt 0 discriminator 2 view .LVU534
 2063 000c 2C62     		str	r4, [r5, #32]
 992:Middlewares/Third_Party/FreeRTOS/Source/timers.c **** 	}
ARM GAS  /tmp/ccPfK4K4.s 			page 65


 993:Middlewares/Third_Party/FreeRTOS/Source/timers.c **** 	taskEXIT_CRITICAL();
 2064              		.loc 1 993 2 is_stmt 1 discriminator 2 view .LVU535
 2065 000e FFF7FEFF 		bl	vPortExitCritical
 2066              	.LVL160:
 994:Middlewares/Third_Party/FreeRTOS/Source/timers.c **** }
 2067              		.loc 1 994 1 is_stmt 0 discriminator 2 view .LVU536
 2068 0012 38BD     		pop	{r3, r4, r5, pc}
 2069              	.LVL161:
 2070              	.L150:
 987:Middlewares/Third_Party/FreeRTOS/Source/timers.c **** 
 2071              		.loc 1 987 2 is_stmt 1 view .LVU537
 2072              	.LBB75:
 2073              	.LBI75:
 191:Middlewares/Third_Party/FreeRTOS/Source/portable/GCC/ARM_CM4F/portmacro.h **** {
 2074              		.loc 2 191 30 view .LVU538
 2075              	.LBB76:
 193:Middlewares/Third_Party/FreeRTOS/Source/portable/GCC/ARM_CM4F/portmacro.h **** 
 2076              		.loc 2 193 1 view .LVU539
 2077              		.loc 2 195 2 view .LVU540
 2078              		.syntax unified
 2079              	@ 195 "Middlewares/Third_Party/FreeRTOS/Source/portable/GCC/ARM_CM4F/portmacro.h" 1
 2080 0014 4FF05003 			mov r3, #80												
 2081 0018 83F31188 		msr basepri, r3											
 2082 001c BFF36F8F 		isb														
 2083 0020 BFF34F8F 		dsb														
 2084              	
 2085              	@ 0 "" 2
 2086              	.LVL162:
 2087              		.thumb
 2088              		.syntax unified
 2089              	.L148:
 2090              		.loc 2 195 2 is_stmt 0 view .LVU541
 2091              	.LBE76:
 2092              	.LBE75:
 987:Middlewares/Third_Party/FreeRTOS/Source/timers.c **** 
 2093              		.loc 1 987 2 is_stmt 1 discriminator 1 view .LVU542
 987:Middlewares/Third_Party/FreeRTOS/Source/timers.c **** 
 2094              		.loc 1 987 2 discriminator 1 view .LVU543
 2095 0024 FEE7     		b	.L148
 2096              		.cfi_endproc
 2097              	.LFE24:
 2099              		.section	.text.xTimerPendFunctionCallFromISR,"ax",%progbits
 2100              		.align	1
 2101              		.global	xTimerPendFunctionCallFromISR
 2102              		.syntax unified
 2103              		.thumb
 2104              		.thumb_func
 2105              		.fpu fpv5-d16
 2107              	xTimerPendFunctionCallFromISR:
 2108              	.LVL163:
 2109              	.LFB25:
 995:Middlewares/Third_Party/FreeRTOS/Source/timers.c **** /*-----------------------------------------------------------*/
 996:Middlewares/Third_Party/FreeRTOS/Source/timers.c **** 
 997:Middlewares/Third_Party/FreeRTOS/Source/timers.c **** #if( INCLUDE_xTimerPendFunctionCall == 1 )
 998:Middlewares/Third_Party/FreeRTOS/Source/timers.c **** 
 999:Middlewares/Third_Party/FreeRTOS/Source/timers.c **** 	BaseType_t xTimerPendFunctionCallFromISR( PendedFunction_t xFunctionToPend, void *pvParameter1, ui
1000:Middlewares/Third_Party/FreeRTOS/Source/timers.c **** 	{
ARM GAS  /tmp/ccPfK4K4.s 			page 66


 2110              		.loc 1 1000 2 view -0
 2111              		.cfi_startproc
 2112              		@ args = 0, pretend = 0, frame = 16
 2113              		@ frame_needed = 0, uses_anonymous_args = 0
 2114              		.loc 1 1000 2 is_stmt 0 view .LVU545
 2115 0000 10B5     		push	{r4, lr}
 2116              	.LCFI44:
 2117              		.cfi_def_cfa_offset 8
 2118              		.cfi_offset 4, -8
 2119              		.cfi_offset 14, -4
 2120 0002 84B0     		sub	sp, sp, #16
 2121              	.LCFI45:
 2122              		.cfi_def_cfa_offset 24
 2123 0004 1446     		mov	r4, r2
 2124 0006 1A46     		mov	r2, r3
 2125              	.LVL164:
1001:Middlewares/Third_Party/FreeRTOS/Source/timers.c **** 	DaemonTaskMessage_t xMessage;
 2126              		.loc 1 1001 2 is_stmt 1 view .LVU546
1002:Middlewares/Third_Party/FreeRTOS/Source/timers.c **** 	BaseType_t xReturn;
 2127              		.loc 1 1002 2 view .LVU547
1003:Middlewares/Third_Party/FreeRTOS/Source/timers.c **** 
1004:Middlewares/Third_Party/FreeRTOS/Source/timers.c **** 		/* Complete the message with the function parameters and post it to the
1005:Middlewares/Third_Party/FreeRTOS/Source/timers.c **** 		daemon task. */
1006:Middlewares/Third_Party/FreeRTOS/Source/timers.c **** 		xMessage.xMessageID = tmrCOMMAND_EXECUTE_CALLBACK_FROM_ISR;
 2128              		.loc 1 1006 3 view .LVU548
 2129              		.loc 1 1006 23 is_stmt 0 view .LVU549
 2130 0008 6FF00103 		mvn	r3, #1
 2131              	.LVL165:
 2132              		.loc 1 1006 23 view .LVU550
 2133 000c 0093     		str	r3, [sp]
1007:Middlewares/Third_Party/FreeRTOS/Source/timers.c **** 		xMessage.u.xCallbackParameters.pxCallbackFunction = xFunctionToPend;
 2134              		.loc 1 1007 3 is_stmt 1 view .LVU551
 2135              		.loc 1 1007 53 is_stmt 0 view .LVU552
 2136 000e 0190     		str	r0, [sp, #4]
1008:Middlewares/Third_Party/FreeRTOS/Source/timers.c **** 		xMessage.u.xCallbackParameters.pvParameter1 = pvParameter1;
 2137              		.loc 1 1008 3 is_stmt 1 view .LVU553
 2138              		.loc 1 1008 47 is_stmt 0 view .LVU554
 2139 0010 0291     		str	r1, [sp, #8]
1009:Middlewares/Third_Party/FreeRTOS/Source/timers.c **** 		xMessage.u.xCallbackParameters.ulParameter2 = ulParameter2;
 2140              		.loc 1 1009 3 is_stmt 1 view .LVU555
 2141              		.loc 1 1009 47 is_stmt 0 view .LVU556
 2142 0012 0394     		str	r4, [sp, #12]
1010:Middlewares/Third_Party/FreeRTOS/Source/timers.c **** 
1011:Middlewares/Third_Party/FreeRTOS/Source/timers.c **** 		xReturn = xQueueSendFromISR( xTimerQueue, &xMessage, pxHigherPriorityTaskWoken );
 2143              		.loc 1 1011 3 is_stmt 1 view .LVU557
 2144              		.loc 1 1011 13 is_stmt 0 view .LVU558
 2145 0014 0023     		movs	r3, #0
 2146 0016 6946     		mov	r1, sp
 2147              	.LVL166:
 2148              		.loc 1 1011 13 view .LVU559
 2149 0018 0248     		ldr	r0, .L153
 2150              	.LVL167:
 2151              		.loc 1 1011 13 view .LVU560
 2152 001a 0068     		ldr	r0, [r0]
 2153 001c FFF7FEFF 		bl	xQueueGenericSendFromISR
 2154              	.LVL168:
1012:Middlewares/Third_Party/FreeRTOS/Source/timers.c **** 
ARM GAS  /tmp/ccPfK4K4.s 			page 67


1013:Middlewares/Third_Party/FreeRTOS/Source/timers.c **** 		tracePEND_FUNC_CALL_FROM_ISR( xFunctionToPend, pvParameter1, ulParameter2, xReturn );
 2155              		.loc 1 1013 87 is_stmt 1 view .LVU561
1014:Middlewares/Third_Party/FreeRTOS/Source/timers.c **** 
1015:Middlewares/Third_Party/FreeRTOS/Source/timers.c **** 		return xReturn;
 2156              		.loc 1 1015 3 view .LVU562
1016:Middlewares/Third_Party/FreeRTOS/Source/timers.c **** 	}
 2157              		.loc 1 1016 2 is_stmt 0 view .LVU563
 2158 0020 04B0     		add	sp, sp, #16
 2159              	.LCFI46:
 2160              		.cfi_def_cfa_offset 8
 2161              		@ sp needed
 2162 0022 10BD     		pop	{r4, pc}
 2163              	.LVL169:
 2164              	.L154:
 2165              		.loc 1 1016 2 view .LVU564
 2166              		.align	2
 2167              	.L153:
 2168 0024 00000000 		.word	.LANCHOR2
 2169              		.cfi_endproc
 2170              	.LFE25:
 2172              		.section	.text.xTimerPendFunctionCall,"ax",%progbits
 2173              		.align	1
 2174              		.global	xTimerPendFunctionCall
 2175              		.syntax unified
 2176              		.thumb
 2177              		.thumb_func
 2178              		.fpu fpv5-d16
 2180              	xTimerPendFunctionCall:
 2181              	.LVL170:
 2182              	.LFB26:
1017:Middlewares/Third_Party/FreeRTOS/Source/timers.c **** 
1018:Middlewares/Third_Party/FreeRTOS/Source/timers.c **** #endif /* INCLUDE_xTimerPendFunctionCall */
1019:Middlewares/Third_Party/FreeRTOS/Source/timers.c **** /*-----------------------------------------------------------*/
1020:Middlewares/Third_Party/FreeRTOS/Source/timers.c **** 
1021:Middlewares/Third_Party/FreeRTOS/Source/timers.c **** #if( INCLUDE_xTimerPendFunctionCall == 1 )
1022:Middlewares/Third_Party/FreeRTOS/Source/timers.c **** 
1023:Middlewares/Third_Party/FreeRTOS/Source/timers.c **** 	BaseType_t xTimerPendFunctionCall( PendedFunction_t xFunctionToPend, void *pvParameter1, uint32_t 
1024:Middlewares/Third_Party/FreeRTOS/Source/timers.c **** 	{
 2183              		.loc 1 1024 2 is_stmt 1 view -0
 2184              		.cfi_startproc
 2185              		@ args = 0, pretend = 0, frame = 16
 2186              		@ frame_needed = 0, uses_anonymous_args = 0
 2187              		.loc 1 1024 2 is_stmt 0 view .LVU566
 2188 0000 30B5     		push	{r4, r5, lr}
 2189              	.LCFI47:
 2190              		.cfi_def_cfa_offset 12
 2191              		.cfi_offset 4, -12
 2192              		.cfi_offset 5, -8
 2193              		.cfi_offset 14, -4
 2194 0002 85B0     		sub	sp, sp, #20
 2195              	.LCFI48:
 2196              		.cfi_def_cfa_offset 32
 2197 0004 0546     		mov	r5, r0
 2198 0006 0C46     		mov	r4, r1
 2199 0008 1146     		mov	r1, r2
 2200              	.LVL171:
 2201              		.loc 1 1024 2 view .LVU567
ARM GAS  /tmp/ccPfK4K4.s 			page 68


 2202 000a 1A46     		mov	r2, r3
 2203              	.LVL172:
1025:Middlewares/Third_Party/FreeRTOS/Source/timers.c **** 	DaemonTaskMessage_t xMessage;
 2204              		.loc 1 1025 2 is_stmt 1 view .LVU568
1026:Middlewares/Third_Party/FreeRTOS/Source/timers.c **** 	BaseType_t xReturn;
 2205              		.loc 1 1026 2 view .LVU569
1027:Middlewares/Third_Party/FreeRTOS/Source/timers.c **** 
1028:Middlewares/Third_Party/FreeRTOS/Source/timers.c **** 		/* This function can only be called after a timer has been created or
1029:Middlewares/Third_Party/FreeRTOS/Source/timers.c **** 		after the scheduler has been started because, until then, the timer
1030:Middlewares/Third_Party/FreeRTOS/Source/timers.c **** 		queue does not exist. */
1031:Middlewares/Third_Party/FreeRTOS/Source/timers.c **** 		configASSERT( xTimerQueue );
 2206              		.loc 1 1031 3 view .LVU570
 2207 000c 0B4B     		ldr	r3, .L160
 2208              	.LVL173:
 2209              		.loc 1 1031 3 is_stmt 0 view .LVU571
 2210 000e 1868     		ldr	r0, [r3]
 2211              	.LVL174:
 2212              		.loc 1 1031 3 view .LVU572
 2213 0010 58B1     		cbz	r0, .L159
 2214              		.loc 1 1031 30 is_stmt 1 discriminator 2 view .LVU573
1032:Middlewares/Third_Party/FreeRTOS/Source/timers.c **** 
1033:Middlewares/Third_Party/FreeRTOS/Source/timers.c **** 		/* Complete the message with the function parameters and post it to the
1034:Middlewares/Third_Party/FreeRTOS/Source/timers.c **** 		daemon task. */
1035:Middlewares/Third_Party/FreeRTOS/Source/timers.c **** 		xMessage.xMessageID = tmrCOMMAND_EXECUTE_CALLBACK;
 2215              		.loc 1 1035 3 discriminator 2 view .LVU574
 2216              		.loc 1 1035 23 is_stmt 0 discriminator 2 view .LVU575
 2217 0012 4FF0FF33 		mov	r3, #-1
 2218 0016 0093     		str	r3, [sp]
1036:Middlewares/Third_Party/FreeRTOS/Source/timers.c **** 		xMessage.u.xCallbackParameters.pxCallbackFunction = xFunctionToPend;
 2219              		.loc 1 1036 3 is_stmt 1 discriminator 2 view .LVU576
 2220              		.loc 1 1036 53 is_stmt 0 discriminator 2 view .LVU577
 2221 0018 0195     		str	r5, [sp, #4]
1037:Middlewares/Third_Party/FreeRTOS/Source/timers.c **** 		xMessage.u.xCallbackParameters.pvParameter1 = pvParameter1;
 2222              		.loc 1 1037 3 is_stmt 1 discriminator 2 view .LVU578
 2223              		.loc 1 1037 47 is_stmt 0 discriminator 2 view .LVU579
 2224 001a 0294     		str	r4, [sp, #8]
1038:Middlewares/Third_Party/FreeRTOS/Source/timers.c **** 		xMessage.u.xCallbackParameters.ulParameter2 = ulParameter2;
 2225              		.loc 1 1038 3 is_stmt 1 discriminator 2 view .LVU580
 2226              		.loc 1 1038 47 is_stmt 0 discriminator 2 view .LVU581
 2227 001c 0391     		str	r1, [sp, #12]
1039:Middlewares/Third_Party/FreeRTOS/Source/timers.c **** 
1040:Middlewares/Third_Party/FreeRTOS/Source/timers.c **** 		xReturn = xQueueSendToBack( xTimerQueue, &xMessage, xTicksToWait );
 2228              		.loc 1 1040 3 is_stmt 1 discriminator 2 view .LVU582
 2229              		.loc 1 1040 13 is_stmt 0 discriminator 2 view .LVU583
 2230 001e 0023     		movs	r3, #0
 2231 0020 6946     		mov	r1, sp
 2232              	.LVL175:
 2233              		.loc 1 1040 13 discriminator 2 view .LVU584
 2234 0022 FFF7FEFF 		bl	xQueueGenericSend
 2235              	.LVL176:
1041:Middlewares/Third_Party/FreeRTOS/Source/timers.c **** 
1042:Middlewares/Third_Party/FreeRTOS/Source/timers.c **** 		tracePEND_FUNC_CALL( xFunctionToPend, pvParameter1, ulParameter2, xReturn );
 2236              		.loc 1 1042 78 is_stmt 1 discriminator 2 view .LVU585
1043:Middlewares/Third_Party/FreeRTOS/Source/timers.c **** 
1044:Middlewares/Third_Party/FreeRTOS/Source/timers.c **** 		return xReturn;
 2237              		.loc 1 1044 3 discriminator 2 view .LVU586
1045:Middlewares/Third_Party/FreeRTOS/Source/timers.c **** 	}
ARM GAS  /tmp/ccPfK4K4.s 			page 69


 2238              		.loc 1 1045 2 is_stmt 0 discriminator 2 view .LVU587
 2239 0026 05B0     		add	sp, sp, #20
 2240              	.LCFI49:
 2241              		.cfi_remember_state
 2242              		.cfi_def_cfa_offset 12
 2243              		@ sp needed
 2244 0028 30BD     		pop	{r4, r5, pc}
 2245              	.LVL177:
 2246              	.L159:
 2247              	.LCFI50:
 2248              		.cfi_restore_state
1031:Middlewares/Third_Party/FreeRTOS/Source/timers.c **** 
 2249              		.loc 1 1031 3 is_stmt 1 view .LVU588
 2250              	.LBB77:
 2251              	.LBI77:
 191:Middlewares/Third_Party/FreeRTOS/Source/portable/GCC/ARM_CM4F/portmacro.h **** {
 2252              		.loc 2 191 30 view .LVU589
 2253              	.LBB78:
 193:Middlewares/Third_Party/FreeRTOS/Source/portable/GCC/ARM_CM4F/portmacro.h **** 
 2254              		.loc 2 193 1 view .LVU590
 2255              		.loc 2 195 2 view .LVU591
 2256              		.syntax unified
 2257              	@ 195 "Middlewares/Third_Party/FreeRTOS/Source/portable/GCC/ARM_CM4F/portmacro.h" 1
 2258 002a 4FF05003 			mov r3, #80												
 2259 002e 83F31188 		msr basepri, r3											
 2260 0032 BFF36F8F 		isb														
 2261 0036 BFF34F8F 		dsb														
 2262              	
 2263              	@ 0 "" 2
 2264              	.LVL178:
 2265              		.thumb
 2266              		.syntax unified
 2267              	.L157:
 2268              		.loc 2 195 2 is_stmt 0 view .LVU592
 2269              	.LBE78:
 2270              	.LBE77:
1031:Middlewares/Third_Party/FreeRTOS/Source/timers.c **** 
 2271              		.loc 1 1031 3 is_stmt 1 discriminator 1 view .LVU593
1031:Middlewares/Third_Party/FreeRTOS/Source/timers.c **** 
 2272              		.loc 1 1031 3 discriminator 1 view .LVU594
 2273 003a FEE7     		b	.L157
 2274              	.L161:
 2275              		.align	2
 2276              	.L160:
 2277 003c 00000000 		.word	.LANCHOR2
 2278              		.cfi_endproc
 2279              	.LFE26:
 2281              		.section	.text.uxTimerGetTimerNumber,"ax",%progbits
 2282              		.align	1
 2283              		.global	uxTimerGetTimerNumber
 2284              		.syntax unified
 2285              		.thumb
 2286              		.thumb_func
 2287              		.fpu fpv5-d16
 2289              	uxTimerGetTimerNumber:
 2290              	.LVL179:
 2291              	.LFB27:
ARM GAS  /tmp/ccPfK4K4.s 			page 70


1046:Middlewares/Third_Party/FreeRTOS/Source/timers.c **** 
